; Listing generated by Microsoft (R) Optimizing Compiler Version 19.23.28106.4 

include listing.inc

INCLUDELIB MSVCRT
INCLUDELIB OLDNAMES

PUBLIC	?cos@@YAMM@Z					; cos
PUBLIC	?sin@@YAMM@Z					; sin
PUBLIC	??0<unnamed-type-signs0>@QUAT@DATA@XGK@@QEAA@XZ	; XGK::DATA::QUAT::<unnamed-type-signs0>::<unnamed-type-signs0>
PUBLIC	??0<unnamed-type-signs1>@QUAT@DATA@XGK@@QEAA@XZ	; XGK::DATA::QUAT::<unnamed-type-signs1>::<unnamed-type-signs1>
PUBLIC	?premul128@QUAT@DATA@XGK@@YAXPEAX0@Z		; XGK::DATA::QUAT::premul128
PUBLIC	?postmul128@QUAT@DATA@XGK@@YAXPEAX0@Z		; XGK::DATA::QUAT::postmul128
PUBLIC	?makeRotation128@QUAT@DATA@XGK@@YAXPEAX0M@Z	; XGK::DATA::QUAT::makeRotation128
PUBLIC	?signs0@QUAT@DATA@XGK@@3T<unnamed-type-signs0>@123@A ; XGK::DATA::QUAT::signs0
PUBLIC	?signs1@QUAT@DATA@XGK@@3T<unnamed-type-signs1>@123@A ; XGK::DATA::QUAT::signs1
PUBLIC	__real@3f000000
EXTRN	cosf:PROC
EXTRN	sinf:PROC
EXTRN	_fltused:DWORD
;	COMDAT pdata
pdata	SEGMENT
$pdata$?makeRotation128@QUAT@DATA@XGK@@YAXPEAX0M@Z DD imagerel $LN9
	DD	imagerel $LN9+79
	DD	imagerel $unwind$?makeRotation128@QUAT@DATA@XGK@@YAXPEAX0M@Z
pdata	ENDS
;	COMDAT __real@3f000000
CONST	SEGMENT
__real@3f000000 DD 03f000000r			; 0.5
CONST	ENDS
_DATA	SEGMENT
?signs0@QUAT@DATA@XGK@@3T<unnamed-type-signs0>@123@A DD 0bf800000r ; -1 ; XGK::DATA::QUAT::signs0
	DD	0bf800000r			; -1
	DD	03f800000r			; 1
	DD	03f800000r			; 1
?signs1@QUAT@DATA@XGK@@3T<unnamed-type-signs1>@123@A DD 03f800000r ; 1 ; XGK::DATA::QUAT::signs1
	DD	03f800000r			; 1
	DD	03f800000r			; 1
	DD	0bf800000r			; -1
_DATA	ENDS
;	COMDAT xdata
xdata	SEGMENT
$unwind$?makeRotation128@QUAT@DATA@XGK@@YAXPEAX0M@Z DD 061601H
	DD	027816H
	DD	03680bH
	DD	030027206H
xdata	ENDS
; Function compile flags: /Ogtpy
;	COMDAT ?makeRotation128@QUAT@DATA@XGK@@YAXPEAX0M@Z
_TEXT	SEGMENT
data$ = 80
axis$ = 88
angle$ = 96
?makeRotation128@QUAT@DATA@XGK@@YAXPEAX0M@Z PROC	; XGK::DATA::QUAT::makeRotation128, COMDAT
; File E:\reps\denis-belov\xgk_\src\data\quat\quat-128.cpp
; Line 78
$LN9:
	push	rbx
	sub	rsp, 64					; 00000040H
	movaps	XMMWORD PTR [rsp+48], xmm6
	mov	rbx, rcx
	movups	xmm6, XMMWORD PTR [rdx]
	movaps	XMMWORD PTR [rsp+32], xmm7
	movaps	xmm7, xmm2
	mulss	xmm7, DWORD PTR __real@3f000000
	movaps	xmm0, xmm7
	call	cosf
	movaps	xmm0, xmm7
	call	sinf
	movaps	xmm7, XMMWORD PTR [rsp+32]
	shufps	xmm0, xmm0, 0
	mulps	xmm0, xmm6
	movaps	xmm6, XMMWORD PTR [rsp+48]
	shufps	xmm0, xmm0, 27
	movups	XMMWORD PTR [rbx], xmm0
	add	rsp, 64					; 00000040H
	pop	rbx
	ret	0
?makeRotation128@QUAT@DATA@XGK@@YAXPEAX0M@Z ENDP	; XGK::DATA::QUAT::makeRotation128
_TEXT	ENDS
; Function compile flags: /Ogtpy
;	COMDAT ?postmul128@QUAT@DATA@XGK@@YAXPEAX0@Z
_TEXT	SEGMENT
data0$ = 8
data1$ = 16
?postmul128@QUAT@DATA@XGK@@YAXPEAX0@Z PROC		; XGK::DATA::QUAT::postmul128, COMDAT
; File E:\reps\denis-belov\xgk_\src\data\quat\quat-128.cpp
; Line 57
	movups	xmm3, XMMWORD PTR [rdx]
; Line 64
	movss	xmm0, DWORD PTR [rcx+12]
	movaps	xmm4, xmm3
; Line 65
	movss	xmm1, DWORD PTR [rcx]
	movaps	xmm2, xmm3
	shufps	xmm4, xmm3, 27
	shufps	xmm0, xmm0, 0
	mulps	xmm4, xmm0
; Line 66
	movss	xmm0, DWORD PTR [rcx+4]
	shufps	xmm2, xmm3, 177				; 000000b1H
	shufps	xmm0, xmm0, 0
	mulps	xmm2, xmm0
; Line 67
	movss	xmm0, DWORD PTR [rcx+8]
	shufps	xmm1, xmm1, 0
	mulps	xmm1, xmm3
	mulps	xmm2, XMMWORD PTR ?signs0@QUAT@DATA@XGK@@3T<unnamed-type-signs0>@123@A
	shufps	xmm3, xmm3, 78				; 0000004eH
; Line 69
	addsubps xmm4, xmm1
	shufps	xmm0, xmm0, 0
	mulps	xmm3, xmm0
; Line 70
	addps	xmm4, xmm2
	mulps	xmm3, XMMWORD PTR ?signs1@QUAT@DATA@XGK@@3T<unnamed-type-signs1>@123@A
; Line 71
	addps	xmm4, xmm3
; Line 73
	shufps	xmm4, xmm4, 27
	movups	XMMWORD PTR [rcx], xmm4
; Line 74
	ret	0
?postmul128@QUAT@DATA@XGK@@YAXPEAX0@Z ENDP		; XGK::DATA::QUAT::postmul128
_TEXT	ENDS
; Function compile flags: /Ogtpy
;	COMDAT ?premul128@QUAT@DATA@XGK@@YAXPEAX0@Z
_TEXT	SEGMENT
data0$ = 8
data1$ = 16
?premul128@QUAT@DATA@XGK@@YAXPEAX0@Z PROC		; XGK::DATA::QUAT::premul128, COMDAT
	movups	xmm3, XMMWORD PTR [rcx]
	movss	xmm0, DWORD PTR [rdx+12]
	movaps	xmm4, xmm3
	movss	xmm1, DWORD PTR [rdx]
	movaps	xmm2, xmm3
	shufps	xmm4, xmm3, 27
	shufps	xmm0, xmm0, 0
	mulps	xmm4, xmm0
	movss	xmm0, DWORD PTR [rdx+4]
	shufps	xmm2, xmm3, 177				; 000000b1H
	shufps	xmm0, xmm0, 0
	mulps	xmm2, xmm0
	movss	xmm0, DWORD PTR [rdx+8]
	shufps	xmm1, xmm1, 0
	mulps	xmm1, xmm3
	mulps	xmm2, XMMWORD PTR ?signs0@QUAT@DATA@XGK@@3T<unnamed-type-signs0>@123@A
	shufps	xmm3, xmm3, 78				; 0000004eH
	addsubps xmm4, xmm1
	shufps	xmm0, xmm0, 0
	mulps	xmm3, xmm0
	addps	xmm4, xmm2
	mulps	xmm3, XMMWORD PTR ?signs1@QUAT@DATA@XGK@@3T<unnamed-type-signs1>@123@A
	addps	xmm4, xmm3
	shufps	xmm4, xmm4, 27
	movups	XMMWORD PTR [rcx], xmm4
	ret	0
?premul128@QUAT@DATA@XGK@@YAXPEAX0@Z ENDP		; XGK::DATA::QUAT::premul128
_TEXT	ENDS
; Function compile flags: /Ogtpy
;	COMDAT ??0<unnamed-type-signs1>@QUAT@DATA@XGK@@QEAA@XZ
_TEXT	SEGMENT
this$ = 8
??0<unnamed-type-signs1>@QUAT@DATA@XGK@@QEAA@XZ PROC	; XGK::DATA::QUAT::<unnamed-type-signs1>::<unnamed-type-signs1>, COMDAT
	mov	DWORD PTR [rcx], 1065353216		; 3f800000H
	mov	rax, rcx
	mov	DWORD PTR [rcx+4], 1065353216		; 3f800000H
	mov	DWORD PTR [rcx+8], 1065353216		; 3f800000H
	mov	DWORD PTR [rcx+12], -1082130432		; bf800000H
	ret	0
??0<unnamed-type-signs1>@QUAT@DATA@XGK@@QEAA@XZ ENDP	; XGK::DATA::QUAT::<unnamed-type-signs1>::<unnamed-type-signs1>
_TEXT	ENDS
; Function compile flags: /Ogtpy
;	COMDAT ??0<unnamed-type-signs0>@QUAT@DATA@XGK@@QEAA@XZ
_TEXT	SEGMENT
this$ = 8
??0<unnamed-type-signs0>@QUAT@DATA@XGK@@QEAA@XZ PROC	; XGK::DATA::QUAT::<unnamed-type-signs0>::<unnamed-type-signs0>, COMDAT
	mov	DWORD PTR [rcx], -1082130432		; bf800000H
	mov	rax, rcx
	mov	DWORD PTR [rcx+4], -1082130432		; bf800000H
	mov	DWORD PTR [rcx+8], 1065353216		; 3f800000H
	mov	DWORD PTR [rcx+12], 1065353216		; 3f800000H
	ret	0
??0<unnamed-type-signs0>@QUAT@DATA@XGK@@QEAA@XZ ENDP	; XGK::DATA::QUAT::<unnamed-type-signs0>::<unnamed-type-signs0>
_TEXT	ENDS
; Function compile flags: /Ogtpy
;	COMDAT ?sin@@YAMM@Z
_TEXT	SEGMENT
_Xx$ = 8
?sin@@YAMM@Z PROC					; sin, COMDAT
; File C:\Program Files (x86)\Microsoft Visual Studio\2019\Community\VC\Tools\MSVC\14.23.28105\include\cmath
; Line 230
	jmp	sinf
?sin@@YAMM@Z ENDP					; sin
_TEXT	ENDS
; Function compile flags: /Ogtpy
;	COMDAT ?cos@@YAMM@Z
_TEXT	SEGMENT
_Xx$ = 8
?cos@@YAMM@Z PROC					; cos, COMDAT
; File C:\Program Files (x86)\Microsoft Visual Studio\2019\Community\VC\Tools\MSVC\14.23.28105\include\cmath
; Line 66
	jmp	cosf
?cos@@YAMM@Z ENDP					; cos
_TEXT	ENDS
END
