; Listing generated by Microsoft (R) Optimizing Compiler Version 19.23.28106.4 

include listing.inc

INCLUDELIB MSVCRT
INCLUDELIB OLDNAMES

PUBLIC	?add@VEC4@DATA@XGK@@3P6AXPEAX0@ZEA		; XGK::DATA::VEC4::add
PUBLIC	?adds@VEC4@DATA@XGK@@3P6AXPEAXM@ZEA		; XGK::DATA::VEC4::adds
PUBLIC	?sub@VEC4@DATA@XGK@@3P6AXPEAX0@ZEA		; XGK::DATA::VEC4::sub
PUBLIC	?subs@VEC4@DATA@XGK@@3P6AXPEAXM@ZEA		; XGK::DATA::VEC4::subs
PUBLIC	?mul@VEC4@DATA@XGK@@3P6AXPEAX0@ZEA		; XGK::DATA::VEC4::mul
PUBLIC	?muls@VEC4@DATA@XGK@@3P6AXPEAXM@ZEA		; XGK::DATA::VEC4::muls
PUBLIC	?div@VEC4@DATA@XGK@@3P6AXPEAX0@ZEA		; XGK::DATA::VEC4::div
PUBLIC	?divs@VEC4@DATA@XGK@@3P6AXPEAXM@ZEA		; XGK::DATA::VEC4::divs
_BSS	SEGMENT
?add@VEC4@DATA@XGK@@3P6AXPEAX0@ZEA DQ 01H DUP (?)	; XGK::DATA::VEC4::add
?adds@VEC4@DATA@XGK@@3P6AXPEAXM@ZEA DQ 01H DUP (?)	; XGK::DATA::VEC4::adds
?sub@VEC4@DATA@XGK@@3P6AXPEAX0@ZEA DQ 01H DUP (?)	; XGK::DATA::VEC4::sub
?subs@VEC4@DATA@XGK@@3P6AXPEAXM@ZEA DQ 01H DUP (?)	; XGK::DATA::VEC4::subs
?mul@VEC4@DATA@XGK@@3P6AXPEAX0@ZEA DQ 01H DUP (?)	; XGK::DATA::VEC4::mul
?muls@VEC4@DATA@XGK@@3P6AXPEAXM@ZEA DQ 01H DUP (?)	; XGK::DATA::VEC4::muls
?div@VEC4@DATA@XGK@@3P6AXPEAX0@ZEA DQ 01H DUP (?)	; XGK::DATA::VEC4::div
?divs@VEC4@DATA@XGK@@3P6AXPEAXM@ZEA DQ 01H DUP (?)	; XGK::DATA::VEC4::divs
_BSS	ENDS
PUBLIC	__local_stdio_printf_options
PUBLIC	_vfprintf_l
PUBLIC	printf
PUBLIC	?print@VEC4@DATA@XGK@@YAXPEAX@Z			; XGK::DATA::VEC4::print
PUBLIC	?_OptionsStorage@?1??__local_stdio_printf_options@@9@4_KA ; `__local_stdio_printf_options'::`2'::_OptionsStorage
PUBLIC	??_C@_0N@MDOCIACE@?$CFf?5?$CFf?5?$CFf?5?$CFf?6@	; `string'
EXTRN	__imp___acrt_iob_func:PROC
EXTRN	__imp___stdio_common_vfprintf:PROC
EXTRN	_fltused:DWORD
;	COMDAT ?_OptionsStorage@?1??__local_stdio_printf_options@@9@4_KA
_BSS	SEGMENT
?_OptionsStorage@?1??__local_stdio_printf_options@@9@4_KA DQ 01H DUP (?) ; `__local_stdio_printf_options'::`2'::_OptionsStorage
_BSS	ENDS
;	COMDAT pdata
pdata	SEGMENT
$pdata$_vfprintf_l DD imagerel $LN4
	DD	imagerel $LN4+81
	DD	imagerel $unwind$_vfprintf_l
pdata	ENDS
;	COMDAT pdata
pdata	SEGMENT
$pdata$printf DD imagerel $LN6
	DD	imagerel $LN6+85
	DD	imagerel $unwind$printf
pdata	ENDS
;	COMDAT pdata
pdata	SEGMENT
$pdata$?print@VEC4@DATA@XGK@@YAXPEAX@Z DD imagerel $LN4
	DD	imagerel $LN4+73
	DD	imagerel $unwind$?print@VEC4@DATA@XGK@@YAXPEAX@Z
pdata	ENDS
;	COMDAT ??_C@_0N@MDOCIACE@?$CFf?5?$CFf?5?$CFf?5?$CFf?6@
CONST	SEGMENT
??_C@_0N@MDOCIACE@?$CFf?5?$CFf?5?$CFf?5?$CFf?6@ DB '%f %f %f %f', 0aH, 00H ; `string'
CONST	ENDS
;	COMDAT xdata
xdata	SEGMENT
$unwind$?print@VEC4@DATA@XGK@@YAXPEAX@Z DD 010401H
	DD	06204H
xdata	ENDS
;	COMDAT xdata
xdata	SEGMENT
$unwind$printf DD 041b01H
	DD	07017521bH
	DD	030156016H
xdata	ENDS
;	COMDAT xdata
xdata	SEGMENT
$unwind$_vfprintf_l DD 081401H
	DD	0a6414H
	DD	095414H
	DD	083414H
	DD	070105214H
xdata	ENDS
; Function compile flags: /Ogtpy
;	COMDAT ?print@VEC4@DATA@XGK@@YAXPEAX@Z
_TEXT	SEGMENT
data$ = 64
?print@VEC4@DATA@XGK@@YAXPEAX@Z PROC			; XGK::DATA::VEC4::print, COMDAT
; File E:\reps\denis-belov\xgk_\src\data\vec4\vec4.cpp
; Line 89
$LN4:
	sub	rsp, 56					; 00000038H
	movss	xmm3, DWORD PTR [rcx+8]
	movss	xmm2, DWORD PTR [rcx+4]
	movss	xmm1, DWORD PTR [rcx]
	movss	xmm0, DWORD PTR [rcx+12]
; Line 93
	lea	rcx, OFFSET FLAT:??_C@_0N@MDOCIACE@?$CFf?5?$CFf?5?$CFf?5?$CFf?6@
	cvtps2pd xmm3, xmm3
	cvtps2pd xmm2, xmm2
	cvtps2pd xmm1, xmm1
	cvtps2pd xmm0, xmm0
	movq	r9, xmm3
	movq	r8, xmm2
	movq	rdx, xmm1
	movsd	QWORD PTR [rsp+32], xmm0
	call	printf
; Line 94
	add	rsp, 56					; 00000038H
	ret	0
?print@VEC4@DATA@XGK@@YAXPEAX@Z ENDP			; XGK::DATA::VEC4::print
_TEXT	ENDS
; Function compile flags: /Ogtpy
;	COMDAT printf
_TEXT	SEGMENT
_Format$ = 80
printf	PROC						; COMDAT
; File C:\Program Files (x86)\Windows Kits\10\include\10.0.18362.0\ucrt\stdio.h
; Line 954
$LN6:
	mov	QWORD PTR [rsp+8], rcx
	mov	QWORD PTR [rsp+16], rdx
	mov	QWORD PTR [rsp+24], r8
	mov	QWORD PTR [rsp+32], r9
	push	rbx
	push	rsi
	push	rdi
	sub	rsp, 48					; 00000030H
	mov	rdi, rcx
; Line 957
	lea	rsi, QWORD PTR _Format$[rsp+8]
; Line 958
	mov	ecx, 1
	call	QWORD PTR __imp___acrt_iob_func
	mov	rbx, rax
; Line 643
	call	__local_stdio_printf_options
	xor	r9d, r9d
	mov	QWORD PTR [rsp+32], rsi
	mov	r8, rdi
	mov	rdx, rbx
	mov	rcx, QWORD PTR [rax]
	call	QWORD PTR __imp___stdio_common_vfprintf
; Line 961
	add	rsp, 48					; 00000030H
	pop	rdi
	pop	rsi
	pop	rbx
	ret	0
printf	ENDP
_TEXT	ENDS
; Function compile flags: /Ogtpy
;	COMDAT _vfprintf_l
_TEXT	SEGMENT
_Stream$ = 64
_Format$ = 72
_Locale$ = 80
_ArgList$ = 88
_vfprintf_l PROC					; COMDAT
; File C:\Program Files (x86)\Windows Kits\10\include\10.0.18362.0\ucrt\stdio.h
; Line 642
$LN4:
	mov	QWORD PTR [rsp+8], rbx
	mov	QWORD PTR [rsp+16], rbp
	mov	QWORD PTR [rsp+24], rsi
	push	rdi
	sub	rsp, 48					; 00000030H
	mov	rbx, r9
	mov	rdi, r8
	mov	rsi, rdx
	mov	rbp, rcx
; Line 643
	call	__local_stdio_printf_options
	mov	r9, rdi
	mov	QWORD PTR [rsp+32], rbx
	mov	r8, rsi
	mov	rdx, rbp
	mov	rcx, QWORD PTR [rax]
	call	QWORD PTR __imp___stdio_common_vfprintf
; Line 644
	mov	rbx, QWORD PTR [rsp+64]
	mov	rbp, QWORD PTR [rsp+72]
	mov	rsi, QWORD PTR [rsp+80]
	add	rsp, 48					; 00000030H
	pop	rdi
	ret	0
_vfprintf_l ENDP
_TEXT	ENDS
; Function compile flags: /Ogtpy
;	COMDAT __local_stdio_printf_options
_TEXT	SEGMENT
__local_stdio_printf_options PROC			; COMDAT
; File C:\Program Files (x86)\Windows Kits\10\include\10.0.18362.0\ucrt\corecrt_stdio_config.h
; Line 88
	lea	rax, OFFSET FLAT:?_OptionsStorage@?1??__local_stdio_printf_options@@9@4_KA ; `__local_stdio_printf_options'::`2'::_OptionsStorage
; Line 89
	ret	0
__local_stdio_printf_options ENDP
_TEXT	ENDS
END
