; Listing generated by Microsoft (R) Optimizing Compiler Version 19.23.28106.4 

include listing.inc

INCLUDELIB MSVCRT
INCLUDELIB OLDNAMES

PUBLIC	GLAD_GL_VERSION_4_5
PUBLIC	glad_glVertexAttrib4fvNV
PUBLIC	glad_glClipControl
PUBLIC	glad_glProgramUniform1fvEXT
PUBLIC	glad_glCreateTransformFeedbacks
PUBLIC	glad_glProgramUniform2fvEXT
PUBLIC	glad_glVertexAttrib4sNV
PUBLIC	glad_glTransformFeedbackBufferBase
PUBLIC	glad_glVertexAttrib4svNV
PUBLIC	glad_glProgramUniform3fvEXT
PUBLIC	glad_glTransformFeedbackBufferRange
PUBLIC	glad_glVertexAttrib4ubNV
PUBLIC	glad_glProgramUniform4fvEXT
PUBLIC	glad_glGetTransformFeedbackiv
PUBLIC	glad_glVertexAttrib4ubvNV
PUBLIC	glad_glProgramUniform1ivEXT
PUBLIC	glad_glVertexAttribs1dvNV
PUBLIC	glad_glGetTransformFeedbacki_v
PUBLIC	glad_glVertexAttribs1fvNV
PUBLIC	glad_glProgramUniform2ivEXT
PUBLIC	glad_glGetTransformFeedbacki64_v
PUBLIC	glad_glVertexAttribs1svNV
PUBLIC	glad_glProgramUniform3ivEXT
PUBLIC	glad_glCreateBuffers
PUBLIC	glad_glVertexAttribs2dvNV
PUBLIC	glad_glProgramUniform4ivEXT
PUBLIC	glad_glNamedBufferStorage
PUBLIC	glad_glVertexAttribs2fvNV
PUBLIC	glad_glNamedBufferData
PUBLIC	glad_glProgramUniformMatrix2fvEXT
PUBLIC	glad_glVertexAttribs2svNV
PUBLIC	glad_glVertexAttribs3dvNV
PUBLIC	glad_glNamedBufferSubData
PUBLIC	glad_glProgramUniformMatrix3fvEXT
PUBLIC	glad_glVertexAttribs3fvNV
PUBLIC	glad_glCopyNamedBufferSubData
PUBLIC	glad_glVertexAttribs3svNV
PUBLIC	glad_glProgramUniformMatrix4fvEXT
PUBLIC	glad_glVertexAttribs4dvNV
PUBLIC	glad_glClearNamedBufferData
PUBLIC	glad_glProgramUniformMatrix2x3fvEXT
PUBLIC	glad_glVertexAttribs4fvNV
PUBLIC	glad_glProgramUniformMatrix3x2fvEXT
PUBLIC	glad_glClearNamedBufferSubData
PUBLIC	glad_glVertexAttribs4svNV
PUBLIC	glad_glMapNamedBuffer
PUBLIC	glad_glVertexAttribs4ubvNV
PUBLIC	GLAD_GL_NV_vertex_program1_1
PUBLIC	GLAD_GL_NV_vertex_program2
PUBLIC	GLAD_GL_NV_vertex_program2_option
PUBLIC	GLAD_GL_NV_vertex_program3
PUBLIC	glad_glProgramUniformMatrix2x4fvEXT
PUBLIC	GLAD_GL_NV_vertex_program4
PUBLIC	glad_glMapNamedBufferRange
PUBLIC	glad_glVertexAttribI1iEXT
PUBLIC	glad_glUnmapNamedBuffer
PUBLIC	glad_glProgramUniformMatrix4x2fvEXT
PUBLIC	glad_glVertexAttribI2iEXT
PUBLIC	glad_glFlushMappedNamedBufferRange
PUBLIC	glad_glGetNamedBufferParameteriv
PUBLIC	glad_glProgramUniformMatrix3x4fvEXT
PUBLIC	glad_glVertexAttribI3iEXT
PUBLIC	glad_glGetNamedBufferParameteri64v
PUBLIC	glad_glProgramUniformMatrix4x3fvEXT
PUBLIC	glad_glVertexAttribI4iEXT
PUBLIC	glad_glGetNamedBufferPointerv
PUBLIC	glad_glVertexAttribI1uiEXT
PUBLIC	glad_glTextureBufferEXT
PUBLIC	glad_glGetNamedBufferSubData
PUBLIC	glad_glVertexAttribI2uiEXT
PUBLIC	glad_glCreateFramebuffers
PUBLIC	glad_glMultiTexBufferEXT
PUBLIC	glad_glVertexAttribI3uiEXT
PUBLIC	glad_glNamedFramebufferRenderbuffer
PUBLIC	glad_glTextureParameterIivEXT
PUBLIC	glad_glVertexAttribI4uiEXT
PUBLIC	glad_glNamedFramebufferParameteri
PUBLIC	glad_glTextureParameterIuivEXT
PUBLIC	glad_glVertexAttribI1ivEXT
PUBLIC	glad_glNamedFramebufferTexture
PUBLIC	glad_glVertexAttribI2ivEXT
PUBLIC	glad_glGetTextureParameterIivEXT
PUBLIC	glad_glVertexAttribI3ivEXT
PUBLIC	glad_glGetTextureParameterIuivEXT
PUBLIC	glad_glNamedFramebufferTextureLayer
PUBLIC	glad_glVertexAttribI4ivEXT
PUBLIC	glad_glNamedFramebufferDrawBuffer
PUBLIC	glad_glVertexAttribI1uivEXT
PUBLIC	glad_glMultiTexParameterIivEXT
PUBLIC	glad_glVertexAttribI2uivEXT
PUBLIC	glad_glNamedFramebufferDrawBuffers
PUBLIC	glad_glVertexAttribI3uivEXT
PUBLIC	glad_glNamedFramebufferReadBuffer
PUBLIC	glad_glMultiTexParameterIuivEXT
PUBLIC	glad_glVertexAttribI4uivEXT
PUBLIC	glad_glInvalidateNamedFramebufferData
PUBLIC	glad_glGetMultiTexParameterIivEXT
PUBLIC	glad_glVertexAttribI4bvEXT
PUBLIC	glad_glVertexAttribI4svEXT
PUBLIC	glad_glGetMultiTexParameterIuivEXT
PUBLIC	glad_glVertexAttribI4ubvEXT
PUBLIC	glad_glInvalidateNamedFramebufferSubData
PUBLIC	glad_glProgramUniform1uiEXT
PUBLIC	glad_glVertexAttribI4usvEXT
PUBLIC	glad_glClearNamedFramebufferiv
PUBLIC	glad_glProgramUniform2uiEXT
PUBLIC	glad_glVertexAttribIPointerEXT
PUBLIC	glad_glClearNamedFramebufferuiv
PUBLIC	glad_glGetVertexAttribIivEXT
PUBLIC	glad_glProgramUniform3uiEXT
PUBLIC	glad_glClearNamedFramebufferfv
PUBLIC	glad_glGetVertexAttribIuivEXT
PUBLIC	GLAD_GL_NV_video_capture
PUBLIC	glad_glBeginVideoCaptureNV
PUBLIC	glad_glProgramUniform4uiEXT
PUBLIC	glad_glClearNamedFramebufferfi
PUBLIC	glad_glBindVideoCaptureStreamBufferNV
PUBLIC	glad_glProgramUniform1uivEXT
PUBLIC	glad_glProgramUniform2uivEXT
PUBLIC	glad_glBindVideoCaptureStreamTextureNV
PUBLIC	glad_glEndVideoCaptureNV
PUBLIC	glad_glBlitNamedFramebuffer
PUBLIC	glad_glProgramUniform3uivEXT
PUBLIC	glad_glGetVideoCaptureivNV
PUBLIC	glad_glCheckNamedFramebufferStatus
PUBLIC	glad_glProgramUniform4uivEXT
PUBLIC	glad_glGetNamedFramebufferParameteriv
PUBLIC	glad_glGetVideoCaptureStreamivNV
PUBLIC	glad_glGetVideoCaptureStreamfvNV
PUBLIC	glad_glGetNamedFramebufferAttachmentParameteriv
PUBLIC	glad_glNamedProgramLocalParameters4fvEXT
PUBLIC	glad_glCreateRenderbuffers
PUBLIC	glad_glGetVideoCaptureStreamdvNV
PUBLIC	glad_glNamedProgramLocalParameterI4iEXT
PUBLIC	glad_glNamedRenderbufferStorage
PUBLIC	glad_glVideoCaptureNV
PUBLIC	glad_glNamedProgramLocalParameterI4ivEXT
PUBLIC	glad_glNamedRenderbufferStorageMultisample
PUBLIC	glad_glVideoCaptureStreamParameterivNV
PUBLIC	glad_glGetNamedRenderbufferParameteriv
PUBLIC	glad_glVideoCaptureStreamParameterfvNV
PUBLIC	glad_glNamedProgramLocalParametersI4ivEXT
PUBLIC	glad_glCreateTextures
PUBLIC	glad_glVideoCaptureStreamParameterdvNV
PUBLIC	GLAD_GL_NV_viewport_array2
PUBLIC	GLAD_GL_NV_viewport_swizzle
PUBLIC	glad_glTextureBuffer
PUBLIC	glad_glNamedProgramLocalParameterI4uiEXT
PUBLIC	glad_glViewportSwizzleNV
PUBLIC	GLAD_GL_OES_byte_coordinates
PUBLIC	glad_glTextureBufferRange
PUBLIC	glad_glNamedProgramLocalParameterI4uivEXT
PUBLIC	glad_glMultiTexCoord1bOES
PUBLIC	glad_glTextureStorage1D
PUBLIC	glad_glMultiTexCoord1bvOES
PUBLIC	glad_glNamedProgramLocalParametersI4uivEXT
PUBLIC	glad_glMultiTexCoord2bOES
PUBLIC	glad_glTextureStorage2D
PUBLIC	glad_glGetNamedProgramLocalParameterIivEXT
PUBLIC	glad_glMultiTexCoord2bvOES
PUBLIC	glad_glGetNamedProgramLocalParameterIuivEXT
PUBLIC	glad_glMultiTexCoord3bOES
PUBLIC	glad_glTextureStorage3D
PUBLIC	glad_glEnableClientStateiEXT
PUBLIC	glad_glMultiTexCoord3bvOES
PUBLIC	glad_glDisableClientStateiEXT
PUBLIC	glad_glTextureStorage2DMultisample
PUBLIC	glad_glGetFloati_vEXT
PUBLIC	glad_glMultiTexCoord4bOES
PUBLIC	glad_glMultiTexCoord4bvOES
PUBLIC	glad_glGetDoublei_vEXT
PUBLIC	glad_glTexCoord1bOES
PUBLIC	glad_glTextureStorage3DMultisample
PUBLIC	glad_glTexCoord1bvOES
PUBLIC	glad_glGetPointeri_vEXT
PUBLIC	glad_glTexCoord2bOES
PUBLIC	glad_glTexCoord2bvOES
PUBLIC	glad_glNamedProgramStringEXT
PUBLIC	glad_glTextureSubImage1D
PUBLIC	glad_glTexCoord3bOES
PUBLIC	glad_glTexCoord3bvOES
PUBLIC	glad_glNamedProgramLocalParameter4dEXT
PUBLIC	glad_glTexCoord4bOES
PUBLIC	glad_glTextureSubImage2D
PUBLIC	glad_glTexCoord4bvOES
PUBLIC	glad_glNamedProgramLocalParameter4dvEXT
PUBLIC	glad_glVertex2bOES
PUBLIC	glad_glVertex2bvOES
PUBLIC	glad_glVertex3bOES
PUBLIC	glad_glNamedProgramLocalParameter4fEXT
PUBLIC	glad_glVertex3bvOES
PUBLIC	glad_glTextureSubImage3D
PUBLIC	glad_glNamedProgramLocalParameter4fvEXT
PUBLIC	glad_glVertex4bOES
PUBLIC	glad_glVertex4bvOES
PUBLIC	GLAD_GL_OES_compressed_paletted_texture
PUBLIC	GLAD_GL_OES_fixed_point
PUBLIC	glad_glCompressedTextureSubImage1D
PUBLIC	glad_glGetNamedProgramLocalParameterdvEXT
PUBLIC	glad_glAlphaFuncxOES
PUBLIC	glad_glGetNamedProgramLocalParameterfvEXT
PUBLIC	glad_glClearColorxOES
PUBLIC	glad_glClearDepthxOES
PUBLIC	glad_glCompressedTextureSubImage2D
PUBLIC	glad_glGetNamedProgramivEXT
PUBLIC	glad_glClipPlanexOES
PUBLIC	glad_glGetNamedProgramStringEXT
PUBLIC	glad_glColor4xOES
PUBLIC	glad_glNamedRenderbufferStorageEXT
PUBLIC	glad_glDepthRangexOES
PUBLIC	glad_glCompressedTextureSubImage3D
PUBLIC	glad_glFogxOES
PUBLIC	glad_glGetNamedRenderbufferParameterivEXT
PUBLIC	glad_glFogxvOES
PUBLIC	glad_glCopyTextureSubImage1D
PUBLIC	glad_glNamedRenderbufferStorageMultisampleEXT
PUBLIC	glad_glFrustumxOES
PUBLIC	glad_glGetClipPlanexOES
PUBLIC	glad_glNamedRenderbufferStorageMultisampleCoverageEXT
PUBLIC	glad_glCopyTextureSubImage2D
PUBLIC	glad_glGetFixedvOES
PUBLIC	glad_glCheckNamedFramebufferStatusEXT
PUBLIC	glad_glGetTexEnvxvOES
PUBLIC	glad_glNamedFramebufferTexture1DEXT
PUBLIC	glad_glGetTexParameterxvOES
PUBLIC	glad_glCopyTextureSubImage3D
PUBLIC	glad_glLightModelxOES
PUBLIC	glad_glTextureParameterf
PUBLIC	glad_glNamedFramebufferTexture2DEXT
PUBLIC	glad_glLightModelxvOES
PUBLIC	glad_glTextureParameterfv
PUBLIC	glad_glLightxOES
PUBLIC	glad_glNamedFramebufferTexture3DEXT
PUBLIC	glad_glTextureParameteri
PUBLIC	glad_glLightxvOES
PUBLIC	glad_glLineWidthxOES
PUBLIC	glad_glTextureParameterIiv
PUBLIC	glad_glNamedFramebufferRenderbufferEXT
PUBLIC	glad_glLoadMatrixxOES
PUBLIC	glad_glTextureParameterIuiv
PUBLIC	glad_glGetNamedFramebufferAttachmentParameterivEXT
PUBLIC	glad_glMaterialxOES
PUBLIC	glad_glGenerateTextureMipmapEXT
PUBLIC	glad_glTextureParameteriv
PUBLIC	glad_glMaterialxvOES
PUBLIC	glad_glGenerateTextureMipmap
PUBLIC	glad_glGenerateMultiTexMipmapEXT
PUBLIC	glad_glMultMatrixxOES
PUBLIC	glad_glBindTextureUnit
PUBLIC	glad_glFramebufferDrawBufferEXT
PUBLIC	glad_glMultiTexCoord4xOES
PUBLIC	glad_glFramebufferDrawBuffersEXT
PUBLIC	glad_glGetTextureImage
PUBLIC	glad_glFramebufferReadBufferEXT
PUBLIC	glad_glNormal3xOES
PUBLIC	glad_glGetFramebufferParameterivEXT
PUBLIC	glad_glGetCompressedTextureImage
PUBLIC	glad_glOrthoxOES
PUBLIC	glad_glGetTextureLevelParameterfv
PUBLIC	glad_glNamedCopyBufferSubDataEXT
PUBLIC	glad_glPointParameterxvOES
PUBLIC	glad_glPointSizexOES
PUBLIC	glad_glGetTextureLevelParameteriv
PUBLIC	glad_glNamedFramebufferTextureEXT
PUBLIC	glad_glPolygonOffsetxOES
PUBLIC	glad_glGetTextureParameterfv
PUBLIC	glad_glRotatexOES
PUBLIC	glad_glNamedFramebufferTextureLayerEXT
PUBLIC	glad_glGetTextureParameterIiv
PUBLIC	glad_glScalexOES
PUBLIC	glad_glGetTextureParameterIuiv
PUBLIC	glad_glNamedFramebufferTextureFaceEXT
PUBLIC	glad_glTexEnvxOES
PUBLIC	glad_glGetTextureParameteriv
PUBLIC	glad_glTextureRenderbufferEXT
PUBLIC	glad_glTexEnvxvOES
PUBLIC	glad_glCreateVertexArrays
PUBLIC	glad_glMultiTexRenderbufferEXT
PUBLIC	glad_glDisableVertexArrayAttrib
PUBLIC	glad_glTexParameterxOES
PUBLIC	glad_glEnableVertexArrayAttrib
PUBLIC	glad_glTexParameterxvOES
PUBLIC	glad_glVertexArrayVertexOffsetEXT
PUBLIC	glad_glVertexArrayElementBuffer
PUBLIC	glad_glTranslatexOES
PUBLIC	glad_glVertexArrayVertexBuffer
PUBLIC	glad_glGetLightxvOES
PUBLIC	glad_glVertexArrayColorOffsetEXT
PUBLIC	glad_glGetMaterialxvOES
PUBLIC	glad_glVertexArrayEdgeFlagOffsetEXT
PUBLIC	glad_glVertexArrayVertexBuffers
PUBLIC	glad_glPointParameterxOES
PUBLIC	glad_glSampleCoveragexOES
PUBLIC	glad_glVertexArrayAttribBinding
PUBLIC	glad_glVertexArrayIndexOffsetEXT
PUBLIC	glad_glAccumxOES
PUBLIC	glad_glVertexArrayAttribFormat
PUBLIC	glad_glVertexArrayNormalOffsetEXT
PUBLIC	glad_glBitmapxOES
PUBLIC	glad_glVertexArrayAttribIFormat
PUBLIC	glad_glVertexArrayTexCoordOffsetEXT
PUBLIC	glad_glBlendColorxOES
PUBLIC	glad_glVertexArrayAttribLFormat
PUBLIC	glad_glClearAccumxOES
PUBLIC	glad_glVertexArrayMultiTexCoordOffsetEXT
PUBLIC	glad_glVertexArrayBindingDivisor
PUBLIC	glad_glColor3xOES
PUBLIC	glad_glColor3xvOES
PUBLIC	glad_glGetVertexArrayiv
PUBLIC	glad_glVertexArrayFogCoordOffsetEXT
PUBLIC	glad_glColor4xvOES
PUBLIC	glad_glGetVertexArrayIndexediv
PUBLIC	glad_glConvolutionParameterxOES
PUBLIC	glad_glVertexArraySecondaryColorOffsetEXT
PUBLIC	glad_glConvolutionParameterxvOES
PUBLIC	glad_glGetVertexArrayIndexed64iv
PUBLIC	glad_glEvalCoord1xOES
PUBLIC	glad_glCreateSamplers
PUBLIC	glad_glEvalCoord1xvOES
PUBLIC	glad_glCreateProgramPipelines
PUBLIC	glad_glEvalCoord2xOES
PUBLIC	glad_glVertexArrayVertexAttribOffsetEXT
PUBLIC	glad_glEvalCoord2xvOES
PUBLIC	glad_glCreateQueries
PUBLIC	glad_glFeedbackBufferxOES
PUBLIC	glad_glGetQueryBufferObjecti64v
PUBLIC	glad_glVertexArrayVertexAttribIOffsetEXT
PUBLIC	glad_glGetConvolutionParameterxvOES
PUBLIC	glad_glEnableVertexArrayEXT
PUBLIC	glad_glGetQueryBufferObjectiv
PUBLIC	glad_glGetHistogramParameterxvOES
PUBLIC	glad_glDisableVertexArrayEXT
PUBLIC	glad_glEnableVertexArrayAttribEXT
PUBLIC	glad_glGetLightxOES
PUBLIC	glad_glGetQueryBufferObjectui64v
PUBLIC	glad_glDisableVertexArrayAttribEXT
PUBLIC	glad_glGetMapxvOES
PUBLIC	glad_glGetQueryBufferObjectuiv
PUBLIC	glad_glGetVertexArrayIntegervEXT
PUBLIC	glad_glMemoryBarrierByRegion
PUBLIC	glad_glGetMaterialxOES
PUBLIC	glad_glGetVertexArrayPointervEXT
PUBLIC	glad_glGetPixelMapxv
PUBLIC	glad_glGetVertexArrayIntegeri_vEXT
PUBLIC	glad_glGetTexGenxvOES
PUBLIC	glad_glGetTextureSubImage
PUBLIC	glad_glGetVertexArrayPointeri_vEXT
PUBLIC	glad_glGetTexLevelParameterxvOES
PUBLIC	glad_glIndexxOES
PUBLIC	glad_glIndexxvOES
PUBLIC	glad_glMapNamedBufferRangeEXT
PUBLIC	glad_glLoadTransposeMatrixxOES
PUBLIC	glad_glFlushMappedNamedBufferRangeEXT
PUBLIC	glad_glGetCompressedTextureSubImage
PUBLIC	glad_glGetGraphicsResetStatus
PUBLIC	glad_glMap1xOES
PUBLIC	glad_glNamedBufferStorageEXT
PUBLIC	glad_glGetnCompressedTexImage
PUBLIC	glad_glClearNamedBufferDataEXT
PUBLIC	glad_glGetnTexImage
PUBLIC	glad_glMap2xOES
PUBLIC	glad_glClearNamedBufferSubDataEXT
PUBLIC	glad_glMapGrid1xOES
PUBLIC	glad_glGetnUniformdv
PUBLIC	glad_glNamedFramebufferParameteriEXT
PUBLIC	glad_glMapGrid2xOES
PUBLIC	glad_glGetnUniformfv
PUBLIC	glad_glGetNamedFramebufferParameterivEXT
PUBLIC	glad_glMultTransposeMatrixxOES
PUBLIC	glad_glGetnUniformiv
PUBLIC	glad_glMultiTexCoord1xOES
PUBLIC	glad_glProgramUniform1dEXT
PUBLIC	glad_glMultiTexCoord1xvOES
PUBLIC	glad_glGetnUniformuiv
PUBLIC	glad_glProgramUniform2dEXT
PUBLIC	glad_glMultiTexCoord2xOES
PUBLIC	glad_glMultiTexCoord2xvOES
PUBLIC	glad_glProgramUniform3dEXT
PUBLIC	glad_glReadnPixels
PUBLIC	glad_glMultiTexCoord3xOES
PUBLIC	glad_glMultiTexCoord3xvOES
PUBLIC	glad_glProgramUniform4dEXT
PUBLIC	glad_glGetnMapdv
PUBLIC	glad_glMultiTexCoord4xvOES
PUBLIC	glad_glNormal3xvOES
PUBLIC	glad_glProgramUniform1dvEXT
PUBLIC	glad_glGetnMapfv
PUBLIC	glad_glPassThroughxOES
PUBLIC	glad_glProgramUniform2dvEXT
PUBLIC	glad_glPixelMapx
PUBLIC	glad_glGetnMapiv
PUBLIC	glad_glPixelStorex
PUBLIC	glad_glGetnPixelMapfv
PUBLIC	glad_glProgramUniform3dvEXT
PUBLIC	glad_glPixelTransferxOES
PUBLIC	glad_glGetnPixelMapuiv
PUBLIC	glad_glPixelZoomxOES
PUBLIC	glad_glProgramUniform4dvEXT
PUBLIC	glad_glGetnPixelMapusv
PUBLIC	glad_glPrioritizeTexturesxOES
PUBLIC	glad_glGetnPolygonStipple
PUBLIC	glad_glProgramUniformMatrix2dvEXT
PUBLIC	glad_glRasterPos2xOES
PUBLIC	glad_glRasterPos2xvOES
PUBLIC	glad_glGetnColorTable
PUBLIC	glad_glProgramUniformMatrix3dvEXT
PUBLIC	glad_glRasterPos3xOES
PUBLIC	glad_glRasterPos3xvOES
PUBLIC	glad_glGetnConvolutionFilter
PUBLIC	glad_glProgramUniformMatrix4dvEXT
PUBLIC	glad_glRasterPos4xOES
PUBLIC	glad_glRasterPos4xvOES
PUBLIC	glad_glProgramUniformMatrix2x3dvEXT
PUBLIC	glad_glGetnSeparableFilter
PUBLIC	glad_glRectxOES
PUBLIC	glad_glRectxvOES
PUBLIC	glad_glProgramUniformMatrix2x4dvEXT
PUBLIC	glad_glTexCoord1xOES
PUBLIC	glad_glGetnHistogram
PUBLIC	glad_glTexCoord1xvOES
PUBLIC	glad_glProgramUniformMatrix3x2dvEXT
PUBLIC	glad_glTexCoord2xOES
PUBLIC	glad_glTexCoord2xvOES
PUBLIC	glad_glGetnMinmax
PUBLIC	glad_glProgramUniformMatrix3x4dvEXT
PUBLIC	glad_glTextureBarrier
PUBLIC	glad_glTexCoord3xOES
PUBLIC	GLAD_GL_VERSION_4_6
PUBLIC	glad_glTexCoord3xvOES
PUBLIC	glad_glProgramUniformMatrix4x2dvEXT
PUBLIC	glad_glSpecializeShader
PUBLIC	glad_glTexCoord4xOES
PUBLIC	glad_glTexCoord4xvOES
PUBLIC	glad_glProgramUniformMatrix4x3dvEXT
PUBLIC	glad_glMultiDrawArraysIndirectCount
PUBLIC	glad_glTexGenxOES
PUBLIC	glad_glTexGenxvOES
PUBLIC	glad_glTextureBufferRangeEXT
PUBLIC	glad_glMultiDrawElementsIndirectCount
PUBLIC	glad_glVertex2xOES
PUBLIC	glad_glVertex2xvOES
PUBLIC	glad_glPolygonOffsetClamp
PUBLIC	GLAD_GL_3DFX_multisample
PUBLIC	glad_glVertex3xOES
PUBLIC	GLAD_GL_3DFX_tbuffer
PUBLIC	glad_glTextureStorage1DEXT
PUBLIC	glad_glVertex3xvOES
PUBLIC	glad_glTbufferMask3DFX
PUBLIC	GLAD_GL_3DFX_texture_compression_FXT1
PUBLIC	GLAD_GL_AMD_blend_minmax_factor
PUBLIC	GLAD_GL_AMD_conservative_depth
PUBLIC	GLAD_GL_AMD_debug_output
PUBLIC	glad_glVertex4xOES
PUBLIC	glad_glTextureStorage2DEXT
PUBLIC	glad_glVertex4xvOES
PUBLIC	GLAD_GL_OES_query_matrix
PUBLIC	glad_glDebugMessageEnableAMD
PUBLIC	glad_glQueryMatrixxOES
PUBLIC	GLAD_GL_OES_read_format
PUBLIC	GLAD_GL_OES_single_precision
PUBLIC	glad_glClearDepthfOES
PUBLIC	glad_glTextureStorage3DEXT
PUBLIC	glad_glDebugMessageInsertAMD
PUBLIC	glad_glClipPlanefOES
PUBLIC	glad_glDebugMessageCallbackAMD
PUBLIC	glad_glDepthRangefOES
PUBLIC	glad_glTextureStorage2DMultisampleEXT
PUBLIC	glad_glGetDebugMessageLogAMD
PUBLIC	GLAD_GL_AMD_depth_clamp_separate
PUBLIC	glad_glFrustumfOES
PUBLIC	GLAD_GL_AMD_draw_buffers_blend
PUBLIC	glad_glGetClipPlanefOES
PUBLIC	glad_glBlendFuncIndexedAMD
PUBLIC	glad_glTextureStorage3DMultisampleEXT
PUBLIC	glad_glOrthofOES
PUBLIC	GLAD_GL_OML_interlace
PUBLIC	glad_glBlendFuncSeparateIndexedAMD
PUBLIC	GLAD_GL_OML_resample
PUBLIC	glad_glVertexArrayBindVertexBufferEXT
PUBLIC	GLAD_GL_OML_subsample
PUBLIC	GLAD_GL_OVR_multiview
PUBLIC	glad_glBlendEquationIndexedAMD
PUBLIC	glad_glBlendEquationSeparateIndexedAMD
PUBLIC	glad_glVertexArrayVertexAttribFormatEXT
PUBLIC	GLAD_GL_AMD_framebuffer_multisample_advanced
PUBLIC	glad_glFramebufferTextureMultiviewOVR
PUBLIC	GLAD_GL_OVR_multiview2
PUBLIC	GLAD_GL_PGI_misc_hints
PUBLIC	glad_glHintPGI
PUBLIC	GLAD_GL_PGI_vertex_hints
PUBLIC	glad_glVertexArrayVertexAttribIFormatEXT
PUBLIC	GLAD_GL_REND_screen_coordinates
PUBLIC	GLAD_GL_S3_s3tc
PUBLIC	glad_glRenderbufferStorageMultisampleAdvancedAMD
PUBLIC	GLAD_GL_SGIS_detail_texture
PUBLIC	glad_glDetailTexFuncSGIS
PUBLIC	glad_glVertexArrayVertexAttribLFormatEXT
PUBLIC	glad_glGetDetailTexFuncSGIS
PUBLIC	glad_glNamedRenderbufferStorageMultisampleAdvancedAMD
PUBLIC	GLAD_GL_AMD_framebuffer_sample_positions
PUBLIC	GLAD_GL_SGIS_fog_function
PUBLIC	glad_glVertexArrayVertexAttribBindingEXT
PUBLIC	glad_glFogFuncSGIS
PUBLIC	glad_glGetFogFuncSGIS
PUBLIC	glad_glFramebufferSamplePositionsfvAMD
PUBLIC	GLAD_GL_SGIS_generate_mipmap
PUBLIC	glad_glVertexArrayVertexBindingDivisorEXT
PUBLIC	GLAD_GL_SGIS_multisample
PUBLIC	glad_glSampleMaskSGIS
PUBLIC	glad_glNamedFramebufferSamplePositionsfvAMD
PUBLIC	glad_glSamplePatternSGIS
PUBLIC	GLAD_GL_SGIS_pixel_texture
PUBLIC	glad_glVertexArrayVertexAttribLOffsetEXT
PUBLIC	glad_glPixelTexGenParameteriSGIS
PUBLIC	glad_glGetFramebufferParameterfvAMD
PUBLIC	glad_glPixelTexGenParameterivSGIS
PUBLIC	glad_glPixelTexGenParameterfSGIS
PUBLIC	glad_glPixelTexGenParameterfvSGIS
PUBLIC	glad_glTexturePageCommitmentEXT
PUBLIC	glad_glGetNamedFramebufferParameterfvAMD
PUBLIC	GLAD_GL_AMD_gcn_shader
PUBLIC	GLAD_GL_AMD_gpu_shader_half_float
PUBLIC	GLAD_GL_AMD_gpu_shader_int16
PUBLIC	GLAD_GL_AMD_gpu_shader_int64
PUBLIC	glad_glGetPixelTexGenParameterivSGIS
PUBLIC	glad_glVertexArrayVertexAttribDivisorEXT
PUBLIC	GLAD_GL_EXT_draw_buffers2
PUBLIC	glad_glUniform1i64NV
PUBLIC	glad_glGetPixelTexGenParameterfvSGIS
PUBLIC	GLAD_GL_SGIS_point_line_texgen
PUBLIC	GLAD_GL_SGIS_point_parameters
PUBLIC	glad_glUniform2i64NV
PUBLIC	glad_glPointParameterfSGIS
PUBLIC	glad_glColorMaskIndexedEXT
PUBLIC	GLAD_GL_EXT_draw_instanced
PUBLIC	glad_glPointParameterfvSGIS
PUBLIC	GLAD_GL_SGIS_sharpen_texture
PUBLIC	glad_glUniform3i64NV
PUBLIC	glad_glDrawArraysInstancedEXT
PUBLIC	glad_glSharpenTexFuncSGIS
PUBLIC	glad_glGetSharpenTexFuncSGIS
PUBLIC	glad_glUniform4i64NV
PUBLIC	GLAD_GL_SGIS_texture4D
PUBLIC	glad_glDrawElementsInstancedEXT
PUBLIC	GLAD_GL_EXT_draw_range_elements
PUBLIC	glad_glUniform1i64vNV
PUBLIC	glad_glUniform2i64vNV
PUBLIC	glad_glDrawRangeElementsEXT
PUBLIC	GLAD_GL_EXT_external_buffer
PUBLIC	glad_glUniform3i64vNV
PUBLIC	glad_glTexImage4DSGIS
PUBLIC	glad_glBufferStorageExternalEXT
PUBLIC	glad_glUniform4i64vNV
PUBLIC	glad_glUniform1ui64NV
PUBLIC	glad_glNamedBufferStorageExternalEXT
PUBLIC	GLAD_GL_EXT_fog_coord
PUBLIC	glad_glUniform2ui64NV
PUBLIC	glad_glFogCoordfEXT
PUBLIC	glad_glFogCoordfvEXT
PUBLIC	glad_glTexSubImage4DSGIS
PUBLIC	GLAD_GL_SGIS_texture_border_clamp
PUBLIC	GLAD_GL_SGIS_texture_color_mask
PUBLIC	glad_glFogCoorddEXT
PUBLIC	glad_glUniform3ui64NV
PUBLIC	glad_glFogCoorddvEXT
PUBLIC	glad_glTextureColorMaskSGIS
PUBLIC	GLAD_GL_SGIS_texture_edge_clamp
PUBLIC	GLAD_GL_SGIS_texture_filter4
PUBLIC	glad_glUniform4ui64NV
PUBLIC	glad_glFogCoordPointerEXT
PUBLIC	GLAD_GL_EXT_framebuffer_blit
PUBLIC	glad_glGetTexFilterFuncSGIS
PUBLIC	glad_glUniform1ui64vNV
PUBLIC	glad_glUniform2ui64vNV
PUBLIC	glad_glTexFilterFuncSGIS
PUBLIC	GLAD_GL_SGIS_texture_lod
PUBLIC	GLAD_GL_SGIS_texture_select
PUBLIC	GLAD_GL_SGIX_async
PUBLIC	glad_glBlitFramebufferEXT
PUBLIC	glad_glUniform3ui64vNV
PUBLIC	glad_glAsyncMarkerSGIX
PUBLIC	GLAD_GL_EXT_framebuffer_multisample
PUBLIC	glad_glFinishAsyncSGIX
PUBLIC	glad_glUniform4ui64vNV
PUBLIC	glad_glPollAsyncSGIX
PUBLIC	glad_glGenAsyncMarkersSGIX
PUBLIC	glad_glRenderbufferStorageMultisampleEXT
PUBLIC	GLAD_GL_EXT_framebuffer_multisample_blit_scaled
PUBLIC	GLAD_GL_EXT_framebuffer_object
PUBLIC	glad_glGetUniformi64vNV
PUBLIC	glad_glIsRenderbufferEXT
PUBLIC	glad_glDeleteAsyncMarkersSGIX
PUBLIC	glad_glIsAsyncMarkerSGIX
PUBLIC	GLAD_GL_SGIX_async_histogram
PUBLIC	GLAD_GL_SGIX_async_pixel
PUBLIC	glad_glGetUniformui64vNV
PUBLIC	glad_glBindRenderbufferEXT
PUBLIC	GLAD_GL_SGIX_blend_alpha_minmax
PUBLIC	GLAD_GL_SGIX_calligraphic_fragment
PUBLIC	GLAD_GL_SGIX_clipmap
PUBLIC	GLAD_GL_SGIX_convolution_accuracy
PUBLIC	GLAD_GL_SGIX_depth_pass_instrument
PUBLIC	glad_glDeleteRenderbuffersEXT
PUBLIC	GLAD_GL_SGIX_depth_texture
PUBLIC	GLAD_GL_SGIX_flush_raster
PUBLIC	glad_glProgramUniform1i64NV
PUBLIC	glad_glFlushRasterSGIX
PUBLIC	GLAD_GL_SGIX_fog_offset
PUBLIC	GLAD_GL_SGIX_fragment_lighting
PUBLIC	glad_glGenRenderbuffersEXT
PUBLIC	glad_glFragmentColorMaterialSGIX
PUBLIC	glad_glProgramUniform2i64NV
PUBLIC	glad_glRenderbufferStorageEXT
PUBLIC	glad_glFragmentLightfSGIX
PUBLIC	glad_glGetRenderbufferParameterivEXT
PUBLIC	glad_glProgramUniform3i64NV
PUBLIC	glad_glIsFramebufferEXT
PUBLIC	glad_glFragmentLightfvSGIX
PUBLIC	glad_glBindFramebufferEXT
PUBLIC	glad_glFragmentLightiSGIX
PUBLIC	glad_glProgramUniform4i64NV
PUBLIC	glad_glDeleteFramebuffersEXT
PUBLIC	glad_glFragmentLightivSGIX
PUBLIC	glad_glGenFramebuffersEXT
PUBLIC	glad_glProgramUniform1i64vNV
PUBLIC	glad_glCheckFramebufferStatusEXT
PUBLIC	glad_glFragmentLightModelfSGIX
PUBLIC	glad_glFragmentLightModelfvSGIX
PUBLIC	glad_glProgramUniform2i64vNV
PUBLIC	glad_glFragmentLightModeliSGIX
PUBLIC	glad_glFramebufferTexture1DEXT
PUBLIC	glad_glFragmentLightModelivSGIX
PUBLIC	glad_glProgramUniform3i64vNV
PUBLIC	glad_glFramebufferTexture2DEXT
PUBLIC	glad_glFragmentMaterialfSGIX
PUBLIC	glad_glProgramUniform4i64vNV
PUBLIC	glad_glFragmentMaterialfvSGIX
PUBLIC	glad_glProgramUniform1ui64NV
PUBLIC	glad_glFramebufferTexture3DEXT
PUBLIC	glad_glFragmentMaterialiSGIX
PUBLIC	glad_glProgramUniform2ui64NV
PUBLIC	glad_glFramebufferRenderbufferEXT
PUBLIC	glad_glFragmentMaterialivSGIX
PUBLIC	glad_glGetFramebufferAttachmentParameterivEXT
PUBLIC	glad_glProgramUniform3ui64NV
PUBLIC	glad_glGetFragmentLightfvSGIX
PUBLIC	glad_glGenerateMipmapEXT
PUBLIC	GLAD_GL_EXT_framebuffer_sRGB
PUBLIC	GLAD_GL_EXT_geometry_shader4
PUBLIC	glad_glGetFragmentLightivSGIX
PUBLIC	glad_glProgramParameteriEXT
PUBLIC	glad_glProgramUniform4ui64NV
PUBLIC	GLAD_GL_EXT_gpu_program_parameters
PUBLIC	glad_glGetFragmentMaterialfvSGIX
PUBLIC	glad_glGetFragmentMaterialivSGIX
PUBLIC	glad_glProgramUniform1ui64vNV
PUBLIC	glad_glProgramEnvParameters4fvEXT
PUBLIC	glad_glLightEnviSGIX
PUBLIC	GLAD_GL_SGIX_framezoom
PUBLIC	glad_glProgramUniform2ui64vNV
PUBLIC	glad_glProgramLocalParameters4fvEXT
PUBLIC	glad_glFrameZoomSGIX
PUBLIC	GLAD_GL_EXT_gpu_shader4
PUBLIC	GLAD_GL_SGIX_igloo_interface
PUBLIC	glad_glIglooInterfaceSGIX
PUBLIC	GLAD_GL_SGIX_instruments
PUBLIC	glad_glProgramUniform3ui64vNV
PUBLIC	glad_glGetUniformuivEXT
PUBLIC	glad_glGetInstrumentsSGIX
PUBLIC	glad_glInstrumentsBufferSGIX
PUBLIC	glad_glBindFragDataLocationEXT
PUBLIC	glad_glProgramUniform4ui64vNV
PUBLIC	GLAD_GL_AMD_interleaved_elements
PUBLIC	glad_glPollInstrumentsSGIX
PUBLIC	glad_glGetFragDataLocationEXT
PUBLIC	glad_glReadInstrumentsSGIX
PUBLIC	glad_glStartInstrumentsSGIX
PUBLIC	glad_glVertexAttribParameteriAMD
PUBLIC	GLAD_GL_AMD_multi_draw_indirect
PUBLIC	glad_glUniform1uiEXT
PUBLIC	glad_glStopInstrumentsSGIX
PUBLIC	GLAD_GL_SGIX_interlace
PUBLIC	GLAD_GL_SGIX_ir_instrument1
PUBLIC	GLAD_GL_SGIX_list_priority
PUBLIC	glad_glUniform2uiEXT
PUBLIC	glad_glMultiDrawArraysIndirectAMD
PUBLIC	glad_glGetListParameterfvSGIX
PUBLIC	glad_glUniform3uiEXT
PUBLIC	glad_glGetListParameterivSGIX
PUBLIC	glad_glMultiDrawElementsIndirectAMD
PUBLIC	GLAD_GL_AMD_name_gen_delete
PUBLIC	glad_glUniform4uiEXT
PUBLIC	glad_glListParameterfSGIX
PUBLIC	glad_glGenNamesAMD
PUBLIC	glad_glListParameterfvSGIX
PUBLIC	glad_glUniform1uivEXT
PUBLIC	glad_glDeleteNamesAMD
PUBLIC	glad_glIsNameAMD
PUBLIC	glad_glUniform2uivEXT
PUBLIC	glad_glListParameteriSGIX
PUBLIC	GLAD_GL_AMD_occlusion_query_event
PUBLIC	glad_glUniform3uivEXT
PUBLIC	glad_glListParameterivSGIX
PUBLIC	GLAD_GL_SGIX_pixel_texture
PUBLIC	glad_glQueryObjectParameteruiAMD
PUBLIC	GLAD_GL_AMD_performance_monitor
PUBLIC	glad_glPixelTexGenSGIX
PUBLIC	GLAD_GL_SGIX_pixel_tiles
PUBLIC	GLAD_GL_SGIX_polynomial_ffd
PUBLIC	glad_glUniform4uivEXT
PUBLIC	GLAD_GL_EXT_histogram
PUBLIC	glad_glGetPerfMonitorGroupsAMD
PUBLIC	glad_glGetHistogramEXT
PUBLIC	glad_glGetPerfMonitorCountersAMD
PUBLIC	glad_glGetHistogramParameterfvEXT
PUBLIC	glad_glGetPerfMonitorGroupStringAMD
PUBLIC	glad_glGetHistogramParameterivEXT
PUBLIC	glad_glDeformationMap3dSGIX
PUBLIC	glad_glGetPerfMonitorCounterStringAMD
PUBLIC	glad_glGetMinmaxEXT
PUBLIC	glad_glGetPerfMonitorCounterInfoAMD
PUBLIC	glad_glGetMinmaxParameterfvEXT
PUBLIC	glad_glGenPerfMonitorsAMD
PUBLIC	glad_glGetMinmaxParameterivEXT
PUBLIC	glad_glDeletePerfMonitorsAMD
PUBLIC	glad_glDeformationMap3fSGIX
PUBLIC	glad_glDeformSGIX
PUBLIC	glad_glHistogramEXT
PUBLIC	glad_glLoadIdentityDeformationMapSGIX
PUBLIC	GLAD_GL_SGIX_reference_plane
PUBLIC	glad_glSelectPerfMonitorCountersAMD
PUBLIC	glad_glReferencePlaneSGIX
PUBLIC	GLAD_GL_SGIX_resample
PUBLIC	GLAD_GL_SGIX_scalebias_hint
PUBLIC	GLAD_GL_SGIX_shadow
PUBLIC	glad_glMinmaxEXT
PUBLIC	glad_glBeginPerfMonitorAMD
PUBLIC	GLAD_GL_SGIX_shadow_ambient
PUBLIC	GLAD_GL_SGIX_sprite
PUBLIC	glad_glEndPerfMonitorAMD
PUBLIC	glad_glResetHistogramEXT
PUBLIC	glad_glSpriteParameterfSGIX
PUBLIC	glad_glResetMinmaxEXT
PUBLIC	GLAD_GL_EXT_index_array_formats
PUBLIC	GLAD_GL_EXT_index_func
PUBLIC	glad_glSpriteParameterfvSGIX
PUBLIC	glad_glIndexFuncEXT
PUBLIC	glad_glGetPerfMonitorCounterDataAMD
PUBLIC	GLAD_GL_AMD_pinned_memory
PUBLIC	GLAD_GL_EXT_index_material
PUBLIC	GLAD_GL_AMD_query_buffer_object
PUBLIC	GLAD_GL_AMD_sample_positions
PUBLIC	glad_glSpriteParameteriSGIX
PUBLIC	glad_glIndexMaterialEXT
PUBLIC	GLAD_GL_EXT_index_texture
PUBLIC	GLAD_GL_EXT_light_texture
PUBLIC	glad_glSpriteParameterivSGIX
PUBLIC	glad_glSetMultisamplefvAMD
PUBLIC	GLAD_GL_SGIX_subsample
PUBLIC	GLAD_GL_AMD_seamless_cubemap_per_texture
PUBLIC	GLAD_GL_SGIX_tag_sample_buffer
PUBLIC	glad_glApplyTextureEXT
PUBLIC	GLAD_GL_AMD_shader_atomic_counter_ops
PUBLIC	GLAD_GL_AMD_shader_ballot
PUBLIC	GLAD_GL_AMD_shader_explicit_vertex_parameter
PUBLIC	glad_glTagSampleBufferSGIX
PUBLIC	GLAD_GL_SGIX_texture_add_env
PUBLIC	GLAD_GL_AMD_shader_gpu_shader_half_float_fetch
PUBLIC	glad_glTextureLightEXT
PUBLIC	GLAD_GL_SGIX_texture_coordinate_clamp
PUBLIC	GLAD_GL_AMD_shader_image_load_store_lod
PUBLIC	GLAD_GL_SGIX_texture_lod_bias
PUBLIC	GLAD_GL_AMD_shader_stencil_export
PUBLIC	GLAD_GL_AMD_shader_trinary_minmax
PUBLIC	GLAD_GL_SGIX_texture_multi_buffer
PUBLIC	GLAD_GL_SGIX_texture_scale_bias
PUBLIC	GLAD_GL_AMD_sparse_texture
PUBLIC	GLAD_GL_SGIX_vertex_preclip
PUBLIC	GLAD_GL_SGIX_ycrcb
PUBLIC	glad_glTextureMaterialEXT
PUBLIC	GLAD_GL_SGIX_ycrcb_subsample
PUBLIC	GLAD_GL_SGIX_ycrcba
PUBLIC	GLAD_GL_EXT_memory_object
PUBLIC	GLAD_GL_SGI_color_matrix
PUBLIC	GLAD_GL_SGI_color_table
PUBLIC	glad_glGetUnsignedBytevEXT
PUBLIC	glad_glTexStorageSparseAMD
PUBLIC	glad_glGetUnsignedBytei_vEXT
PUBLIC	glad_glColorTableSGI
PUBLIC	glad_glDeleteMemoryObjectsEXT
PUBLIC	glad_glIsMemoryObjectEXT
PUBLIC	glad_glColorTableParameterfvSGI
PUBLIC	glad_glTextureStorageSparseAMD
PUBLIC	glad_glCreateMemoryObjectsEXT
PUBLIC	GLAD_GL_AMD_stencil_operation_extended
PUBLIC	glad_glColorTableParameterivSGI
PUBLIC	glad_glStencilOpValueAMD
PUBLIC	glad_glMemoryObjectParameterivEXT
PUBLIC	GLAD_GL_AMD_texture_gather_bias_lod
PUBLIC	GLAD_GL_AMD_texture_texture4
PUBLIC	GLAD_GL_AMD_transform_feedback3_lines_triangles
PUBLIC	GLAD_GL_AMD_transform_feedback4
PUBLIC	GLAD_GL_AMD_vertex_shader_layer
PUBLIC	GLAD_GL_AMD_vertex_shader_tessellator
PUBLIC	glad_glCopyColorTableSGI
PUBLIC	glad_glGetMemoryObjectParameterivEXT
PUBLIC	glad_glTessellationFactorAMD
PUBLIC	glad_glTessellationModeAMD
PUBLIC	GLAD_GL_AMD_vertex_shader_viewport_index
PUBLIC	GLAD_GL_APPLE_aux_depth_stencil
PUBLIC	glad_glGetColorTableSGI
PUBLIC	GLAD_GL_APPLE_client_storage
PUBLIC	GLAD_GL_APPLE_element_array
PUBLIC	glad_glElementPointerAPPLE
PUBLIC	glad_glGetColorTableParameterfvSGI
PUBLIC	glad_glTexStorageMem2DEXT
PUBLIC	glad_glDrawElementArrayAPPLE
PUBLIC	glad_glGetColorTableParameterivSGI
PUBLIC	GLAD_GL_SGI_texture_color_table
PUBLIC	GLAD_GL_SUNX_constant_data
PUBLIC	glad_glFinishTextureSUNX
PUBLIC	GLAD_GL_SUN_convolution_border_modes
PUBLIC	GLAD_GL_SUN_global_alpha
PUBLIC	glad_glTexStorageMem2DMultisampleEXT
PUBLIC	glad_glGlobalAlphaFactorbSUN
PUBLIC	glad_glDrawRangeElementArrayAPPLE
PUBLIC	glad_glGlobalAlphaFactorsSUN
PUBLIC	glad_glGlobalAlphaFactoriSUN
PUBLIC	glad_glMultiDrawElementArrayAPPLE
PUBLIC	glad_glGlobalAlphaFactorfSUN
PUBLIC	glad_glGlobalAlphaFactordSUN
PUBLIC	glad_glTexStorageMem3DEXT
PUBLIC	glad_glGlobalAlphaFactorubSUN
PUBLIC	glad_glMultiDrawRangeElementArrayAPPLE
PUBLIC	glad_glGlobalAlphaFactorusSUN
PUBLIC	GLAD_GL_APPLE_fence
PUBLIC	glad_glGlobalAlphaFactoruiSUN
PUBLIC	GLAD_GL_SUN_mesh_array
PUBLIC	glad_glGenFencesAPPLE
PUBLIC	glad_glDeleteFencesAPPLE
PUBLIC	glad_glTexStorageMem3DMultisampleEXT
PUBLIC	glad_glDrawMeshArraysSUN
PUBLIC	GLAD_GL_SUN_slice_accum
PUBLIC	glad_glSetFenceAPPLE
PUBLIC	GLAD_GL_SUN_triangle_list
PUBLIC	glad_glIsFenceAPPLE
PUBLIC	glad_glReplacementCodeuiSUN
PUBLIC	glad_glBufferStorageMemEXT
PUBLIC	glad_glReplacementCodeusSUN
PUBLIC	glad_glTestFenceAPPLE
PUBLIC	glad_glReplacementCodeubSUN
PUBLIC	glad_glFinishFenceAPPLE
PUBLIC	glad_glReplacementCodeuivSUN
PUBLIC	glad_glTestObjectAPPLE
PUBLIC	glad_glReplacementCodeusvSUN
PUBLIC	glad_glTextureStorageMem2DEXT
PUBLIC	glad_glReplacementCodeubvSUN
PUBLIC	glad_glFinishObjectAPPLE
PUBLIC	GLAD_GL_APPLE_float_pixels
PUBLIC	GLAD_GL_APPLE_flush_buffer_range
PUBLIC	glad_glReplacementCodePointerSUN
PUBLIC	GLAD_GL_SUN_vertex
PUBLIC	glad_glBufferParameteriAPPLE
PUBLIC	glad_glTextureStorageMem2DMultisampleEXT
PUBLIC	glad_glFlushMappedBufferRangeAPPLE
PUBLIC	GLAD_GL_APPLE_object_purgeable
PUBLIC	glad_glColor4ubVertex2fSUN
PUBLIC	glad_glObjectPurgeableAPPLE
PUBLIC	glad_glColor4ubVertex2fvSUN
PUBLIC	glad_glTextureStorageMem3DEXT
PUBLIC	glad_glObjectUnpurgeableAPPLE
PUBLIC	glad_glGetObjectParameterivAPPLE
PUBLIC	glad_glColor4ubVertex3fSUN
PUBLIC	GLAD_GL_APPLE_rgb_422
PUBLIC	GLAD_GL_APPLE_row_bytes
PUBLIC	GLAD_GL_APPLE_specular_vector
PUBLIC	GLAD_GL_APPLE_texture_range
PUBLIC	glad_glColor4ubVertex3fvSUN
PUBLIC	glad_glTextureStorageMem3DMultisampleEXT
PUBLIC	glad_glTextureRangeAPPLE
PUBLIC	glad_glNamedBufferStorageMemEXT
PUBLIC	glad_glColor3fVertex3fSUN
PUBLIC	glad_glGetTexParameterPointervAPPLE
PUBLIC	GLAD_GL_APPLE_transform_hint
PUBLIC	GLAD_GL_APPLE_vertex_array_object
PUBLIC	glad_glColor3fVertex3fvSUN
PUBLIC	glad_glBindVertexArrayAPPLE
PUBLIC	glad_glDeleteVertexArraysAPPLE
PUBLIC	glad_glTexStorageMem1DEXT
PUBLIC	glad_glGenVertexArraysAPPLE
PUBLIC	glad_glNormal3fVertex3fSUN
PUBLIC	glad_glIsVertexArrayAPPLE
PUBLIC	GLAD_GL_APPLE_vertex_array_range
PUBLIC	glad_glNormal3fVertex3fvSUN
PUBLIC	glad_glTextureStorageMem1DEXT
PUBLIC	GLAD_GL_EXT_memory_object_fd
PUBLIC	glad_glVertexArrayRangeAPPLE
PUBLIC	glad_glFlushVertexArrayRangeAPPLE
PUBLIC	glad_glImportMemoryFdEXT
PUBLIC	GLAD_GL_EXT_memory_object_win32
PUBLIC	glad_glVertexArrayParameteriAPPLE
PUBLIC	GLAD_GL_APPLE_vertex_program_evaluators
PUBLIC	glad_glColor4fNormal3fVertex3fSUN
PUBLIC	glad_glEnableVertexAttribAPPLE
PUBLIC	glad_glImportMemoryWin32HandleEXT
PUBLIC	glad_glDisableVertexAttribAPPLE
PUBLIC	glad_glColor4fNormal3fVertex3fvSUN
PUBLIC	glad_glImportMemoryWin32NameEXT
PUBLIC	glad_glIsVertexAttribEnabledAPPLE
PUBLIC	GLAD_GL_EXT_misc_attribute
PUBLIC	GLAD_GL_EXT_multi_draw_arrays
PUBLIC	glad_glTexCoord2fVertex3fSUN
PUBLIC	glad_glMultiDrawArraysEXT
PUBLIC	glad_glTexCoord2fVertex3fvSUN
PUBLIC	glad_glMapVertexAttrib1dAPPLE
PUBLIC	glad_glMultiDrawElementsEXT
PUBLIC	GLAD_GL_EXT_multisample
PUBLIC	glad_glSampleMaskEXT
PUBLIC	glad_glTexCoord4fVertex4fSUN
PUBLIC	glad_glMapVertexAttrib1fAPPLE
PUBLIC	glad_glSamplePatternEXT
PUBLIC	GLAD_GL_EXT_multiview_tessellation_geometry_shader
PUBLIC	GLAD_GL_EXT_multiview_texture_multisample
PUBLIC	GLAD_GL_EXT_multiview_timer_query
PUBLIC	glad_glTexCoord4fVertex4fvSUN
PUBLIC	GLAD_GL_EXT_packed_depth_stencil
PUBLIC	GLAD_GL_EXT_packed_float
PUBLIC	GLAD_GL_EXT_packed_pixels
PUBLIC	GLAD_GL_EXT_paletted_texture
PUBLIC	glad_glColorTableEXT
PUBLIC	glad_glMapVertexAttrib2dAPPLE
PUBLIC	glad_glTexCoord2fColor4ubVertex3fSUN
PUBLIC	glad_glGetColorTableEXT
PUBLIC	glad_glTexCoord2fColor4ubVertex3fvSUN
PUBLIC	glad_glGetColorTableParameterivEXT
PUBLIC	glad_glMapVertexAttrib2fAPPLE
PUBLIC	GLAD_GL_APPLE_ycbcr_422
PUBLIC	glad_glGetColorTableParameterfvEXT
PUBLIC	GLAD_GL_ARB_ES2_compatibility
PUBLIC	GLAD_GL_EXT_pixel_buffer_object
PUBLIC	GLAD_GL_EXT_pixel_transform
PUBLIC	GLAD_GL_ARB_ES3_1_compatibility
PUBLIC	GLAD_GL_ARB_ES3_2_compatibility
PUBLIC	glad_glTexCoord2fColor3fVertex3fSUN
PUBLIC	glad_glPixelTransformParameteriEXT
PUBLIC	glad_glTexCoord2fColor3fVertex3fvSUN
PUBLIC	glad_glPixelTransformParameterfEXT
PUBLIC	glad_glPrimitiveBoundingBoxARB
PUBLIC	GLAD_GL_ARB_ES3_compatibility
PUBLIC	GLAD_GL_ARB_arrays_of_arrays
PUBLIC	GLAD_GL_ARB_base_instance
PUBLIC	GLAD_GL_ARB_bindless_texture
PUBLIC	glad_glPixelTransformParameterivEXT
PUBLIC	glad_glGetTextureHandleARB
PUBLIC	glad_glTexCoord2fNormal3fVertex3fSUN
PUBLIC	glad_glPixelTransformParameterfvEXT
PUBLIC	glad_glGetTextureSamplerHandleARB
PUBLIC	glad_glTexCoord2fNormal3fVertex3fvSUN
PUBLIC	glad_glMakeTextureHandleResidentARB
PUBLIC	glad_glGetPixelTransformParameterivEXT
PUBLIC	glad_glMakeTextureHandleNonResidentARB
PUBLIC	glad_glGetPixelTransformParameterfvEXT
PUBLIC	GLAD_GL_EXT_pixel_transform_color_table
PUBLIC	GLAD_GL_EXT_point_parameters
PUBLIC	glad_glGetImageHandleARB
PUBLIC	glad_glPointParameterfEXT
PUBLIC	glad_glMakeImageHandleResidentARB
PUBLIC	glad_glTexCoord2fColor4fNormal3fVertex3fSUN
PUBLIC	glad_glPointParameterfvEXT
PUBLIC	glad_glMakeImageHandleNonResidentARB
PUBLIC	GLAD_GL_EXT_polygon_offset
PUBLIC	glad_glPolygonOffsetEXT
PUBLIC	glad_glUniformHandleui64ARB
PUBLIC	GLAD_GL_EXT_polygon_offset_clamp
PUBLIC	glad_glTexCoord2fColor4fNormal3fVertex3fvSUN
PUBLIC	glad_glUniformHandleui64vARB
PUBLIC	glad_glPolygonOffsetClampEXT
PUBLIC	GLAD_GL_EXT_post_depth_coverage
PUBLIC	GLAD_GL_EXT_provoking_vertex
PUBLIC	glad_glProvokingVertexEXT
PUBLIC	glad_glProgramUniformHandleui64ARB
PUBLIC	GLAD_GL_EXT_raster_multisample
PUBLIC	glad_glRasterSamplesEXT
PUBLIC	GLAD_GL_EXT_rescale_normal
PUBLIC	GLAD_GL_EXT_secondary_color
PUBLIC	glad_glProgramUniformHandleui64vARB
PUBLIC	glad_glIsTextureHandleResidentARB
PUBLIC	glad_glSecondaryColor3bEXT
PUBLIC	glad_glIsImageHandleResidentARB
PUBLIC	glad_glTexCoord4fColor4fNormal3fVertex4fSUN
PUBLIC	glad_glSecondaryColor3bvEXT
PUBLIC	glad_glVertexAttribL1ui64ARB
PUBLIC	glad_glTexCoord4fColor4fNormal3fVertex4fvSUN
PUBLIC	glad_glSecondaryColor3dEXT
PUBLIC	glad_glVertexAttribL1ui64vARB
PUBLIC	glad_glSecondaryColor3dvEXT
PUBLIC	glad_glGetVertexAttribLui64vARB
PUBLIC	glad_glReplacementCodeuiVertex3fSUN
PUBLIC	GLAD_GL_ARB_blend_func_extended
PUBLIC	GLAD_GL_ARB_buffer_storage
PUBLIC	glad_glSecondaryColor3fEXT
PUBLIC	GLAD_GL_ARB_cl_event
PUBLIC	glad_glReplacementCodeuiVertex3fvSUN
PUBLIC	glad_glSecondaryColor3fvEXT
PUBLIC	glad_glCreateSyncFromCLeventARB
PUBLIC	GLAD_GL_ARB_clear_buffer_object
PUBLIC	GLAD_GL_ARB_clear_texture
PUBLIC	GLAD_GL_ARB_clip_control
PUBLIC	glad_glSecondaryColor3iEXT
PUBLIC	GLAD_GL_ARB_color_buffer_float
PUBLIC	glad_glSecondaryColor3ivEXT
PUBLIC	glad_glClampColorARB
PUBLIC	GLAD_GL_ARB_compatibility
PUBLIC	GLAD_GL_ARB_compressed_texture_pixel_storage
PUBLIC	glad_glReplacementCodeuiColor4ubVertex3fSUN
PUBLIC	GLAD_GL_ARB_compute_shader
PUBLIC	GLAD_GL_ARB_compute_variable_group_size
PUBLIC	glad_glSecondaryColor3sEXT
PUBLIC	glad_glSecondaryColor3svEXT
PUBLIC	glad_glReplacementCodeuiColor4ubVertex3fvSUN
PUBLIC	glad_glSecondaryColor3ubEXT
PUBLIC	glad_glDispatchComputeGroupSizeARB
PUBLIC	GLAD_GL_ARB_conditional_render_inverted
PUBLIC	GLAD_GL_ARB_conservative_depth
PUBLIC	glad_glSecondaryColor3ubvEXT
PUBLIC	GLAD_GL_ARB_copy_buffer
PUBLIC	GLAD_GL_ARB_copy_image
PUBLIC	GLAD_GL_ARB_cull_distance
PUBLIC	GLAD_GL_ARB_debug_output
PUBLIC	glad_glReplacementCodeuiColor3fVertex3fSUN
PUBLIC	glad_glSecondaryColor3uiEXT
PUBLIC	glad_glSecondaryColor3uivEXT
PUBLIC	glad_glReplacementCodeuiColor3fVertex3fvSUN
PUBLIC	glad_glDebugMessageControlARB
PUBLIC	glad_glSecondaryColor3usEXT
PUBLIC	glad_glSecondaryColor3usvEXT
PUBLIC	glad_glReplacementCodeuiNormal3fVertex3fSUN
PUBLIC	glad_glDebugMessageInsertARB
PUBLIC	glad_glSecondaryColorPointerEXT
PUBLIC	GLAD_GL_EXT_semaphore
PUBLIC	glad_glDebugMessageCallbackARB
PUBLIC	glad_glReplacementCodeuiNormal3fVertex3fvSUN
PUBLIC	glad_glGenSemaphoresEXT
PUBLIC	glad_glDeleteSemaphoresEXT
PUBLIC	glad_glIsSemaphoreEXT
PUBLIC	glad_glGetDebugMessageLogARB
PUBLIC	GLAD_GL_ARB_depth_buffer_float
PUBLIC	GLAD_GL_ARB_depth_clamp
PUBLIC	GLAD_GL_ARB_depth_texture
PUBLIC	GLAD_GL_ARB_derivative_control
PUBLIC	glad_glSemaphoreParameterui64vEXT
PUBLIC	GLAD_GL_ARB_direct_state_access
PUBLIC	GLAD_GL_ARB_draw_buffers
PUBLIC	glad_glReplacementCodeuiColor4fNormal3fVertex3fSUN
PUBLIC	glad_glGetSemaphoreParameterui64vEXT
PUBLIC	glad_glDrawBuffersARB
PUBLIC	GLAD_GL_ARB_draw_buffers_blend
PUBLIC	glad_glReplacementCodeuiColor4fNormal3fVertex3fvSUN
PUBLIC	glad_glBlendEquationiARB
PUBLIC	glad_glWaitSemaphoreEXT
PUBLIC	glad_glBlendEquationSeparateiARB
PUBLIC	glad_glReplacementCodeuiTexCoord2fVertex3fSUN
PUBLIC	glad_glBlendFunciARB
PUBLIC	glad_glReplacementCodeuiTexCoord2fVertex3fvSUN
PUBLIC	glad_glSignalSemaphoreEXT
PUBLIC	GLAD_GL_EXT_semaphore_fd
PUBLIC	glad_glBlendFuncSeparateiARB
PUBLIC	GLAD_GL_ARB_draw_elements_base_vertex
PUBLIC	GLAD_GL_ARB_draw_indirect
PUBLIC	glad_glImportSemaphoreFdEXT
PUBLIC	GLAD_GL_EXT_semaphore_win32
PUBLIC	GLAD_GL_ARB_draw_instanced
PUBLIC	glad_glImportSemaphoreWin32HandleEXT
PUBLIC	glad_glReplacementCodeuiTexCoord2fNormal3fVertex3fSUN
PUBLIC	glad_glDrawArraysInstancedARB
PUBLIC	glad_glImportSemaphoreWin32NameEXT
PUBLIC	GLAD_GL_EXT_separate_shader_objects
PUBLIC	glad_glReplacementCodeuiTexCoord2fNormal3fVertex3fvSUN
PUBLIC	glad_glDrawElementsInstancedARB
PUBLIC	GLAD_GL_ARB_enhanced_layouts
PUBLIC	glad_glUseShaderProgramEXT
PUBLIC	GLAD_GL_ARB_explicit_attrib_location
PUBLIC	GLAD_GL_ARB_explicit_uniform_location
PUBLIC	GLAD_GL_ARB_fragment_coord_conventions
PUBLIC	GLAD_GL_ARB_fragment_layer_viewport
PUBLIC	glad_glActiveProgramEXT
PUBLIC	GLAD_GL_ARB_fragment_program
PUBLIC	glad_glCreateShaderProgramEXT
PUBLIC	glad_glProgramStringARB
PUBLIC	glad_glActiveShaderProgramEXT
PUBLIC	glad_glBindProgramPipelineEXT
PUBLIC	glad_glBindProgramARB
PUBLIC	glad_glReplacementCodeuiTexCoord2fColor4fNormal3fVertex3fSUN
PUBLIC	glad_glDeleteProgramsARB
PUBLIC	glad_glCreateShaderProgramvEXT
PUBLIC	glad_glGenProgramsARB
PUBLIC	glad_glDeleteProgramPipelinesEXT
PUBLIC	glad_glReplacementCodeuiTexCoord2fColor4fNormal3fVertex3fvSUN
PUBLIC	GLAD_GL_WIN_phong_shading
PUBLIC	GLAD_GL_WIN_specular_fog
PUBLIC	glad_glGenProgramPipelinesEXT
PUBLIC	glad_glProgramEnvParameter4dARB
PUBLIC	glad_glGetProgramPipelineInfoLogEXT
PUBLIC	glad_glProgramEnvParameter4dvARB
PUBLIC	glad_glGetProgramPipelineivEXT
PUBLIC	glad_glIsProgramPipelineEXT
PUBLIC	glad_glProgramEnvParameter4fARB
PUBLIC	glad_glUseProgramStagesEXT
PUBLIC	glad_glValidateProgramPipelineEXT
PUBLIC	GLAD_GL_EXT_separate_specular_color
PUBLIC	GLAD_GL_EXT_shader_framebuffer_fetch
PUBLIC	GLAD_GL_EXT_shader_framebuffer_fetch_non_coherent
PUBLIC	glad_glProgramEnvParameter4fvARB
PUBLIC	glad_glFramebufferFetchBarrierEXT
PUBLIC	GLAD_GL_EXT_shader_image_load_formatted
PUBLIC	GLAD_GL_EXT_shader_image_load_store
PUBLIC	glad_glProgramLocalParameter4dARB
PUBLIC	glad_glBindImageTextureEXT
PUBLIC	glad_glProgramLocalParameter4dvARB
PUBLIC	glad_glMemoryBarrierEXT
PUBLIC	GLAD_GL_EXT_shader_integer_mix
PUBLIC	GLAD_GL_EXT_shadow_funcs
PUBLIC	GLAD_GL_EXT_shared_texture_palette
PUBLIC	GLAD_GL_EXT_sparse_texture2
PUBLIC	GLAD_GL_EXT_stencil_clear_tag
PUBLIC	glad_glProgramLocalParameter4fARB
PUBLIC	glad_glStencilClearTagEXT
PUBLIC	GLAD_GL_EXT_stencil_two_side
PUBLIC	glad_glActiveStencilFaceEXT
PUBLIC	GLAD_GL_EXT_stencil_wrap
PUBLIC	GLAD_GL_EXT_subtexture
PUBLIC	glad_glProgramLocalParameter4fvARB
PUBLIC	glad_glGetProgramEnvParameterdvARB
PUBLIC	glad_glTexSubImage1DEXT
PUBLIC	glad_glGetProgramEnvParameterfvARB
PUBLIC	glad_glGetProgramLocalParameterdvARB
PUBLIC	glad_glGetProgramLocalParameterfvARB
PUBLIC	glad_glTexSubImage2DEXT
PUBLIC	GLAD_GL_EXT_texture
PUBLIC	GLAD_GL_EXT_texture3D
PUBLIC	glad_glGetProgramivARB
PUBLIC	glad_glGetProgramStringARB
PUBLIC	glad_glIsProgramARB
PUBLIC	GLAD_GL_ARB_fragment_program_shadow
PUBLIC	GLAD_GL_ARB_fragment_shader
PUBLIC	GLAD_GL_ARB_fragment_shader_interlock
PUBLIC	GLAD_GL_ARB_framebuffer_no_attachments
PUBLIC	GLAD_GL_ARB_framebuffer_object
PUBLIC	GLAD_GL_ARB_framebuffer_sRGB
PUBLIC	glad_glTexImage3DEXT
PUBLIC	GLAD_GL_ARB_geometry_shader4
PUBLIC	glad_glProgramParameteriARB
PUBLIC	glad_glFramebufferTextureARB
PUBLIC	glad_glTexSubImage3DEXT
PUBLIC	GLAD_GL_EXT_texture_array
PUBLIC	glad_glFramebufferTextureLayerARB
PUBLIC	glad_glFramebufferTextureLayerEXT
PUBLIC	GLAD_GL_EXT_texture_buffer_object
PUBLIC	glad_glFramebufferTextureFaceARB
PUBLIC	GLAD_GL_ARB_get_program_binary
PUBLIC	GLAD_GL_ARB_get_texture_sub_image
PUBLIC	GLAD_GL_ARB_gl_spirv
PUBLIC	glad_glTexBufferEXT
PUBLIC	GLAD_GL_EXT_texture_compression_latc
PUBLIC	GLAD_GL_EXT_texture_compression_rgtc
PUBLIC	GLAD_GL_EXT_texture_compression_s3tc
PUBLIC	GLAD_GL_EXT_texture_cube_map
PUBLIC	GLAD_GL_EXT_texture_env_add
PUBLIC	GLAD_GL_EXT_texture_env_combine
PUBLIC	GLAD_GL_EXT_texture_env_dot3
PUBLIC	GLAD_GL_EXT_texture_filter_anisotropic
PUBLIC	GLAD_GL_EXT_texture_filter_minmax
PUBLIC	GLAD_GL_EXT_texture_integer
PUBLIC	glad_glSpecializeShaderARB
PUBLIC	GLAD_GL_ARB_gpu_shader5
PUBLIC	GLAD_GL_ARB_gpu_shader_fp64
PUBLIC	GLAD_GL_ARB_gpu_shader_int64
PUBLIC	glad_glTexParameterIivEXT
PUBLIC	glad_glUniform1i64ARB
PUBLIC	glad_glTexParameterIuivEXT
PUBLIC	glad_glUniform2i64ARB
PUBLIC	glad_glGetTexParameterIivEXT
PUBLIC	glad_glUniform3i64ARB
PUBLIC	glad_glGetTexParameterIuivEXT
PUBLIC	glad_glUniform4i64ARB
PUBLIC	glad_glClearColorIiEXT
PUBLIC	glad_glUniform1i64vARB
PUBLIC	glad_glClearColorIuiEXT
PUBLIC	GLAD_GL_EXT_texture_lod_bias
PUBLIC	GLAD_GL_EXT_texture_mirror_clamp
PUBLIC	GLAD_GL_EXT_texture_object
PUBLIC	glad_glUniform2i64vARB
PUBLIC	glad_glAreTexturesResidentEXT
PUBLIC	glad_glUniform3i64vARB
PUBLIC	glad_glBindTextureEXT
PUBLIC	glad_glUniform4i64vARB
PUBLIC	glad_glDeleteTexturesEXT
PUBLIC	glad_glUniform1ui64ARB
PUBLIC	glad_glGenTexturesEXT
PUBLIC	glad_glIsTextureEXT
PUBLIC	glad_glUniform2ui64ARB
PUBLIC	glad_glPrioritizeTexturesEXT
PUBLIC	GLAD_GL_EXT_texture_perturb_normal
PUBLIC	glad_glUniform3ui64ARB
PUBLIC	glad_glTextureNormalEXT
PUBLIC	GLAD_GL_EXT_texture_sRGB
PUBLIC	GLAD_GL_EXT_texture_sRGB_R8
PUBLIC	GLAD_GL_EXT_texture_sRGB_decode
PUBLIC	GLAD_GL_EXT_texture_shadow_lod
PUBLIC	GLAD_GL_EXT_texture_shared_exponent
PUBLIC	GLAD_GL_EXT_texture_snorm
PUBLIC	GLAD_GL_EXT_texture_swizzle
PUBLIC	GLAD_GL_EXT_timer_query
PUBLIC	glad_glUniform4ui64ARB
PUBLIC	glad_glGetQueryObjecti64vEXT
PUBLIC	glad_glUniform1ui64vARB
PUBLIC	glad_glGetQueryObjectui64vEXT
PUBLIC	GLAD_GL_EXT_transform_feedback
PUBLIC	glad_glUniform2ui64vARB
PUBLIC	glad_glBeginTransformFeedbackEXT
PUBLIC	glad_glEndTransformFeedbackEXT
PUBLIC	glad_glUniform3ui64vARB
PUBLIC	glad_glUniform4ui64vARB
PUBLIC	glad_glBindBufferRangeEXT
PUBLIC	glad_glGetUniformi64vARB
PUBLIC	glad_glBindBufferOffsetEXT
PUBLIC	glad_glGetUniformui64vARB
PUBLIC	glad_glBindBufferBaseEXT
PUBLIC	glad_glGetnUniformi64vARB
PUBLIC	glad_glTransformFeedbackVaryingsEXT
PUBLIC	glad_glGetnUniformui64vARB
PUBLIC	glad_glProgramUniform1i64ARB
PUBLIC	glad_glGetTransformFeedbackVaryingEXT
PUBLIC	GLAD_GL_EXT_vertex_array
PUBLIC	glad_glArrayElementEXT
PUBLIC	GLVersion
PUBLIC	glad_glProgramUniform2i64ARB
PUBLIC	glad_glColorPointerEXT
PUBLIC	glad_glProgramUniform3i64ARB
PUBLIC	glad_glDrawArraysEXT
PUBLIC	glad_glEdgeFlagPointerEXT
PUBLIC	glad_glProgramUniform4i64ARB
PUBLIC	glad_glGetPointervEXT
PUBLIC	glad_glProgramUniform1i64vARB
PUBLIC	glad_glIndexPointerEXT
PUBLIC	glad_glProgramUniform2i64vARB
PUBLIC	glad_glNormalPointerEXT
PUBLIC	glad_glProgramUniform3i64vARB
PUBLIC	glad_glTexCoordPointerEXT
PUBLIC	glad_glProgramUniform4i64vARB
PUBLIC	glad_glProgramUniform1ui64ARB
PUBLIC	glad_glVertexPointerEXT
PUBLIC	GLAD_GL_EXT_vertex_array_bgra
PUBLIC	GLAD_GL_EXT_vertex_attrib_64bit
PUBLIC	glad_glVertexAttribL1dEXT
PUBLIC	glad_glProgramUniform2ui64ARB
PUBLIC	glad_glVertexAttribL2dEXT
PUBLIC	glad_glProgramUniform3ui64ARB
PUBLIC	glad_glVertexAttribL3dEXT
PUBLIC	glad_glProgramUniform4ui64ARB
PUBLIC	glad_glVertexAttribL4dEXT
PUBLIC	glad_glVertexAttribL1dvEXT
PUBLIC	glad_glProgramUniform1ui64vARB
PUBLIC	GLAD_GL_VERSION_1_0
PUBLIC	glad_glVertexAttribL2dvEXT
PUBLIC	glad_glCullFace
PUBLIC	glad_glFrontFace
PUBLIC	glad_glProgramUniform2ui64vARB
PUBLIC	glad_glVertexAttribL3dvEXT
PUBLIC	glad_glHint
PUBLIC	glad_glVertexAttribL4dvEXT
PUBLIC	glad_glProgramUniform3ui64vARB
PUBLIC	glad_glLineWidth
PUBLIC	glad_glPointSize
PUBLIC	glad_glVertexAttribLPointerEXT
PUBLIC	glad_glPolygonMode
PUBLIC	glad_glProgramUniform4ui64vARB
PUBLIC	GLAD_GL_ARB_half_float_pixel
PUBLIC	GLAD_GL_ARB_half_float_vertex
PUBLIC	GLAD_GL_ARB_imaging
PUBLIC	glad_glGetVertexAttribLdvEXT
PUBLIC	GLAD_GL_EXT_vertex_shader
PUBLIC	glad_glScissor
PUBLIC	glad_glBeginVertexShaderEXT
PUBLIC	glad_glEndVertexShaderEXT
PUBLIC	glad_glColorTable
PUBLIC	glad_glBindVertexShaderEXT
PUBLIC	glad_glTexParameterf
PUBLIC	glad_glGenVertexShadersEXT
PUBLIC	glad_glColorTableParameterfv
PUBLIC	glad_glDeleteVertexShaderEXT
PUBLIC	glad_glTexParameterfv
PUBLIC	glad_glColorTableParameteriv
PUBLIC	glad_glShaderOp1EXT
PUBLIC	glad_glTexParameteri
PUBLIC	glad_glTexParameteriv
PUBLIC	glad_glShaderOp2EXT
PUBLIC	glad_glCopyColorTable
PUBLIC	glad_glGetColorTable
PUBLIC	glad_glShaderOp3EXT
PUBLIC	glad_glTexImage1D
PUBLIC	glad_glGetColorTableParameterfv
PUBLIC	glad_glSwizzleEXT
PUBLIC	glad_glGetColorTableParameteriv
PUBLIC	glad_glTexImage2D
PUBLIC	glad_glWriteMaskEXT
PUBLIC	glad_glDrawBuffer
PUBLIC	glad_glColorSubTable
PUBLIC	glad_glClear
PUBLIC	glad_glInsertComponentEXT
PUBLIC	glad_glCopyColorSubTable
PUBLIC	glad_glClearColor
PUBLIC	glad_glExtractComponentEXT
PUBLIC	glad_glClearStencil
PUBLIC	glad_glClearDepth
PUBLIC	glad_glStencilMask
PUBLIC	glad_glGenSymbolsEXT
PUBLIC	glad_glConvolutionFilter1D
PUBLIC	glad_glSetInvariantEXT
PUBLIC	glad_glColorMask
PUBLIC	glad_glDepthMask
PUBLIC	glad_glSetLocalConstantEXT
PUBLIC	glad_glConvolutionFilter2D
PUBLIC	glad_glDisable
PUBLIC	glad_glEnable
PUBLIC	glad_glVariantbvEXT
PUBLIC	glad_glConvolutionParameterf
PUBLIC	glad_glFinish
PUBLIC	glad_glFlush
PUBLIC	glad_glVariantsvEXT
PUBLIC	glad_glConvolutionParameterfv
PUBLIC	glad_glBlendFunc
PUBLIC	glad_glVariantivEXT
PUBLIC	glad_glLogicOp
PUBLIC	glad_glVariantfvEXT
PUBLIC	glad_glConvolutionParameteri
PUBLIC	glad_glStencilFunc
PUBLIC	glad_glVariantdvEXT
PUBLIC	glad_glConvolutionParameteriv
PUBLIC	glad_glVariantubvEXT
PUBLIC	glad_glStencilOp
PUBLIC	glad_glDepthFunc
PUBLIC	glad_glVariantusvEXT
PUBLIC	glad_glCopyConvolutionFilter1D
PUBLIC	glad_glVariantuivEXT
PUBLIC	glad_glPixelStoref
PUBLIC	glad_glPixelStorei
PUBLIC	glad_glReadBuffer
PUBLIC	glad_glVariantPointerEXT
PUBLIC	glad_glCopyConvolutionFilter2D
PUBLIC	glad_glEnableVariantClientStateEXT
PUBLIC	glad_glDisableVariantClientStateEXT
PUBLIC	glad_glGetConvolutionFilter
PUBLIC	glad_glBindLightParameterEXT
PUBLIC	glad_glReadPixels
PUBLIC	glad_glGetConvolutionParameterfv
PUBLIC	glad_glBindMaterialParameterEXT
PUBLIC	glad_glGetBooleanv
PUBLIC	glad_glGetConvolutionParameteriv
PUBLIC	glad_glBindTexGenParameterEXT
PUBLIC	glad_glGetDoublev
PUBLIC	glad_glGetError
PUBLIC	glad_glBindTextureUnitParameterEXT
PUBLIC	glad_glGetFloatv
PUBLIC	glad_glBindParameterEXT
PUBLIC	glad_glGetSeparableFilter
PUBLIC	glad_glGetIntegerv
PUBLIC	glad_glIsVariantEnabledEXT
PUBLIC	glad_glGetString
PUBLIC	glad_glGetVariantBooleanvEXT
PUBLIC	glad_glSeparableFilter2D
PUBLIC	glad_glGetTexImage
PUBLIC	glad_glGetVariantIntegervEXT
PUBLIC	glad_glGetTexParameterfv
PUBLIC	glad_glGetVariantFloatvEXT
PUBLIC	glad_glGetHistogram
PUBLIC	glad_glGetTexParameteriv
PUBLIC	glad_glGetVariantPointervEXT
PUBLIC	glad_glGetHistogramParameterfv
PUBLIC	glad_glGetInvariantBooleanvEXT
PUBLIC	glad_glGetTexLevelParameterfv
PUBLIC	glad_glGetHistogramParameteriv
PUBLIC	glad_glGetInvariantIntegervEXT
PUBLIC	glad_glGetTexLevelParameteriv
PUBLIC	glad_glIsEnabled
PUBLIC	glad_glGetMinmax
PUBLIC	glad_glGetInvariantFloatvEXT
PUBLIC	glad_glDepthRange
PUBLIC	glad_glGetMinmaxParameterfv
PUBLIC	glad_glGetLocalConstantBooleanvEXT
PUBLIC	glad_glGetMinmaxParameteriv
PUBLIC	glad_glViewport
PUBLIC	glad_glGetLocalConstantIntegervEXT
PUBLIC	GLAD_GL_VERSION_1_1
PUBLIC	glad_glGetLocalConstantFloatvEXT
PUBLIC	glad_glDrawArrays
PUBLIC	GLAD_GL_EXT_vertex_weighting
PUBLIC	glad_glHistogram
PUBLIC	glad_glVertexWeightfEXT
PUBLIC	glad_glMinmax
PUBLIC	glad_glVertexWeightfvEXT
PUBLIC	glad_glDrawElements
PUBLIC	glad_glResetHistogram
PUBLIC	glad_glPolygonOffset
PUBLIC	glad_glResetMinmax
PUBLIC	GLAD_GL_ARB_indirect_parameters
PUBLIC	glad_glVertexWeightPointerEXT
PUBLIC	GLAD_GL_EXT_win32_keyed_mutex
PUBLIC	glad_glAcquireKeyedMutexWin32EXT
PUBLIC	glad_glMultiDrawArraysIndirectCountARB
PUBLIC	glad_glCopyTexImage1D
PUBLIC	glad_glReleaseKeyedMutexWin32EXT
PUBLIC	GLAD_GL_EXT_window_rectangles
PUBLIC	glad_glWindowRectanglesEXT
PUBLIC	GLAD_GL_EXT_x11_sync_object
PUBLIC	glad_glMultiDrawElementsIndirectCountARB
PUBLIC	GLAD_GL_ARB_instanced_arrays
PUBLIC	glad_glCopyTexImage2D
PUBLIC	glad_glVertexAttribDivisorARB
PUBLIC	GLAD_GL_ARB_internalformat_query
PUBLIC	glad_glImportSyncEXT
PUBLIC	GLAD_GL_GREMEDY_frame_terminator
PUBLIC	GLAD_GL_ARB_internalformat_query2
PUBLIC	GLAD_GL_ARB_invalidate_subdata
PUBLIC	GLAD_GL_ARB_map_buffer_alignment
PUBLIC	GLAD_GL_ARB_map_buffer_range
PUBLIC	glad_glFrameTerminatorGREMEDY
PUBLIC	GLAD_GL_ARB_matrix_palette
PUBLIC	GLAD_GL_GREMEDY_string_marker
PUBLIC	glad_glCurrentPaletteMatrixARB
PUBLIC	glad_glStringMarkerGREMEDY
PUBLIC	GLAD_GL_HP_convolution_border_modes
PUBLIC	glad_glCopyTexSubImage1D
PUBLIC	GLAD_GL_HP_image_transform
PUBLIC	glad_glMatrixIndexubvARB
PUBLIC	glad_glImageTransformParameteriHP
PUBLIC	glad_glMatrixIndexusvARB
PUBLIC	glad_glMatrixIndexuivARB
PUBLIC	glad_glImageTransformParameterfHP
PUBLIC	glad_glCopyTexSubImage2D
PUBLIC	glad_glMatrixIndexPointerARB
PUBLIC	glad_glImageTransformParameterivHP
PUBLIC	GLAD_GL_ARB_multi_bind
PUBLIC	GLAD_GL_ARB_multi_draw_indirect
PUBLIC	GLAD_GL_ARB_multisample
PUBLIC	glad_glImageTransformParameterfvHP
PUBLIC	glad_glTexSubImage1D
PUBLIC	glad_glSampleCoverageARB
PUBLIC	GLAD_GL_ARB_multitexture
PUBLIC	glad_glActiveTextureARB
PUBLIC	glad_glGetImageTransformParameterivHP
PUBLIC	glad_glClientActiveTextureARB
PUBLIC	glad_glGetImageTransformParameterfvHP
PUBLIC	glad_glMultiTexCoord1dARB
PUBLIC	GLAD_GL_HP_occlusion_test
PUBLIC	GLAD_GL_HP_texture_lighting
PUBLIC	GLAD_GL_IBM_cull_vertex
PUBLIC	GLAD_GL_IBM_multimode_draw_arrays
PUBLIC	glad_glTexSubImage2D
PUBLIC	glad_glMultiTexCoord1dvARB
PUBLIC	glad_glBindTexture
PUBLIC	glad_glMultiTexCoord1fARB
PUBLIC	glad_glMultiModeDrawArraysIBM
PUBLIC	glad_glDeleteTextures
PUBLIC	glad_glMultiTexCoord1fvARB
PUBLIC	glad_glGenTextures
PUBLIC	glad_glMultiTexCoord1iARB
PUBLIC	glad_glIsTexture
PUBLIC	GLAD_GL_VERSION_1_2
PUBLIC	glad_glMultiModeDrawElementsIBM
PUBLIC	glad_glMultiTexCoord1ivARB
PUBLIC	GLAD_GL_IBM_rasterpos_clip
PUBLIC	GLAD_GL_IBM_static_data
PUBLIC	glad_glMultiTexCoord1sARB
PUBLIC	glad_glFlushStaticDataIBM
PUBLIC	GLAD_GL_IBM_texture_mirrored_repeat
PUBLIC	GLAD_GL_IBM_vertex_array_lists
PUBLIC	glad_glDrawRangeElements
PUBLIC	glad_glMultiTexCoord1svARB
PUBLIC	glad_glMultiTexCoord2dARB
PUBLIC	glad_glColorPointerListIBM
PUBLIC	glad_glMultiTexCoord2dvARB
PUBLIC	glad_glSecondaryColorPointerListIBM
PUBLIC	glad_glTexImage3D
PUBLIC	glad_glMultiTexCoord2fARB
PUBLIC	glad_glEdgeFlagPointerListIBM
PUBLIC	glad_glMultiTexCoord2fvARB
PUBLIC	glad_glMultiTexCoord2iARB
PUBLIC	glad_glFogCoordPointerListIBM
PUBLIC	glad_glMultiTexCoord2ivARB
PUBLIC	glad_glTexSubImage3D
PUBLIC	glad_glIndexPointerListIBM
PUBLIC	glad_glMultiTexCoord2sARB
PUBLIC	glad_glMultiTexCoord2svARB
PUBLIC	glad_glNormalPointerListIBM
PUBLIC	glad_glMultiTexCoord3dARB
PUBLIC	glad_glCopyTexSubImage3D
PUBLIC	GLAD_GL_VERSION_1_3
PUBLIC	glad_glTexCoordPointerListIBM
PUBLIC	glad_glActiveTexture
PUBLIC	glad_glMultiTexCoord3dvARB
PUBLIC	glad_glSampleCoverage
PUBLIC	glad_glVertexPointerListIBM
PUBLIC	glad_glMultiTexCoord3fARB
PUBLIC	GLAD_GL_INGR_blend_func_separate
PUBLIC	glad_glMultiTexCoord3fvARB
PUBLIC	glad_glBlendFuncSeparateINGR
PUBLIC	GLAD_GL_INGR_color_clamp
PUBLIC	GLAD_GL_INGR_interlace_read
PUBLIC	GLAD_GL_INTEL_blackhole_render
PUBLIC	glad_glCompressedTexImage3D
PUBLIC	GLAD_GL_INTEL_conservative_rasterization
PUBLIC	glad_glMultiTexCoord3iARB
PUBLIC	GLAD_GL_INTEL_fragment_shader_ordering
PUBLIC	GLAD_GL_INTEL_framebuffer_CMAA
PUBLIC	glad_glApplyFramebufferAttachmentCMAAINTEL
PUBLIC	GLAD_GL_INTEL_map_texture
PUBLIC	glad_glMultiTexCoord3ivARB
PUBLIC	glad_glSyncTextureINTEL
PUBLIC	glad_glUnmapTexture2DINTEL
PUBLIC	glad_glMultiTexCoord3sARB
PUBLIC	glad_glCompressedTexImage2D
PUBLIC	glad_glMultiTexCoord3svARB
PUBLIC	glad_glMapTexture2DINTEL
PUBLIC	GLAD_GL_INTEL_parallel_arrays
PUBLIC	glad_glCompressedTexImage1D
PUBLIC	glad_glMultiTexCoord4dARB
PUBLIC	glad_glVertexPointervINTEL
PUBLIC	glad_glMultiTexCoord4dvARB
PUBLIC	glad_glNormalPointervINTEL
PUBLIC	glad_glColorPointervINTEL
PUBLIC	glad_glMultiTexCoord4fARB
PUBLIC	glad_glCompressedTexSubImage3D
PUBLIC	glad_glMultiTexCoord4fvARB
PUBLIC	glad_glTexCoordPointervINTEL
PUBLIC	GLAD_GL_INTEL_performance_query
PUBLIC	glad_glBeginPerfQueryINTEL
PUBLIC	glad_glCreatePerfQueryINTEL
PUBLIC	glad_glMultiTexCoord4iARB
PUBLIC	glad_glDeletePerfQueryINTEL
PUBLIC	glad_glMultiTexCoord4ivARB
PUBLIC	glad_glCompressedTexSubImage2D
PUBLIC	glad_glEndPerfQueryINTEL
PUBLIC	glad_glGetFirstPerfQueryIdINTEL
PUBLIC	glad_glGetNextPerfQueryIdINTEL
PUBLIC	glad_glMultiTexCoord4sARB
PUBLIC	glad_glCompressedTexSubImage1D
PUBLIC	glad_glMultiTexCoord4svARB
PUBLIC	GLAD_GL_ARB_occlusion_query
PUBLIC	glad_glGetCompressedTexImage
PUBLIC	glad_glGenQueriesARB
PUBLIC	GLAD_GL_VERSION_1_4
PUBLIC	glad_glDeleteQueriesARB
PUBLIC	glad_glGetPerfCounterInfoINTEL
PUBLIC	glad_glIsQueryARB
PUBLIC	glad_glBlendFuncSeparate
PUBLIC	glad_glBeginQueryARB
PUBLIC	glad_glEndQueryARB
PUBLIC	glad_glMultiDrawArrays
PUBLIC	glad_glGetPerfQueryDataINTEL
PUBLIC	glad_glGetQueryivARB
PUBLIC	glad_glGetPerfQueryIdByNameINTEL
PUBLIC	glad_glMultiDrawElements
PUBLIC	glad_glGetQueryObjectivARB
PUBLIC	glad_glPointParameterf
PUBLIC	glad_glGetQueryObjectuivARB
PUBLIC	glad_glGetPerfQueryInfoINTEL
PUBLIC	glad_glPointParameterfv
PUBLIC	GLAD_GL_KHR_blend_equation_advanced
PUBLIC	GLAD_GL_ARB_occlusion_query2
PUBLIC	GLAD_GL_ARB_parallel_shader_compile
PUBLIC	glad_glBlendBarrierKHR
PUBLIC	GLAD_GL_KHR_blend_equation_advanced_coherent
PUBLIC	glad_glMaxShaderCompilerThreadsARB
PUBLIC	GLAD_GL_KHR_context_flush_control
PUBLIC	GLAD_GL_ARB_pipeline_statistics_query
PUBLIC	glad_glPointParameteri
PUBLIC	GLAD_GL_KHR_debug
PUBLIC	GLAD_GL_ARB_pixel_buffer_object
PUBLIC	GLAD_GL_ARB_point_parameters
PUBLIC	glad_glPointParameteriv
PUBLIC	glad_glPointParameterfARB
PUBLIC	glad_glPointParameterfvARB
PUBLIC	glad_glDebugMessageControlKHR
PUBLIC	GLAD_GL_ARB_point_sprite
PUBLIC	GLAD_GL_ARB_polygon_offset_clamp
PUBLIC	glad_glBlendColor
PUBLIC	GLAD_GL_ARB_post_depth_coverage
PUBLIC	GLAD_GL_ARB_program_interface_query
PUBLIC	GLAD_GL_ARB_provoking_vertex
PUBLIC	glad_glBlendEquation
PUBLIC	GLAD_GL_ARB_query_buffer_object
PUBLIC	GLAD_GL_ARB_robust_buffer_access_behavior
PUBLIC	GLAD_GL_VERSION_1_5
PUBLIC	GLAD_GL_ARB_robustness
PUBLIC	glad_glGetGraphicsResetStatusARB
PUBLIC	glad_glGenQueries
PUBLIC	glad_glDebugMessageInsertKHR
PUBLIC	glad_glDeleteQueries
PUBLIC	glad_glDebugMessageCallbackKHR
PUBLIC	glad_glIsQuery
PUBLIC	glad_glGetnTexImageARB
PUBLIC	glad_glBeginQuery
PUBLIC	glad_glEndQuery
PUBLIC	glad_glGetDebugMessageLogKHR
PUBLIC	glad_glGetQueryiv
PUBLIC	glad_glReadnPixelsARB
PUBLIC	glad_glPushDebugGroupKHR
PUBLIC	glad_glGetQueryObjectiv
PUBLIC	glad_glPopDebugGroupKHR
PUBLIC	glad_glGetnCompressedTexImageARB
PUBLIC	glad_glGetQueryObjectuiv
PUBLIC	glad_glObjectLabelKHR
PUBLIC	glad_glBindBuffer
PUBLIC	glad_glGetnUniformfvARB
PUBLIC	glad_glDeleteBuffers
PUBLIC	glad_glGetnUniformivARB
PUBLIC	glad_glGetObjectLabelKHR
PUBLIC	glad_glGenBuffers
PUBLIC	glad_glIsBuffer
PUBLIC	glad_glObjectPtrLabelKHR
PUBLIC	glad_glGetnUniformuivARB
PUBLIC	glad_glBufferData
PUBLIC	glad_glGetObjectPtrLabelKHR
PUBLIC	glad_glGetnUniformdvARB
PUBLIC	glad_glGetPointervKHR
PUBLIC	GLAD_GL_KHR_no_error
PUBLIC	glad_glBufferSubData
PUBLIC	GLAD_GL_KHR_parallel_shader_compile
PUBLIC	glad_glMaxShaderCompilerThreadsKHR
PUBLIC	glad_glGetnMapdvARB
PUBLIC	GLAD_GL_KHR_robust_buffer_access_behavior
PUBLIC	GLAD_GL_KHR_robustness
PUBLIC	glad_glGetGraphicsResetStatusKHR
PUBLIC	glad_glGetBufferSubData
PUBLIC	glad_glGetnMapfvARB
PUBLIC	glad_glMapBuffer
PUBLIC	glad_glUnmapBuffer
PUBLIC	glad_glGetnMapivARB
PUBLIC	glad_glReadnPixelsKHR
PUBLIC	glad_glGetBufferParameteriv
PUBLIC	glad_glGetnPixelMapfvARB
PUBLIC	glad_glGetBufferPointerv
PUBLIC	glad_glGetnUniformfvKHR
PUBLIC	GLAD_GL_VERSION_2_0
PUBLIC	glad_glGetnPixelMapuivARB
PUBLIC	glad_glBlendEquationSeparate
PUBLIC	glad_glGetnUniformivKHR
PUBLIC	glad_glGetnPixelMapusvARB
PUBLIC	glad_glDrawBuffers
PUBLIC	glad_glGetnPolygonStippleARB
PUBLIC	glad_glGetnUniformuivKHR
PUBLIC	GLAD_GL_KHR_shader_subgroup
PUBLIC	glad_glStencilOpSeparate
PUBLIC	GLAD_GL_KHR_texture_compression_astc_hdr
PUBLIC	GLAD_GL_KHR_texture_compression_astc_ldr
PUBLIC	GLAD_GL_KHR_texture_compression_astc_sliced_3d
PUBLIC	GLAD_GL_MESAX_texture_stack
PUBLIC	GLAD_GL_MESA_framebuffer_flip_y
PUBLIC	glad_glGetnColorTableARB
PUBLIC	glad_glStencilFuncSeparate
PUBLIC	glad_glFramebufferParameteriMESA
PUBLIC	glad_glStencilMaskSeparate
PUBLIC	glad_glGetnConvolutionFilterARB
PUBLIC	glad_glGetFramebufferParameterivMESA
PUBLIC	GLAD_GL_MESA_pack_invert
PUBLIC	glad_glAttachShader
PUBLIC	GLAD_GL_MESA_program_binary_formats
PUBLIC	GLAD_GL_MESA_resize_buffers
PUBLIC	glad_glResizeBuffersMESA
PUBLIC	GLAD_GL_MESA_shader_integer_functions
PUBLIC	GLAD_GL_MESA_tile_raster_order
PUBLIC	GLAD_GL_MESA_window_pos
PUBLIC	glad_glBindAttribLocation
PUBLIC	glad_glCompileShader
PUBLIC	glad_glWindowPos2dMESA
PUBLIC	glad_glCreateProgram
PUBLIC	glad_glGetnSeparableFilterARB
PUBLIC	glad_glWindowPos2dvMESA
PUBLIC	glad_glCreateShader
PUBLIC	glad_glDeleteProgram
PUBLIC	glad_glWindowPos2fMESA
PUBLIC	glad_glDeleteShader
PUBLIC	glad_glWindowPos2fvMESA
PUBLIC	glad_glGetnHistogramARB
PUBLIC	glad_glDetachShader
PUBLIC	glad_glWindowPos2iMESA
PUBLIC	glad_glDisableVertexAttribArray
PUBLIC	glad_glWindowPos2ivMESA
PUBLIC	glad_glEnableVertexAttribArray
PUBLIC	glad_glGetnMinmaxARB
PUBLIC	glad_glWindowPos2sMESA
PUBLIC	GLAD_GL_ARB_robustness_isolation
PUBLIC	GLAD_GL_ARB_sample_locations
PUBLIC	glad_glWindowPos2svMESA
PUBLIC	glad_glWindowPos3dMESA
PUBLIC	glad_glFramebufferSampleLocationsfvARB
PUBLIC	glad_glGetActiveAttrib
PUBLIC	glad_glWindowPos3dvMESA
PUBLIC	glad_glNamedFramebufferSampleLocationsfvARB
PUBLIC	glad_glWindowPos3fMESA
PUBLIC	glad_glEvaluateDepthValuesARB
PUBLIC	GLAD_GL_ARB_sample_shading
PUBLIC	glad_glWindowPos3fvMESA
PUBLIC	glad_glMinSampleShadingARB
PUBLIC	glad_glGetActiveUniform
PUBLIC	GLAD_GL_ARB_sampler_objects
PUBLIC	GLAD_GL_ARB_seamless_cube_map
PUBLIC	GLAD_GL_ARB_seamless_cubemap_per_texture
PUBLIC	GLAD_GL_ARB_separate_shader_objects
PUBLIC	GLAD_GL_ARB_shader_atomic_counter_ops
PUBLIC	GLAD_GL_ARB_shader_atomic_counters
PUBLIC	glad_glWindowPos3iMESA
PUBLIC	GLAD_GL_ARB_shader_ballot
PUBLIC	GLAD_GL_ARB_shader_bit_encoding
PUBLIC	GLAD_GL_ARB_shader_clock
PUBLIC	glad_glGetAttachedShaders
PUBLIC	glad_glWindowPos3ivMESA
PUBLIC	GLAD_GL_ARB_shader_draw_parameters
PUBLIC	GLAD_GL_ARB_shader_group_vote
PUBLIC	GLAD_GL_ARB_shader_image_load_store
PUBLIC	GLAD_GL_ARB_shader_image_size
PUBLIC	GLAD_GL_ARB_shader_objects
PUBLIC	glad_glGetAttribLocation
PUBLIC	glad_glWindowPos3sMESA
PUBLIC	glad_glDeleteObjectARB
PUBLIC	glad_glWindowPos3svMESA
PUBLIC	glad_glGetHandleARB
PUBLIC	glad_glGetProgramiv
PUBLIC	glad_glDetachObjectARB
PUBLIC	glad_glCreateShaderObjectARB
PUBLIC	glad_glWindowPos4dMESA
PUBLIC	glad_glGetProgramInfoLog
PUBLIC	glad_glWindowPos4dvMESA
PUBLIC	glad_glShaderSourceARB
PUBLIC	glad_glGetShaderiv
PUBLIC	glad_glWindowPos4fMESA
PUBLIC	glad_glCompileShaderARB
PUBLIC	glad_glCreateProgramObjectARB
PUBLIC	glad_glWindowPos4fvMESA
PUBLIC	glad_glGetShaderInfoLog
PUBLIC	glad_glAttachObjectARB
PUBLIC	glad_glLinkProgramARB
PUBLIC	glad_glWindowPos4iMESA
PUBLIC	glad_glGetShaderSource
PUBLIC	glad_glUseProgramObjectARB
PUBLIC	glad_glWindowPos4ivMESA
PUBLIC	glad_glValidateProgramARB
PUBLIC	glad_glGetUniformLocation
PUBLIC	glad_glUniform1fARB
PUBLIC	glad_glWindowPos4sMESA
PUBLIC	glad_glGetUniformfv
PUBLIC	glad_glWindowPos4svMESA
PUBLIC	GLAD_GL_MESA_ycbcr_texture
PUBLIC	GLAD_GL_NVX_blend_equation_advanced_multi_draw_buffers
PUBLIC	GLAD_GL_NVX_conditional_render
PUBLIC	glad_glUniform2fARB
PUBLIC	glad_glGetUniformiv
PUBLIC	glad_glBeginConditionalRenderNVX
PUBLIC	glad_glEndConditionalRenderNVX
PUBLIC	GLAD_GL_NVX_gpu_memory_info
PUBLIC	GLAD_GL_NVX_gpu_multicast2
PUBLIC	glad_glUniform3fARB
PUBLIC	glad_glGetVertexAttribdv
PUBLIC	glad_glUploadGpuMaskNVX
PUBLIC	glad_glGetVertexAttribfv
PUBLIC	glad_glUniform4fARB
PUBLIC	glad_glMulticastViewportArrayvNVX
PUBLIC	glad_glGetVertexAttribiv
PUBLIC	glad_glUniform1iARB
PUBLIC	glad_glMulticastViewportPositionWScaleNVX
PUBLIC	glad_glGetVertexAttribPointerv
PUBLIC	glad_glUniform2iARB
PUBLIC	glad_glIsProgram
PUBLIC	glad_glIsShader
PUBLIC	glad_glMulticastScissorArrayvNVX
PUBLIC	glad_glUniform3iARB
PUBLIC	glad_glLinkProgram
PUBLIC	glad_glShaderSource
PUBLIC	glad_glUniform4iARB
PUBLIC	glad_glUseProgram
PUBLIC	glad_glUniform1fvARB
PUBLIC	glad_glUniform1f
PUBLIC	glad_glAsyncCopyBufferSubDataNVX
PUBLIC	glad_glUniform2fvARB
PUBLIC	glad_glUniform2f
PUBLIC	glad_glUniform3fvARB
PUBLIC	glad_glUniform3f
PUBLIC	glad_glUniform4fvARB
PUBLIC	glad_glUniform4f
PUBLIC	glad_glUniform1ivARB
PUBLIC	glad_glUniform1i
PUBLIC	glad_glUniform2ivARB
PUBLIC	glad_glUniform2i
PUBLIC	glad_glUniform3ivARB
PUBLIC	glad_glAsyncCopyImageSubDataNVX
PUBLIC	GLAD_GL_NVX_linked_gpu_multicast
PUBLIC	glad_glUniform3i
PUBLIC	glad_glUniform4ivARB
PUBLIC	glad_glLGPUNamedBufferSubDataNVX
PUBLIC	glad_glUniformMatrix2fvARB
PUBLIC	glad_glUniform4i
PUBLIC	glad_glUniform1fv
PUBLIC	glad_glUniformMatrix3fvARB
PUBLIC	glad_glUniform2fv
PUBLIC	glad_glUniformMatrix4fvARB
PUBLIC	glad_glUniform3fv
PUBLIC	glad_glGetObjectParameterfvARB
PUBLIC	glad_glUniform4fv
PUBLIC	glad_glGetObjectParameterivARB
PUBLIC	glad_glLGPUCopyImageSubDataNVX
PUBLIC	glad_glLGPUInterlockNVX
PUBLIC	GLAD_GL_NVX_progress_fence
PUBLIC	glad_glUniform1iv
PUBLIC	glad_glCreateProgressFenceNVX
PUBLIC	glad_glGetInfoLogARB
PUBLIC	glad_glUniform2iv
PUBLIC	glad_glSignalSemaphoreui64NVX
PUBLIC	glad_glGetAttachedObjectsARB
PUBLIC	glad_glUniform3iv
PUBLIC	glad_glGetUniformLocationARB
PUBLIC	glad_glWaitSemaphoreui64NVX
PUBLIC	glad_glUniform4iv
PUBLIC	glad_glClientWaitSemaphoreui64NVX
PUBLIC	GLAD_GL_NV_alpha_to_coverage_dither_control
PUBLIC	glad_glUniformMatrix2fv
PUBLIC	glad_glAlphaToCoverageDitherControlNV
PUBLIC	GLAD_GL_NV_bindless_multi_draw_indirect
PUBLIC	glad_glGetActiveUniformARB
PUBLIC	glad_glUniformMatrix3fv
PUBLIC	glad_glGetUniformfvARB
PUBLIC	glad_glMultiDrawArraysIndirectBindlessNV
PUBLIC	glad_glGetUniformivARB
PUBLIC	glad_glUniformMatrix4fv
PUBLIC	glad_glValidateProgram
PUBLIC	glad_glMultiDrawElementsIndirectBindlessNV
PUBLIC	GLAD_GL_NV_bindless_multi_draw_indirect_count
PUBLIC	glad_glGetShaderSourceARB
PUBLIC	glad_glVertexAttrib1d
PUBLIC	GLAD_GL_ARB_shader_precision
PUBLIC	GLAD_GL_ARB_shader_stencil_export
PUBLIC	GLAD_GL_ARB_shader_storage_buffer_object
PUBLIC	GLAD_GL_ARB_shader_subroutine
PUBLIC	GLAD_GL_ARB_shader_texture_image_samples
PUBLIC	GLAD_GL_ARB_shader_texture_lod
PUBLIC	GLAD_GL_ARB_shader_viewport_layer_array
PUBLIC	glad_glVertexAttrib1dv
PUBLIC	GLAD_GL_ARB_shading_language_100
PUBLIC	GLAD_GL_ARB_shading_language_420pack
PUBLIC	GLAD_GL_ARB_shading_language_include
PUBLIC	glad_glVertexAttrib1f
PUBLIC	glad_glMultiDrawArraysIndirectBindlessCountNV
PUBLIC	glad_glVertexAttrib1fv
PUBLIC	glad_glNamedStringARB
PUBLIC	glad_glVertexAttrib1s
PUBLIC	glad_glDeleteNamedStringARB
PUBLIC	glad_glMultiDrawElementsIndirectBindlessCountNV
PUBLIC	glad_glVertexAttrib1sv
PUBLIC	GLAD_GL_NV_bindless_texture
PUBLIC	glad_glGetTextureHandleNV
PUBLIC	glad_glCompileShaderIncludeARB
PUBLIC	glad_glVertexAttrib2d
PUBLIC	glad_glGetTextureSamplerHandleNV
PUBLIC	glad_glIsNamedStringARB
PUBLIC	glad_glMakeTextureHandleResidentNV
PUBLIC	glad_glVertexAttrib2dv
PUBLIC	glad_glMakeTextureHandleNonResidentNV
PUBLIC	glad_glVertexAttrib2f
PUBLIC	glad_glGetNamedStringARB
PUBLIC	glad_glVertexAttrib2fv
PUBLIC	glad_glGetImageHandleNV
PUBLIC	glad_glGetNamedStringivARB
PUBLIC	glad_glVertexAttrib2s
PUBLIC	GLAD_GL_ARB_shading_language_packing
PUBLIC	glad_glMakeImageHandleResidentNV
PUBLIC	GLAD_GL_ARB_shadow
PUBLIC	GLAD_GL_ARB_shadow_ambient
PUBLIC	GLAD_GL_ARB_sparse_buffer
PUBLIC	glad_glMakeImageHandleNonResidentNV
PUBLIC	glad_glVertexAttrib2sv
PUBLIC	glad_glUniformHandleui64NV
PUBLIC	glad_glBufferPageCommitmentARB
PUBLIC	glad_glVertexAttrib3d
PUBLIC	glad_glUniformHandleui64vNV
PUBLIC	glad_glVertexAttrib3dv
PUBLIC	glad_glNamedBufferPageCommitmentEXT
PUBLIC	glad_glProgramUniformHandleui64NV
PUBLIC	glad_glVertexAttrib3f
PUBLIC	glad_glNamedBufferPageCommitmentARB
PUBLIC	GLAD_GL_ARB_sparse_texture
PUBLIC	glad_glProgramUniformHandleui64vNV
PUBLIC	glad_glVertexAttrib3fv
PUBLIC	glad_glIsTextureHandleResidentNV
PUBLIC	glad_glIsImageHandleResidentNV
PUBLIC	GLAD_GL_NV_blend_equation_advanced
PUBLIC	glad_glVertexAttrib3s
PUBLIC	glad_glBlendParameteriNV
PUBLIC	glad_glTexPageCommitmentARB
PUBLIC	glad_glVertexAttrib3sv
PUBLIC	glad_glBlendBarrierNV
PUBLIC	GLAD_GL_NV_blend_equation_advanced_coherent
PUBLIC	GLAD_GL_ARB_sparse_texture2
PUBLIC	GLAD_GL_NV_blend_minmax_factor
PUBLIC	GLAD_GL_ARB_sparse_texture_clamp
PUBLIC	GLAD_GL_NV_blend_square
PUBLIC	GLAD_GL_ARB_spirv_extensions
PUBLIC	GLAD_GL_ARB_stencil_texturing
PUBLIC	GLAD_GL_NV_clip_space_w_scaling
PUBLIC	GLAD_GL_ARB_sync
PUBLIC	GLAD_GL_ARB_tessellation_shader
PUBLIC	glad_glVertexAttrib4Nbv
PUBLIC	GLAD_GL_ARB_texture_barrier
PUBLIC	GLAD_GL_ARB_texture_border_clamp
PUBLIC	GLAD_GL_ARB_texture_buffer_object
PUBLIC	glad_glVertexAttrib4Niv
PUBLIC	glad_glViewportPositionWScaleNV
PUBLIC	GLAD_GL_NV_command_list
PUBLIC	glad_glTexBufferARB
PUBLIC	GLAD_GL_ARB_texture_buffer_object_rgb32
PUBLIC	glad_glVertexAttrib4Nsv
PUBLIC	glad_glCreateStatesNV
PUBLIC	GLAD_GL_ARB_texture_buffer_range
PUBLIC	GLAD_GL_ARB_texture_compression
PUBLIC	glad_glDeleteStatesNV
PUBLIC	glad_glIsStateNV
PUBLIC	glad_glVertexAttrib4Nub
PUBLIC	glad_glStateCaptureNV
PUBLIC	glad_glVertexAttrib4Nubv
PUBLIC	glad_glCompressedTexImage3DARB
PUBLIC	glad_glGetCommandHeaderNV
PUBLIC	glad_glVertexAttrib4Nuiv
PUBLIC	glad_glGetStageIndexNV
PUBLIC	glad_glVertexAttrib4Nusv
PUBLIC	glad_glVertexAttrib4bv
PUBLIC	glad_glDrawCommandsNV
PUBLIC	glad_glCompressedTexImage2DARB
PUBLIC	glad_glVertexAttrib4d
PUBLIC	glad_glDrawCommandsAddressNV
PUBLIC	glad_glVertexAttrib4dv
PUBLIC	glad_glCompressedTexImage1DARB
PUBLIC	glad_glDrawCommandsStatesNV
PUBLIC	glad_glVertexAttrib4f
PUBLIC	glad_glVertexAttrib4fv
PUBLIC	glad_glDrawCommandsStatesAddressNV
PUBLIC	glad_glVertexAttrib4iv
PUBLIC	glad_glCompressedTexSubImage3DARB
PUBLIC	glad_glCreateCommandListsNV
PUBLIC	glad_glDeleteCommandListsNV
PUBLIC	glad_glVertexAttrib4s
PUBLIC	glad_glIsCommandListNV
PUBLIC	glad_glVertexAttrib4sv
PUBLIC	glad_glCompressedTexSubImage2DARB
PUBLIC	glad_glVertexAttrib4ubv
PUBLIC	glad_glListDrawCommandsStatesClientNV
PUBLIC	glad_glVertexAttrib4uiv
PUBLIC	glad_glCommandListSegmentsNV
PUBLIC	glad_glVertexAttrib4usv
PUBLIC	glad_glCompressedTexSubImage1DARB
PUBLIC	glad_glCompileCommandListNV
PUBLIC	glad_glCallCommandListNV
PUBLIC	GLAD_GL_NV_compute_program5
PUBLIC	GLAD_GL_NV_compute_shader_derivatives
PUBLIC	glad_glGetCompressedTexImageARB
PUBLIC	GLAD_GL_NV_conditional_render
PUBLIC	GLAD_GL_ARB_texture_compression_bptc
PUBLIC	GLAD_GL_ARB_texture_compression_rgtc
PUBLIC	GLAD_GL_ARB_texture_cube_map
PUBLIC	glad_glVertexAttribPointer
PUBLIC	GLAD_GL_ARB_texture_cube_map_array
PUBLIC	GLAD_GL_ARB_texture_env_add
PUBLIC	GLAD_GL_VERSION_2_1
PUBLIC	GLAD_GL_ARB_texture_env_combine
PUBLIC	glad_glBeginConditionalRenderNV
PUBLIC	GLAD_GL_ARB_texture_env_crossbar
PUBLIC	GLAD_GL_ARB_texture_env_dot3
PUBLIC	glad_glEndConditionalRenderNV
PUBLIC	GLAD_GL_ARB_texture_filter_anisotropic
PUBLIC	GLAD_GL_ARB_texture_filter_minmax
PUBLIC	GLAD_GL_NV_conservative_raster
PUBLIC	GLAD_GL_ARB_texture_float
PUBLIC	GLAD_GL_ARB_texture_gather
PUBLIC	GLAD_GL_ARB_texture_mirror_clamp_to_edge
PUBLIC	GLAD_GL_ARB_texture_mirrored_repeat
PUBLIC	glad_glUniformMatrix2x3fv
PUBLIC	GLAD_GL_ARB_texture_multisample
PUBLIC	glad_glSubpixelPrecisionBiasNV
PUBLIC	GLAD_GL_ARB_texture_non_power_of_two
PUBLIC	GLAD_GL_ARB_texture_query_levels
PUBLIC	GLAD_GL_NV_conservative_raster_dilate
PUBLIC	GLAD_GL_ARB_texture_query_lod
PUBLIC	GLAD_GL_ARB_texture_rectangle
PUBLIC	GLAD_GL_ARB_texture_rg
PUBLIC	GLAD_GL_ARB_texture_rgb10_a2ui
PUBLIC	GLAD_GL_ARB_texture_stencil8
PUBLIC	GLAD_GL_ARB_texture_storage
PUBLIC	glad_glConservativeRasterParameterfNV
PUBLIC	GLAD_GL_NV_conservative_raster_pre_snap
PUBLIC	GLAD_GL_ARB_texture_storage_multisample
PUBLIC	GLAD_GL_ARB_texture_swizzle
PUBLIC	GLAD_GL_NV_conservative_raster_pre_snap_triangles
PUBLIC	glad_glUniformMatrix3x2fv
PUBLIC	GLAD_GL_ARB_texture_view
PUBLIC	GLAD_GL_ARB_timer_query
PUBLIC	GLAD_GL_ARB_transform_feedback2
PUBLIC	GLAD_GL_ARB_transform_feedback3
PUBLIC	GLAD_GL_ARB_transform_feedback_instanced
PUBLIC	glad_glConservativeRasterParameteriNV
PUBLIC	GLAD_GL_ARB_transform_feedback_overflow_query
PUBLIC	GLAD_GL_NV_conservative_raster_underestimation
PUBLIC	GLAD_GL_ARB_transpose_matrix
PUBLIC	GLAD_GL_NV_copy_depth_to_color
PUBLIC	GLAD_GL_NV_copy_image
PUBLIC	glad_glUniformMatrix2x4fv
PUBLIC	glad_glLoadTransposeMatrixfARB
PUBLIC	glad_glLoadTransposeMatrixdARB
PUBLIC	glad_glMultTransposeMatrixfARB
PUBLIC	glad_glUniformMatrix4x2fv
PUBLIC	glad_glMultTransposeMatrixdARB
PUBLIC	GLAD_GL_ARB_uniform_buffer_object
PUBLIC	GLAD_GL_ARB_vertex_array_bgra
PUBLIC	GLAD_GL_ARB_vertex_array_object
PUBLIC	GLAD_GL_ARB_vertex_attrib_64bit
PUBLIC	GLAD_GL_ARB_vertex_attrib_binding
PUBLIC	GLAD_GL_ARB_vertex_blend
PUBLIC	glad_glUniformMatrix3x4fv
PUBLIC	glad_glWeightbvARB
PUBLIC	glad_glUniformMatrix4x3fv
PUBLIC	GLAD_GL_VERSION_3_0
PUBLIC	glad_glWeightsvARB
PUBLIC	glad_glCopyImageSubDataNV
PUBLIC	GLAD_GL_NV_deep_texture3D
PUBLIC	GLAD_GL_NV_depth_buffer_float
PUBLIC	glad_glWeightivARB
PUBLIC	glad_glDepthRangedNV
PUBLIC	glad_glClearDepthdNV
PUBLIC	glad_glColorMaski
PUBLIC	glad_glWeightfvARB
PUBLIC	glad_glWeightdvARB
PUBLIC	glad_glDepthBoundsdNV
PUBLIC	GLAD_GL_NV_depth_clamp
PUBLIC	GLAD_GL_NV_draw_texture
PUBLIC	glad_glGetBooleani_v
PUBLIC	glad_glWeightubvARB
PUBLIC	glad_glGetIntegeri_v
PUBLIC	glad_glWeightusvARB
PUBLIC	glad_glEnablei
PUBLIC	glad_glWeightuivARB
PUBLIC	glad_glDisablei
PUBLIC	glad_glDrawTextureNV
PUBLIC	GLAD_GL_NV_draw_vulkan_image
PUBLIC	glad_glIsEnabledi
PUBLIC	glad_glWeightPointerARB
PUBLIC	glad_glBeginTransformFeedback
PUBLIC	glad_glVertexBlendARB
PUBLIC	GLAD_GL_ARB_vertex_buffer_object
PUBLIC	glad_glEndTransformFeedback
PUBLIC	glad_glBindBufferARB
PUBLIC	glad_glDeleteBuffersARB
PUBLIC	glad_glBindBufferRange
PUBLIC	glad_glGenBuffersARB
PUBLIC	glad_glDrawVkImageNV
PUBLIC	glad_glIsBufferARB
PUBLIC	glad_glBindBufferBase
PUBLIC	glad_glGetVkProcAddrNV
PUBLIC	glad_glWaitVkSemaphoreNV
PUBLIC	glad_glSignalVkSemaphoreNV
PUBLIC	glad_glTransformFeedbackVaryings
PUBLIC	glad_glBufferDataARB
PUBLIC	glad_glSignalVkFenceNV
PUBLIC	GLAD_GL_NV_evaluators
PUBLIC	glad_glBufferSubDataARB
PUBLIC	glad_glGetTransformFeedbackVarying
PUBLIC	glad_glGetBufferSubDataARB
PUBLIC	glad_glClampColor
PUBLIC	glad_glMapControlPointsNV
PUBLIC	glad_glMapBufferARB
PUBLIC	glad_glBeginConditionalRender
PUBLIC	glad_glUnmapBufferARB
PUBLIC	glad_glMapParameterivNV
PUBLIC	glad_glEndConditionalRender
PUBLIC	glad_glGetBufferParameterivARB
PUBLIC	glad_glMapParameterfvNV
PUBLIC	glad_glVertexAttribIPointer
PUBLIC	glad_glGetBufferPointervARB
PUBLIC	GLAD_GL_ARB_vertex_program
PUBLIC	glad_glGetVertexAttribIiv
PUBLIC	glad_glVertexAttrib1dARB
PUBLIC	glad_glGetMapControlPointsNV
PUBLIC	glad_glVertexAttrib1dvARB
PUBLIC	glad_glGetVertexAttribIuiv
PUBLIC	glad_glGetMapParameterivNV
PUBLIC	glad_glVertexAttribI1i
PUBLIC	glad_glVertexAttrib1fARB
PUBLIC	glad_glVertexAttrib1fvARB
PUBLIC	glad_glGetMapParameterfvNV
PUBLIC	glad_glVertexAttribI2i
PUBLIC	glad_glVertexAttrib1sARB
PUBLIC	glad_glGetMapAttribParameterivNV
PUBLIC	glad_glVertexAttrib1svARB
PUBLIC	glad_glVertexAttribI3i
PUBLIC	glad_glGetMapAttribParameterfvNV
PUBLIC	glad_glVertexAttrib2dARB
PUBLIC	glad_glVertexAttribI4i
PUBLIC	glad_glVertexAttrib2dvARB
PUBLIC	glad_glEvalMapsNV
PUBLIC	GLAD_GL_NV_explicit_multisample
PUBLIC	glad_glVertexAttribI1ui
PUBLIC	glad_glVertexAttrib2fARB
PUBLIC	glad_glGetMultisamplefvNV
PUBLIC	glad_glVertexAttribI2ui
PUBLIC	glad_glVertexAttrib2fvARB
PUBLIC	glad_glSampleMaskIndexedNV
PUBLIC	glad_glTexRenderbufferNV
PUBLIC	glad_glVertexAttribI3ui
PUBLIC	glad_glVertexAttrib2sARB
PUBLIC	GLAD_GL_NV_fence
PUBLIC	glad_glVertexAttrib2svARB
PUBLIC	glad_glDeleteFencesNV
PUBLIC	glad_glVertexAttribI4ui
PUBLIC	glad_glGenFencesNV
PUBLIC	glad_glIsFenceNV
PUBLIC	glad_glVertexAttrib3dARB
PUBLIC	glad_glVertexAttribI1iv
PUBLIC	glad_glTestFenceNV
PUBLIC	glad_glVertexAttrib3dvARB
PUBLIC	glad_glVertexAttribI2iv
PUBLIC	glad_glGetFenceivNV
PUBLIC	glad_glVertexAttribI3iv
PUBLIC	glad_glVertexAttrib3fARB
PUBLIC	glad_glFinishFenceNV
PUBLIC	glad_glVertexAttribI4iv
PUBLIC	glad_glVertexAttrib3fvARB
PUBLIC	glad_glSetFenceNV
PUBLIC	GLAD_GL_NV_fill_rectangle
PUBLIC	GLAD_GL_NV_float_buffer
PUBLIC	GLAD_GL_NV_fog_distance
PUBLIC	glad_glVertexAttribI1uiv
PUBLIC	GLAD_GL_NV_fragment_coverage_to_color
PUBLIC	glad_glFragmentCoverageColorNV
PUBLIC	GLAD_GL_NV_fragment_program
PUBLIC	glad_glVertexAttribI2uiv
PUBLIC	glad_glVertexAttrib3sARB
PUBLIC	glad_glVertexAttribI3uiv
PUBLIC	glad_glVertexAttrib3svARB
PUBLIC	glad_glVertexAttribI4uiv
PUBLIC	glad_glVertexAttrib4NbvARB
PUBLIC	glad_glProgramNamedParameter4fNV
PUBLIC	glad_glVertexAttrib4NivARB
PUBLIC	glad_glVertexAttribI4bv
PUBLIC	glad_glVertexAttrib4NsvARB
PUBLIC	glad_glVertexAttribI4sv
PUBLIC	glad_glProgramNamedParameter4fvNV
PUBLIC	glad_glVertexAttribI4ubv
PUBLIC	glad_glVertexAttrib4NubARB
PUBLIC	glad_glVertexAttribI4usv
PUBLIC	glad_glProgramNamedParameter4dNV
PUBLIC	glad_glVertexAttrib4NubvARB
PUBLIC	glad_glGetUniformuiv
PUBLIC	glad_glVertexAttrib4NuivARB
PUBLIC	glad_glProgramNamedParameter4dvNV
PUBLIC	glad_glBindFragDataLocation
PUBLIC	glad_glVertexAttrib4NusvARB
PUBLIC	glad_glGetFragDataLocation
PUBLIC	glad_glVertexAttrib4bvARB
PUBLIC	glad_glGetProgramNamedParameterfvNV
PUBLIC	glad_glUniform1ui
PUBLIC	glad_glGetProgramNamedParameterdvNV
PUBLIC	glad_glUniform2ui
PUBLIC	glad_glVertexAttrib4dARB
PUBLIC	GLAD_GL_NV_fragment_program2
PUBLIC	GLAD_GL_NV_fragment_program4
PUBLIC	GLAD_GL_NV_fragment_program_option
PUBLIC	GLAD_GL_NV_fragment_shader_barycentric
PUBLIC	GLAD_GL_NV_fragment_shader_interlock
PUBLIC	GLAD_GL_NV_framebuffer_mixed_samples
PUBLIC	glad_glVertexAttrib4dvARB
PUBLIC	glad_glUniform3ui
PUBLIC	glad_glCoverageModulationTableNV
PUBLIC	glad_glGetCoverageModulationTableNV
PUBLIC	glad_glVertexAttrib4fARB
PUBLIC	glad_glCoverageModulationNV
PUBLIC	glad_glUniform4ui
PUBLIC	GLAD_GL_NV_framebuffer_multisample_coverage
PUBLIC	glad_glVertexAttrib4fvARB
PUBLIC	glad_glVertexAttrib4ivARB
PUBLIC	glad_glUniform1uiv
PUBLIC	glad_glRenderbufferStorageMultisampleCoverageNV
PUBLIC	GLAD_GL_NV_geometry_program4
PUBLIC	glad_glUniform2uiv
PUBLIC	glad_glVertexAttrib4sARB
PUBLIC	glad_glProgramVertexLimitNV
PUBLIC	glad_glUniform3uiv
PUBLIC	glad_glVertexAttrib4svARB
PUBLIC	glad_glFramebufferTextureEXT
PUBLIC	glad_glVertexAttrib4ubvARB
PUBLIC	glad_glUniform4uiv
PUBLIC	glad_glVertexAttrib4uivARB
PUBLIC	glad_glTexParameterIiv
PUBLIC	glad_glFramebufferTextureFaceEXT
PUBLIC	glad_glVertexAttrib4usvARB
PUBLIC	GLAD_GL_NV_geometry_shader4
PUBLIC	GLAD_GL_NV_geometry_shader_passthrough
PUBLIC	GLAD_GL_NV_gpu_multicast
PUBLIC	glad_glTexParameterIuiv
PUBLIC	glad_glRenderGpuMaskNV
PUBLIC	glad_glGetTexParameterIiv
PUBLIC	glad_glVertexAttribPointerARB
PUBLIC	glad_glEnableVertexAttribArrayARB
PUBLIC	glad_glMulticastBufferSubDataNV
PUBLIC	glad_glGetTexParameterIuiv
PUBLIC	glad_glDisableVertexAttribArrayARB
PUBLIC	glad_glClearBufferiv
PUBLIC	glad_glGetVertexAttribdvARB
PUBLIC	glad_glMulticastCopyBufferSubDataNV
PUBLIC	glad_glClearBufferuiv
PUBLIC	glad_glGetVertexAttribfvARB
PUBLIC	glad_glClearBufferfv
PUBLIC	glad_glGetVertexAttribivARB
PUBLIC	glad_glClearBufferfi
PUBLIC	glad_glGetVertexAttribPointervARB
PUBLIC	GLAD_GL_ARB_vertex_shader
PUBLIC	glad_glGetStringi
PUBLIC	glad_glBindAttribLocationARB
PUBLIC	glad_glIsRenderbuffer
PUBLIC	glad_glBindRenderbuffer
PUBLIC	glad_glMulticastCopyImageSubDataNV
PUBLIC	glad_glDeleteRenderbuffers
PUBLIC	glad_glGetActiveAttribARB
PUBLIC	glad_glGenRenderbuffers
PUBLIC	glad_glGetAttribLocationARB
PUBLIC	GLAD_GL_ARB_vertex_type_10f_11f_11f_rev
PUBLIC	GLAD_GL_ARB_vertex_type_2_10_10_10_rev
PUBLIC	GLAD_GL_ARB_viewport_array
PUBLIC	GLAD_GL_ARB_window_pos
PUBLIC	glad_glRenderbufferStorage
PUBLIC	glad_glWindowPos2dARB
PUBLIC	glad_glMulticastBlitFramebufferNV
PUBLIC	glad_glWindowPos2dvARB
PUBLIC	glad_glGetRenderbufferParameteriv
PUBLIC	glad_glIsFramebuffer
PUBLIC	glad_glWindowPos2fARB
PUBLIC	glad_glMulticastFramebufferSampleLocationsfvNV
PUBLIC	glad_glWindowPos2fvARB
PUBLIC	glad_glBindFramebuffer
PUBLIC	glad_glMulticastBarrierNV
PUBLIC	glad_glWindowPos2iARB
PUBLIC	glad_glDeleteFramebuffers
PUBLIC	glad_glMulticastWaitSyncNV
PUBLIC	glad_glWindowPos2ivARB
PUBLIC	glad_glGenFramebuffers
PUBLIC	glad_glWindowPos2sARB
PUBLIC	glad_glCheckFramebufferStatus
PUBLIC	glad_glMulticastGetQueryObjectivNV
PUBLIC	glad_glWindowPos2svARB
PUBLIC	glad_glWindowPos3dARB
PUBLIC	glad_glMulticastGetQueryObjectuivNV
PUBLIC	glad_glFramebufferTexture1D
PUBLIC	glad_glWindowPos3dvARB
PUBLIC	glad_glMulticastGetQueryObjecti64vNV
PUBLIC	glad_glWindowPos3fARB
PUBLIC	glad_glFramebufferTexture2D
PUBLIC	glad_glWindowPos3fvARB
PUBLIC	glad_glMulticastGetQueryObjectui64vNV
PUBLIC	GLAD_GL_NV_gpu_program4
PUBLIC	glad_glWindowPos3iARB
PUBLIC	glad_glFramebufferTexture3D
PUBLIC	glad_glWindowPos3ivARB
PUBLIC	glad_glProgramLocalParameterI4iNV
PUBLIC	glad_glWindowPos3sARB
PUBLIC	glad_glFramebufferRenderbuffer
PUBLIC	glad_glWindowPos3svARB
PUBLIC	GLAD_GL_ATI_draw_buffers
PUBLIC	glad_glProgramLocalParameterI4ivNV
PUBLIC	glad_glGetFramebufferAttachmentParameteriv
PUBLIC	glad_glDrawBuffersATI
PUBLIC	GLAD_GL_ATI_element_array
PUBLIC	glad_glGenerateMipmap
PUBLIC	glad_glProgramLocalParametersI4ivNV
PUBLIC	glad_glElementPointerATI
PUBLIC	glad_glDrawElementArrayATI
PUBLIC	glad_glProgramLocalParameterI4uiNV
PUBLIC	glad_glDrawRangeElementArrayATI
PUBLIC	GLAD_GL_ATI_envmap_bumpmap
PUBLIC	glad_glBlitFramebuffer
PUBLIC	glad_glProgramLocalParameterI4uivNV
PUBLIC	glad_glTexBumpParameterivATI
PUBLIC	glad_glTexBumpParameterfvATI
PUBLIC	glad_glProgramLocalParametersI4uivNV
PUBLIC	glad_glRenderbufferStorageMultisample
PUBLIC	glad_glGetTexBumpParameterivATI
PUBLIC	glad_glGetTexBumpParameterfvATI
PUBLIC	GLAD_GL_ATI_fragment_shader
PUBLIC	glad_glFramebufferTextureLayer
PUBLIC	glad_glProgramEnvParameterI4iNV
PUBLIC	glad_glGenFragmentShadersATI
PUBLIC	glad_glBindFragmentShaderATI
PUBLIC	glad_glMapBufferRange
PUBLIC	glad_glProgramEnvParameterI4ivNV
PUBLIC	glad_glDeleteFragmentShaderATI
PUBLIC	glad_glBeginFragmentShaderATI
PUBLIC	glad_glEndFragmentShaderATI
PUBLIC	glad_glFlushMappedBufferRange
PUBLIC	glad_glProgramEnvParametersI4ivNV
PUBLIC	glad_glBindVertexArray
PUBLIC	glad_glPassTexCoordATI
PUBLIC	glad_glDeleteVertexArrays
PUBLIC	glad_glSampleMapATI
PUBLIC	glad_glProgramEnvParameterI4uiNV
PUBLIC	glad_glGenVertexArrays
PUBLIC	glad_glIsVertexArray
PUBLIC	GLAD_GL_VERSION_3_1
PUBLIC	glad_glProgramEnvParameterI4uivNV
PUBLIC	glad_glColorFragmentOp1ATI
PUBLIC	glad_glDrawArraysInstanced
PUBLIC	glad_glProgramEnvParametersI4uivNV
PUBLIC	glad_glGetProgramLocalParameterIivNV
PUBLIC	glad_glDrawElementsInstanced
PUBLIC	glad_glGetProgramLocalParameterIuivNV
PUBLIC	glad_glTexBuffer
PUBLIC	glad_glColorFragmentOp2ATI
PUBLIC	glad_glPrimitiveRestartIndex
PUBLIC	glad_glGetProgramEnvParameterIivNV
PUBLIC	glad_glGetProgramEnvParameterIuivNV
PUBLIC	glad_glCopyBufferSubData
PUBLIC	GLAD_GL_NV_gpu_program5
PUBLIC	glad_glProgramSubroutineParametersuivNV
PUBLIC	glad_glGetUniformIndices
PUBLIC	glad_glColorFragmentOp3ATI
PUBLIC	glad_glGetProgramSubroutineParameteruivNV
PUBLIC	GLAD_GL_NV_gpu_program5_mem_extended
PUBLIC	GLAD_GL_NV_gpu_shader5
PUBLIC	GLAD_GL_NV_half_float
PUBLIC	glad_glGetActiveUniformsiv
PUBLIC	glad_glVertex2hNV
PUBLIC	glad_glAlphaFragmentOp1ATI
PUBLIC	glad_glVertex2hvNV
PUBLIC	glad_glGetActiveUniformName
PUBLIC	glad_glVertex3hNV
PUBLIC	glad_glGetUniformBlockIndex
PUBLIC	glad_glVertex3hvNV
PUBLIC	glad_glAlphaFragmentOp2ATI
PUBLIC	glad_glGetActiveUniformBlockiv
PUBLIC	glad_glVertex4hNV
PUBLIC	glad_glVertex4hvNV
PUBLIC	glad_glGetActiveUniformBlockName
PUBLIC	glad_glNormal3hNV
PUBLIC	glad_glNormal3hvNV
PUBLIC	glad_glUniformBlockBinding
PUBLIC	GLAD_GL_VERSION_3_2
PUBLIC	glad_glAlphaFragmentOp3ATI
PUBLIC	glad_glColor3hNV
PUBLIC	glad_glColor3hvNV
PUBLIC	glad_glSetFragmentShaderConstantATI
PUBLIC	GLAD_GL_ATI_map_object_buffer
PUBLIC	glad_glDrawElementsBaseVertex
PUBLIC	glad_glMapObjectBufferATI
PUBLIC	glad_glColor4hNV
PUBLIC	glad_glUnmapObjectBufferATI
PUBLIC	GLAD_GL_ATI_meminfo
PUBLIC	GLAD_GL_ATI_pixel_format_float
PUBLIC	GLAD_GL_ATI_pn_triangles
PUBLIC	glad_glColor4hvNV
PUBLIC	glad_glTexCoord1hNV
PUBLIC	glad_glPNTrianglesiATI
PUBLIC	glad_glDrawRangeElementsBaseVertex
PUBLIC	glad_glTexCoord1hvNV
PUBLIC	glad_glPNTrianglesfATI
PUBLIC	GLAD_GL_ATI_separate_stencil
PUBLIC	glad_glTexCoord2hNV
PUBLIC	glad_glTexCoord2hvNV
PUBLIC	glad_glDrawElementsInstancedBaseVertex
PUBLIC	glad_glStencilOpSeparateATI
PUBLIC	glad_glTexCoord3hNV
PUBLIC	glad_glTexCoord3hvNV
PUBLIC	glad_glStencilFuncSeparateATI
PUBLIC	GLAD_GL_ATI_text_fragment_shader
PUBLIC	GLAD_GL_ATI_texture_env_combine3
PUBLIC	glad_glMultiDrawElementsBaseVertex
PUBLIC	GLAD_GL_ATI_texture_float
PUBLIC	GLAD_GL_ATI_texture_mirror_once
PUBLIC	GLAD_GL_ATI_vertex_array_object
PUBLIC	glad_glProvokingVertex
PUBLIC	glad_glTexCoord4hNV
PUBLIC	glad_glTexCoord4hvNV
PUBLIC	glad_glFenceSync
PUBLIC	glad_glNewObjectBufferATI
PUBLIC	glad_glIsSync
PUBLIC	glad_glIsObjectBufferATI
PUBLIC	glad_glMultiTexCoord1hNV
PUBLIC	glad_glDeleteSync
PUBLIC	glad_glMultiTexCoord1hvNV
PUBLIC	glad_glClientWaitSync
PUBLIC	glad_glUpdateObjectBufferATI
PUBLIC	glad_glMultiTexCoord2hNV
PUBLIC	glad_glWaitSync
PUBLIC	glad_glGetObjectBufferfvATI
PUBLIC	glad_glMultiTexCoord2hvNV
PUBLIC	glad_glGetInteger64v
PUBLIC	glad_glGetObjectBufferivATI
PUBLIC	glad_glMultiTexCoord3hNV
PUBLIC	glad_glFreeObjectBufferATI
PUBLIC	glad_glMultiTexCoord3hvNV
PUBLIC	glad_glGetSynciv
PUBLIC	glad_glGetInteger64i_v
PUBLIC	glad_glArrayObjectATI
PUBLIC	glad_glMultiTexCoord4hNV
PUBLIC	glad_glGetBufferParameteri64v
PUBLIC	glad_glGetArrayObjectfvATI
PUBLIC	glad_glMultiTexCoord4hvNV
PUBLIC	glad_glFogCoordhNV
PUBLIC	glad_glGetArrayObjectivATI
PUBLIC	glad_glFramebufferTexture
PUBLIC	glad_glFogCoordhvNV
PUBLIC	glad_glSecondaryColor3hNV
PUBLIC	glad_glVariantArrayObjectATI
PUBLIC	glad_glSecondaryColor3hvNV
PUBLIC	glad_glTexImage2DMultisample
PUBLIC	glad_glVertexWeighthNV
PUBLIC	glad_glGetVariantArrayObjectfvATI
PUBLIC	glad_glVertexWeighthvNV
PUBLIC	glad_glVertexAttrib1hNV
PUBLIC	glad_glGetVariantArrayObjectivATI
PUBLIC	GLAD_GL_ATI_vertex_attrib_array_object
PUBLIC	glad_glTexImage3DMultisample
PUBLIC	glad_glVertexAttrib1hvNV
PUBLIC	glad_glGetMultisamplefv
PUBLIC	glad_glVertexAttrib2hNV
PUBLIC	glad_glSampleMaski
PUBLIC	glad_glVertexAttribArrayObjectATI
PUBLIC	GLAD_GL_VERSION_3_3
PUBLIC	glad_glVertexAttrib2hvNV
PUBLIC	glad_glGetVertexAttribArrayObjectfvATI
PUBLIC	glad_glBindFragDataLocationIndexed
PUBLIC	glad_glVertexAttrib3hNV
PUBLIC	glad_glGetVertexAttribArrayObjectivATI
PUBLIC	glad_glGetFragDataIndex
PUBLIC	GLAD_GL_ATI_vertex_streams
PUBLIC	glad_glVertexAttrib3hvNV
PUBLIC	glad_glGenSamplers
PUBLIC	glad_glVertexStream1sATI
PUBLIC	glad_glVertexStream1svATI
PUBLIC	glad_glDeleteSamplers
PUBLIC	glad_glVertexAttrib4hNV
PUBLIC	glad_glIsSampler
PUBLIC	glad_glVertexStream1iATI
PUBLIC	glad_glVertexAttrib4hvNV
PUBLIC	glad_glBindSampler
PUBLIC	glad_glVertexStream1ivATI
PUBLIC	glad_glVertexAttribs1hvNV
PUBLIC	glad_glVertexStream1fATI
PUBLIC	glad_glSamplerParameteri
PUBLIC	glad_glVertexAttribs2hvNV
PUBLIC	glad_glVertexStream1fvATI
PUBLIC	glad_glSamplerParameteriv
PUBLIC	glad_glVertexStream1dATI
PUBLIC	glad_glVertexAttribs3hvNV
PUBLIC	glad_glSamplerParameterf
PUBLIC	glad_glVertexStream1dvATI
PUBLIC	glad_glVertexAttribs4hvNV
PUBLIC	GLAD_GL_NV_internalformat_sample_query
PUBLIC	glad_glSamplerParameterfv
PUBLIC	glad_glVertexStream2sATI
PUBLIC	glad_glSamplerParameterIiv
PUBLIC	glad_glVertexStream2svATI
PUBLIC	glad_glGetInternalformatSampleivNV
PUBLIC	GLAD_GL_NV_light_max_exponent
PUBLIC	GLAD_GL_NV_memory_attachment
PUBLIC	glad_glVertexStream2iATI
PUBLIC	glad_glSamplerParameterIuiv
PUBLIC	glad_glVertexStream2ivATI
PUBLIC	glad_glGetSamplerParameteriv
PUBLIC	glad_glGetMemoryObjectDetachedResourcesuivNV
PUBLIC	glad_glVertexStream2fATI
PUBLIC	glad_glGetSamplerParameterIiv
PUBLIC	glad_glResetMemoryObjectParameterNV
PUBLIC	glad_glVertexStream2fvATI
PUBLIC	glad_glGetSamplerParameterfv
PUBLIC	glad_glTexAttachMemoryNV
PUBLIC	glad_glVertexStream2dATI
PUBLIC	glad_glBufferAttachMemoryNV
PUBLIC	glad_glGetSamplerParameterIuiv
PUBLIC	glad_glVertexStream2dvATI
PUBLIC	glad_glQueryCounter
PUBLIC	glad_glTextureAttachMemoryNV
PUBLIC	glad_glVertexStream3sATI
PUBLIC	glad_glGetQueryObjecti64v
PUBLIC	glad_glNamedBufferAttachMemoryNV
PUBLIC	GLAD_GL_NV_mesh_shader
PUBLIC	glad_glVertexStream3svATI
PUBLIC	glad_glGetQueryObjectui64v
PUBLIC	glad_glDrawMeshTasksNV
PUBLIC	glad_glDrawMeshTasksIndirectNV
PUBLIC	glad_glVertexAttribDivisor
PUBLIC	glad_glVertexStream3iATI
PUBLIC	glad_glVertexStream3ivATI
PUBLIC	glad_glMultiDrawMeshTasksIndirectNV
PUBLIC	glad_glVertexAttribP1ui
PUBLIC	glad_glVertexStream3fATI
PUBLIC	glad_glMultiDrawMeshTasksIndirectCountNV
PUBLIC	GLAD_GL_NV_multisample_coverage
PUBLIC	GLAD_GL_NV_multisample_filter_hint
PUBLIC	GLAD_GL_NV_occlusion_query
PUBLIC	glad_glVertexAttribP1uiv
PUBLIC	glad_glVertexStream3fvATI
PUBLIC	glad_glGenOcclusionQueriesNV
PUBLIC	glad_glVertexAttribP2ui
PUBLIC	glad_glDeleteOcclusionQueriesNV
PUBLIC	glad_glVertexStream3dATI
PUBLIC	glad_glIsOcclusionQueryNV
PUBLIC	glad_glVertexStream3dvATI
PUBLIC	glad_glBeginOcclusionQueryNV
PUBLIC	glad_glVertexAttribP2uiv
PUBLIC	glad_glEndOcclusionQueryNV
PUBLIC	glad_glVertexAttribP3ui
PUBLIC	glad_glVertexStream4sATI
PUBLIC	glad_glGetOcclusionQueryivNV
PUBLIC	glad_glVertexStream4svATI
PUBLIC	glad_glGetOcclusionQueryuivNV
PUBLIC	GLAD_GL_NV_packed_depth_stencil
PUBLIC	glad_glVertexAttribP3uiv
PUBLIC	GLAD_GL_NV_parameter_buffer_object
PUBLIC	glad_glVertexStream4iATI
PUBLIC	glad_glVertexAttribP4ui
PUBLIC	glad_glProgramBufferParametersfvNV
PUBLIC	glad_glVertexStream4ivATI
PUBLIC	glad_glVertexAttribP4uiv
PUBLIC	glad_glProgramBufferParametersIivNV
PUBLIC	glad_glVertexP2ui
PUBLIC	glad_glVertexStream4fATI
PUBLIC	glad_glVertexStream4fvATI
PUBLIC	glad_glVertexP2uiv
PUBLIC	glad_glProgramBufferParametersIuivNV
PUBLIC	GLAD_GL_NV_parameter_buffer_object2
PUBLIC	glad_glVertexP3ui
PUBLIC	GLAD_GL_NV_path_rendering
PUBLIC	glad_glGenPathsNV
PUBLIC	glad_glVertexP3uiv
PUBLIC	glad_glVertexStream4dATI
PUBLIC	glad_glDeletePathsNV
PUBLIC	glad_glVertexP4ui
PUBLIC	glad_glVertexStream4dvATI
PUBLIC	glad_glIsPathNV
PUBLIC	glad_glVertexP4uiv
PUBLIC	glad_glNormalStream3bATI
PUBLIC	glad_glTexCoordP1ui
PUBLIC	glad_glNormalStream3bvATI
PUBLIC	glad_glPathCommandsNV
PUBLIC	glad_glTexCoordP1uiv
PUBLIC	glad_glTexCoordP2ui
PUBLIC	glad_glNormalStream3sATI
PUBLIC	glad_glPathCoordsNV
PUBLIC	glad_glTexCoordP2uiv
PUBLIC	glad_glNormalStream3svATI
PUBLIC	glad_glTexCoordP3ui
PUBLIC	glad_glNormalStream3iATI
PUBLIC	glad_glTexCoordP3uiv
PUBLIC	glad_glPathSubCommandsNV
PUBLIC	glad_glNormalStream3ivATI
PUBLIC	glad_glTexCoordP4ui
PUBLIC	glad_glTexCoordP4uiv
PUBLIC	glad_glPathSubCoordsNV
PUBLIC	glad_glNormalStream3fATI
PUBLIC	glad_glMultiTexCoordP1ui
PUBLIC	glad_glNormalStream3fvATI
PUBLIC	glad_glPathStringNV
PUBLIC	glad_glMultiTexCoordP1uiv
PUBLIC	glad_glNormalStream3dATI
PUBLIC	glad_glMultiTexCoordP2ui
PUBLIC	glad_glNormalStream3dvATI
PUBLIC	glad_glClientActiveVertexStreamATI
PUBLIC	glad_glMultiTexCoordP2uiv
PUBLIC	glad_glPathGlyphsNV
PUBLIC	glad_glVertexBlendEnviATI
PUBLIC	glad_glMultiTexCoordP3ui
PUBLIC	glad_glVertexBlendEnvfATI
PUBLIC	GLAD_GL_EXT_422_pixels
PUBLIC	GLAD_GL_EXT_EGL_image_storage
PUBLIC	glad_glMultiTexCoordP3uiv
PUBLIC	glad_glEGLImageTargetTexStorageEXT
PUBLIC	glad_glPathGlyphRangeNV
PUBLIC	glad_glMultiTexCoordP4ui
PUBLIC	glad_glEGLImageTargetTextureStorageEXT
PUBLIC	GLAD_GL_EXT_EGL_sync
PUBLIC	GLAD_GL_EXT_abgr
PUBLIC	GLAD_GL_EXT_bgra
PUBLIC	glad_glMultiTexCoordP4uiv
PUBLIC	GLAD_GL_EXT_bindable_uniform
PUBLIC	glad_glWeightPathsNV
PUBLIC	glad_glNormalP3ui
PUBLIC	glad_glCopyPathNV
PUBLIC	glad_glUniformBufferEXT
PUBLIC	glad_glNormalP3uiv
PUBLIC	glad_glGetUniformBufferSizeEXT
PUBLIC	glad_glInterpolatePathsNV
PUBLIC	glad_glColorP3ui
PUBLIC	glad_glGetUniformOffsetEXT
PUBLIC	GLAD_GL_EXT_blend_color
PUBLIC	glad_glColorP3uiv
PUBLIC	glad_glTransformPathNV
PUBLIC	glad_glColorP4ui
PUBLIC	glad_glBlendColorEXT
PUBLIC	GLAD_GL_EXT_blend_equation_separate
PUBLIC	glad_glPathParameterivNV
PUBLIC	glad_glColorP4uiv
PUBLIC	glad_glBlendEquationSeparateEXT
PUBLIC	GLAD_GL_EXT_blend_func_separate
PUBLIC	glad_glSecondaryColorP3ui
PUBLIC	glad_glPathParameteriNV
PUBLIC	glad_glSecondaryColorP3uiv
PUBLIC	GLAD_GL_VERSION_4_0
PUBLIC	glad_glBlendFuncSeparateEXT
PUBLIC	GLAD_GL_EXT_blend_logic_op
PUBLIC	glad_glPathParameterfvNV
PUBLIC	GLAD_GL_EXT_blend_minmax
PUBLIC	glad_glMinSampleShading
PUBLIC	glad_glBlendEquationEXT
PUBLIC	GLAD_GL_EXT_blend_subtract
PUBLIC	GLAD_GL_EXT_clip_volume_hint
PUBLIC	GLAD_GL_EXT_cmyka
PUBLIC	GLAD_GL_EXT_color_subtable
PUBLIC	glad_glBlendEquationi
PUBLIC	glad_glPathParameterfNV
PUBLIC	glad_glPathDashArrayNV
PUBLIC	glad_glBlendEquationSeparatei
PUBLIC	glad_glColorSubTableEXT
PUBLIC	glad_glBlendFunci
PUBLIC	glad_glPathStencilFuncNV
PUBLIC	glad_glPathStencilDepthOffsetNV
PUBLIC	glad_glCopyColorSubTableEXT
PUBLIC	GLAD_GL_EXT_compiled_vertex_array
PUBLIC	glad_glBlendFuncSeparatei
PUBLIC	glad_glStencilFillPathNV
PUBLIC	glad_glLockArraysEXT
PUBLIC	glad_glDrawArraysIndirect
PUBLIC	glad_glUnlockArraysEXT
PUBLIC	GLAD_GL_EXT_convolution
PUBLIC	glad_glStencilStrokePathNV
PUBLIC	glad_glDrawElementsIndirect
PUBLIC	glad_glUniform1d
PUBLIC	glad_glConvolutionFilter1DEXT
PUBLIC	glad_glStencilFillPathInstancedNV
PUBLIC	glad_glUniform2d
PUBLIC	glad_glUniform3d
PUBLIC	glad_glConvolutionFilter2DEXT
PUBLIC	glad_glStencilStrokePathInstancedNV
PUBLIC	glad_glConvolutionParameterfEXT
PUBLIC	glad_glUniform4d
PUBLIC	glad_glPathCoverDepthFuncNV
PUBLIC	glad_glConvolutionParameterfvEXT
PUBLIC	glad_glCoverFillPathNV
PUBLIC	glad_glUniform1dv
PUBLIC	glad_glCoverStrokePathNV
PUBLIC	glad_glConvolutionParameteriEXT
PUBLIC	glad_glUniform2dv
PUBLIC	glad_glConvolutionParameterivEXT
PUBLIC	glad_glUniform3dv
PUBLIC	glad_glCoverFillPathInstancedNV
PUBLIC	glad_glUniform4dv
PUBLIC	glad_glCopyConvolutionFilter1DEXT
PUBLIC	glad_glUniformMatrix2dv
PUBLIC	glad_glCoverStrokePathInstancedNV
PUBLIC	glad_glCopyConvolutionFilter2DEXT
PUBLIC	glad_glGetPathParameterivNV
PUBLIC	glad_glUniformMatrix3dv
PUBLIC	glad_glGetConvolutionFilterEXT
PUBLIC	glad_glGetPathParameterfvNV
PUBLIC	glad_glUniformMatrix4dv
PUBLIC	glad_glGetConvolutionParameterfvEXT
PUBLIC	glad_glGetPathCommandsNV
PUBLIC	glad_glUniformMatrix2x3dv
PUBLIC	glad_glGetPathCoordsNV
PUBLIC	glad_glGetConvolutionParameterivEXT
PUBLIC	glad_glGetPathDashArrayNV
PUBLIC	glad_glUniformMatrix2x4dv
PUBLIC	glad_glGetSeparableFilterEXT
PUBLIC	glad_glUniformMatrix3x2dv
PUBLIC	glad_glGetPathMetricsNV
PUBLIC	glad_glUniformMatrix3x4dv
PUBLIC	glad_glSeparableFilter2DEXT
PUBLIC	GLAD_GL_EXT_coordinate_frame
PUBLIC	glad_glGetPathMetricRangeNV
PUBLIC	glad_glUniformMatrix4x2dv
PUBLIC	glad_glTangent3bEXT
PUBLIC	glad_glTangent3bvEXT
PUBLIC	glad_glUniformMatrix4x3dv
PUBLIC	glad_glGetPathSpacingNV
PUBLIC	glad_glTangent3dEXT
PUBLIC	glad_glGetUniformdv
PUBLIC	glad_glTangent3dvEXT
PUBLIC	glad_glIsPointInFillPathNV
PUBLIC	glad_glGetSubroutineUniformLocation
PUBLIC	glad_glTangent3fEXT
PUBLIC	glad_glTangent3fvEXT
PUBLIC	glad_glIsPointInStrokePathNV
PUBLIC	glad_glGetSubroutineIndex
PUBLIC	glad_glTangent3iEXT
PUBLIC	glad_glGetPathLengthNV
PUBLIC	glad_glTangent3ivEXT
PUBLIC	glad_glGetActiveSubroutineUniformiv
PUBLIC	glad_glTangent3sEXT
PUBLIC	glad_glTangent3svEXT
PUBLIC	glad_glPointAlongPathNV
PUBLIC	glad_glGetActiveSubroutineUniformName
PUBLIC	glad_glBinormal3bEXT
PUBLIC	glad_glMatrixLoad3x2fNV
PUBLIC	glad_glBinormal3bvEXT
PUBLIC	glad_glMatrixLoad3x3fNV
PUBLIC	glad_glGetActiveSubroutineName
PUBLIC	glad_glBinormal3dEXT
PUBLIC	glad_glMatrixLoadTranspose3x3fNV
PUBLIC	glad_glBinormal3dvEXT
PUBLIC	glad_glMatrixMult3x2fNV
PUBLIC	glad_glUniformSubroutinesuiv
PUBLIC	glad_glBinormal3fEXT
PUBLIC	glad_glMatrixMult3x3fNV
PUBLIC	glad_glGetUniformSubroutineuiv
PUBLIC	glad_glBinormal3fvEXT
PUBLIC	glad_glMatrixMultTranspose3x3fNV
PUBLIC	glad_glBinormal3iEXT
PUBLIC	glad_glGetProgramStageiv
PUBLIC	glad_glBinormal3ivEXT
PUBLIC	glad_glStencilThenCoverFillPathNV
PUBLIC	glad_glPatchParameteri
PUBLIC	glad_glBinormal3sEXT
PUBLIC	glad_glPatchParameterfv
PUBLIC	glad_glBinormal3svEXT
PUBLIC	glad_glStencilThenCoverStrokePathNV
PUBLIC	glad_glBindTransformFeedback
PUBLIC	glad_glTangentPointerEXT
PUBLIC	glad_glDeleteTransformFeedbacks
PUBLIC	glad_glBinormalPointerEXT
PUBLIC	glad_glGenTransformFeedbacks
PUBLIC	GLAD_GL_EXT_copy_texture
PUBLIC	glad_glIsTransformFeedback
PUBLIC	glad_glStencilThenCoverFillPathInstancedNV
PUBLIC	glad_glPauseTransformFeedback
PUBLIC	glad_glResumeTransformFeedback
PUBLIC	glad_glDrawTransformFeedback
PUBLIC	glad_glCopyTexImage1DEXT
PUBLIC	glad_glStencilThenCoverStrokePathInstancedNV
PUBLIC	glad_glDrawTransformFeedbackStream
PUBLIC	glad_glBeginQueryIndexed
PUBLIC	glad_glCopyTexImage2DEXT
PUBLIC	glad_glPathGlyphIndexRangeNV
PUBLIC	glad_glEndQueryIndexed
PUBLIC	glad_glGetQueryIndexediv
PUBLIC	GLAD_GL_VERSION_4_1
PUBLIC	glad_glCopyTexSubImage1DEXT
PUBLIC	glad_glReleaseShaderCompiler
PUBLIC	glad_glPathGlyphIndexArrayNV
PUBLIC	glad_glShaderBinary
PUBLIC	glad_glCopyTexSubImage2DEXT
PUBLIC	glad_glGetShaderPrecisionFormat
PUBLIC	glad_glPathMemoryGlyphIndexArrayNV
PUBLIC	glad_glDepthRangef
PUBLIC	glad_glClearDepthf
PUBLIC	glad_glCopyTexSubImage3DEXT
PUBLIC	glad_glProgramPathFragmentInputGenNV
PUBLIC	GLAD_GL_EXT_cull_vertex
PUBLIC	glad_glCullParameterdvEXT
PUBLIC	glad_glGetProgramBinary
PUBLIC	glad_glCullParameterfvEXT
PUBLIC	GLAD_GL_EXT_debug_label
PUBLIC	glad_glGetProgramResourcefvNV
PUBLIC	glad_glProgramBinary
PUBLIC	glad_glLabelObjectEXT
PUBLIC	glad_glProgramParameteri
PUBLIC	glad_glPathColorGenNV
PUBLIC	glad_glUseProgramStages
PUBLIC	glad_glGetObjectLabelEXT
PUBLIC	GLAD_GL_EXT_debug_marker
PUBLIC	glad_glPathTexGenNV
PUBLIC	glad_glActiveShaderProgram
PUBLIC	glad_glInsertEventMarkerEXT
PUBLIC	glad_glPathFogGenNV
PUBLIC	glad_glCreateShaderProgramv
PUBLIC	glad_glPushGroupMarkerEXT
PUBLIC	glad_glGetPathColorGenivNV
PUBLIC	glad_glPopGroupMarkerEXT
PUBLIC	glad_glBindProgramPipeline
PUBLIC	GLAD_GL_EXT_depth_bounds_test
PUBLIC	glad_glGetPathColorGenfvNV
PUBLIC	glad_glDepthBoundsEXT
PUBLIC	glad_glDeleteProgramPipelines
PUBLIC	GLAD_GL_EXT_direct_state_access
PUBLIC	glad_glGenProgramPipelines
PUBLIC	glad_glMatrixLoadfEXT
PUBLIC	glad_glGetPathTexGenivNV
PUBLIC	glad_glIsProgramPipeline
PUBLIC	glad_glMatrixLoaddEXT
PUBLIC	glad_glGetPathTexGenfvNV
PUBLIC	GLAD_GL_NV_path_rendering_shared_edge
PUBLIC	GLAD_GL_NV_pixel_data_range
PUBLIC	glad_glGetProgramPipelineiv
PUBLIC	glad_glMatrixMultfEXT
PUBLIC	glad_glMatrixMultdEXT
PUBLIC	glad_glPixelDataRangeNV
PUBLIC	glad_glProgramUniform1i
PUBLIC	glad_glMatrixLoadIdentityEXT
PUBLIC	glad_glFlushPixelDataRangeNV
PUBLIC	GLAD_GL_NV_point_sprite
PUBLIC	glad_glProgramUniform1iv
PUBLIC	glad_glPointParameteriNV
PUBLIC	glad_glMatrixRotatefEXT
PUBLIC	glad_glPointParameterivNV
PUBLIC	GLAD_GL_NV_present_video
PUBLIC	glad_glProgramUniform1f
PUBLIC	glad_glMatrixRotatedEXT
PUBLIC	glad_glProgramUniform1fv
PUBLIC	glad_glProgramUniform1d
PUBLIC	glad_glMatrixScalefEXT
PUBLIC	glad_glPresentFrameKeyedNV
PUBLIC	glad_glProgramUniform1dv
PUBLIC	glad_glMatrixScaledEXT
PUBLIC	glad_glProgramUniform1ui
PUBLIC	glad_glMatrixTranslatefEXT
PUBLIC	glad_glProgramUniform1uiv
PUBLIC	glad_glMatrixTranslatedEXT
PUBLIC	glad_glPresentFrameDualFillNV
PUBLIC	glad_glProgramUniform2i
PUBLIC	glad_glGetVideoivNV
PUBLIC	glad_glMatrixFrustumEXT
PUBLIC	glad_glProgramUniform2iv
PUBLIC	glad_glGetVideouivNV
PUBLIC	glad_glGetVideoi64vNV
PUBLIC	glad_glProgramUniform2f
PUBLIC	glad_glMatrixOrthoEXT
PUBLIC	glad_glGetVideoui64vNV
PUBLIC	GLAD_GL_NV_primitive_restart
PUBLIC	glad_glMatrixPopEXT
PUBLIC	glad_glProgramUniform2fv
PUBLIC	glad_glPrimitiveRestartNV
PUBLIC	glad_glMatrixPushEXT
PUBLIC	glad_glPrimitiveRestartIndexNV
PUBLIC	GLAD_GL_NV_query_resource
PUBLIC	glad_glClientAttribDefaultEXT
PUBLIC	glad_glProgramUniform2d
PUBLIC	glad_glPushClientAttribDefaultEXT
PUBLIC	glad_glQueryResourceNV
PUBLIC	GLAD_GL_NV_query_resource_tag
PUBLIC	glad_glProgramUniform2dv
PUBLIC	glad_glTextureParameterfEXT
PUBLIC	glad_glGenQueryResourceTagNV
PUBLIC	glad_glProgramUniform2ui
PUBLIC	glad_glDeleteQueryResourceTagNV
PUBLIC	glad_glTextureParameterfvEXT
PUBLIC	glad_glQueryResourceTagNV
PUBLIC	GLAD_GL_NV_register_combiners
PUBLIC	glad_glProgramUniform2uiv
PUBLIC	glad_glTextureParameteriEXT
PUBLIC	glad_glCombinerParameterfvNV
PUBLIC	glad_glCombinerParameterfNV
PUBLIC	glad_glTextureParameterivEXT
PUBLIC	glad_glProgramUniform3i
PUBLIC	glad_glCombinerParameterivNV
PUBLIC	glad_glCombinerParameteriNV
PUBLIC	glad_glProgramUniform3iv
PUBLIC	glad_glTextureImage1DEXT
PUBLIC	glad_glProgramUniform3f
PUBLIC	glad_glCombinerInputNV
PUBLIC	glad_glProgramUniform3fv
PUBLIC	glad_glTextureImage2DEXT
PUBLIC	glad_glProgramUniform3d
PUBLIC	glad_glCombinerOutputNV
PUBLIC	glad_glProgramUniform3dv
PUBLIC	glad_glFinalCombinerInputNV
PUBLIC	glad_glTextureSubImage1DEXT
PUBLIC	glad_glProgramUniform3ui
PUBLIC	glad_glGetCombinerInputParameterfvNV
PUBLIC	glad_glProgramUniform3uiv
PUBLIC	glad_glGetCombinerInputParameterivNV
PUBLIC	glad_glTextureSubImage2DEXT
PUBLIC	glad_glGetCombinerOutputParameterfvNV
PUBLIC	glad_glProgramUniform4i
PUBLIC	glad_glCopyTextureImage1DEXT
PUBLIC	glad_glGetCombinerOutputParameterivNV
PUBLIC	glad_glProgramUniform4iv
PUBLIC	glad_glGetFinalCombinerInputParameterfvNV
PUBLIC	glad_glProgramUniform4f
PUBLIC	glad_glGetFinalCombinerInputParameterivNV
PUBLIC	GLAD_GL_NV_register_combiners2
PUBLIC	glad_glCopyTextureImage2DEXT
PUBLIC	glad_glCombinerStageParameterfvNV
PUBLIC	glad_glProgramUniform4fv
PUBLIC	glad_glGetCombinerStageParameterfvNV
PUBLIC	GLAD_GL_NV_representative_fragment_test
PUBLIC	GLAD_GL_NV_robustness_video_memory_purge
PUBLIC	GLAD_GL_NV_sample_locations
PUBLIC	glad_glCopyTextureSubImage1DEXT
PUBLIC	glad_glProgramUniform4d
PUBLIC	glad_glFramebufferSampleLocationsfvNV
PUBLIC	glad_glProgramUniform4dv
PUBLIC	glad_glCopyTextureSubImage2DEXT
PUBLIC	glad_glNamedFramebufferSampleLocationsfvNV
PUBLIC	glad_glResolveDepthValuesNV
PUBLIC	GLAD_GL_NV_sample_mask_override_coverage
PUBLIC	GLAD_GL_NV_scissor_exclusive
PUBLIC	glad_glProgramUniform4ui
PUBLIC	glad_glGetTextureImageEXT
PUBLIC	glad_glScissorExclusiveNV
PUBLIC	glad_glProgramUniform4uiv
PUBLIC	glad_glScissorExclusiveArrayvNV
PUBLIC	glad_glGetTextureParameterfvEXT
PUBLIC	GLAD_GL_NV_shader_atomic_counters
PUBLIC	GLAD_GL_NV_shader_atomic_float
PUBLIC	GLAD_GL_NV_shader_atomic_float64
PUBLIC	GLAD_GL_NV_shader_atomic_fp16_vector
PUBLIC	GLAD_GL_NV_shader_atomic_int64
PUBLIC	glad_glProgramUniformMatrix2fv
PUBLIC	GLAD_GL_NV_shader_buffer_load
PUBLIC	glad_glGetTextureParameterivEXT
PUBLIC	glad_glMakeBufferResidentNV
PUBLIC	glad_glMakeBufferNonResidentNV
PUBLIC	glad_glProgramUniformMatrix3fv
PUBLIC	glad_glIsBufferResidentNV
PUBLIC	glad_glGetTextureLevelParameterfvEXT
PUBLIC	glad_glMakeNamedBufferResidentNV
PUBLIC	glad_glProgramUniformMatrix4fv
PUBLIC	glad_glMakeNamedBufferNonResidentNV
PUBLIC	glad_glIsNamedBufferResidentNV
PUBLIC	glad_glGetTextureLevelParameterivEXT
PUBLIC	glad_glProgramUniformMatrix2dv
PUBLIC	glad_glGetBufferParameterui64vNV
PUBLIC	glad_glGetNamedBufferParameterui64vNV
PUBLIC	glad_glProgramUniformMatrix3dv
PUBLIC	glad_glGetIntegerui64vNV
PUBLIC	glad_glTextureImage3DEXT
PUBLIC	glad_glUniformui64NV
PUBLIC	glad_glProgramUniformMatrix4dv
PUBLIC	glad_glUniformui64vNV
PUBLIC	glad_glProgramUniformMatrix2x3fv
PUBLIC	glad_glProgramUniformui64NV
PUBLIC	glad_glTextureSubImage3DEXT
PUBLIC	glad_glProgramUniformui64vNV
PUBLIC	GLAD_GL_NV_shader_buffer_store
PUBLIC	glad_glProgramUniformMatrix3x2fv
PUBLIC	GLAD_GL_NV_shader_storage_buffer_object
PUBLIC	GLAD_GL_NV_shader_subgroup_partitioned
PUBLIC	GLAD_GL_NV_shader_texture_footprint
PUBLIC	GLAD_GL_NV_shader_thread_group
PUBLIC	GLAD_GL_NV_shader_thread_shuffle
PUBLIC	GLAD_GL_NV_shading_rate_image
PUBLIC	glad_glBindShadingRateImageNV
PUBLIC	glad_glProgramUniformMatrix2x4fv
PUBLIC	glad_glCopyTextureSubImage3DEXT
PUBLIC	glad_glGetShadingRateImagePaletteNV
PUBLIC	glad_glProgramUniformMatrix4x2fv
PUBLIC	glad_glBindMultiTextureEXT
PUBLIC	glad_glGetShadingRateSampleLocationivNV
PUBLIC	glad_glShadingRateImageBarrierNV
PUBLIC	glad_glProgramUniformMatrix3x4fv
PUBLIC	glad_glMultiTexCoordPointerEXT
PUBLIC	glad_glShadingRateImagePaletteNV
PUBLIC	glad_glShadingRateSampleOrderNV
PUBLIC	glad_glMultiTexEnvfEXT
PUBLIC	glad_glProgramUniformMatrix4x3fv
PUBLIC	glad_glShadingRateSampleOrderCustomNV
PUBLIC	GLAD_GL_NV_stereo_view_rendering
PUBLIC	GLAD_GL_NV_tessellation_program5
PUBLIC	GLAD_GL_NV_texgen_emboss
PUBLIC	glad_glMultiTexEnvfvEXT
PUBLIC	GLAD_GL_NV_texgen_reflection
PUBLIC	GLAD_GL_NV_texture_barrier
PUBLIC	glad_glProgramUniformMatrix2x3dv
PUBLIC	glad_glTextureBarrierNV
PUBLIC	GLAD_GL_NV_texture_compression_vtc
PUBLIC	GLAD_GL_NV_texture_env_combine4
PUBLIC	GLAD_GL_NV_texture_expand_normal
PUBLIC	GLAD_GL_NV_texture_multisample
PUBLIC	glad_glMultiTexEnviEXT
PUBLIC	glad_glProgramUniformMatrix3x2dv
PUBLIC	glad_glMultiTexEnvivEXT
PUBLIC	glad_glTexImage2DMultisampleCoverageNV
PUBLIC	glad_glProgramUniformMatrix2x4dv
PUBLIC	glad_glMultiTexGendEXT
PUBLIC	glad_glProgramUniformMatrix4x2dv
PUBLIC	glad_glMultiTexGendvEXT
PUBLIC	glad_glTexImage3DMultisampleCoverageNV
PUBLIC	glad_glMultiTexGenfEXT
PUBLIC	glad_glProgramUniformMatrix3x4dv
PUBLIC	glad_glTextureImage2DMultisampleNV
PUBLIC	glad_glMultiTexGenfvEXT
PUBLIC	glad_glProgramUniformMatrix4x3dv
PUBLIC	glad_glValidateProgramPipeline
PUBLIC	glad_glMultiTexGeniEXT
PUBLIC	glad_glTextureImage3DMultisampleNV
PUBLIC	glad_glGetProgramPipelineInfoLog
PUBLIC	glad_glMultiTexGenivEXT
PUBLIC	glad_glVertexAttribL1d
PUBLIC	glad_glGetMultiTexEnvfvEXT
PUBLIC	glad_glVertexAttribL2d
PUBLIC	glad_glTextureImage2DMultisampleCoverageNV
PUBLIC	glad_glGetMultiTexEnvivEXT
PUBLIC	glad_glVertexAttribL3d
PUBLIC	glad_glGetMultiTexGendvEXT
PUBLIC	glad_glVertexAttribL4d
PUBLIC	glad_glTextureImage3DMultisampleCoverageNV
PUBLIC	GLAD_GL_NV_texture_rectangle
PUBLIC	GLAD_GL_NV_texture_rectangle_compressed
PUBLIC	GLAD_GL_NV_texture_shader
PUBLIC	GLAD_GL_NV_texture_shader2
PUBLIC	GLAD_GL_NV_texture_shader3
PUBLIC	glad_glVertexAttribL1dv
PUBLIC	glad_glGetMultiTexGenfvEXT
PUBLIC	GLAD_GL_NV_transform_feedback
PUBLIC	glad_glBeginTransformFeedbackNV
PUBLIC	glad_glVertexAttribL2dv
PUBLIC	glad_glEndTransformFeedbackNV
PUBLIC	glad_glGetMultiTexGenivEXT
PUBLIC	glad_glVertexAttribL3dv
PUBLIC	glad_glTransformFeedbackAttribsNV
PUBLIC	glad_glVertexAttribL4dv
PUBLIC	glad_glMultiTexParameteriEXT
PUBLIC	glad_glBindBufferRangeNV
PUBLIC	glad_glVertexAttribLPointer
PUBLIC	glad_glMultiTexParameterivEXT
PUBLIC	glad_glGetVertexAttribLdv
PUBLIC	glad_glBindBufferOffsetNV
PUBLIC	glad_glMultiTexParameterfEXT
PUBLIC	glad_glBindBufferBaseNV
PUBLIC	glad_glViewportArrayv
PUBLIC	glad_glMultiTexParameterfvEXT
PUBLIC	glad_glTransformFeedbackVaryingsNV
PUBLIC	glad_glViewportIndexedf
PUBLIC	glad_glActiveVaryingNV
PUBLIC	glad_glViewportIndexedfv
PUBLIC	glad_glGetVaryingLocationNV
PUBLIC	glad_glMultiTexImage1DEXT
PUBLIC	glad_glScissorArrayv
PUBLIC	glad_glScissorIndexed
PUBLIC	glad_glGetActiveVaryingNV
PUBLIC	glad_glScissorIndexedv
PUBLIC	glad_glGetTransformFeedbackVaryingNV
PUBLIC	glad_glMultiTexImage2DEXT
PUBLIC	glad_glDepthRangeArrayv
PUBLIC	glad_glTransformFeedbackStreamAttribsNV
PUBLIC	GLAD_GL_NV_transform_feedback2
PUBLIC	glad_glDepthRangeIndexed
PUBLIC	glad_glMultiTexSubImage1DEXT
PUBLIC	glad_glBindTransformFeedbackNV
PUBLIC	glad_glGetFloati_v
PUBLIC	glad_glDeleteTransformFeedbacksNV
PUBLIC	glad_glGetDoublei_v
PUBLIC	GLAD_GL_VERSION_4_2
PUBLIC	glad_glGenTransformFeedbacksNV
PUBLIC	glad_glIsTransformFeedbackNV
PUBLIC	glad_glPauseTransformFeedbackNV
PUBLIC	glad_glResumeTransformFeedbackNV
PUBLIC	glad_glMultiTexSubImage2DEXT
PUBLIC	glad_glDrawArraysInstancedBaseInstance
PUBLIC	glad_glDrawTransformFeedbackNV
PUBLIC	GLAD_GL_NV_uniform_buffer_unified_memory
PUBLIC	GLAD_GL_NV_vdpau_interop
PUBLIC	glad_glVDPAUInitNV
PUBLIC	glad_glDrawElementsInstancedBaseInstance
PUBLIC	glad_glVDPAUFiniNV
PUBLIC	glad_glCopyMultiTexImage1DEXT
PUBLIC	glad_glVDPAURegisterVideoSurfaceNV
PUBLIC	glad_glDrawElementsInstancedBaseVertexBaseInstance
PUBLIC	glad_glVDPAURegisterOutputSurfaceNV
PUBLIC	glad_glCopyMultiTexImage2DEXT
PUBLIC	glad_glVDPAUIsSurfaceNV
PUBLIC	glad_glGetInternalformativ
PUBLIC	glad_glVDPAUUnregisterSurfaceNV
PUBLIC	glad_glGetActiveAtomicCounterBufferiv
PUBLIC	glad_glCopyMultiTexSubImage1DEXT
PUBLIC	glad_glVDPAUGetSurfaceivNV
PUBLIC	glad_glVDPAUSurfaceAccessNV
PUBLIC	glad_glVDPAUMapSurfacesNV
PUBLIC	glad_glBindImageTexture
PUBLIC	glad_glMemoryBarrier
PUBLIC	glad_glCopyMultiTexSubImage2DEXT
PUBLIC	glad_glVDPAUUnmapSurfacesNV
PUBLIC	GLAD_GL_NV_vdpau_interop2
PUBLIC	glad_glTexStorage1D
PUBLIC	glad_glVDPAURegisterVideoSurfaceWithPictureStructureNV
PUBLIC	glad_glGetMultiTexImageEXT
PUBLIC	GLAD_GL_NV_vertex_array_range
PUBLIC	glad_glFlushVertexArrayRangeNV
PUBLIC	glad_glTexStorage2D
PUBLIC	glad_glVertexArrayRangeNV
PUBLIC	glad_glGetMultiTexParameterfvEXT
PUBLIC	GLAD_GL_NV_vertex_array_range2
PUBLIC	GLAD_GL_NV_vertex_attrib_integer_64bit
PUBLIC	glad_glVertexAttribL1i64NV
PUBLIC	glad_glGetMultiTexParameterivEXT
PUBLIC	glad_glTexStorage3D
PUBLIC	glad_glVertexAttribL2i64NV
PUBLIC	glad_glDrawTransformFeedbackInstanced
PUBLIC	glad_glGetMultiTexLevelParameterfvEXT
PUBLIC	glad_glVertexAttribL3i64NV
PUBLIC	glad_glDrawTransformFeedbackStreamInstanced
PUBLIC	GLAD_GL_VERSION_4_3
PUBLIC	glad_glGetMultiTexLevelParameterivEXT
PUBLIC	glad_glVertexAttribL4i64NV
PUBLIC	glad_glClearBufferData
PUBLIC	glad_glVertexAttribL1i64vNV
PUBLIC	glad_glVertexAttribL2i64vNV
PUBLIC	glad_glVertexAttribL3i64vNV
PUBLIC	glad_glMultiTexImage3DEXT
PUBLIC	glad_glClearBufferSubData
PUBLIC	glad_glVertexAttribL4i64vNV
PUBLIC	glad_glDispatchCompute
PUBLIC	glad_glVertexAttribL1ui64NV
PUBLIC	glad_glDispatchComputeIndirect
PUBLIC	glad_glVertexAttribL2ui64NV
PUBLIC	glad_glMultiTexSubImage3DEXT
PUBLIC	glad_glVertexAttribL3ui64NV
PUBLIC	glad_glVertexAttribL4ui64NV
PUBLIC	glad_glCopyImageSubData
PUBLIC	glad_glVertexAttribL1ui64vNV
PUBLIC	glad_glCopyMultiTexSubImage3DEXT
PUBLIC	glad_glVertexAttribL2ui64vNV
PUBLIC	glad_glFramebufferParameteri
PUBLIC	glad_glEnableClientStateIndexedEXT
PUBLIC	glad_glVertexAttribL3ui64vNV
PUBLIC	glad_glDisableClientStateIndexedEXT
PUBLIC	glad_glGetFramebufferParameteriv
PUBLIC	glad_glVertexAttribL4ui64vNV
PUBLIC	glad_glGetFloatIndexedvEXT
PUBLIC	glad_glGetVertexAttribLi64vNV
PUBLIC	glad_glGetInternalformati64v
PUBLIC	glad_glGetDoubleIndexedvEXT
PUBLIC	glad_glGetVertexAttribLui64vNV
PUBLIC	glad_glGetPointerIndexedvEXT
PUBLIC	glad_glEnableIndexedEXT
PUBLIC	glad_glVertexAttribLFormatNV
PUBLIC	GLAD_GL_NV_vertex_buffer_unified_memory
PUBLIC	glad_glInvalidateTexSubImage
PUBLIC	glad_glDisableIndexedEXT
PUBLIC	glad_glInvalidateTexImage
PUBLIC	glad_glBufferAddressRangeNV
PUBLIC	glad_glIsEnabledIndexedEXT
PUBLIC	glad_glInvalidateBufferSubData
PUBLIC	glad_glInvalidateBufferData
PUBLIC	glad_glVertexFormatNV
PUBLIC	glad_glGetIntegerIndexedvEXT
PUBLIC	glad_glNormalFormatNV
PUBLIC	glad_glInvalidateFramebuffer
PUBLIC	glad_glGetBooleanIndexedvEXT
PUBLIC	glad_glColorFormatNV
PUBLIC	glad_glIndexFormatNV
PUBLIC	glad_glInvalidateSubFramebuffer
PUBLIC	glad_glTexCoordFormatNV
PUBLIC	glad_glCompressedTextureImage3DEXT
PUBLIC	glad_glEdgeFlagFormatNV
PUBLIC	glad_glMultiDrawArraysIndirect
PUBLIC	glad_glSecondaryColorFormatNV
PUBLIC	glad_glFogCoordFormatNV
PUBLIC	glad_glMultiDrawElementsIndirect
PUBLIC	glad_glCompressedTextureImage2DEXT
PUBLIC	glad_glGetProgramInterfaceiv
PUBLIC	glad_glVertexAttribFormatNV
PUBLIC	glad_glGetProgramResourceIndex
PUBLIC	glad_glVertexAttribIFormatNV
PUBLIC	glad_glCompressedTextureImage1DEXT
PUBLIC	glad_glGetIntegerui64i_vNV
PUBLIC	GLAD_GL_NV_vertex_program
PUBLIC	glad_glGetProgramResourceName
PUBLIC	glad_glAreProgramsResidentNV
PUBLIC	glad_glBindProgramNV
PUBLIC	glad_glCompressedTextureSubImage3DEXT
PUBLIC	glad_glGetProgramResourceiv
PUBLIC	glad_glDeleteProgramsNV
PUBLIC	glad_glGetProgramResourceLocation
PUBLIC	glad_glExecuteProgramNV
PUBLIC	glad_glGenProgramsNV
PUBLIC	glad_glGetProgramResourceLocationIndex
PUBLIC	glad_glCompressedTextureSubImage2DEXT
PUBLIC	glad_glShaderStorageBlockBinding
PUBLIC	glad_glGetProgramParameterdvNV
PUBLIC	glad_glGetProgramParameterfvNV
PUBLIC	glad_glTexBufferRange
PUBLIC	glad_glCompressedTextureSubImage1DEXT
PUBLIC	glad_glGetProgramivNV
PUBLIC	glad_glGetCompressedTextureImageEXT
PUBLIC	glad_glTexStorage2DMultisample
PUBLIC	glad_glGetProgramStringNV
PUBLIC	glad_glGetTrackMatrixivNV
PUBLIC	glad_glTexStorage3DMultisample
PUBLIC	glad_glGetVertexAttribdvNV
PUBLIC	glad_glCompressedMultiTexImage3DEXT
PUBLIC	glad_glGetVertexAttribfvNV
PUBLIC	glad_glTextureView
PUBLIC	glad_glGetVertexAttribivNV
PUBLIC	glad_glCompressedMultiTexImage2DEXT
PUBLIC	glad_glGetVertexAttribPointervNV
PUBLIC	glad_glBindVertexBuffer
PUBLIC	glad_glIsProgramNV
PUBLIC	glad_glVertexAttribFormat
PUBLIC	glad_glLoadProgramNV
PUBLIC	glad_glCompressedMultiTexImage1DEXT
PUBLIC	glad_glVertexAttribIFormat
PUBLIC	glad_glProgramParameter4dNV
PUBLIC	glad_glVertexAttribLFormat
PUBLIC	glad_glProgramParameter4dvNV
PUBLIC	glad_glVertexAttribBinding
PUBLIC	glad_glCompressedMultiTexSubImage3DEXT
PUBLIC	glad_glVertexBindingDivisor
PUBLIC	glad_glProgramParameter4fNV
PUBLIC	glad_glProgramParameter4fvNV
PUBLIC	glad_glDebugMessageControl
PUBLIC	glad_glCompressedMultiTexSubImage2DEXT
PUBLIC	glad_glProgramParameters4dvNV
PUBLIC	glad_glDebugMessageInsert
PUBLIC	glad_glProgramParameters4fvNV
PUBLIC	glad_glDebugMessageCallback
PUBLIC	glad_glCompressedMultiTexSubImage1DEXT
PUBLIC	glad_glRequestResidentProgramsNV
PUBLIC	glad_glGetCompressedMultiTexImageEXT
PUBLIC	glad_glTrackMatrixNV
PUBLIC	glad_glGetDebugMessageLog
PUBLIC	glad_glMatrixLoadTransposefEXT
PUBLIC	glad_glMatrixLoadTransposedEXT
PUBLIC	glad_glVertexAttribPointerNV
PUBLIC	glad_glPushDebugGroup
PUBLIC	glad_glMatrixMultTransposefEXT
PUBLIC	glad_glPopDebugGroup
PUBLIC	glad_glVertexAttrib1dNV
PUBLIC	glad_glMatrixMultTransposedEXT
PUBLIC	glad_glVertexAttrib1dvNV
PUBLIC	glad_glObjectLabel
PUBLIC	glad_glVertexAttrib1fNV
PUBLIC	glad_glNamedBufferDataEXT
PUBLIC	glad_glVertexAttrib1fvNV
PUBLIC	glad_glGetObjectLabel
PUBLIC	glad_glNamedBufferSubDataEXT
PUBLIC	glad_glVertexAttrib1sNV
PUBLIC	glad_glObjectPtrLabel
PUBLIC	glad_glMapNamedBufferEXT
PUBLIC	glad_glVertexAttrib1svNV
PUBLIC	glad_glUnmapNamedBufferEXT
PUBLIC	glad_glGetObjectPtrLabel
PUBLIC	glad_glVertexAttrib2dNV
PUBLIC	glad_glGetNamedBufferParameterivEXT
PUBLIC	glad_glGetPointerv
PUBLIC	glad_glVertexAttrib2dvNV
PUBLIC	GLAD_GL_VERSION_4_4
PUBLIC	glad_glGetNamedBufferPointervEXT
PUBLIC	glad_glVertexAttrib2fNV
PUBLIC	glad_glBufferStorage
PUBLIC	glad_glVertexAttrib2fvNV
PUBLIC	glad_glGetNamedBufferSubDataEXT
PUBLIC	glad_glVertexAttrib2sNV
PUBLIC	glad_glClearTexImage
PUBLIC	glad_glProgramUniform1fEXT
PUBLIC	glad_glVertexAttrib2svNV
PUBLIC	glad_glProgramUniform2fEXT
PUBLIC	glad_glVertexAttrib3dNV
PUBLIC	glad_glVertexAttrib3dvNV
PUBLIC	glad_glProgramUniform3fEXT
PUBLIC	glad_glClearTexSubImage
PUBLIC	glad_glVertexAttrib3fNV
PUBLIC	glad_glBindBuffersBase
PUBLIC	glad_glVertexAttrib3fvNV
PUBLIC	glad_glProgramUniform4fEXT
PUBLIC	glad_glProgramUniform1iEXT
PUBLIC	glad_glVertexAttrib3sNV
PUBLIC	glad_glBindBuffersRange
PUBLIC	glad_glVertexAttrib3svNV
PUBLIC	glad_glProgramUniform2iEXT
PUBLIC	glad_glBindTextures
PUBLIC	glad_glBindSamplers
PUBLIC	glad_glVertexAttrib4dNV
PUBLIC	glad_glProgramUniform3iEXT
PUBLIC	glad_glVertexAttrib4dvNV
PUBLIC	glad_glBindImageTextures
PUBLIC	glad_glProgramUniform4iEXT
PUBLIC	glad_glVertexAttrib4fNV
PUBLIC	glad_glBindVertexBuffers
_BSS	SEGMENT
GLAD_GL_VERSION_4_5 DD 01H DUP (?)
	ALIGN	8

glad_glVertexAttrib4fvNV DQ 01H DUP (?)
glad_glClipControl DQ 01H DUP (?)
glad_glProgramUniform1fvEXT DQ 01H DUP (?)
glad_glCreateTransformFeedbacks DQ 01H DUP (?)
glad_glProgramUniform2fvEXT DQ 01H DUP (?)
glad_glVertexAttrib4sNV DQ 01H DUP (?)
glad_glTransformFeedbackBufferBase DQ 01H DUP (?)
glad_glVertexAttrib4svNV DQ 01H DUP (?)
glad_glProgramUniform3fvEXT DQ 01H DUP (?)
glad_glTransformFeedbackBufferRange DQ 01H DUP (?)
glad_glVertexAttrib4ubNV DQ 01H DUP (?)
glad_glProgramUniform4fvEXT DQ 01H DUP (?)
glad_glGetTransformFeedbackiv DQ 01H DUP (?)
glad_glVertexAttrib4ubvNV DQ 01H DUP (?)
glad_glProgramUniform1ivEXT DQ 01H DUP (?)
glad_glVertexAttribs1dvNV DQ 01H DUP (?)
glad_glGetTransformFeedbacki_v DQ 01H DUP (?)
glad_glVertexAttribs1fvNV DQ 01H DUP (?)
glad_glProgramUniform2ivEXT DQ 01H DUP (?)
glad_glGetTransformFeedbacki64_v DQ 01H DUP (?)
glad_glVertexAttribs1svNV DQ 01H DUP (?)
glad_glProgramUniform3ivEXT DQ 01H DUP (?)
glad_glCreateBuffers DQ 01H DUP (?)
glad_glVertexAttribs2dvNV DQ 01H DUP (?)
glad_glProgramUniform4ivEXT DQ 01H DUP (?)
glad_glNamedBufferStorage DQ 01H DUP (?)
glad_glVertexAttribs2fvNV DQ 01H DUP (?)
glad_glNamedBufferData DQ 01H DUP (?)
glad_glProgramUniformMatrix2fvEXT DQ 01H DUP (?)
glad_glVertexAttribs2svNV DQ 01H DUP (?)
glad_glVertexAttribs3dvNV DQ 01H DUP (?)
glad_glNamedBufferSubData DQ 01H DUP (?)
glad_glProgramUniformMatrix3fvEXT DQ 01H DUP (?)
glad_glVertexAttribs3fvNV DQ 01H DUP (?)
glad_glCopyNamedBufferSubData DQ 01H DUP (?)
glad_glVertexAttribs3svNV DQ 01H DUP (?)
glad_glProgramUniformMatrix4fvEXT DQ 01H DUP (?)
glad_glVertexAttribs4dvNV DQ 01H DUP (?)
glad_glClearNamedBufferData DQ 01H DUP (?)
glad_glProgramUniformMatrix2x3fvEXT DQ 01H DUP (?)
glad_glVertexAttribs4fvNV DQ 01H DUP (?)
glad_glProgramUniformMatrix3x2fvEXT DQ 01H DUP (?)
glad_glClearNamedBufferSubData DQ 01H DUP (?)
glad_glVertexAttribs4svNV DQ 01H DUP (?)
glad_glMapNamedBuffer DQ 01H DUP (?)
glad_glVertexAttribs4ubvNV DQ 01H DUP (?)
GLAD_GL_NV_vertex_program1_1 DD 01H DUP (?)
GLAD_GL_NV_vertex_program2 DD 01H DUP (?)
GLAD_GL_NV_vertex_program2_option DD 01H DUP (?)
GLAD_GL_NV_vertex_program3 DD 01H DUP (?)
glad_glProgramUniformMatrix2x4fvEXT DQ 01H DUP (?)
GLAD_GL_NV_vertex_program4 DD 01H DUP (?)
	ALIGN	8

glad_glMapNamedBufferRange DQ 01H DUP (?)
glad_glVertexAttribI1iEXT DQ 01H DUP (?)
glad_glUnmapNamedBuffer DQ 01H DUP (?)
glad_glProgramUniformMatrix4x2fvEXT DQ 01H DUP (?)
glad_glVertexAttribI2iEXT DQ 01H DUP (?)
glad_glFlushMappedNamedBufferRange DQ 01H DUP (?)
glad_glGetNamedBufferParameteriv DQ 01H DUP (?)
glad_glProgramUniformMatrix3x4fvEXT DQ 01H DUP (?)
glad_glVertexAttribI3iEXT DQ 01H DUP (?)
glad_glGetNamedBufferParameteri64v DQ 01H DUP (?)
glad_glProgramUniformMatrix4x3fvEXT DQ 01H DUP (?)
glad_glVertexAttribI4iEXT DQ 01H DUP (?)
glad_glGetNamedBufferPointerv DQ 01H DUP (?)
glad_glVertexAttribI1uiEXT DQ 01H DUP (?)
glad_glTextureBufferEXT DQ 01H DUP (?)
glad_glGetNamedBufferSubData DQ 01H DUP (?)
glad_glVertexAttribI2uiEXT DQ 01H DUP (?)
glad_glCreateFramebuffers DQ 01H DUP (?)
glad_glMultiTexBufferEXT DQ 01H DUP (?)
glad_glVertexAttribI3uiEXT DQ 01H DUP (?)
glad_glNamedFramebufferRenderbuffer DQ 01H DUP (?)
glad_glTextureParameterIivEXT DQ 01H DUP (?)
glad_glVertexAttribI4uiEXT DQ 01H DUP (?)
glad_glNamedFramebufferParameteri DQ 01H DUP (?)
glad_glTextureParameterIuivEXT DQ 01H DUP (?)
glad_glVertexAttribI1ivEXT DQ 01H DUP (?)
glad_glNamedFramebufferTexture DQ 01H DUP (?)
glad_glVertexAttribI2ivEXT DQ 01H DUP (?)
glad_glGetTextureParameterIivEXT DQ 01H DUP (?)
glad_glVertexAttribI3ivEXT DQ 01H DUP (?)
glad_glGetTextureParameterIuivEXT DQ 01H DUP (?)
glad_glNamedFramebufferTextureLayer DQ 01H DUP (?)
glad_glVertexAttribI4ivEXT DQ 01H DUP (?)
glad_glNamedFramebufferDrawBuffer DQ 01H DUP (?)
glad_glVertexAttribI1uivEXT DQ 01H DUP (?)
glad_glMultiTexParameterIivEXT DQ 01H DUP (?)
glad_glVertexAttribI2uivEXT DQ 01H DUP (?)
glad_glNamedFramebufferDrawBuffers DQ 01H DUP (?)
glad_glVertexAttribI3uivEXT DQ 01H DUP (?)
glad_glNamedFramebufferReadBuffer DQ 01H DUP (?)
glad_glMultiTexParameterIuivEXT DQ 01H DUP (?)
glad_glVertexAttribI4uivEXT DQ 01H DUP (?)
glad_glInvalidateNamedFramebufferData DQ 01H DUP (?)
glad_glGetMultiTexParameterIivEXT DQ 01H DUP (?)
glad_glVertexAttribI4bvEXT DQ 01H DUP (?)
glad_glVertexAttribI4svEXT DQ 01H DUP (?)
glad_glGetMultiTexParameterIuivEXT DQ 01H DUP (?)
glad_glVertexAttribI4ubvEXT DQ 01H DUP (?)
glad_glInvalidateNamedFramebufferSubData DQ 01H DUP (?)
glad_glProgramUniform1uiEXT DQ 01H DUP (?)
glad_glVertexAttribI4usvEXT DQ 01H DUP (?)
glad_glClearNamedFramebufferiv DQ 01H DUP (?)
glad_glProgramUniform2uiEXT DQ 01H DUP (?)
glad_glVertexAttribIPointerEXT DQ 01H DUP (?)
glad_glClearNamedFramebufferuiv DQ 01H DUP (?)
glad_glGetVertexAttribIivEXT DQ 01H DUP (?)
glad_glProgramUniform3uiEXT DQ 01H DUP (?)
glad_glClearNamedFramebufferfv DQ 01H DUP (?)
glad_glGetVertexAttribIuivEXT DQ 01H DUP (?)
GLAD_GL_NV_video_capture DD 01H DUP (?)
	ALIGN	8

glad_glBeginVideoCaptureNV DQ 01H DUP (?)
glad_glProgramUniform4uiEXT DQ 01H DUP (?)
glad_glClearNamedFramebufferfi DQ 01H DUP (?)
glad_glBindVideoCaptureStreamBufferNV DQ 01H DUP (?)
glad_glProgramUniform1uivEXT DQ 01H DUP (?)
glad_glProgramUniform2uivEXT DQ 01H DUP (?)
glad_glBindVideoCaptureStreamTextureNV DQ 01H DUP (?)
glad_glEndVideoCaptureNV DQ 01H DUP (?)
glad_glBlitNamedFramebuffer DQ 01H DUP (?)
glad_glProgramUniform3uivEXT DQ 01H DUP (?)
glad_glGetVideoCaptureivNV DQ 01H DUP (?)
glad_glCheckNamedFramebufferStatus DQ 01H DUP (?)
glad_glProgramUniform4uivEXT DQ 01H DUP (?)
glad_glGetNamedFramebufferParameteriv DQ 01H DUP (?)
glad_glGetVideoCaptureStreamivNV DQ 01H DUP (?)
glad_glGetVideoCaptureStreamfvNV DQ 01H DUP (?)
glad_glGetNamedFramebufferAttachmentParameteriv DQ 01H DUP (?)
glad_glNamedProgramLocalParameters4fvEXT DQ 01H DUP (?)
glad_glCreateRenderbuffers DQ 01H DUP (?)
glad_glGetVideoCaptureStreamdvNV DQ 01H DUP (?)
glad_glNamedProgramLocalParameterI4iEXT DQ 01H DUP (?)
glad_glNamedRenderbufferStorage DQ 01H DUP (?)
glad_glVideoCaptureNV DQ 01H DUP (?)
glad_glNamedProgramLocalParameterI4ivEXT DQ 01H DUP (?)
glad_glNamedRenderbufferStorageMultisample DQ 01H DUP (?)
glad_glVideoCaptureStreamParameterivNV DQ 01H DUP (?)
glad_glGetNamedRenderbufferParameteriv DQ 01H DUP (?)
glad_glVideoCaptureStreamParameterfvNV DQ 01H DUP (?)
glad_glNamedProgramLocalParametersI4ivEXT DQ 01H DUP (?)
glad_glCreateTextures DQ 01H DUP (?)
glad_glVideoCaptureStreamParameterdvNV DQ 01H DUP (?)
GLAD_GL_NV_viewport_array2 DD 01H DUP (?)
GLAD_GL_NV_viewport_swizzle DD 01H DUP (?)
glad_glTextureBuffer DQ 01H DUP (?)
glad_glNamedProgramLocalParameterI4uiEXT DQ 01H DUP (?)
glad_glViewportSwizzleNV DQ 01H DUP (?)
GLAD_GL_OES_byte_coordinates DD 01H DUP (?)
	ALIGN	8

glad_glTextureBufferRange DQ 01H DUP (?)
glad_glNamedProgramLocalParameterI4uivEXT DQ 01H DUP (?)
glad_glMultiTexCoord1bOES DQ 01H DUP (?)
glad_glTextureStorage1D DQ 01H DUP (?)
glad_glMultiTexCoord1bvOES DQ 01H DUP (?)
glad_glNamedProgramLocalParametersI4uivEXT DQ 01H DUP (?)
glad_glMultiTexCoord2bOES DQ 01H DUP (?)
glad_glTextureStorage2D DQ 01H DUP (?)
glad_glGetNamedProgramLocalParameterIivEXT DQ 01H DUP (?)
glad_glMultiTexCoord2bvOES DQ 01H DUP (?)
glad_glGetNamedProgramLocalParameterIuivEXT DQ 01H DUP (?)
glad_glMultiTexCoord3bOES DQ 01H DUP (?)
glad_glTextureStorage3D DQ 01H DUP (?)
glad_glEnableClientStateiEXT DQ 01H DUP (?)
glad_glMultiTexCoord3bvOES DQ 01H DUP (?)
glad_glDisableClientStateiEXT DQ 01H DUP (?)
glad_glTextureStorage2DMultisample DQ 01H DUP (?)
glad_glGetFloati_vEXT DQ 01H DUP (?)
glad_glMultiTexCoord4bOES DQ 01H DUP (?)
glad_glMultiTexCoord4bvOES DQ 01H DUP (?)
glad_glGetDoublei_vEXT DQ 01H DUP (?)
glad_glTexCoord1bOES DQ 01H DUP (?)
glad_glTextureStorage3DMultisample DQ 01H DUP (?)
glad_glTexCoord1bvOES DQ 01H DUP (?)
glad_glGetPointeri_vEXT DQ 01H DUP (?)
glad_glTexCoord2bOES DQ 01H DUP (?)
glad_glTexCoord2bvOES DQ 01H DUP (?)
glad_glNamedProgramStringEXT DQ 01H DUP (?)
glad_glTextureSubImage1D DQ 01H DUP (?)
glad_glTexCoord3bOES DQ 01H DUP (?)
glad_glTexCoord3bvOES DQ 01H DUP (?)
glad_glNamedProgramLocalParameter4dEXT DQ 01H DUP (?)
glad_glTexCoord4bOES DQ 01H DUP (?)
glad_glTextureSubImage2D DQ 01H DUP (?)
glad_glTexCoord4bvOES DQ 01H DUP (?)
glad_glNamedProgramLocalParameter4dvEXT DQ 01H DUP (?)
glad_glVertex2bOES DQ 01H DUP (?)
glad_glVertex2bvOES DQ 01H DUP (?)
glad_glVertex3bOES DQ 01H DUP (?)
glad_glNamedProgramLocalParameter4fEXT DQ 01H DUP (?)
glad_glVertex3bvOES DQ 01H DUP (?)
glad_glTextureSubImage3D DQ 01H DUP (?)
glad_glNamedProgramLocalParameter4fvEXT DQ 01H DUP (?)
glad_glVertex4bOES DQ 01H DUP (?)
glad_glVertex4bvOES DQ 01H DUP (?)
GLAD_GL_OES_compressed_paletted_texture DD 01H DUP (?)
GLAD_GL_OES_fixed_point DD 01H DUP (?)
glad_glCompressedTextureSubImage1D DQ 01H DUP (?)
glad_glGetNamedProgramLocalParameterdvEXT DQ 01H DUP (?)
glad_glAlphaFuncxOES DQ 01H DUP (?)
glad_glGetNamedProgramLocalParameterfvEXT DQ 01H DUP (?)
glad_glClearColorxOES DQ 01H DUP (?)
glad_glClearDepthxOES DQ 01H DUP (?)
glad_glCompressedTextureSubImage2D DQ 01H DUP (?)
glad_glGetNamedProgramivEXT DQ 01H DUP (?)
glad_glClipPlanexOES DQ 01H DUP (?)
glad_glGetNamedProgramStringEXT DQ 01H DUP (?)
glad_glColor4xOES DQ 01H DUP (?)
glad_glNamedRenderbufferStorageEXT DQ 01H DUP (?)
glad_glDepthRangexOES DQ 01H DUP (?)
glad_glCompressedTextureSubImage3D DQ 01H DUP (?)
glad_glFogxOES DQ 01H DUP (?)
glad_glGetNamedRenderbufferParameterivEXT DQ 01H DUP (?)
glad_glFogxvOES DQ 01H DUP (?)
glad_glCopyTextureSubImage1D DQ 01H DUP (?)
glad_glNamedRenderbufferStorageMultisampleEXT DQ 01H DUP (?)
glad_glFrustumxOES DQ 01H DUP (?)
glad_glGetClipPlanexOES DQ 01H DUP (?)
glad_glNamedRenderbufferStorageMultisampleCoverageEXT DQ 01H DUP (?)
glad_glCopyTextureSubImage2D DQ 01H DUP (?)
glad_glGetFixedvOES DQ 01H DUP (?)
glad_glCheckNamedFramebufferStatusEXT DQ 01H DUP (?)
glad_glGetTexEnvxvOES DQ 01H DUP (?)
glad_glNamedFramebufferTexture1DEXT DQ 01H DUP (?)
glad_glGetTexParameterxvOES DQ 01H DUP (?)
glad_glCopyTextureSubImage3D DQ 01H DUP (?)
glad_glLightModelxOES DQ 01H DUP (?)
glad_glTextureParameterf DQ 01H DUP (?)
glad_glNamedFramebufferTexture2DEXT DQ 01H DUP (?)
glad_glLightModelxvOES DQ 01H DUP (?)
glad_glTextureParameterfv DQ 01H DUP (?)
glad_glLightxOES DQ 01H DUP (?)
glad_glNamedFramebufferTexture3DEXT DQ 01H DUP (?)
glad_glTextureParameteri DQ 01H DUP (?)
glad_glLightxvOES DQ 01H DUP (?)
glad_glLineWidthxOES DQ 01H DUP (?)
glad_glTextureParameterIiv DQ 01H DUP (?)
glad_glNamedFramebufferRenderbufferEXT DQ 01H DUP (?)
glad_glLoadMatrixxOES DQ 01H DUP (?)
glad_glTextureParameterIuiv DQ 01H DUP (?)
glad_glGetNamedFramebufferAttachmentParameterivEXT DQ 01H DUP (?)
glad_glMaterialxOES DQ 01H DUP (?)
glad_glGenerateTextureMipmapEXT DQ 01H DUP (?)
glad_glTextureParameteriv DQ 01H DUP (?)
glad_glMaterialxvOES DQ 01H DUP (?)
glad_glGenerateTextureMipmap DQ 01H DUP (?)
glad_glGenerateMultiTexMipmapEXT DQ 01H DUP (?)
glad_glMultMatrixxOES DQ 01H DUP (?)
glad_glBindTextureUnit DQ 01H DUP (?)
glad_glFramebufferDrawBufferEXT DQ 01H DUP (?)
glad_glMultiTexCoord4xOES DQ 01H DUP (?)
glad_glFramebufferDrawBuffersEXT DQ 01H DUP (?)
glad_glGetTextureImage DQ 01H DUP (?)
glad_glFramebufferReadBufferEXT DQ 01H DUP (?)
glad_glNormal3xOES DQ 01H DUP (?)
glad_glGetFramebufferParameterivEXT DQ 01H DUP (?)
glad_glGetCompressedTextureImage DQ 01H DUP (?)
glad_glOrthoxOES DQ 01H DUP (?)
glad_glGetTextureLevelParameterfv DQ 01H DUP (?)
glad_glNamedCopyBufferSubDataEXT DQ 01H DUP (?)
glad_glPointParameterxvOES DQ 01H DUP (?)
glad_glPointSizexOES DQ 01H DUP (?)
glad_glGetTextureLevelParameteriv DQ 01H DUP (?)
glad_glNamedFramebufferTextureEXT DQ 01H DUP (?)
glad_glPolygonOffsetxOES DQ 01H DUP (?)
glad_glGetTextureParameterfv DQ 01H DUP (?)
glad_glRotatexOES DQ 01H DUP (?)
glad_glNamedFramebufferTextureLayerEXT DQ 01H DUP (?)
glad_glGetTextureParameterIiv DQ 01H DUP (?)
glad_glScalexOES DQ 01H DUP (?)
glad_glGetTextureParameterIuiv DQ 01H DUP (?)
glad_glNamedFramebufferTextureFaceEXT DQ 01H DUP (?)
glad_glTexEnvxOES DQ 01H DUP (?)
glad_glGetTextureParameteriv DQ 01H DUP (?)
glad_glTextureRenderbufferEXT DQ 01H DUP (?)
glad_glTexEnvxvOES DQ 01H DUP (?)
glad_glCreateVertexArrays DQ 01H DUP (?)
glad_glMultiTexRenderbufferEXT DQ 01H DUP (?)
glad_glDisableVertexArrayAttrib DQ 01H DUP (?)
glad_glTexParameterxOES DQ 01H DUP (?)
glad_glEnableVertexArrayAttrib DQ 01H DUP (?)
glad_glTexParameterxvOES DQ 01H DUP (?)
glad_glVertexArrayVertexOffsetEXT DQ 01H DUP (?)
glad_glVertexArrayElementBuffer DQ 01H DUP (?)
glad_glTranslatexOES DQ 01H DUP (?)
glad_glVertexArrayVertexBuffer DQ 01H DUP (?)
glad_glGetLightxvOES DQ 01H DUP (?)
glad_glVertexArrayColorOffsetEXT DQ 01H DUP (?)
glad_glGetMaterialxvOES DQ 01H DUP (?)
glad_glVertexArrayEdgeFlagOffsetEXT DQ 01H DUP (?)
glad_glVertexArrayVertexBuffers DQ 01H DUP (?)
glad_glPointParameterxOES DQ 01H DUP (?)
glad_glSampleCoveragexOES DQ 01H DUP (?)
glad_glVertexArrayAttribBinding DQ 01H DUP (?)
glad_glVertexArrayIndexOffsetEXT DQ 01H DUP (?)
glad_glAccumxOES DQ 01H DUP (?)
glad_glVertexArrayAttribFormat DQ 01H DUP (?)
glad_glVertexArrayNormalOffsetEXT DQ 01H DUP (?)
glad_glBitmapxOES DQ 01H DUP (?)
glad_glVertexArrayAttribIFormat DQ 01H DUP (?)
glad_glVertexArrayTexCoordOffsetEXT DQ 01H DUP (?)
glad_glBlendColorxOES DQ 01H DUP (?)
glad_glVertexArrayAttribLFormat DQ 01H DUP (?)
glad_glClearAccumxOES DQ 01H DUP (?)
glad_glVertexArrayMultiTexCoordOffsetEXT DQ 01H DUP (?)
glad_glVertexArrayBindingDivisor DQ 01H DUP (?)
glad_glColor3xOES DQ 01H DUP (?)
glad_glColor3xvOES DQ 01H DUP (?)
glad_glGetVertexArrayiv DQ 01H DUP (?)
glad_glVertexArrayFogCoordOffsetEXT DQ 01H DUP (?)
glad_glColor4xvOES DQ 01H DUP (?)
glad_glGetVertexArrayIndexediv DQ 01H DUP (?)
glad_glConvolutionParameterxOES DQ 01H DUP (?)
glad_glVertexArraySecondaryColorOffsetEXT DQ 01H DUP (?)
glad_glConvolutionParameterxvOES DQ 01H DUP (?)
glad_glGetVertexArrayIndexed64iv DQ 01H DUP (?)
glad_glEvalCoord1xOES DQ 01H DUP (?)
glad_glCreateSamplers DQ 01H DUP (?)
glad_glEvalCoord1xvOES DQ 01H DUP (?)
glad_glCreateProgramPipelines DQ 01H DUP (?)
glad_glEvalCoord2xOES DQ 01H DUP (?)
glad_glVertexArrayVertexAttribOffsetEXT DQ 01H DUP (?)
glad_glEvalCoord2xvOES DQ 01H DUP (?)
glad_glCreateQueries DQ 01H DUP (?)
glad_glFeedbackBufferxOES DQ 01H DUP (?)
glad_glGetQueryBufferObjecti64v DQ 01H DUP (?)
glad_glVertexArrayVertexAttribIOffsetEXT DQ 01H DUP (?)
glad_glGetConvolutionParameterxvOES DQ 01H DUP (?)
glad_glEnableVertexArrayEXT DQ 01H DUP (?)
glad_glGetQueryBufferObjectiv DQ 01H DUP (?)
glad_glGetHistogramParameterxvOES DQ 01H DUP (?)
glad_glDisableVertexArrayEXT DQ 01H DUP (?)
glad_glEnableVertexArrayAttribEXT DQ 01H DUP (?)
glad_glGetLightxOES DQ 01H DUP (?)
glad_glGetQueryBufferObjectui64v DQ 01H DUP (?)
glad_glDisableVertexArrayAttribEXT DQ 01H DUP (?)
glad_glGetMapxvOES DQ 01H DUP (?)
glad_glGetQueryBufferObjectuiv DQ 01H DUP (?)
glad_glGetVertexArrayIntegervEXT DQ 01H DUP (?)
glad_glMemoryBarrierByRegion DQ 01H DUP (?)
glad_glGetMaterialxOES DQ 01H DUP (?)
glad_glGetVertexArrayPointervEXT DQ 01H DUP (?)
glad_glGetPixelMapxv DQ 01H DUP (?)
glad_glGetVertexArrayIntegeri_vEXT DQ 01H DUP (?)
glad_glGetTexGenxvOES DQ 01H DUP (?)
glad_glGetTextureSubImage DQ 01H DUP (?)
glad_glGetVertexArrayPointeri_vEXT DQ 01H DUP (?)
glad_glGetTexLevelParameterxvOES DQ 01H DUP (?)
glad_glIndexxOES DQ 01H DUP (?)
glad_glIndexxvOES DQ 01H DUP (?)
glad_glMapNamedBufferRangeEXT DQ 01H DUP (?)
glad_glLoadTransposeMatrixxOES DQ 01H DUP (?)
glad_glFlushMappedNamedBufferRangeEXT DQ 01H DUP (?)
glad_glGetCompressedTextureSubImage DQ 01H DUP (?)
glad_glGetGraphicsResetStatus DQ 01H DUP (?)
glad_glMap1xOES DQ 01H DUP (?)
glad_glNamedBufferStorageEXT DQ 01H DUP (?)
glad_glGetnCompressedTexImage DQ 01H DUP (?)
glad_glClearNamedBufferDataEXT DQ 01H DUP (?)
glad_glGetnTexImage DQ 01H DUP (?)
glad_glMap2xOES DQ 01H DUP (?)
glad_glClearNamedBufferSubDataEXT DQ 01H DUP (?)
glad_glMapGrid1xOES DQ 01H DUP (?)
glad_glGetnUniformdv DQ 01H DUP (?)
glad_glNamedFramebufferParameteriEXT DQ 01H DUP (?)
glad_glMapGrid2xOES DQ 01H DUP (?)
glad_glGetnUniformfv DQ 01H DUP (?)
glad_glGetNamedFramebufferParameterivEXT DQ 01H DUP (?)
glad_glMultTransposeMatrixxOES DQ 01H DUP (?)
glad_glGetnUniformiv DQ 01H DUP (?)
glad_glMultiTexCoord1xOES DQ 01H DUP (?)
glad_glProgramUniform1dEXT DQ 01H DUP (?)
glad_glMultiTexCoord1xvOES DQ 01H DUP (?)
glad_glGetnUniformuiv DQ 01H DUP (?)
glad_glProgramUniform2dEXT DQ 01H DUP (?)
glad_glMultiTexCoord2xOES DQ 01H DUP (?)
glad_glMultiTexCoord2xvOES DQ 01H DUP (?)
glad_glProgramUniform3dEXT DQ 01H DUP (?)
glad_glReadnPixels DQ 01H DUP (?)
glad_glMultiTexCoord3xOES DQ 01H DUP (?)
glad_glMultiTexCoord3xvOES DQ 01H DUP (?)
glad_glProgramUniform4dEXT DQ 01H DUP (?)
glad_glGetnMapdv DQ 01H DUP (?)
glad_glMultiTexCoord4xvOES DQ 01H DUP (?)
glad_glNormal3xvOES DQ 01H DUP (?)
glad_glProgramUniform1dvEXT DQ 01H DUP (?)
glad_glGetnMapfv DQ 01H DUP (?)
glad_glPassThroughxOES DQ 01H DUP (?)
glad_glProgramUniform2dvEXT DQ 01H DUP (?)
glad_glPixelMapx DQ 01H DUP (?)
glad_glGetnMapiv DQ 01H DUP (?)
glad_glPixelStorex DQ 01H DUP (?)
glad_glGetnPixelMapfv DQ 01H DUP (?)
glad_glProgramUniform3dvEXT DQ 01H DUP (?)
glad_glPixelTransferxOES DQ 01H DUP (?)
glad_glGetnPixelMapuiv DQ 01H DUP (?)
glad_glPixelZoomxOES DQ 01H DUP (?)
glad_glProgramUniform4dvEXT DQ 01H DUP (?)
glad_glGetnPixelMapusv DQ 01H DUP (?)
glad_glPrioritizeTexturesxOES DQ 01H DUP (?)
glad_glGetnPolygonStipple DQ 01H DUP (?)
glad_glProgramUniformMatrix2dvEXT DQ 01H DUP (?)
glad_glRasterPos2xOES DQ 01H DUP (?)
glad_glRasterPos2xvOES DQ 01H DUP (?)
glad_glGetnColorTable DQ 01H DUP (?)
glad_glProgramUniformMatrix3dvEXT DQ 01H DUP (?)
glad_glRasterPos3xOES DQ 01H DUP (?)
glad_glRasterPos3xvOES DQ 01H DUP (?)
glad_glGetnConvolutionFilter DQ 01H DUP (?)
glad_glProgramUniformMatrix4dvEXT DQ 01H DUP (?)
glad_glRasterPos4xOES DQ 01H DUP (?)
glad_glRasterPos4xvOES DQ 01H DUP (?)
glad_glProgramUniformMatrix2x3dvEXT DQ 01H DUP (?)
glad_glGetnSeparableFilter DQ 01H DUP (?)
glad_glRectxOES DQ 01H DUP (?)
glad_glRectxvOES DQ 01H DUP (?)
glad_glProgramUniformMatrix2x4dvEXT DQ 01H DUP (?)
glad_glTexCoord1xOES DQ 01H DUP (?)
glad_glGetnHistogram DQ 01H DUP (?)
glad_glTexCoord1xvOES DQ 01H DUP (?)
glad_glProgramUniformMatrix3x2dvEXT DQ 01H DUP (?)
glad_glTexCoord2xOES DQ 01H DUP (?)
glad_glTexCoord2xvOES DQ 01H DUP (?)
glad_glGetnMinmax DQ 01H DUP (?)
glad_glProgramUniformMatrix3x4dvEXT DQ 01H DUP (?)
glad_glTextureBarrier DQ 01H DUP (?)
glad_glTexCoord3xOES DQ 01H DUP (?)
GLAD_GL_VERSION_4_6 DD 01H DUP (?)
	ALIGN	8

glad_glTexCoord3xvOES DQ 01H DUP (?)
glad_glProgramUniformMatrix4x2dvEXT DQ 01H DUP (?)
glad_glSpecializeShader DQ 01H DUP (?)
glad_glTexCoord4xOES DQ 01H DUP (?)
glad_glTexCoord4xvOES DQ 01H DUP (?)
glad_glProgramUniformMatrix4x3dvEXT DQ 01H DUP (?)
glad_glMultiDrawArraysIndirectCount DQ 01H DUP (?)
glad_glTexGenxOES DQ 01H DUP (?)
glad_glTexGenxvOES DQ 01H DUP (?)
glad_glTextureBufferRangeEXT DQ 01H DUP (?)
glad_glMultiDrawElementsIndirectCount DQ 01H DUP (?)
glad_glVertex2xOES DQ 01H DUP (?)
glad_glVertex2xvOES DQ 01H DUP (?)
glad_glPolygonOffsetClamp DQ 01H DUP (?)
GLAD_GL_3DFX_multisample DD 01H DUP (?)
	ALIGN	8

glad_glVertex3xOES DQ 01H DUP (?)
GLAD_GL_3DFX_tbuffer DD 01H DUP (?)
	ALIGN	8

glad_glTextureStorage1DEXT DQ 01H DUP (?)
glad_glVertex3xvOES DQ 01H DUP (?)
glad_glTbufferMask3DFX DQ 01H DUP (?)
GLAD_GL_3DFX_texture_compression_FXT1 DD 01H DUP (?)
GLAD_GL_AMD_blend_minmax_factor DD 01H DUP (?)
GLAD_GL_AMD_conservative_depth DD 01H DUP (?)
GLAD_GL_AMD_debug_output DD 01H DUP (?)
glad_glVertex4xOES DQ 01H DUP (?)
glad_glTextureStorage2DEXT DQ 01H DUP (?)
glad_glVertex4xvOES DQ 01H DUP (?)
GLAD_GL_OES_query_matrix DD 01H DUP (?)
	ALIGN	8

glad_glDebugMessageEnableAMD DQ 01H DUP (?)
glad_glQueryMatrixxOES DQ 01H DUP (?)
GLAD_GL_OES_read_format DD 01H DUP (?)
GLAD_GL_OES_single_precision DD 01H DUP (?)
glad_glClearDepthfOES DQ 01H DUP (?)
glad_glTextureStorage3DEXT DQ 01H DUP (?)
glad_glDebugMessageInsertAMD DQ 01H DUP (?)
glad_glClipPlanefOES DQ 01H DUP (?)
glad_glDebugMessageCallbackAMD DQ 01H DUP (?)
glad_glDepthRangefOES DQ 01H DUP (?)
glad_glTextureStorage2DMultisampleEXT DQ 01H DUP (?)
glad_glGetDebugMessageLogAMD DQ 01H DUP (?)
GLAD_GL_AMD_depth_clamp_separate DD 01H DUP (?)
	ALIGN	8

glad_glFrustumfOES DQ 01H DUP (?)
GLAD_GL_AMD_draw_buffers_blend DD 01H DUP (?)
	ALIGN	8

glad_glGetClipPlanefOES DQ 01H DUP (?)
glad_glBlendFuncIndexedAMD DQ 01H DUP (?)
glad_glTextureStorage3DMultisampleEXT DQ 01H DUP (?)
glad_glOrthofOES DQ 01H DUP (?)
GLAD_GL_OML_interlace DD 01H DUP (?)
	ALIGN	8

glad_glBlendFuncSeparateIndexedAMD DQ 01H DUP (?)
GLAD_GL_OML_resample DD 01H DUP (?)
	ALIGN	8

glad_glVertexArrayBindVertexBufferEXT DQ 01H DUP (?)
GLAD_GL_OML_subsample DD 01H DUP (?)
GLAD_GL_OVR_multiview DD 01H DUP (?)
glad_glBlendEquationIndexedAMD DQ 01H DUP (?)
glad_glBlendEquationSeparateIndexedAMD DQ 01H DUP (?)
glad_glVertexArrayVertexAttribFormatEXT DQ 01H DUP (?)
GLAD_GL_AMD_framebuffer_multisample_advanced DD 01H DUP (?)
	ALIGN	8

glad_glFramebufferTextureMultiviewOVR DQ 01H DUP (?)
GLAD_GL_OVR_multiview2 DD 01H DUP (?)
GLAD_GL_PGI_misc_hints DD 01H DUP (?)
glad_glHintPGI DQ 01H DUP (?)
GLAD_GL_PGI_vertex_hints DD 01H DUP (?)
	ALIGN	8

glad_glVertexArrayVertexAttribIFormatEXT DQ 01H DUP (?)
GLAD_GL_REND_screen_coordinates DD 01H DUP (?)
GLAD_GL_S3_s3tc DD 01H DUP (?)
glad_glRenderbufferStorageMultisampleAdvancedAMD DQ 01H DUP (?)
GLAD_GL_SGIS_detail_texture DD 01H DUP (?)
	ALIGN	8

glad_glDetailTexFuncSGIS DQ 01H DUP (?)
glad_glVertexArrayVertexAttribLFormatEXT DQ 01H DUP (?)
glad_glGetDetailTexFuncSGIS DQ 01H DUP (?)
glad_glNamedRenderbufferStorageMultisampleAdvancedAMD DQ 01H DUP (?)
GLAD_GL_AMD_framebuffer_sample_positions DD 01H DUP (?)
GLAD_GL_SGIS_fog_function DD 01H DUP (?)
glad_glVertexArrayVertexAttribBindingEXT DQ 01H DUP (?)
glad_glFogFuncSGIS DQ 01H DUP (?)
glad_glGetFogFuncSGIS DQ 01H DUP (?)
glad_glFramebufferSamplePositionsfvAMD DQ 01H DUP (?)
GLAD_GL_SGIS_generate_mipmap DD 01H DUP (?)
	ALIGN	8

glad_glVertexArrayVertexBindingDivisorEXT DQ 01H DUP (?)
GLAD_GL_SGIS_multisample DD 01H DUP (?)
	ALIGN	8

glad_glSampleMaskSGIS DQ 01H DUP (?)
glad_glNamedFramebufferSamplePositionsfvAMD DQ 01H DUP (?)
glad_glSamplePatternSGIS DQ 01H DUP (?)
GLAD_GL_SGIS_pixel_texture DD 01H DUP (?)
	ALIGN	8

glad_glVertexArrayVertexAttribLOffsetEXT DQ 01H DUP (?)
glad_glPixelTexGenParameteriSGIS DQ 01H DUP (?)
glad_glGetFramebufferParameterfvAMD DQ 01H DUP (?)
glad_glPixelTexGenParameterivSGIS DQ 01H DUP (?)
glad_glPixelTexGenParameterfSGIS DQ 01H DUP (?)
glad_glPixelTexGenParameterfvSGIS DQ 01H DUP (?)
glad_glTexturePageCommitmentEXT DQ 01H DUP (?)
glad_glGetNamedFramebufferParameterfvAMD DQ 01H DUP (?)
GLAD_GL_AMD_gcn_shader DD 01H DUP (?)
GLAD_GL_AMD_gpu_shader_half_float DD 01H DUP (?)
GLAD_GL_AMD_gpu_shader_int16 DD 01H DUP (?)
GLAD_GL_AMD_gpu_shader_int64 DD 01H DUP (?)
glad_glGetPixelTexGenParameterivSGIS DQ 01H DUP (?)
glad_glVertexArrayVertexAttribDivisorEXT DQ 01H DUP (?)
GLAD_GL_EXT_draw_buffers2 DD 01H DUP (?)
	ALIGN	8

glad_glUniform1i64NV DQ 01H DUP (?)
glad_glGetPixelTexGenParameterfvSGIS DQ 01H DUP (?)
GLAD_GL_SGIS_point_line_texgen DD 01H DUP (?)
GLAD_GL_SGIS_point_parameters DD 01H DUP (?)
glad_glUniform2i64NV DQ 01H DUP (?)
glad_glPointParameterfSGIS DQ 01H DUP (?)
glad_glColorMaskIndexedEXT DQ 01H DUP (?)
GLAD_GL_EXT_draw_instanced DD 01H DUP (?)
	ALIGN	8

glad_glPointParameterfvSGIS DQ 01H DUP (?)
GLAD_GL_SGIS_sharpen_texture DD 01H DUP (?)
	ALIGN	8

glad_glUniform3i64NV DQ 01H DUP (?)
glad_glDrawArraysInstancedEXT DQ 01H DUP (?)
glad_glSharpenTexFuncSGIS DQ 01H DUP (?)
glad_glGetSharpenTexFuncSGIS DQ 01H DUP (?)
glad_glUniform4i64NV DQ 01H DUP (?)
GLAD_GL_SGIS_texture4D DD 01H DUP (?)
	ALIGN	8

glad_glDrawElementsInstancedEXT DQ 01H DUP (?)
GLAD_GL_EXT_draw_range_elements DD 01H DUP (?)
	ALIGN	8

glad_glUniform1i64vNV DQ 01H DUP (?)
glad_glUniform2i64vNV DQ 01H DUP (?)
glad_glDrawRangeElementsEXT DQ 01H DUP (?)
GLAD_GL_EXT_external_buffer DD 01H DUP (?)
	ALIGN	8

glad_glUniform3i64vNV DQ 01H DUP (?)
glad_glTexImage4DSGIS DQ 01H DUP (?)
glad_glBufferStorageExternalEXT DQ 01H DUP (?)
glad_glUniform4i64vNV DQ 01H DUP (?)
glad_glUniform1ui64NV DQ 01H DUP (?)
glad_glNamedBufferStorageExternalEXT DQ 01H DUP (?)
GLAD_GL_EXT_fog_coord DD 01H DUP (?)
	ALIGN	8

glad_glUniform2ui64NV DQ 01H DUP (?)
glad_glFogCoordfEXT DQ 01H DUP (?)
glad_glFogCoordfvEXT DQ 01H DUP (?)
glad_glTexSubImage4DSGIS DQ 01H DUP (?)
GLAD_GL_SGIS_texture_border_clamp DD 01H DUP (?)
GLAD_GL_SGIS_texture_color_mask DD 01H DUP (?)
glad_glFogCoorddEXT DQ 01H DUP (?)
glad_glUniform3ui64NV DQ 01H DUP (?)
glad_glFogCoorddvEXT DQ 01H DUP (?)
glad_glTextureColorMaskSGIS DQ 01H DUP (?)
GLAD_GL_SGIS_texture_edge_clamp DD 01H DUP (?)
GLAD_GL_SGIS_texture_filter4 DD 01H DUP (?)
glad_glUniform4ui64NV DQ 01H DUP (?)
glad_glFogCoordPointerEXT DQ 01H DUP (?)
GLAD_GL_EXT_framebuffer_blit DD 01H DUP (?)
	ALIGN	8

glad_glGetTexFilterFuncSGIS DQ 01H DUP (?)
glad_glUniform1ui64vNV DQ 01H DUP (?)
glad_glUniform2ui64vNV DQ 01H DUP (?)
glad_glTexFilterFuncSGIS DQ 01H DUP (?)
GLAD_GL_SGIS_texture_lod DD 01H DUP (?)
GLAD_GL_SGIS_texture_select DD 01H DUP (?)
GLAD_GL_SGIX_async DD 01H DUP (?)
	ALIGN	8

glad_glBlitFramebufferEXT DQ 01H DUP (?)
glad_glUniform3ui64vNV DQ 01H DUP (?)
glad_glAsyncMarkerSGIX DQ 01H DUP (?)
GLAD_GL_EXT_framebuffer_multisample DD 01H DUP (?)
	ALIGN	8

glad_glFinishAsyncSGIX DQ 01H DUP (?)
glad_glUniform4ui64vNV DQ 01H DUP (?)
glad_glPollAsyncSGIX DQ 01H DUP (?)
glad_glGenAsyncMarkersSGIX DQ 01H DUP (?)
glad_glRenderbufferStorageMultisampleEXT DQ 01H DUP (?)
GLAD_GL_EXT_framebuffer_multisample_blit_scaled DD 01H DUP (?)
GLAD_GL_EXT_framebuffer_object DD 01H DUP (?)
glad_glGetUniformi64vNV DQ 01H DUP (?)
glad_glIsRenderbufferEXT DQ 01H DUP (?)
glad_glDeleteAsyncMarkersSGIX DQ 01H DUP (?)
glad_glIsAsyncMarkerSGIX DQ 01H DUP (?)
GLAD_GL_SGIX_async_histogram DD 01H DUP (?)
GLAD_GL_SGIX_async_pixel DD 01H DUP (?)
glad_glGetUniformui64vNV DQ 01H DUP (?)
glad_glBindRenderbufferEXT DQ 01H DUP (?)
GLAD_GL_SGIX_blend_alpha_minmax DD 01H DUP (?)
GLAD_GL_SGIX_calligraphic_fragment DD 01H DUP (?)
GLAD_GL_SGIX_clipmap DD 01H DUP (?)
GLAD_GL_SGIX_convolution_accuracy DD 01H DUP (?)
GLAD_GL_SGIX_depth_pass_instrument DD 01H DUP (?)
	ALIGN	8

glad_glDeleteRenderbuffersEXT DQ 01H DUP (?)
GLAD_GL_SGIX_depth_texture DD 01H DUP (?)
GLAD_GL_SGIX_flush_raster DD 01H DUP (?)
glad_glProgramUniform1i64NV DQ 01H DUP (?)
glad_glFlushRasterSGIX DQ 01H DUP (?)
GLAD_GL_SGIX_fog_offset DD 01H DUP (?)
GLAD_GL_SGIX_fragment_lighting DD 01H DUP (?)
glad_glGenRenderbuffersEXT DQ 01H DUP (?)
glad_glFragmentColorMaterialSGIX DQ 01H DUP (?)
glad_glProgramUniform2i64NV DQ 01H DUP (?)
glad_glRenderbufferStorageEXT DQ 01H DUP (?)
glad_glFragmentLightfSGIX DQ 01H DUP (?)
glad_glGetRenderbufferParameterivEXT DQ 01H DUP (?)
glad_glProgramUniform3i64NV DQ 01H DUP (?)
glad_glIsFramebufferEXT DQ 01H DUP (?)
glad_glFragmentLightfvSGIX DQ 01H DUP (?)
glad_glBindFramebufferEXT DQ 01H DUP (?)
glad_glFragmentLightiSGIX DQ 01H DUP (?)
glad_glProgramUniform4i64NV DQ 01H DUP (?)
glad_glDeleteFramebuffersEXT DQ 01H DUP (?)
glad_glFragmentLightivSGIX DQ 01H DUP (?)
glad_glGenFramebuffersEXT DQ 01H DUP (?)
glad_glProgramUniform1i64vNV DQ 01H DUP (?)
glad_glCheckFramebufferStatusEXT DQ 01H DUP (?)
glad_glFragmentLightModelfSGIX DQ 01H DUP (?)
glad_glFragmentLightModelfvSGIX DQ 01H DUP (?)
glad_glProgramUniform2i64vNV DQ 01H DUP (?)
glad_glFragmentLightModeliSGIX DQ 01H DUP (?)
glad_glFramebufferTexture1DEXT DQ 01H DUP (?)
glad_glFragmentLightModelivSGIX DQ 01H DUP (?)
glad_glProgramUniform3i64vNV DQ 01H DUP (?)
glad_glFramebufferTexture2DEXT DQ 01H DUP (?)
glad_glFragmentMaterialfSGIX DQ 01H DUP (?)
glad_glProgramUniform4i64vNV DQ 01H DUP (?)
glad_glFragmentMaterialfvSGIX DQ 01H DUP (?)
glad_glProgramUniform1ui64NV DQ 01H DUP (?)
glad_glFramebufferTexture3DEXT DQ 01H DUP (?)
glad_glFragmentMaterialiSGIX DQ 01H DUP (?)
glad_glProgramUniform2ui64NV DQ 01H DUP (?)
glad_glFramebufferRenderbufferEXT DQ 01H DUP (?)
glad_glFragmentMaterialivSGIX DQ 01H DUP (?)
glad_glGetFramebufferAttachmentParameterivEXT DQ 01H DUP (?)
glad_glProgramUniform3ui64NV DQ 01H DUP (?)
glad_glGetFragmentLightfvSGIX DQ 01H DUP (?)
glad_glGenerateMipmapEXT DQ 01H DUP (?)
GLAD_GL_EXT_framebuffer_sRGB DD 01H DUP (?)
GLAD_GL_EXT_geometry_shader4 DD 01H DUP (?)
glad_glGetFragmentLightivSGIX DQ 01H DUP (?)
glad_glProgramParameteriEXT DQ 01H DUP (?)
glad_glProgramUniform4ui64NV DQ 01H DUP (?)
GLAD_GL_EXT_gpu_program_parameters DD 01H DUP (?)
	ALIGN	8

glad_glGetFragmentMaterialfvSGIX DQ 01H DUP (?)
glad_glGetFragmentMaterialivSGIX DQ 01H DUP (?)
glad_glProgramUniform1ui64vNV DQ 01H DUP (?)
glad_glProgramEnvParameters4fvEXT DQ 01H DUP (?)
glad_glLightEnviSGIX DQ 01H DUP (?)
GLAD_GL_SGIX_framezoom DD 01H DUP (?)
	ALIGN	8

glad_glProgramUniform2ui64vNV DQ 01H DUP (?)
glad_glProgramLocalParameters4fvEXT DQ 01H DUP (?)
glad_glFrameZoomSGIX DQ 01H DUP (?)
GLAD_GL_EXT_gpu_shader4 DD 01H DUP (?)
GLAD_GL_SGIX_igloo_interface DD 01H DUP (?)
glad_glIglooInterfaceSGIX DQ 01H DUP (?)
GLAD_GL_SGIX_instruments DD 01H DUP (?)
	ALIGN	8

glad_glProgramUniform3ui64vNV DQ 01H DUP (?)
glad_glGetUniformuivEXT DQ 01H DUP (?)
glad_glGetInstrumentsSGIX DQ 01H DUP (?)
glad_glInstrumentsBufferSGIX DQ 01H DUP (?)
glad_glBindFragDataLocationEXT DQ 01H DUP (?)
glad_glProgramUniform4ui64vNV DQ 01H DUP (?)
GLAD_GL_AMD_interleaved_elements DD 01H DUP (?)
	ALIGN	8

glad_glPollInstrumentsSGIX DQ 01H DUP (?)
glad_glGetFragDataLocationEXT DQ 01H DUP (?)
glad_glReadInstrumentsSGIX DQ 01H DUP (?)
glad_glStartInstrumentsSGIX DQ 01H DUP (?)
glad_glVertexAttribParameteriAMD DQ 01H DUP (?)
GLAD_GL_AMD_multi_draw_indirect DD 01H DUP (?)
	ALIGN	8

glad_glUniform1uiEXT DQ 01H DUP (?)
glad_glStopInstrumentsSGIX DQ 01H DUP (?)
GLAD_GL_SGIX_interlace DD 01H DUP (?)
GLAD_GL_SGIX_ir_instrument1 DD 01H DUP (?)
GLAD_GL_SGIX_list_priority DD 01H DUP (?)
	ALIGN	8

glad_glUniform2uiEXT DQ 01H DUP (?)
glad_glMultiDrawArraysIndirectAMD DQ 01H DUP (?)
glad_glGetListParameterfvSGIX DQ 01H DUP (?)
glad_glUniform3uiEXT DQ 01H DUP (?)
glad_glGetListParameterivSGIX DQ 01H DUP (?)
glad_glMultiDrawElementsIndirectAMD DQ 01H DUP (?)
GLAD_GL_AMD_name_gen_delete DD 01H DUP (?)
	ALIGN	8

glad_glUniform4uiEXT DQ 01H DUP (?)
glad_glListParameterfSGIX DQ 01H DUP (?)
glad_glGenNamesAMD DQ 01H DUP (?)
glad_glListParameterfvSGIX DQ 01H DUP (?)
glad_glUniform1uivEXT DQ 01H DUP (?)
glad_glDeleteNamesAMD DQ 01H DUP (?)
glad_glIsNameAMD DQ 01H DUP (?)
glad_glUniform2uivEXT DQ 01H DUP (?)
glad_glListParameteriSGIX DQ 01H DUP (?)
GLAD_GL_AMD_occlusion_query_event DD 01H DUP (?)
	ALIGN	8

glad_glUniform3uivEXT DQ 01H DUP (?)
glad_glListParameterivSGIX DQ 01H DUP (?)
GLAD_GL_SGIX_pixel_texture DD 01H DUP (?)
	ALIGN	8

glad_glQueryObjectParameteruiAMD DQ 01H DUP (?)
GLAD_GL_AMD_performance_monitor DD 01H DUP (?)
	ALIGN	8

glad_glPixelTexGenSGIX DQ 01H DUP (?)
GLAD_GL_SGIX_pixel_tiles DD 01H DUP (?)
GLAD_GL_SGIX_polynomial_ffd DD 01H DUP (?)
glad_glUniform4uivEXT DQ 01H DUP (?)
GLAD_GL_EXT_histogram DD 01H DUP (?)
	ALIGN	8

glad_glGetPerfMonitorGroupsAMD DQ 01H DUP (?)
glad_glGetHistogramEXT DQ 01H DUP (?)
glad_glGetPerfMonitorCountersAMD DQ 01H DUP (?)
glad_glGetHistogramParameterfvEXT DQ 01H DUP (?)
glad_glGetPerfMonitorGroupStringAMD DQ 01H DUP (?)
glad_glGetHistogramParameterivEXT DQ 01H DUP (?)
glad_glDeformationMap3dSGIX DQ 01H DUP (?)
glad_glGetPerfMonitorCounterStringAMD DQ 01H DUP (?)
glad_glGetMinmaxEXT DQ 01H DUP (?)
glad_glGetPerfMonitorCounterInfoAMD DQ 01H DUP (?)
glad_glGetMinmaxParameterfvEXT DQ 01H DUP (?)
glad_glGenPerfMonitorsAMD DQ 01H DUP (?)
glad_glGetMinmaxParameterivEXT DQ 01H DUP (?)
glad_glDeletePerfMonitorsAMD DQ 01H DUP (?)
glad_glDeformationMap3fSGIX DQ 01H DUP (?)
glad_glDeformSGIX DQ 01H DUP (?)
glad_glHistogramEXT DQ 01H DUP (?)
glad_glLoadIdentityDeformationMapSGIX DQ 01H DUP (?)
GLAD_GL_SGIX_reference_plane DD 01H DUP (?)
	ALIGN	8

glad_glSelectPerfMonitorCountersAMD DQ 01H DUP (?)
glad_glReferencePlaneSGIX DQ 01H DUP (?)
GLAD_GL_SGIX_resample DD 01H DUP (?)
GLAD_GL_SGIX_scalebias_hint DD 01H DUP (?)
GLAD_GL_SGIX_shadow DD 01H DUP (?)
	ALIGN	8

glad_glMinmaxEXT DQ 01H DUP (?)
glad_glBeginPerfMonitorAMD DQ 01H DUP (?)
GLAD_GL_SGIX_shadow_ambient DD 01H DUP (?)
GLAD_GL_SGIX_sprite DD 01H DUP (?)
glad_glEndPerfMonitorAMD DQ 01H DUP (?)
glad_glResetHistogramEXT DQ 01H DUP (?)
glad_glSpriteParameterfSGIX DQ 01H DUP (?)
glad_glResetMinmaxEXT DQ 01H DUP (?)
GLAD_GL_EXT_index_array_formats DD 01H DUP (?)
GLAD_GL_EXT_index_func DD 01H DUP (?)
glad_glSpriteParameterfvSGIX DQ 01H DUP (?)
glad_glIndexFuncEXT DQ 01H DUP (?)
glad_glGetPerfMonitorCounterDataAMD DQ 01H DUP (?)
GLAD_GL_AMD_pinned_memory DD 01H DUP (?)
GLAD_GL_EXT_index_material DD 01H DUP (?)
GLAD_GL_AMD_query_buffer_object DD 01H DUP (?)
GLAD_GL_AMD_sample_positions DD 01H DUP (?)
glad_glSpriteParameteriSGIX DQ 01H DUP (?)
glad_glIndexMaterialEXT DQ 01H DUP (?)
GLAD_GL_EXT_index_texture DD 01H DUP (?)
GLAD_GL_EXT_light_texture DD 01H DUP (?)
glad_glSpriteParameterivSGIX DQ 01H DUP (?)
glad_glSetMultisamplefvAMD DQ 01H DUP (?)
GLAD_GL_SGIX_subsample DD 01H DUP (?)
GLAD_GL_AMD_seamless_cubemap_per_texture DD 01H DUP (?)
GLAD_GL_SGIX_tag_sample_buffer DD 01H DUP (?)
	ALIGN	8

glad_glApplyTextureEXT DQ 01H DUP (?)
GLAD_GL_AMD_shader_atomic_counter_ops DD 01H DUP (?)
GLAD_GL_AMD_shader_ballot DD 01H DUP (?)
GLAD_GL_AMD_shader_explicit_vertex_parameter DD 01H DUP (?)
	ALIGN	8

glad_glTagSampleBufferSGIX DQ 01H DUP (?)
GLAD_GL_SGIX_texture_add_env DD 01H DUP (?)
GLAD_GL_AMD_shader_gpu_shader_half_float_fetch DD 01H DUP (?)
glad_glTextureLightEXT DQ 01H DUP (?)
GLAD_GL_SGIX_texture_coordinate_clamp DD 01H DUP (?)
GLAD_GL_AMD_shader_image_load_store_lod DD 01H DUP (?)
GLAD_GL_SGIX_texture_lod_bias DD 01H DUP (?)
GLAD_GL_AMD_shader_stencil_export DD 01H DUP (?)
GLAD_GL_AMD_shader_trinary_minmax DD 01H DUP (?)
GLAD_GL_SGIX_texture_multi_buffer DD 01H DUP (?)
GLAD_GL_SGIX_texture_scale_bias DD 01H DUP (?)
GLAD_GL_AMD_sparse_texture DD 01H DUP (?)
GLAD_GL_SGIX_vertex_preclip DD 01H DUP (?)
GLAD_GL_SGIX_ycrcb DD 01H DUP (?)
glad_glTextureMaterialEXT DQ 01H DUP (?)
GLAD_GL_SGIX_ycrcb_subsample DD 01H DUP (?)
GLAD_GL_SGIX_ycrcba DD 01H DUP (?)
GLAD_GL_EXT_memory_object DD 01H DUP (?)
GLAD_GL_SGI_color_matrix DD 01H DUP (?)
GLAD_GL_SGI_color_table DD 01H DUP (?)
	ALIGN	8

glad_glGetUnsignedBytevEXT DQ 01H DUP (?)
glad_glTexStorageSparseAMD DQ 01H DUP (?)
glad_glGetUnsignedBytei_vEXT DQ 01H DUP (?)
glad_glColorTableSGI DQ 01H DUP (?)
glad_glDeleteMemoryObjectsEXT DQ 01H DUP (?)
glad_glIsMemoryObjectEXT DQ 01H DUP (?)
glad_glColorTableParameterfvSGI DQ 01H DUP (?)
glad_glTextureStorageSparseAMD DQ 01H DUP (?)
glad_glCreateMemoryObjectsEXT DQ 01H DUP (?)
GLAD_GL_AMD_stencil_operation_extended DD 01H DUP (?)
	ALIGN	8

glad_glColorTableParameterivSGI DQ 01H DUP (?)
glad_glStencilOpValueAMD DQ 01H DUP (?)
glad_glMemoryObjectParameterivEXT DQ 01H DUP (?)
GLAD_GL_AMD_texture_gather_bias_lod DD 01H DUP (?)
GLAD_GL_AMD_texture_texture4 DD 01H DUP (?)
GLAD_GL_AMD_transform_feedback3_lines_triangles DD 01H DUP (?)
GLAD_GL_AMD_transform_feedback4 DD 01H DUP (?)
GLAD_GL_AMD_vertex_shader_layer DD 01H DUP (?)
GLAD_GL_AMD_vertex_shader_tessellator DD 01H DUP (?)
glad_glCopyColorTableSGI DQ 01H DUP (?)
glad_glGetMemoryObjectParameterivEXT DQ 01H DUP (?)
glad_glTessellationFactorAMD DQ 01H DUP (?)
glad_glTessellationModeAMD DQ 01H DUP (?)
GLAD_GL_AMD_vertex_shader_viewport_index DD 01H DUP (?)
GLAD_GL_APPLE_aux_depth_stencil DD 01H DUP (?)
glad_glGetColorTableSGI DQ 01H DUP (?)
GLAD_GL_APPLE_client_storage DD 01H DUP (?)
GLAD_GL_APPLE_element_array DD 01H DUP (?)
glad_glElementPointerAPPLE DQ 01H DUP (?)
glad_glGetColorTableParameterfvSGI DQ 01H DUP (?)
glad_glTexStorageMem2DEXT DQ 01H DUP (?)
glad_glDrawElementArrayAPPLE DQ 01H DUP (?)
glad_glGetColorTableParameterivSGI DQ 01H DUP (?)
GLAD_GL_SGI_texture_color_table DD 01H DUP (?)
GLAD_GL_SUNX_constant_data DD 01H DUP (?)
glad_glFinishTextureSUNX DQ 01H DUP (?)
GLAD_GL_SUN_convolution_border_modes DD 01H DUP (?)
GLAD_GL_SUN_global_alpha DD 01H DUP (?)
glad_glTexStorageMem2DMultisampleEXT DQ 01H DUP (?)
glad_glGlobalAlphaFactorbSUN DQ 01H DUP (?)
glad_glDrawRangeElementArrayAPPLE DQ 01H DUP (?)
glad_glGlobalAlphaFactorsSUN DQ 01H DUP (?)
glad_glGlobalAlphaFactoriSUN DQ 01H DUP (?)
glad_glMultiDrawElementArrayAPPLE DQ 01H DUP (?)
glad_glGlobalAlphaFactorfSUN DQ 01H DUP (?)
glad_glGlobalAlphaFactordSUN DQ 01H DUP (?)
glad_glTexStorageMem3DEXT DQ 01H DUP (?)
glad_glGlobalAlphaFactorubSUN DQ 01H DUP (?)
glad_glMultiDrawRangeElementArrayAPPLE DQ 01H DUP (?)
glad_glGlobalAlphaFactorusSUN DQ 01H DUP (?)
GLAD_GL_APPLE_fence DD 01H DUP (?)
	ALIGN	8

glad_glGlobalAlphaFactoruiSUN DQ 01H DUP (?)
GLAD_GL_SUN_mesh_array DD 01H DUP (?)
	ALIGN	8

glad_glGenFencesAPPLE DQ 01H DUP (?)
glad_glDeleteFencesAPPLE DQ 01H DUP (?)
glad_glTexStorageMem3DMultisampleEXT DQ 01H DUP (?)
glad_glDrawMeshArraysSUN DQ 01H DUP (?)
GLAD_GL_SUN_slice_accum DD 01H DUP (?)
	ALIGN	8

glad_glSetFenceAPPLE DQ 01H DUP (?)
GLAD_GL_SUN_triangle_list DD 01H DUP (?)
	ALIGN	8

glad_glIsFenceAPPLE DQ 01H DUP (?)
glad_glReplacementCodeuiSUN DQ 01H DUP (?)
glad_glBufferStorageMemEXT DQ 01H DUP (?)
glad_glReplacementCodeusSUN DQ 01H DUP (?)
glad_glTestFenceAPPLE DQ 01H DUP (?)
glad_glReplacementCodeubSUN DQ 01H DUP (?)
glad_glFinishFenceAPPLE DQ 01H DUP (?)
glad_glReplacementCodeuivSUN DQ 01H DUP (?)
glad_glTestObjectAPPLE DQ 01H DUP (?)
glad_glReplacementCodeusvSUN DQ 01H DUP (?)
glad_glTextureStorageMem2DEXT DQ 01H DUP (?)
glad_glReplacementCodeubvSUN DQ 01H DUP (?)
glad_glFinishObjectAPPLE DQ 01H DUP (?)
GLAD_GL_APPLE_float_pixels DD 01H DUP (?)
GLAD_GL_APPLE_flush_buffer_range DD 01H DUP (?)
glad_glReplacementCodePointerSUN DQ 01H DUP (?)
GLAD_GL_SUN_vertex DD 01H DUP (?)
	ALIGN	8

glad_glBufferParameteriAPPLE DQ 01H DUP (?)
glad_glTextureStorageMem2DMultisampleEXT DQ 01H DUP (?)
glad_glFlushMappedBufferRangeAPPLE DQ 01H DUP (?)
GLAD_GL_APPLE_object_purgeable DD 01H DUP (?)
	ALIGN	8

glad_glColor4ubVertex2fSUN DQ 01H DUP (?)
glad_glObjectPurgeableAPPLE DQ 01H DUP (?)
glad_glColor4ubVertex2fvSUN DQ 01H DUP (?)
glad_glTextureStorageMem3DEXT DQ 01H DUP (?)
glad_glObjectUnpurgeableAPPLE DQ 01H DUP (?)
glad_glGetObjectParameterivAPPLE DQ 01H DUP (?)
glad_glColor4ubVertex3fSUN DQ 01H DUP (?)
GLAD_GL_APPLE_rgb_422 DD 01H DUP (?)
GLAD_GL_APPLE_row_bytes DD 01H DUP (?)
GLAD_GL_APPLE_specular_vector DD 01H DUP (?)
GLAD_GL_APPLE_texture_range DD 01H DUP (?)
glad_glColor4ubVertex3fvSUN DQ 01H DUP (?)
glad_glTextureStorageMem3DMultisampleEXT DQ 01H DUP (?)
glad_glTextureRangeAPPLE DQ 01H DUP (?)
glad_glNamedBufferStorageMemEXT DQ 01H DUP (?)
glad_glColor3fVertex3fSUN DQ 01H DUP (?)
glad_glGetTexParameterPointervAPPLE DQ 01H DUP (?)
GLAD_GL_APPLE_transform_hint DD 01H DUP (?)
GLAD_GL_APPLE_vertex_array_object DD 01H DUP (?)
glad_glColor3fVertex3fvSUN DQ 01H DUP (?)
glad_glBindVertexArrayAPPLE DQ 01H DUP (?)
glad_glDeleteVertexArraysAPPLE DQ 01H DUP (?)
glad_glTexStorageMem1DEXT DQ 01H DUP (?)
glad_glGenVertexArraysAPPLE DQ 01H DUP (?)
glad_glNormal3fVertex3fSUN DQ 01H DUP (?)
glad_glIsVertexArrayAPPLE DQ 01H DUP (?)
GLAD_GL_APPLE_vertex_array_range DD 01H DUP (?)
	ALIGN	8

glad_glNormal3fVertex3fvSUN DQ 01H DUP (?)
glad_glTextureStorageMem1DEXT DQ 01H DUP (?)
GLAD_GL_EXT_memory_object_fd DD 01H DUP (?)
	ALIGN	8

glad_glVertexArrayRangeAPPLE DQ 01H DUP (?)
glad_glFlushVertexArrayRangeAPPLE DQ 01H DUP (?)
glad_glImportMemoryFdEXT DQ 01H DUP (?)
GLAD_GL_EXT_memory_object_win32 DD 01H DUP (?)
	ALIGN	8

glad_glVertexArrayParameteriAPPLE DQ 01H DUP (?)
GLAD_GL_APPLE_vertex_program_evaluators DD 01H DUP (?)
	ALIGN	8

glad_glColor4fNormal3fVertex3fSUN DQ 01H DUP (?)
glad_glEnableVertexAttribAPPLE DQ 01H DUP (?)
glad_glImportMemoryWin32HandleEXT DQ 01H DUP (?)
glad_glDisableVertexAttribAPPLE DQ 01H DUP (?)
glad_glColor4fNormal3fVertex3fvSUN DQ 01H DUP (?)
glad_glImportMemoryWin32NameEXT DQ 01H DUP (?)
glad_glIsVertexAttribEnabledAPPLE DQ 01H DUP (?)
GLAD_GL_EXT_misc_attribute DD 01H DUP (?)
GLAD_GL_EXT_multi_draw_arrays DD 01H DUP (?)
glad_glTexCoord2fVertex3fSUN DQ 01H DUP (?)
glad_glMultiDrawArraysEXT DQ 01H DUP (?)
glad_glTexCoord2fVertex3fvSUN DQ 01H DUP (?)
glad_glMapVertexAttrib1dAPPLE DQ 01H DUP (?)
glad_glMultiDrawElementsEXT DQ 01H DUP (?)
GLAD_GL_EXT_multisample DD 01H DUP (?)
	ALIGN	8

glad_glSampleMaskEXT DQ 01H DUP (?)
glad_glTexCoord4fVertex4fSUN DQ 01H DUP (?)
glad_glMapVertexAttrib1fAPPLE DQ 01H DUP (?)
glad_glSamplePatternEXT DQ 01H DUP (?)
GLAD_GL_EXT_multiview_tessellation_geometry_shader DD 01H DUP (?)
GLAD_GL_EXT_multiview_texture_multisample DD 01H DUP (?)
GLAD_GL_EXT_multiview_timer_query DD 01H DUP (?)
	ALIGN	8

glad_glTexCoord4fVertex4fvSUN DQ 01H DUP (?)
GLAD_GL_EXT_packed_depth_stencil DD 01H DUP (?)
GLAD_GL_EXT_packed_float DD 01H DUP (?)
GLAD_GL_EXT_packed_pixels DD 01H DUP (?)
GLAD_GL_EXT_paletted_texture DD 01H DUP (?)
glad_glColorTableEXT DQ 01H DUP (?)
glad_glMapVertexAttrib2dAPPLE DQ 01H DUP (?)
glad_glTexCoord2fColor4ubVertex3fSUN DQ 01H DUP (?)
glad_glGetColorTableEXT DQ 01H DUP (?)
glad_glTexCoord2fColor4ubVertex3fvSUN DQ 01H DUP (?)
glad_glGetColorTableParameterivEXT DQ 01H DUP (?)
glad_glMapVertexAttrib2fAPPLE DQ 01H DUP (?)
GLAD_GL_APPLE_ycbcr_422 DD 01H DUP (?)
	ALIGN	8

glad_glGetColorTableParameterfvEXT DQ 01H DUP (?)
GLAD_GL_ARB_ES2_compatibility DD 01H DUP (?)
GLAD_GL_EXT_pixel_buffer_object DD 01H DUP (?)
GLAD_GL_EXT_pixel_transform DD 01H DUP (?)
GLAD_GL_ARB_ES3_1_compatibility DD 01H DUP (?)
GLAD_GL_ARB_ES3_2_compatibility DD 01H DUP (?)
	ALIGN	8

glad_glTexCoord2fColor3fVertex3fSUN DQ 01H DUP (?)
glad_glPixelTransformParameteriEXT DQ 01H DUP (?)
glad_glTexCoord2fColor3fVertex3fvSUN DQ 01H DUP (?)
glad_glPixelTransformParameterfEXT DQ 01H DUP (?)
glad_glPrimitiveBoundingBoxARB DQ 01H DUP (?)
GLAD_GL_ARB_ES3_compatibility DD 01H DUP (?)
GLAD_GL_ARB_arrays_of_arrays DD 01H DUP (?)
GLAD_GL_ARB_base_instance DD 01H DUP (?)
GLAD_GL_ARB_bindless_texture DD 01H DUP (?)
glad_glPixelTransformParameterivEXT DQ 01H DUP (?)
glad_glGetTextureHandleARB DQ 01H DUP (?)
glad_glTexCoord2fNormal3fVertex3fSUN DQ 01H DUP (?)
glad_glPixelTransformParameterfvEXT DQ 01H DUP (?)
glad_glGetTextureSamplerHandleARB DQ 01H DUP (?)
glad_glTexCoord2fNormal3fVertex3fvSUN DQ 01H DUP (?)
glad_glMakeTextureHandleResidentARB DQ 01H DUP (?)
glad_glGetPixelTransformParameterivEXT DQ 01H DUP (?)
glad_glMakeTextureHandleNonResidentARB DQ 01H DUP (?)
glad_glGetPixelTransformParameterfvEXT DQ 01H DUP (?)
GLAD_GL_EXT_pixel_transform_color_table DD 01H DUP (?)
GLAD_GL_EXT_point_parameters DD 01H DUP (?)
glad_glGetImageHandleARB DQ 01H DUP (?)
glad_glPointParameterfEXT DQ 01H DUP (?)
glad_glMakeImageHandleResidentARB DQ 01H DUP (?)
glad_glTexCoord2fColor4fNormal3fVertex3fSUN DQ 01H DUP (?)
glad_glPointParameterfvEXT DQ 01H DUP (?)
glad_glMakeImageHandleNonResidentARB DQ 01H DUP (?)
GLAD_GL_EXT_polygon_offset DD 01H DUP (?)
	ALIGN	8

glad_glPolygonOffsetEXT DQ 01H DUP (?)
glad_glUniformHandleui64ARB DQ 01H DUP (?)
GLAD_GL_EXT_polygon_offset_clamp DD 01H DUP (?)
	ALIGN	8

glad_glTexCoord2fColor4fNormal3fVertex3fvSUN DQ 01H DUP (?)
glad_glUniformHandleui64vARB DQ 01H DUP (?)
glad_glPolygonOffsetClampEXT DQ 01H DUP (?)
GLAD_GL_EXT_post_depth_coverage DD 01H DUP (?)
GLAD_GL_EXT_provoking_vertex DD 01H DUP (?)
glad_glProvokingVertexEXT DQ 01H DUP (?)
glad_glProgramUniformHandleui64ARB DQ 01H DUP (?)
GLAD_GL_EXT_raster_multisample DD 01H DUP (?)
	ALIGN	8

glad_glRasterSamplesEXT DQ 01H DUP (?)
GLAD_GL_EXT_rescale_normal DD 01H DUP (?)
GLAD_GL_EXT_secondary_color DD 01H DUP (?)
glad_glProgramUniformHandleui64vARB DQ 01H DUP (?)
glad_glIsTextureHandleResidentARB DQ 01H DUP (?)
glad_glSecondaryColor3bEXT DQ 01H DUP (?)
glad_glIsImageHandleResidentARB DQ 01H DUP (?)
glad_glTexCoord4fColor4fNormal3fVertex4fSUN DQ 01H DUP (?)
glad_glSecondaryColor3bvEXT DQ 01H DUP (?)
glad_glVertexAttribL1ui64ARB DQ 01H DUP (?)
glad_glTexCoord4fColor4fNormal3fVertex4fvSUN DQ 01H DUP (?)
glad_glSecondaryColor3dEXT DQ 01H DUP (?)
glad_glVertexAttribL1ui64vARB DQ 01H DUP (?)
glad_glSecondaryColor3dvEXT DQ 01H DUP (?)
glad_glGetVertexAttribLui64vARB DQ 01H DUP (?)
glad_glReplacementCodeuiVertex3fSUN DQ 01H DUP (?)
GLAD_GL_ARB_blend_func_extended DD 01H DUP (?)
GLAD_GL_ARB_buffer_storage DD 01H DUP (?)
glad_glSecondaryColor3fEXT DQ 01H DUP (?)
GLAD_GL_ARB_cl_event DD 01H DUP (?)
	ALIGN	8

glad_glReplacementCodeuiVertex3fvSUN DQ 01H DUP (?)
glad_glSecondaryColor3fvEXT DQ 01H DUP (?)
glad_glCreateSyncFromCLeventARB DQ 01H DUP (?)
GLAD_GL_ARB_clear_buffer_object DD 01H DUP (?)
GLAD_GL_ARB_clear_texture DD 01H DUP (?)
GLAD_GL_ARB_clip_control DD 01H DUP (?)
	ALIGN	8

glad_glSecondaryColor3iEXT DQ 01H DUP (?)
GLAD_GL_ARB_color_buffer_float DD 01H DUP (?)
	ALIGN	8

glad_glSecondaryColor3ivEXT DQ 01H DUP (?)
glad_glClampColorARB DQ 01H DUP (?)
GLAD_GL_ARB_compatibility DD 01H DUP (?)
GLAD_GL_ARB_compressed_texture_pixel_storage DD 01H DUP (?)
glad_glReplacementCodeuiColor4ubVertex3fSUN DQ 01H DUP (?)
GLAD_GL_ARB_compute_shader DD 01H DUP (?)
GLAD_GL_ARB_compute_variable_group_size DD 01H DUP (?)
glad_glSecondaryColor3sEXT DQ 01H DUP (?)
glad_glSecondaryColor3svEXT DQ 01H DUP (?)
glad_glReplacementCodeuiColor4ubVertex3fvSUN DQ 01H DUP (?)
glad_glSecondaryColor3ubEXT DQ 01H DUP (?)
glad_glDispatchComputeGroupSizeARB DQ 01H DUP (?)
GLAD_GL_ARB_conditional_render_inverted DD 01H DUP (?)
GLAD_GL_ARB_conservative_depth DD 01H DUP (?)
glad_glSecondaryColor3ubvEXT DQ 01H DUP (?)
GLAD_GL_ARB_copy_buffer DD 01H DUP (?)
GLAD_GL_ARB_copy_image DD 01H DUP (?)
GLAD_GL_ARB_cull_distance DD 01H DUP (?)
GLAD_GL_ARB_debug_output DD 01H DUP (?)
glad_glReplacementCodeuiColor3fVertex3fSUN DQ 01H DUP (?)
glad_glSecondaryColor3uiEXT DQ 01H DUP (?)
glad_glSecondaryColor3uivEXT DQ 01H DUP (?)
glad_glReplacementCodeuiColor3fVertex3fvSUN DQ 01H DUP (?)
glad_glDebugMessageControlARB DQ 01H DUP (?)
glad_glSecondaryColor3usEXT DQ 01H DUP (?)
glad_glSecondaryColor3usvEXT DQ 01H DUP (?)
glad_glReplacementCodeuiNormal3fVertex3fSUN DQ 01H DUP (?)
glad_glDebugMessageInsertARB DQ 01H DUP (?)
glad_glSecondaryColorPointerEXT DQ 01H DUP (?)
GLAD_GL_EXT_semaphore DD 01H DUP (?)
	ALIGN	8

glad_glDebugMessageCallbackARB DQ 01H DUP (?)
glad_glReplacementCodeuiNormal3fVertex3fvSUN DQ 01H DUP (?)
glad_glGenSemaphoresEXT DQ 01H DUP (?)
glad_glDeleteSemaphoresEXT DQ 01H DUP (?)
glad_glIsSemaphoreEXT DQ 01H DUP (?)
glad_glGetDebugMessageLogARB DQ 01H DUP (?)
GLAD_GL_ARB_depth_buffer_float DD 01H DUP (?)
GLAD_GL_ARB_depth_clamp DD 01H DUP (?)
GLAD_GL_ARB_depth_texture DD 01H DUP (?)
GLAD_GL_ARB_derivative_control DD 01H DUP (?)
glad_glSemaphoreParameterui64vEXT DQ 01H DUP (?)
GLAD_GL_ARB_direct_state_access DD 01H DUP (?)
GLAD_GL_ARB_draw_buffers DD 01H DUP (?)
glad_glReplacementCodeuiColor4fNormal3fVertex3fSUN DQ 01H DUP (?)
glad_glGetSemaphoreParameterui64vEXT DQ 01H DUP (?)
glad_glDrawBuffersARB DQ 01H DUP (?)
GLAD_GL_ARB_draw_buffers_blend DD 01H DUP (?)
	ALIGN	8

glad_glReplacementCodeuiColor4fNormal3fVertex3fvSUN DQ 01H DUP (?)
glad_glBlendEquationiARB DQ 01H DUP (?)
glad_glWaitSemaphoreEXT DQ 01H DUP (?)
glad_glBlendEquationSeparateiARB DQ 01H DUP (?)
glad_glReplacementCodeuiTexCoord2fVertex3fSUN DQ 01H DUP (?)
glad_glBlendFunciARB DQ 01H DUP (?)
glad_glReplacementCodeuiTexCoord2fVertex3fvSUN DQ 01H DUP (?)
glad_glSignalSemaphoreEXT DQ 01H DUP (?)
GLAD_GL_EXT_semaphore_fd DD 01H DUP (?)
	ALIGN	8

glad_glBlendFuncSeparateiARB DQ 01H DUP (?)
GLAD_GL_ARB_draw_elements_base_vertex DD 01H DUP (?)
GLAD_GL_ARB_draw_indirect DD 01H DUP (?)
glad_glImportSemaphoreFdEXT DQ 01H DUP (?)
GLAD_GL_EXT_semaphore_win32 DD 01H DUP (?)
GLAD_GL_ARB_draw_instanced DD 01H DUP (?)
glad_glImportSemaphoreWin32HandleEXT DQ 01H DUP (?)
glad_glReplacementCodeuiTexCoord2fNormal3fVertex3fSUN DQ 01H DUP (?)
glad_glDrawArraysInstancedARB DQ 01H DUP (?)
glad_glImportSemaphoreWin32NameEXT DQ 01H DUP (?)
GLAD_GL_EXT_separate_shader_objects DD 01H DUP (?)
	ALIGN	8

glad_glReplacementCodeuiTexCoord2fNormal3fVertex3fvSUN DQ 01H DUP (?)
glad_glDrawElementsInstancedARB DQ 01H DUP (?)
GLAD_GL_ARB_enhanced_layouts DD 01H DUP (?)
	ALIGN	8

glad_glUseShaderProgramEXT DQ 01H DUP (?)
GLAD_GL_ARB_explicit_attrib_location DD 01H DUP (?)
GLAD_GL_ARB_explicit_uniform_location DD 01H DUP (?)
GLAD_GL_ARB_fragment_coord_conventions DD 01H DUP (?)
GLAD_GL_ARB_fragment_layer_viewport DD 01H DUP (?)
glad_glActiveProgramEXT DQ 01H DUP (?)
GLAD_GL_ARB_fragment_program DD 01H DUP (?)
	ALIGN	8

glad_glCreateShaderProgramEXT DQ 01H DUP (?)
glad_glProgramStringARB DQ 01H DUP (?)
glad_glActiveShaderProgramEXT DQ 01H DUP (?)
glad_glBindProgramPipelineEXT DQ 01H DUP (?)
glad_glBindProgramARB DQ 01H DUP (?)
glad_glReplacementCodeuiTexCoord2fColor4fNormal3fVertex3fSUN DQ 01H DUP (?)
glad_glDeleteProgramsARB DQ 01H DUP (?)
glad_glCreateShaderProgramvEXT DQ 01H DUP (?)
glad_glGenProgramsARB DQ 01H DUP (?)
glad_glDeleteProgramPipelinesEXT DQ 01H DUP (?)
glad_glReplacementCodeuiTexCoord2fColor4fNormal3fVertex3fvSUN DQ 01H DUP (?)
GLAD_GL_WIN_phong_shading DD 01H DUP (?)
GLAD_GL_WIN_specular_fog DD 01H DUP (?)
glad_glGenProgramPipelinesEXT DQ 01H DUP (?)
glad_glProgramEnvParameter4dARB DQ 01H DUP (?)
glad_glGetProgramPipelineInfoLogEXT DQ 01H DUP (?)
glad_glProgramEnvParameter4dvARB DQ 01H DUP (?)
glad_glGetProgramPipelineivEXT DQ 01H DUP (?)
glad_glIsProgramPipelineEXT DQ 01H DUP (?)
glad_glProgramEnvParameter4fARB DQ 01H DUP (?)
glad_glUseProgramStagesEXT DQ 01H DUP (?)
glad_glValidateProgramPipelineEXT DQ 01H DUP (?)
GLAD_GL_EXT_separate_specular_color DD 01H DUP (?)
GLAD_GL_EXT_shader_framebuffer_fetch DD 01H DUP (?)
GLAD_GL_EXT_shader_framebuffer_fetch_non_coherent DD 01H DUP (?)
	ALIGN	8

glad_glProgramEnvParameter4fvARB DQ 01H DUP (?)
glad_glFramebufferFetchBarrierEXT DQ 01H DUP (?)
GLAD_GL_EXT_shader_image_load_formatted DD 01H DUP (?)
GLAD_GL_EXT_shader_image_load_store DD 01H DUP (?)
glad_glProgramLocalParameter4dARB DQ 01H DUP (?)
glad_glBindImageTextureEXT DQ 01H DUP (?)
glad_glProgramLocalParameter4dvARB DQ 01H DUP (?)
glad_glMemoryBarrierEXT DQ 01H DUP (?)
GLAD_GL_EXT_shader_integer_mix DD 01H DUP (?)
GLAD_GL_EXT_shadow_funcs DD 01H DUP (?)
GLAD_GL_EXT_shared_texture_palette DD 01H DUP (?)
GLAD_GL_EXT_sparse_texture2 DD 01H DUP (?)
GLAD_GL_EXT_stencil_clear_tag DD 01H DUP (?)
	ALIGN	8

glad_glProgramLocalParameter4fARB DQ 01H DUP (?)
glad_glStencilClearTagEXT DQ 01H DUP (?)
GLAD_GL_EXT_stencil_two_side DD 01H DUP (?)
	ALIGN	8

glad_glActiveStencilFaceEXT DQ 01H DUP (?)
GLAD_GL_EXT_stencil_wrap DD 01H DUP (?)
GLAD_GL_EXT_subtexture DD 01H DUP (?)
glad_glProgramLocalParameter4fvARB DQ 01H DUP (?)
glad_glGetProgramEnvParameterdvARB DQ 01H DUP (?)
glad_glTexSubImage1DEXT DQ 01H DUP (?)
glad_glGetProgramEnvParameterfvARB DQ 01H DUP (?)
glad_glGetProgramLocalParameterdvARB DQ 01H DUP (?)
glad_glGetProgramLocalParameterfvARB DQ 01H DUP (?)
glad_glTexSubImage2DEXT DQ 01H DUP (?)
GLAD_GL_EXT_texture DD 01H DUP (?)
GLAD_GL_EXT_texture3D DD 01H DUP (?)
glad_glGetProgramivARB DQ 01H DUP (?)
glad_glGetProgramStringARB DQ 01H DUP (?)
glad_glIsProgramARB DQ 01H DUP (?)
GLAD_GL_ARB_fragment_program_shadow DD 01H DUP (?)
GLAD_GL_ARB_fragment_shader DD 01H DUP (?)
GLAD_GL_ARB_fragment_shader_interlock DD 01H DUP (?)
GLAD_GL_ARB_framebuffer_no_attachments DD 01H DUP (?)
GLAD_GL_ARB_framebuffer_object DD 01H DUP (?)
GLAD_GL_ARB_framebuffer_sRGB DD 01H DUP (?)
glad_glTexImage3DEXT DQ 01H DUP (?)
GLAD_GL_ARB_geometry_shader4 DD 01H DUP (?)
	ALIGN	8

glad_glProgramParameteriARB DQ 01H DUP (?)
glad_glFramebufferTextureARB DQ 01H DUP (?)
glad_glTexSubImage3DEXT DQ 01H DUP (?)
GLAD_GL_EXT_texture_array DD 01H DUP (?)
	ALIGN	8

glad_glFramebufferTextureLayerARB DQ 01H DUP (?)
glad_glFramebufferTextureLayerEXT DQ 01H DUP (?)
GLAD_GL_EXT_texture_buffer_object DD 01H DUP (?)
	ALIGN	8

glad_glFramebufferTextureFaceARB DQ 01H DUP (?)
GLAD_GL_ARB_get_program_binary DD 01H DUP (?)
GLAD_GL_ARB_get_texture_sub_image DD 01H DUP (?)
GLAD_GL_ARB_gl_spirv DD 01H DUP (?)
	ALIGN	8

glad_glTexBufferEXT DQ 01H DUP (?)
GLAD_GL_EXT_texture_compression_latc DD 01H DUP (?)
GLAD_GL_EXT_texture_compression_rgtc DD 01H DUP (?)
GLAD_GL_EXT_texture_compression_s3tc DD 01H DUP (?)
GLAD_GL_EXT_texture_cube_map DD 01H DUP (?)
GLAD_GL_EXT_texture_env_add DD 01H DUP (?)
GLAD_GL_EXT_texture_env_combine DD 01H DUP (?)
GLAD_GL_EXT_texture_env_dot3 DD 01H DUP (?)
GLAD_GL_EXT_texture_filter_anisotropic DD 01H DUP (?)
GLAD_GL_EXT_texture_filter_minmax DD 01H DUP (?)
GLAD_GL_EXT_texture_integer DD 01H DUP (?)
glad_glSpecializeShaderARB DQ 01H DUP (?)
GLAD_GL_ARB_gpu_shader5 DD 01H DUP (?)
GLAD_GL_ARB_gpu_shader_fp64 DD 01H DUP (?)
GLAD_GL_ARB_gpu_shader_int64 DD 01H DUP (?)
	ALIGN	8

glad_glTexParameterIivEXT DQ 01H DUP (?)
glad_glUniform1i64ARB DQ 01H DUP (?)
glad_glTexParameterIuivEXT DQ 01H DUP (?)
glad_glUniform2i64ARB DQ 01H DUP (?)
glad_glGetTexParameterIivEXT DQ 01H DUP (?)
glad_glUniform3i64ARB DQ 01H DUP (?)
glad_glGetTexParameterIuivEXT DQ 01H DUP (?)
glad_glUniform4i64ARB DQ 01H DUP (?)
glad_glClearColorIiEXT DQ 01H DUP (?)
glad_glUniform1i64vARB DQ 01H DUP (?)
glad_glClearColorIuiEXT DQ 01H DUP (?)
GLAD_GL_EXT_texture_lod_bias DD 01H DUP (?)
GLAD_GL_EXT_texture_mirror_clamp DD 01H DUP (?)
GLAD_GL_EXT_texture_object DD 01H DUP (?)
	ALIGN	8

glad_glUniform2i64vARB DQ 01H DUP (?)
glad_glAreTexturesResidentEXT DQ 01H DUP (?)
glad_glUniform3i64vARB DQ 01H DUP (?)
glad_glBindTextureEXT DQ 01H DUP (?)
glad_glUniform4i64vARB DQ 01H DUP (?)
glad_glDeleteTexturesEXT DQ 01H DUP (?)
glad_glUniform1ui64ARB DQ 01H DUP (?)
glad_glGenTexturesEXT DQ 01H DUP (?)
glad_glIsTextureEXT DQ 01H DUP (?)
glad_glUniform2ui64ARB DQ 01H DUP (?)
glad_glPrioritizeTexturesEXT DQ 01H DUP (?)
GLAD_GL_EXT_texture_perturb_normal DD 01H DUP (?)
	ALIGN	8

glad_glUniform3ui64ARB DQ 01H DUP (?)
glad_glTextureNormalEXT DQ 01H DUP (?)
GLAD_GL_EXT_texture_sRGB DD 01H DUP (?)
GLAD_GL_EXT_texture_sRGB_R8 DD 01H DUP (?)
GLAD_GL_EXT_texture_sRGB_decode DD 01H DUP (?)
GLAD_GL_EXT_texture_shadow_lod DD 01H DUP (?)
GLAD_GL_EXT_texture_shared_exponent DD 01H DUP (?)
GLAD_GL_EXT_texture_snorm DD 01H DUP (?)
GLAD_GL_EXT_texture_swizzle DD 01H DUP (?)
GLAD_GL_EXT_timer_query DD 01H DUP (?)
glad_glUniform4ui64ARB DQ 01H DUP (?)
glad_glGetQueryObjecti64vEXT DQ 01H DUP (?)
glad_glUniform1ui64vARB DQ 01H DUP (?)
glad_glGetQueryObjectui64vEXT DQ 01H DUP (?)
GLAD_GL_EXT_transform_feedback DD 01H DUP (?)
	ALIGN	8

glad_glUniform2ui64vARB DQ 01H DUP (?)
glad_glBeginTransformFeedbackEXT DQ 01H DUP (?)
glad_glEndTransformFeedbackEXT DQ 01H DUP (?)
glad_glUniform3ui64vARB DQ 01H DUP (?)
glad_glUniform4ui64vARB DQ 01H DUP (?)
glad_glBindBufferRangeEXT DQ 01H DUP (?)
glad_glGetUniformi64vARB DQ 01H DUP (?)
glad_glBindBufferOffsetEXT DQ 01H DUP (?)
glad_glGetUniformui64vARB DQ 01H DUP (?)
glad_glBindBufferBaseEXT DQ 01H DUP (?)
glad_glGetnUniformi64vARB DQ 01H DUP (?)
glad_glTransformFeedbackVaryingsEXT DQ 01H DUP (?)
glad_glGetnUniformui64vARB DQ 01H DUP (?)
glad_glProgramUniform1i64ARB DQ 01H DUP (?)
glad_glGetTransformFeedbackVaryingEXT DQ 01H DUP (?)
GLAD_GL_EXT_vertex_array DD 01H DUP (?)
	ALIGN	8

glad_glArrayElementEXT DQ 01H DUP (?)
GLVersion DQ	01H DUP (?)
glad_glProgramUniform2i64ARB DQ 01H DUP (?)
glad_glColorPointerEXT DQ 01H DUP (?)
glad_glProgramUniform3i64ARB DQ 01H DUP (?)
glad_glDrawArraysEXT DQ 01H DUP (?)
glad_glEdgeFlagPointerEXT DQ 01H DUP (?)
glad_glProgramUniform4i64ARB DQ 01H DUP (?)
glad_glGetPointervEXT DQ 01H DUP (?)
glad_glProgramUniform1i64vARB DQ 01H DUP (?)
glad_glIndexPointerEXT DQ 01H DUP (?)
glad_glProgramUniform2i64vARB DQ 01H DUP (?)
glad_glNormalPointerEXT DQ 01H DUP (?)
glad_glProgramUniform3i64vARB DQ 01H DUP (?)
glad_glTexCoordPointerEXT DQ 01H DUP (?)
glad_glProgramUniform4i64vARB DQ 01H DUP (?)
glad_glProgramUniform1ui64ARB DQ 01H DUP (?)
glad_glVertexPointerEXT DQ 01H DUP (?)
GLAD_GL_EXT_vertex_array_bgra DD 01H DUP (?)
GLAD_GL_EXT_vertex_attrib_64bit DD 01H DUP (?)
glad_glVertexAttribL1dEXT DQ 01H DUP (?)
glad_glProgramUniform2ui64ARB DQ 01H DUP (?)
glad_glVertexAttribL2dEXT DQ 01H DUP (?)
glad_glProgramUniform3ui64ARB DQ 01H DUP (?)
glad_glVertexAttribL3dEXT DQ 01H DUP (?)
glad_glProgramUniform4ui64ARB DQ 01H DUP (?)
glad_glVertexAttribL4dEXT DQ 01H DUP (?)
glad_glVertexAttribL1dvEXT DQ 01H DUP (?)
glad_glProgramUniform1ui64vARB DQ 01H DUP (?)
GLAD_GL_VERSION_1_0 DD 01H DUP (?)
	ALIGN	8

glad_glVertexAttribL2dvEXT DQ 01H DUP (?)
glad_glCullFace DQ 01H DUP (?)
glad_glFrontFace DQ 01H DUP (?)
glad_glProgramUniform2ui64vARB DQ 01H DUP (?)
glad_glVertexAttribL3dvEXT DQ 01H DUP (?)
glad_glHint DQ	01H DUP (?)
glad_glVertexAttribL4dvEXT DQ 01H DUP (?)
glad_glProgramUniform3ui64vARB DQ 01H DUP (?)
glad_glLineWidth DQ 01H DUP (?)
glad_glPointSize DQ 01H DUP (?)
glad_glVertexAttribLPointerEXT DQ 01H DUP (?)
glad_glPolygonMode DQ 01H DUP (?)
glad_glProgramUniform4ui64vARB DQ 01H DUP (?)
GLAD_GL_ARB_half_float_pixel DD 01H DUP (?)
GLAD_GL_ARB_half_float_vertex DD 01H DUP (?)
GLAD_GL_ARB_imaging DD 01H DUP (?)
	ALIGN	8

glad_glGetVertexAttribLdvEXT DQ 01H DUP (?)
GLAD_GL_EXT_vertex_shader DD 01H DUP (?)
	ALIGN	8

glad_glScissor DQ 01H DUP (?)
glad_glBeginVertexShaderEXT DQ 01H DUP (?)
glad_glEndVertexShaderEXT DQ 01H DUP (?)
glad_glColorTable DQ 01H DUP (?)
glad_glBindVertexShaderEXT DQ 01H DUP (?)
glad_glTexParameterf DQ 01H DUP (?)
glad_glGenVertexShadersEXT DQ 01H DUP (?)
glad_glColorTableParameterfv DQ 01H DUP (?)
glad_glDeleteVertexShaderEXT DQ 01H DUP (?)
glad_glTexParameterfv DQ 01H DUP (?)
glad_glColorTableParameteriv DQ 01H DUP (?)
glad_glShaderOp1EXT DQ 01H DUP (?)
glad_glTexParameteri DQ 01H DUP (?)
glad_glTexParameteriv DQ 01H DUP (?)
glad_glShaderOp2EXT DQ 01H DUP (?)
glad_glCopyColorTable DQ 01H DUP (?)
glad_glGetColorTable DQ 01H DUP (?)
glad_glShaderOp3EXT DQ 01H DUP (?)
glad_glTexImage1D DQ 01H DUP (?)
glad_glGetColorTableParameterfv DQ 01H DUP (?)
glad_glSwizzleEXT DQ 01H DUP (?)
glad_glGetColorTableParameteriv DQ 01H DUP (?)
glad_glTexImage2D DQ 01H DUP (?)
glad_glWriteMaskEXT DQ 01H DUP (?)
glad_glDrawBuffer DQ 01H DUP (?)
glad_glColorSubTable DQ 01H DUP (?)
glad_glClear DQ	01H DUP (?)
glad_glInsertComponentEXT DQ 01H DUP (?)
glad_glCopyColorSubTable DQ 01H DUP (?)
glad_glClearColor DQ 01H DUP (?)
glad_glExtractComponentEXT DQ 01H DUP (?)
glad_glClearStencil DQ 01H DUP (?)
glad_glClearDepth DQ 01H DUP (?)
glad_glStencilMask DQ 01H DUP (?)
glad_glGenSymbolsEXT DQ 01H DUP (?)
glad_glConvolutionFilter1D DQ 01H DUP (?)
glad_glSetInvariantEXT DQ 01H DUP (?)
glad_glColorMask DQ 01H DUP (?)
glad_glDepthMask DQ 01H DUP (?)
glad_glSetLocalConstantEXT DQ 01H DUP (?)
glad_glConvolutionFilter2D DQ 01H DUP (?)
glad_glDisable DQ 01H DUP (?)
glad_glEnable DQ 01H DUP (?)
glad_glVariantbvEXT DQ 01H DUP (?)
glad_glConvolutionParameterf DQ 01H DUP (?)
glad_glFinish DQ 01H DUP (?)
glad_glFlush DQ	01H DUP (?)
glad_glVariantsvEXT DQ 01H DUP (?)
glad_glConvolutionParameterfv DQ 01H DUP (?)
glad_glBlendFunc DQ 01H DUP (?)
glad_glVariantivEXT DQ 01H DUP (?)
glad_glLogicOp DQ 01H DUP (?)
glad_glVariantfvEXT DQ 01H DUP (?)
glad_glConvolutionParameteri DQ 01H DUP (?)
glad_glStencilFunc DQ 01H DUP (?)
glad_glVariantdvEXT DQ 01H DUP (?)
glad_glConvolutionParameteriv DQ 01H DUP (?)
glad_glVariantubvEXT DQ 01H DUP (?)
glad_glStencilOp DQ 01H DUP (?)
glad_glDepthFunc DQ 01H DUP (?)
glad_glVariantusvEXT DQ 01H DUP (?)
glad_glCopyConvolutionFilter1D DQ 01H DUP (?)
glad_glVariantuivEXT DQ 01H DUP (?)
glad_glPixelStoref DQ 01H DUP (?)
glad_glPixelStorei DQ 01H DUP (?)
glad_glReadBuffer DQ 01H DUP (?)
glad_glVariantPointerEXT DQ 01H DUP (?)
glad_glCopyConvolutionFilter2D DQ 01H DUP (?)
glad_glEnableVariantClientStateEXT DQ 01H DUP (?)
glad_glDisableVariantClientStateEXT DQ 01H DUP (?)
glad_glGetConvolutionFilter DQ 01H DUP (?)
glad_glBindLightParameterEXT DQ 01H DUP (?)
glad_glReadPixels DQ 01H DUP (?)
glad_glGetConvolutionParameterfv DQ 01H DUP (?)
glad_glBindMaterialParameterEXT DQ 01H DUP (?)
glad_glGetBooleanv DQ 01H DUP (?)
glad_glGetConvolutionParameteriv DQ 01H DUP (?)
glad_glBindTexGenParameterEXT DQ 01H DUP (?)
glad_glGetDoublev DQ 01H DUP (?)
glad_glGetError DQ 01H DUP (?)
glad_glBindTextureUnitParameterEXT DQ 01H DUP (?)
glad_glGetFloatv DQ 01H DUP (?)
glad_glBindParameterEXT DQ 01H DUP (?)
glad_glGetSeparableFilter DQ 01H DUP (?)
glad_glGetIntegerv DQ 01H DUP (?)
glad_glIsVariantEnabledEXT DQ 01H DUP (?)
glad_glGetString DQ 01H DUP (?)
glad_glGetVariantBooleanvEXT DQ 01H DUP (?)
glad_glSeparableFilter2D DQ 01H DUP (?)
glad_glGetTexImage DQ 01H DUP (?)
glad_glGetVariantIntegervEXT DQ 01H DUP (?)
glad_glGetTexParameterfv DQ 01H DUP (?)
glad_glGetVariantFloatvEXT DQ 01H DUP (?)
glad_glGetHistogram DQ 01H DUP (?)
glad_glGetTexParameteriv DQ 01H DUP (?)
glad_glGetVariantPointervEXT DQ 01H DUP (?)
glad_glGetHistogramParameterfv DQ 01H DUP (?)
glad_glGetInvariantBooleanvEXT DQ 01H DUP (?)
glad_glGetTexLevelParameterfv DQ 01H DUP (?)
glad_glGetHistogramParameteriv DQ 01H DUP (?)
glad_glGetInvariantIntegervEXT DQ 01H DUP (?)
glad_glGetTexLevelParameteriv DQ 01H DUP (?)
glad_glIsEnabled DQ 01H DUP (?)
glad_glGetMinmax DQ 01H DUP (?)
glad_glGetInvariantFloatvEXT DQ 01H DUP (?)
glad_glDepthRange DQ 01H DUP (?)
glad_glGetMinmaxParameterfv DQ 01H DUP (?)
glad_glGetLocalConstantBooleanvEXT DQ 01H DUP (?)
glad_glGetMinmaxParameteriv DQ 01H DUP (?)
glad_glViewport DQ 01H DUP (?)
glad_glGetLocalConstantIntegervEXT DQ 01H DUP (?)
GLAD_GL_VERSION_1_1 DD 01H DUP (?)
	ALIGN	8

glad_glGetLocalConstantFloatvEXT DQ 01H DUP (?)
glad_glDrawArrays DQ 01H DUP (?)
GLAD_GL_EXT_vertex_weighting DD 01H DUP (?)
	ALIGN	8

glad_glHistogram DQ 01H DUP (?)
glad_glVertexWeightfEXT DQ 01H DUP (?)
glad_glMinmax DQ 01H DUP (?)
glad_glVertexWeightfvEXT DQ 01H DUP (?)
glad_glDrawElements DQ 01H DUP (?)
glad_glResetHistogram DQ 01H DUP (?)
glad_glPolygonOffset DQ 01H DUP (?)
glad_glResetMinmax DQ 01H DUP (?)
GLAD_GL_ARB_indirect_parameters DD 01H DUP (?)
	ALIGN	8

glad_glVertexWeightPointerEXT DQ 01H DUP (?)
GLAD_GL_EXT_win32_keyed_mutex DD 01H DUP (?)
	ALIGN	8

glad_glAcquireKeyedMutexWin32EXT DQ 01H DUP (?)
glad_glMultiDrawArraysIndirectCountARB DQ 01H DUP (?)
glad_glCopyTexImage1D DQ 01H DUP (?)
glad_glReleaseKeyedMutexWin32EXT DQ 01H DUP (?)
GLAD_GL_EXT_window_rectangles DD 01H DUP (?)
	ALIGN	8

glad_glWindowRectanglesEXT DQ 01H DUP (?)
GLAD_GL_EXT_x11_sync_object DD 01H DUP (?)
	ALIGN	8

glad_glMultiDrawElementsIndirectCountARB DQ 01H DUP (?)
GLAD_GL_ARB_instanced_arrays DD 01H DUP (?)
	ALIGN	8

glad_glCopyTexImage2D DQ 01H DUP (?)
glad_glVertexAttribDivisorARB DQ 01H DUP (?)
GLAD_GL_ARB_internalformat_query DD 01H DUP (?)
	ALIGN	8

glad_glImportSyncEXT DQ 01H DUP (?)
GLAD_GL_GREMEDY_frame_terminator DD 01H DUP (?)
GLAD_GL_ARB_internalformat_query2 DD 01H DUP (?)
GLAD_GL_ARB_invalidate_subdata DD 01H DUP (?)
GLAD_GL_ARB_map_buffer_alignment DD 01H DUP (?)
GLAD_GL_ARB_map_buffer_range DD 01H DUP (?)
	ALIGN	8

glad_glFrameTerminatorGREMEDY DQ 01H DUP (?)
GLAD_GL_ARB_matrix_palette DD 01H DUP (?)
GLAD_GL_GREMEDY_string_marker DD 01H DUP (?)
glad_glCurrentPaletteMatrixARB DQ 01H DUP (?)
glad_glStringMarkerGREMEDY DQ 01H DUP (?)
GLAD_GL_HP_convolution_border_modes DD 01H DUP (?)
	ALIGN	8

glad_glCopyTexSubImage1D DQ 01H DUP (?)
GLAD_GL_HP_image_transform DD 01H DUP (?)
	ALIGN	8

glad_glMatrixIndexubvARB DQ 01H DUP (?)
glad_glImageTransformParameteriHP DQ 01H DUP (?)
glad_glMatrixIndexusvARB DQ 01H DUP (?)
glad_glMatrixIndexuivARB DQ 01H DUP (?)
glad_glImageTransformParameterfHP DQ 01H DUP (?)
glad_glCopyTexSubImage2D DQ 01H DUP (?)
glad_glMatrixIndexPointerARB DQ 01H DUP (?)
glad_glImageTransformParameterivHP DQ 01H DUP (?)
GLAD_GL_ARB_multi_bind DD 01H DUP (?)
GLAD_GL_ARB_multi_draw_indirect DD 01H DUP (?)
GLAD_GL_ARB_multisample DD 01H DUP (?)
	ALIGN	8

glad_glImageTransformParameterfvHP DQ 01H DUP (?)
glad_glTexSubImage1D DQ 01H DUP (?)
glad_glSampleCoverageARB DQ 01H DUP (?)
GLAD_GL_ARB_multitexture DD 01H DUP (?)
	ALIGN	8

glad_glActiveTextureARB DQ 01H DUP (?)
glad_glGetImageTransformParameterivHP DQ 01H DUP (?)
glad_glClientActiveTextureARB DQ 01H DUP (?)
glad_glGetImageTransformParameterfvHP DQ 01H DUP (?)
glad_glMultiTexCoord1dARB DQ 01H DUP (?)
GLAD_GL_HP_occlusion_test DD 01H DUP (?)
GLAD_GL_HP_texture_lighting DD 01H DUP (?)
GLAD_GL_IBM_cull_vertex DD 01H DUP (?)
GLAD_GL_IBM_multimode_draw_arrays DD 01H DUP (?)
glad_glTexSubImage2D DQ 01H DUP (?)
glad_glMultiTexCoord1dvARB DQ 01H DUP (?)
glad_glBindTexture DQ 01H DUP (?)
glad_glMultiTexCoord1fARB DQ 01H DUP (?)
glad_glMultiModeDrawArraysIBM DQ 01H DUP (?)
glad_glDeleteTextures DQ 01H DUP (?)
glad_glMultiTexCoord1fvARB DQ 01H DUP (?)
glad_glGenTextures DQ 01H DUP (?)
glad_glMultiTexCoord1iARB DQ 01H DUP (?)
glad_glIsTexture DQ 01H DUP (?)
GLAD_GL_VERSION_1_2 DD 01H DUP (?)
	ALIGN	8

glad_glMultiModeDrawElementsIBM DQ 01H DUP (?)
glad_glMultiTexCoord1ivARB DQ 01H DUP (?)
GLAD_GL_IBM_rasterpos_clip DD 01H DUP (?)
GLAD_GL_IBM_static_data DD 01H DUP (?)
glad_glMultiTexCoord1sARB DQ 01H DUP (?)
glad_glFlushStaticDataIBM DQ 01H DUP (?)
GLAD_GL_IBM_texture_mirrored_repeat DD 01H DUP (?)
GLAD_GL_IBM_vertex_array_lists DD 01H DUP (?)
glad_glDrawRangeElements DQ 01H DUP (?)
glad_glMultiTexCoord1svARB DQ 01H DUP (?)
glad_glMultiTexCoord2dARB DQ 01H DUP (?)
glad_glColorPointerListIBM DQ 01H DUP (?)
glad_glMultiTexCoord2dvARB DQ 01H DUP (?)
glad_glSecondaryColorPointerListIBM DQ 01H DUP (?)
glad_glTexImage3D DQ 01H DUP (?)
glad_glMultiTexCoord2fARB DQ 01H DUP (?)
glad_glEdgeFlagPointerListIBM DQ 01H DUP (?)
glad_glMultiTexCoord2fvARB DQ 01H DUP (?)
glad_glMultiTexCoord2iARB DQ 01H DUP (?)
glad_glFogCoordPointerListIBM DQ 01H DUP (?)
glad_glMultiTexCoord2ivARB DQ 01H DUP (?)
glad_glTexSubImage3D DQ 01H DUP (?)
glad_glIndexPointerListIBM DQ 01H DUP (?)
glad_glMultiTexCoord2sARB DQ 01H DUP (?)
glad_glMultiTexCoord2svARB DQ 01H DUP (?)
glad_glNormalPointerListIBM DQ 01H DUP (?)
glad_glMultiTexCoord3dARB DQ 01H DUP (?)
glad_glCopyTexSubImage3D DQ 01H DUP (?)
GLAD_GL_VERSION_1_3 DD 01H DUP (?)
	ALIGN	8

glad_glTexCoordPointerListIBM DQ 01H DUP (?)
glad_glActiveTexture DQ 01H DUP (?)
glad_glMultiTexCoord3dvARB DQ 01H DUP (?)
glad_glSampleCoverage DQ 01H DUP (?)
glad_glVertexPointerListIBM DQ 01H DUP (?)
glad_glMultiTexCoord3fARB DQ 01H DUP (?)
GLAD_GL_INGR_blend_func_separate DD 01H DUP (?)
	ALIGN	8

glad_glMultiTexCoord3fvARB DQ 01H DUP (?)
glad_glBlendFuncSeparateINGR DQ 01H DUP (?)
GLAD_GL_INGR_color_clamp DD 01H DUP (?)
GLAD_GL_INGR_interlace_read DD 01H DUP (?)
GLAD_GL_INTEL_blackhole_render DD 01H DUP (?)
	ALIGN	8

glad_glCompressedTexImage3D DQ 01H DUP (?)
GLAD_GL_INTEL_conservative_rasterization DD 01H DUP (?)
	ALIGN	8

glad_glMultiTexCoord3iARB DQ 01H DUP (?)
GLAD_GL_INTEL_fragment_shader_ordering DD 01H DUP (?)
GLAD_GL_INTEL_framebuffer_CMAA DD 01H DUP (?)
glad_glApplyFramebufferAttachmentCMAAINTEL DQ 01H DUP (?)
GLAD_GL_INTEL_map_texture DD 01H DUP (?)
	ALIGN	8

glad_glMultiTexCoord3ivARB DQ 01H DUP (?)
glad_glSyncTextureINTEL DQ 01H DUP (?)
glad_glUnmapTexture2DINTEL DQ 01H DUP (?)
glad_glMultiTexCoord3sARB DQ 01H DUP (?)
glad_glCompressedTexImage2D DQ 01H DUP (?)
glad_glMultiTexCoord3svARB DQ 01H DUP (?)
glad_glMapTexture2DINTEL DQ 01H DUP (?)
GLAD_GL_INTEL_parallel_arrays DD 01H DUP (?)
	ALIGN	8

glad_glCompressedTexImage1D DQ 01H DUP (?)
glad_glMultiTexCoord4dARB DQ 01H DUP (?)
glad_glVertexPointervINTEL DQ 01H DUP (?)
glad_glMultiTexCoord4dvARB DQ 01H DUP (?)
glad_glNormalPointervINTEL DQ 01H DUP (?)
glad_glColorPointervINTEL DQ 01H DUP (?)
glad_glMultiTexCoord4fARB DQ 01H DUP (?)
glad_glCompressedTexSubImage3D DQ 01H DUP (?)
glad_glMultiTexCoord4fvARB DQ 01H DUP (?)
glad_glTexCoordPointervINTEL DQ 01H DUP (?)
GLAD_GL_INTEL_performance_query DD 01H DUP (?)
	ALIGN	8

glad_glBeginPerfQueryINTEL DQ 01H DUP (?)
glad_glCreatePerfQueryINTEL DQ 01H DUP (?)
glad_glMultiTexCoord4iARB DQ 01H DUP (?)
glad_glDeletePerfQueryINTEL DQ 01H DUP (?)
glad_glMultiTexCoord4ivARB DQ 01H DUP (?)
glad_glCompressedTexSubImage2D DQ 01H DUP (?)
glad_glEndPerfQueryINTEL DQ 01H DUP (?)
glad_glGetFirstPerfQueryIdINTEL DQ 01H DUP (?)
glad_glGetNextPerfQueryIdINTEL DQ 01H DUP (?)
glad_glMultiTexCoord4sARB DQ 01H DUP (?)
glad_glCompressedTexSubImage1D DQ 01H DUP (?)
glad_glMultiTexCoord4svARB DQ 01H DUP (?)
GLAD_GL_ARB_occlusion_query DD 01H DUP (?)
	ALIGN	8

glad_glGetCompressedTexImage DQ 01H DUP (?)
glad_glGenQueriesARB DQ 01H DUP (?)
GLAD_GL_VERSION_1_4 DD 01H DUP (?)
	ALIGN	8

glad_glDeleteQueriesARB DQ 01H DUP (?)
glad_glGetPerfCounterInfoINTEL DQ 01H DUP (?)
glad_glIsQueryARB DQ 01H DUP (?)
glad_glBlendFuncSeparate DQ 01H DUP (?)
glad_glBeginQueryARB DQ 01H DUP (?)
glad_glEndQueryARB DQ 01H DUP (?)
glad_glMultiDrawArrays DQ 01H DUP (?)
glad_glGetPerfQueryDataINTEL DQ 01H DUP (?)
glad_glGetQueryivARB DQ 01H DUP (?)
glad_glGetPerfQueryIdByNameINTEL DQ 01H DUP (?)
glad_glMultiDrawElements DQ 01H DUP (?)
glad_glGetQueryObjectivARB DQ 01H DUP (?)
glad_glPointParameterf DQ 01H DUP (?)
glad_glGetQueryObjectuivARB DQ 01H DUP (?)
glad_glGetPerfQueryInfoINTEL DQ 01H DUP (?)
glad_glPointParameterfv DQ 01H DUP (?)
GLAD_GL_KHR_blend_equation_advanced DD 01H DUP (?)
GLAD_GL_ARB_occlusion_query2 DD 01H DUP (?)
GLAD_GL_ARB_parallel_shader_compile DD 01H DUP (?)
	ALIGN	8

glad_glBlendBarrierKHR DQ 01H DUP (?)
GLAD_GL_KHR_blend_equation_advanced_coherent DD 01H DUP (?)
	ALIGN	8

glad_glMaxShaderCompilerThreadsARB DQ 01H DUP (?)
GLAD_GL_KHR_context_flush_control DD 01H DUP (?)
GLAD_GL_ARB_pipeline_statistics_query DD 01H DUP (?)
glad_glPointParameteri DQ 01H DUP (?)
GLAD_GL_KHR_debug DD 01H DUP (?)
GLAD_GL_ARB_pixel_buffer_object DD 01H DUP (?)
GLAD_GL_ARB_point_parameters DD 01H DUP (?)
	ALIGN	8

glad_glPointParameteriv DQ 01H DUP (?)
glad_glPointParameterfARB DQ 01H DUP (?)
glad_glPointParameterfvARB DQ 01H DUP (?)
glad_glDebugMessageControlKHR DQ 01H DUP (?)
GLAD_GL_ARB_point_sprite DD 01H DUP (?)
GLAD_GL_ARB_polygon_offset_clamp DD 01H DUP (?)
glad_glBlendColor DQ 01H DUP (?)
GLAD_GL_ARB_post_depth_coverage DD 01H DUP (?)
GLAD_GL_ARB_program_interface_query DD 01H DUP (?)
GLAD_GL_ARB_provoking_vertex DD 01H DUP (?)
	ALIGN	8

glad_glBlendEquation DQ 01H DUP (?)
GLAD_GL_ARB_query_buffer_object DD 01H DUP (?)
GLAD_GL_ARB_robust_buffer_access_behavior DD 01H DUP (?)
GLAD_GL_VERSION_1_5 DD 01H DUP (?)
GLAD_GL_ARB_robustness DD 01H DUP (?)
glad_glGetGraphicsResetStatusARB DQ 01H DUP (?)
glad_glGenQueries DQ 01H DUP (?)
glad_glDebugMessageInsertKHR DQ 01H DUP (?)
glad_glDeleteQueries DQ 01H DUP (?)
glad_glDebugMessageCallbackKHR DQ 01H DUP (?)
glad_glIsQuery DQ 01H DUP (?)
glad_glGetnTexImageARB DQ 01H DUP (?)
glad_glBeginQuery DQ 01H DUP (?)
glad_glEndQuery DQ 01H DUP (?)
glad_glGetDebugMessageLogKHR DQ 01H DUP (?)
glad_glGetQueryiv DQ 01H DUP (?)
glad_glReadnPixelsARB DQ 01H DUP (?)
glad_glPushDebugGroupKHR DQ 01H DUP (?)
glad_glGetQueryObjectiv DQ 01H DUP (?)
glad_glPopDebugGroupKHR DQ 01H DUP (?)
glad_glGetnCompressedTexImageARB DQ 01H DUP (?)
glad_glGetQueryObjectuiv DQ 01H DUP (?)
glad_glObjectLabelKHR DQ 01H DUP (?)
glad_glBindBuffer DQ 01H DUP (?)
glad_glGetnUniformfvARB DQ 01H DUP (?)
glad_glDeleteBuffers DQ 01H DUP (?)
glad_glGetnUniformivARB DQ 01H DUP (?)
glad_glGetObjectLabelKHR DQ 01H DUP (?)
glad_glGenBuffers DQ 01H DUP (?)
glad_glIsBuffer DQ 01H DUP (?)
glad_glObjectPtrLabelKHR DQ 01H DUP (?)
glad_glGetnUniformuivARB DQ 01H DUP (?)
glad_glBufferData DQ 01H DUP (?)
glad_glGetObjectPtrLabelKHR DQ 01H DUP (?)
glad_glGetnUniformdvARB DQ 01H DUP (?)
glad_glGetPointervKHR DQ 01H DUP (?)
GLAD_GL_KHR_no_error DD 01H DUP (?)
	ALIGN	8

glad_glBufferSubData DQ 01H DUP (?)
GLAD_GL_KHR_parallel_shader_compile DD 01H DUP (?)
	ALIGN	8

glad_glMaxShaderCompilerThreadsKHR DQ 01H DUP (?)
glad_glGetnMapdvARB DQ 01H DUP (?)
GLAD_GL_KHR_robust_buffer_access_behavior DD 01H DUP (?)
GLAD_GL_KHR_robustness DD 01H DUP (?)
glad_glGetGraphicsResetStatusKHR DQ 01H DUP (?)
glad_glGetBufferSubData DQ 01H DUP (?)
glad_glGetnMapfvARB DQ 01H DUP (?)
glad_glMapBuffer DQ 01H DUP (?)
glad_glUnmapBuffer DQ 01H DUP (?)
glad_glGetnMapivARB DQ 01H DUP (?)
glad_glReadnPixelsKHR DQ 01H DUP (?)
glad_glGetBufferParameteriv DQ 01H DUP (?)
glad_glGetnPixelMapfvARB DQ 01H DUP (?)
glad_glGetBufferPointerv DQ 01H DUP (?)
glad_glGetnUniformfvKHR DQ 01H DUP (?)
GLAD_GL_VERSION_2_0 DD 01H DUP (?)
	ALIGN	8

glad_glGetnPixelMapuivARB DQ 01H DUP (?)
glad_glBlendEquationSeparate DQ 01H DUP (?)
glad_glGetnUniformivKHR DQ 01H DUP (?)
glad_glGetnPixelMapusvARB DQ 01H DUP (?)
glad_glDrawBuffers DQ 01H DUP (?)
glad_glGetnPolygonStippleARB DQ 01H DUP (?)
glad_glGetnUniformuivKHR DQ 01H DUP (?)
GLAD_GL_KHR_shader_subgroup DD 01H DUP (?)
	ALIGN	8

glad_glStencilOpSeparate DQ 01H DUP (?)
GLAD_GL_KHR_texture_compression_astc_hdr DD 01H DUP (?)
GLAD_GL_KHR_texture_compression_astc_ldr DD 01H DUP (?)
GLAD_GL_KHR_texture_compression_astc_sliced_3d DD 01H DUP (?)
GLAD_GL_MESAX_texture_stack DD 01H DUP (?)
GLAD_GL_MESA_framebuffer_flip_y DD 01H DUP (?)
	ALIGN	8

glad_glGetnColorTableARB DQ 01H DUP (?)
glad_glStencilFuncSeparate DQ 01H DUP (?)
glad_glFramebufferParameteriMESA DQ 01H DUP (?)
glad_glStencilMaskSeparate DQ 01H DUP (?)
glad_glGetnConvolutionFilterARB DQ 01H DUP (?)
glad_glGetFramebufferParameterivMESA DQ 01H DUP (?)
GLAD_GL_MESA_pack_invert DD 01H DUP (?)
	ALIGN	8

glad_glAttachShader DQ 01H DUP (?)
GLAD_GL_MESA_program_binary_formats DD 01H DUP (?)
GLAD_GL_MESA_resize_buffers DD 01H DUP (?)
glad_glResizeBuffersMESA DQ 01H DUP (?)
GLAD_GL_MESA_shader_integer_functions DD 01H DUP (?)
GLAD_GL_MESA_tile_raster_order DD 01H DUP (?)
GLAD_GL_MESA_window_pos DD 01H DUP (?)
	ALIGN	8

glad_glBindAttribLocation DQ 01H DUP (?)
glad_glCompileShader DQ 01H DUP (?)
glad_glWindowPos2dMESA DQ 01H DUP (?)
glad_glCreateProgram DQ 01H DUP (?)
glad_glGetnSeparableFilterARB DQ 01H DUP (?)
glad_glWindowPos2dvMESA DQ 01H DUP (?)
glad_glCreateShader DQ 01H DUP (?)
glad_glDeleteProgram DQ 01H DUP (?)
glad_glWindowPos2fMESA DQ 01H DUP (?)
glad_glDeleteShader DQ 01H DUP (?)
glad_glWindowPos2fvMESA DQ 01H DUP (?)
glad_glGetnHistogramARB DQ 01H DUP (?)
glad_glDetachShader DQ 01H DUP (?)
glad_glWindowPos2iMESA DQ 01H DUP (?)
glad_glDisableVertexAttribArray DQ 01H DUP (?)
glad_glWindowPos2ivMESA DQ 01H DUP (?)
glad_glEnableVertexAttribArray DQ 01H DUP (?)
glad_glGetnMinmaxARB DQ 01H DUP (?)
glad_glWindowPos2sMESA DQ 01H DUP (?)
GLAD_GL_ARB_robustness_isolation DD 01H DUP (?)
GLAD_GL_ARB_sample_locations DD 01H DUP (?)
glad_glWindowPos2svMESA DQ 01H DUP (?)
glad_glWindowPos3dMESA DQ 01H DUP (?)
glad_glFramebufferSampleLocationsfvARB DQ 01H DUP (?)
glad_glGetActiveAttrib DQ 01H DUP (?)
glad_glWindowPos3dvMESA DQ 01H DUP (?)
glad_glNamedFramebufferSampleLocationsfvARB DQ 01H DUP (?)
glad_glWindowPos3fMESA DQ 01H DUP (?)
glad_glEvaluateDepthValuesARB DQ 01H DUP (?)
GLAD_GL_ARB_sample_shading DD 01H DUP (?)
	ALIGN	8

glad_glWindowPos3fvMESA DQ 01H DUP (?)
glad_glMinSampleShadingARB DQ 01H DUP (?)
glad_glGetActiveUniform DQ 01H DUP (?)
GLAD_GL_ARB_sampler_objects DD 01H DUP (?)
GLAD_GL_ARB_seamless_cube_map DD 01H DUP (?)
GLAD_GL_ARB_seamless_cubemap_per_texture DD 01H DUP (?)
GLAD_GL_ARB_separate_shader_objects DD 01H DUP (?)
GLAD_GL_ARB_shader_atomic_counter_ops DD 01H DUP (?)
GLAD_GL_ARB_shader_atomic_counters DD 01H DUP (?)
glad_glWindowPos3iMESA DQ 01H DUP (?)
GLAD_GL_ARB_shader_ballot DD 01H DUP (?)
GLAD_GL_ARB_shader_bit_encoding DD 01H DUP (?)
GLAD_GL_ARB_shader_clock DD 01H DUP (?)
	ALIGN	8

glad_glGetAttachedShaders DQ 01H DUP (?)
glad_glWindowPos3ivMESA DQ 01H DUP (?)
GLAD_GL_ARB_shader_draw_parameters DD 01H DUP (?)
GLAD_GL_ARB_shader_group_vote DD 01H DUP (?)
GLAD_GL_ARB_shader_image_load_store DD 01H DUP (?)
GLAD_GL_ARB_shader_image_size DD 01H DUP (?)
GLAD_GL_ARB_shader_objects DD 01H DUP (?)
	ALIGN	8

glad_glGetAttribLocation DQ 01H DUP (?)
glad_glWindowPos3sMESA DQ 01H DUP (?)
glad_glDeleteObjectARB DQ 01H DUP (?)
glad_glWindowPos3svMESA DQ 01H DUP (?)
glad_glGetHandleARB DQ 01H DUP (?)
glad_glGetProgramiv DQ 01H DUP (?)
glad_glDetachObjectARB DQ 01H DUP (?)
glad_glCreateShaderObjectARB DQ 01H DUP (?)
glad_glWindowPos4dMESA DQ 01H DUP (?)
glad_glGetProgramInfoLog DQ 01H DUP (?)
glad_glWindowPos4dvMESA DQ 01H DUP (?)
glad_glShaderSourceARB DQ 01H DUP (?)
glad_glGetShaderiv DQ 01H DUP (?)
glad_glWindowPos4fMESA DQ 01H DUP (?)
glad_glCompileShaderARB DQ 01H DUP (?)
glad_glCreateProgramObjectARB DQ 01H DUP (?)
glad_glWindowPos4fvMESA DQ 01H DUP (?)
glad_glGetShaderInfoLog DQ 01H DUP (?)
glad_glAttachObjectARB DQ 01H DUP (?)
glad_glLinkProgramARB DQ 01H DUP (?)
glad_glWindowPos4iMESA DQ 01H DUP (?)
glad_glGetShaderSource DQ 01H DUP (?)
glad_glUseProgramObjectARB DQ 01H DUP (?)
glad_glWindowPos4ivMESA DQ 01H DUP (?)
glad_glValidateProgramARB DQ 01H DUP (?)
glad_glGetUniformLocation DQ 01H DUP (?)
glad_glUniform1fARB DQ 01H DUP (?)
glad_glWindowPos4sMESA DQ 01H DUP (?)
glad_glGetUniformfv DQ 01H DUP (?)
glad_glWindowPos4svMESA DQ 01H DUP (?)
GLAD_GL_MESA_ycbcr_texture DD 01H DUP (?)
GLAD_GL_NVX_blend_equation_advanced_multi_draw_buffers DD 01H DUP (?)
GLAD_GL_NVX_conditional_render DD 01H DUP (?)
	ALIGN	8

glad_glUniform2fARB DQ 01H DUP (?)
glad_glGetUniformiv DQ 01H DUP (?)
glad_glBeginConditionalRenderNVX DQ 01H DUP (?)
glad_glEndConditionalRenderNVX DQ 01H DUP (?)
GLAD_GL_NVX_gpu_memory_info DD 01H DUP (?)
GLAD_GL_NVX_gpu_multicast2 DD 01H DUP (?)
glad_glUniform3fARB DQ 01H DUP (?)
glad_glGetVertexAttribdv DQ 01H DUP (?)
glad_glUploadGpuMaskNVX DQ 01H DUP (?)
glad_glGetVertexAttribfv DQ 01H DUP (?)
glad_glUniform4fARB DQ 01H DUP (?)
glad_glMulticastViewportArrayvNVX DQ 01H DUP (?)
glad_glGetVertexAttribiv DQ 01H DUP (?)
glad_glUniform1iARB DQ 01H DUP (?)
glad_glMulticastViewportPositionWScaleNVX DQ 01H DUP (?)
glad_glGetVertexAttribPointerv DQ 01H DUP (?)
glad_glUniform2iARB DQ 01H DUP (?)
glad_glIsProgram DQ 01H DUP (?)
glad_glIsShader DQ 01H DUP (?)
glad_glMulticastScissorArrayvNVX DQ 01H DUP (?)
glad_glUniform3iARB DQ 01H DUP (?)
glad_glLinkProgram DQ 01H DUP (?)
glad_glShaderSource DQ 01H DUP (?)
glad_glUniform4iARB DQ 01H DUP (?)
glad_glUseProgram DQ 01H DUP (?)
glad_glUniform1fvARB DQ 01H DUP (?)
glad_glUniform1f DQ 01H DUP (?)
glad_glAsyncCopyBufferSubDataNVX DQ 01H DUP (?)
glad_glUniform2fvARB DQ 01H DUP (?)
glad_glUniform2f DQ 01H DUP (?)
glad_glUniform3fvARB DQ 01H DUP (?)
glad_glUniform3f DQ 01H DUP (?)
glad_glUniform4fvARB DQ 01H DUP (?)
glad_glUniform4f DQ 01H DUP (?)
glad_glUniform1ivARB DQ 01H DUP (?)
glad_glUniform1i DQ 01H DUP (?)
glad_glUniform2ivARB DQ 01H DUP (?)
glad_glUniform2i DQ 01H DUP (?)
glad_glUniform3ivARB DQ 01H DUP (?)
glad_glAsyncCopyImageSubDataNVX DQ 01H DUP (?)
GLAD_GL_NVX_linked_gpu_multicast DD 01H DUP (?)
	ALIGN	8

glad_glUniform3i DQ 01H DUP (?)
glad_glUniform4ivARB DQ 01H DUP (?)
glad_glLGPUNamedBufferSubDataNVX DQ 01H DUP (?)
glad_glUniformMatrix2fvARB DQ 01H DUP (?)
glad_glUniform4i DQ 01H DUP (?)
glad_glUniform1fv DQ 01H DUP (?)
glad_glUniformMatrix3fvARB DQ 01H DUP (?)
glad_glUniform2fv DQ 01H DUP (?)
glad_glUniformMatrix4fvARB DQ 01H DUP (?)
glad_glUniform3fv DQ 01H DUP (?)
glad_glGetObjectParameterfvARB DQ 01H DUP (?)
glad_glUniform4fv DQ 01H DUP (?)
glad_glGetObjectParameterivARB DQ 01H DUP (?)
glad_glLGPUCopyImageSubDataNVX DQ 01H DUP (?)
glad_glLGPUInterlockNVX DQ 01H DUP (?)
GLAD_GL_NVX_progress_fence DD 01H DUP (?)
	ALIGN	8

glad_glUniform1iv DQ 01H DUP (?)
glad_glCreateProgressFenceNVX DQ 01H DUP (?)
glad_glGetInfoLogARB DQ 01H DUP (?)
glad_glUniform2iv DQ 01H DUP (?)
glad_glSignalSemaphoreui64NVX DQ 01H DUP (?)
glad_glGetAttachedObjectsARB DQ 01H DUP (?)
glad_glUniform3iv DQ 01H DUP (?)
glad_glGetUniformLocationARB DQ 01H DUP (?)
glad_glWaitSemaphoreui64NVX DQ 01H DUP (?)
glad_glUniform4iv DQ 01H DUP (?)
glad_glClientWaitSemaphoreui64NVX DQ 01H DUP (?)
GLAD_GL_NV_alpha_to_coverage_dither_control DD 01H DUP (?)
	ALIGN	8

glad_glUniformMatrix2fv DQ 01H DUP (?)
glad_glAlphaToCoverageDitherControlNV DQ 01H DUP (?)
GLAD_GL_NV_bindless_multi_draw_indirect DD 01H DUP (?)
	ALIGN	8

glad_glGetActiveUniformARB DQ 01H DUP (?)
glad_glUniformMatrix3fv DQ 01H DUP (?)
glad_glGetUniformfvARB DQ 01H DUP (?)
glad_glMultiDrawArraysIndirectBindlessNV DQ 01H DUP (?)
glad_glGetUniformivARB DQ 01H DUP (?)
glad_glUniformMatrix4fv DQ 01H DUP (?)
glad_glValidateProgram DQ 01H DUP (?)
glad_glMultiDrawElementsIndirectBindlessNV DQ 01H DUP (?)
GLAD_GL_NV_bindless_multi_draw_indirect_count DD 01H DUP (?)
	ALIGN	8

glad_glGetShaderSourceARB DQ 01H DUP (?)
glad_glVertexAttrib1d DQ 01H DUP (?)
GLAD_GL_ARB_shader_precision DD 01H DUP (?)
GLAD_GL_ARB_shader_stencil_export DD 01H DUP (?)
GLAD_GL_ARB_shader_storage_buffer_object DD 01H DUP (?)
GLAD_GL_ARB_shader_subroutine DD 01H DUP (?)
GLAD_GL_ARB_shader_texture_image_samples DD 01H DUP (?)
GLAD_GL_ARB_shader_texture_lod DD 01H DUP (?)
GLAD_GL_ARB_shader_viewport_layer_array DD 01H DUP (?)
	ALIGN	8

glad_glVertexAttrib1dv DQ 01H DUP (?)
GLAD_GL_ARB_shading_language_100 DD 01H DUP (?)
GLAD_GL_ARB_shading_language_420pack DD 01H DUP (?)
GLAD_GL_ARB_shading_language_include DD 01H DUP (?)
	ALIGN	8

glad_glVertexAttrib1f DQ 01H DUP (?)
glad_glMultiDrawArraysIndirectBindlessCountNV DQ 01H DUP (?)
glad_glVertexAttrib1fv DQ 01H DUP (?)
glad_glNamedStringARB DQ 01H DUP (?)
glad_glVertexAttrib1s DQ 01H DUP (?)
glad_glDeleteNamedStringARB DQ 01H DUP (?)
glad_glMultiDrawElementsIndirectBindlessCountNV DQ 01H DUP (?)
glad_glVertexAttrib1sv DQ 01H DUP (?)
GLAD_GL_NV_bindless_texture DD 01H DUP (?)
	ALIGN	8

glad_glGetTextureHandleNV DQ 01H DUP (?)
glad_glCompileShaderIncludeARB DQ 01H DUP (?)
glad_glVertexAttrib2d DQ 01H DUP (?)
glad_glGetTextureSamplerHandleNV DQ 01H DUP (?)
glad_glIsNamedStringARB DQ 01H DUP (?)
glad_glMakeTextureHandleResidentNV DQ 01H DUP (?)
glad_glVertexAttrib2dv DQ 01H DUP (?)
glad_glMakeTextureHandleNonResidentNV DQ 01H DUP (?)
glad_glVertexAttrib2f DQ 01H DUP (?)
glad_glGetNamedStringARB DQ 01H DUP (?)
glad_glVertexAttrib2fv DQ 01H DUP (?)
glad_glGetImageHandleNV DQ 01H DUP (?)
glad_glGetNamedStringivARB DQ 01H DUP (?)
glad_glVertexAttrib2s DQ 01H DUP (?)
GLAD_GL_ARB_shading_language_packing DD 01H DUP (?)
	ALIGN	8

glad_glMakeImageHandleResidentNV DQ 01H DUP (?)
GLAD_GL_ARB_shadow DD 01H DUP (?)
GLAD_GL_ARB_shadow_ambient DD 01H DUP (?)
GLAD_GL_ARB_sparse_buffer DD 01H DUP (?)
	ALIGN	8

glad_glMakeImageHandleNonResidentNV DQ 01H DUP (?)
glad_glVertexAttrib2sv DQ 01H DUP (?)
glad_glUniformHandleui64NV DQ 01H DUP (?)
glad_glBufferPageCommitmentARB DQ 01H DUP (?)
glad_glVertexAttrib3d DQ 01H DUP (?)
glad_glUniformHandleui64vNV DQ 01H DUP (?)
glad_glVertexAttrib3dv DQ 01H DUP (?)
glad_glNamedBufferPageCommitmentEXT DQ 01H DUP (?)
glad_glProgramUniformHandleui64NV DQ 01H DUP (?)
glad_glVertexAttrib3f DQ 01H DUP (?)
glad_glNamedBufferPageCommitmentARB DQ 01H DUP (?)
GLAD_GL_ARB_sparse_texture DD 01H DUP (?)
	ALIGN	8

glad_glProgramUniformHandleui64vNV DQ 01H DUP (?)
glad_glVertexAttrib3fv DQ 01H DUP (?)
glad_glIsTextureHandleResidentNV DQ 01H DUP (?)
glad_glIsImageHandleResidentNV DQ 01H DUP (?)
GLAD_GL_NV_blend_equation_advanced DD 01H DUP (?)
	ALIGN	8

glad_glVertexAttrib3s DQ 01H DUP (?)
glad_glBlendParameteriNV DQ 01H DUP (?)
glad_glTexPageCommitmentARB DQ 01H DUP (?)
glad_glVertexAttrib3sv DQ 01H DUP (?)
glad_glBlendBarrierNV DQ 01H DUP (?)
GLAD_GL_NV_blend_equation_advanced_coherent DD 01H DUP (?)
GLAD_GL_ARB_sparse_texture2 DD 01H DUP (?)
GLAD_GL_NV_blend_minmax_factor DD 01H DUP (?)
GLAD_GL_ARB_sparse_texture_clamp DD 01H DUP (?)
GLAD_GL_NV_blend_square DD 01H DUP (?)
GLAD_GL_ARB_spirv_extensions DD 01H DUP (?)
GLAD_GL_ARB_stencil_texturing DD 01H DUP (?)
GLAD_GL_NV_clip_space_w_scaling DD 01H DUP (?)
GLAD_GL_ARB_sync DD 01H DUP (?)
GLAD_GL_ARB_tessellation_shader DD 01H DUP (?)
glad_glVertexAttrib4Nbv DQ 01H DUP (?)
GLAD_GL_ARB_texture_barrier DD 01H DUP (?)
GLAD_GL_ARB_texture_border_clamp DD 01H DUP (?)
GLAD_GL_ARB_texture_buffer_object DD 01H DUP (?)
	ALIGN	8

glad_glVertexAttrib4Niv DQ 01H DUP (?)
glad_glViewportPositionWScaleNV DQ 01H DUP (?)
GLAD_GL_NV_command_list DD 01H DUP (?)
	ALIGN	8

glad_glTexBufferARB DQ 01H DUP (?)
GLAD_GL_ARB_texture_buffer_object_rgb32 DD 01H DUP (?)
	ALIGN	8

glad_glVertexAttrib4Nsv DQ 01H DUP (?)
glad_glCreateStatesNV DQ 01H DUP (?)
GLAD_GL_ARB_texture_buffer_range DD 01H DUP (?)
GLAD_GL_ARB_texture_compression DD 01H DUP (?)
glad_glDeleteStatesNV DQ 01H DUP (?)
glad_glIsStateNV DQ 01H DUP (?)
glad_glVertexAttrib4Nub DQ 01H DUP (?)
glad_glStateCaptureNV DQ 01H DUP (?)
glad_glVertexAttrib4Nubv DQ 01H DUP (?)
glad_glCompressedTexImage3DARB DQ 01H DUP (?)
glad_glGetCommandHeaderNV DQ 01H DUP (?)
glad_glVertexAttrib4Nuiv DQ 01H DUP (?)
glad_glGetStageIndexNV DQ 01H DUP (?)
glad_glVertexAttrib4Nusv DQ 01H DUP (?)
glad_glVertexAttrib4bv DQ 01H DUP (?)
glad_glDrawCommandsNV DQ 01H DUP (?)
glad_glCompressedTexImage2DARB DQ 01H DUP (?)
glad_glVertexAttrib4d DQ 01H DUP (?)
glad_glDrawCommandsAddressNV DQ 01H DUP (?)
glad_glVertexAttrib4dv DQ 01H DUP (?)
glad_glCompressedTexImage1DARB DQ 01H DUP (?)
glad_glDrawCommandsStatesNV DQ 01H DUP (?)
glad_glVertexAttrib4f DQ 01H DUP (?)
glad_glVertexAttrib4fv DQ 01H DUP (?)
glad_glDrawCommandsStatesAddressNV DQ 01H DUP (?)
glad_glVertexAttrib4iv DQ 01H DUP (?)
glad_glCompressedTexSubImage3DARB DQ 01H DUP (?)
glad_glCreateCommandListsNV DQ 01H DUP (?)
glad_glDeleteCommandListsNV DQ 01H DUP (?)
glad_glVertexAttrib4s DQ 01H DUP (?)
glad_glIsCommandListNV DQ 01H DUP (?)
glad_glVertexAttrib4sv DQ 01H DUP (?)
glad_glCompressedTexSubImage2DARB DQ 01H DUP (?)
glad_glVertexAttrib4ubv DQ 01H DUP (?)
glad_glListDrawCommandsStatesClientNV DQ 01H DUP (?)
glad_glVertexAttrib4uiv DQ 01H DUP (?)
glad_glCommandListSegmentsNV DQ 01H DUP (?)
glad_glVertexAttrib4usv DQ 01H DUP (?)
glad_glCompressedTexSubImage1DARB DQ 01H DUP (?)
glad_glCompileCommandListNV DQ 01H DUP (?)
glad_glCallCommandListNV DQ 01H DUP (?)
GLAD_GL_NV_compute_program5 DD 01H DUP (?)
GLAD_GL_NV_compute_shader_derivatives DD 01H DUP (?)
glad_glGetCompressedTexImageARB DQ 01H DUP (?)
GLAD_GL_NV_conditional_render DD 01H DUP (?)
GLAD_GL_ARB_texture_compression_bptc DD 01H DUP (?)
GLAD_GL_ARB_texture_compression_rgtc DD 01H DUP (?)
GLAD_GL_ARB_texture_cube_map DD 01H DUP (?)
glad_glVertexAttribPointer DQ 01H DUP (?)
GLAD_GL_ARB_texture_cube_map_array DD 01H DUP (?)
GLAD_GL_ARB_texture_env_add DD 01H DUP (?)
GLAD_GL_VERSION_2_1 DD 01H DUP (?)
GLAD_GL_ARB_texture_env_combine DD 01H DUP (?)
glad_glBeginConditionalRenderNV DQ 01H DUP (?)
GLAD_GL_ARB_texture_env_crossbar DD 01H DUP (?)
GLAD_GL_ARB_texture_env_dot3 DD 01H DUP (?)
glad_glEndConditionalRenderNV DQ 01H DUP (?)
GLAD_GL_ARB_texture_filter_anisotropic DD 01H DUP (?)
GLAD_GL_ARB_texture_filter_minmax DD 01H DUP (?)
GLAD_GL_NV_conservative_raster DD 01H DUP (?)
GLAD_GL_ARB_texture_float DD 01H DUP (?)
GLAD_GL_ARB_texture_gather DD 01H DUP (?)
GLAD_GL_ARB_texture_mirror_clamp_to_edge DD 01H DUP (?)
GLAD_GL_ARB_texture_mirrored_repeat DD 01H DUP (?)
	ALIGN	8

glad_glUniformMatrix2x3fv DQ 01H DUP (?)
GLAD_GL_ARB_texture_multisample DD 01H DUP (?)
	ALIGN	8

glad_glSubpixelPrecisionBiasNV DQ 01H DUP (?)
GLAD_GL_ARB_texture_non_power_of_two DD 01H DUP (?)
GLAD_GL_ARB_texture_query_levels DD 01H DUP (?)
GLAD_GL_NV_conservative_raster_dilate DD 01H DUP (?)
GLAD_GL_ARB_texture_query_lod DD 01H DUP (?)
GLAD_GL_ARB_texture_rectangle DD 01H DUP (?)
GLAD_GL_ARB_texture_rg DD 01H DUP (?)
GLAD_GL_ARB_texture_rgb10_a2ui DD 01H DUP (?)
GLAD_GL_ARB_texture_stencil8 DD 01H DUP (?)
GLAD_GL_ARB_texture_storage DD 01H DUP (?)
	ALIGN	8

glad_glConservativeRasterParameterfNV DQ 01H DUP (?)
GLAD_GL_NV_conservative_raster_pre_snap DD 01H DUP (?)
GLAD_GL_ARB_texture_storage_multisample DD 01H DUP (?)
GLAD_GL_ARB_texture_swizzle DD 01H DUP (?)
GLAD_GL_NV_conservative_raster_pre_snap_triangles DD 01H DUP (?)
glad_glUniformMatrix3x2fv DQ 01H DUP (?)
GLAD_GL_ARB_texture_view DD 01H DUP (?)
GLAD_GL_ARB_timer_query DD 01H DUP (?)
GLAD_GL_ARB_transform_feedback2 DD 01H DUP (?)
GLAD_GL_ARB_transform_feedback3 DD 01H DUP (?)
GLAD_GL_ARB_transform_feedback_instanced DD 01H DUP (?)
	ALIGN	8

glad_glConservativeRasterParameteriNV DQ 01H DUP (?)
GLAD_GL_ARB_transform_feedback_overflow_query DD 01H DUP (?)
GLAD_GL_NV_conservative_raster_underestimation DD 01H DUP (?)
GLAD_GL_ARB_transpose_matrix DD 01H DUP (?)
GLAD_GL_NV_copy_depth_to_color DD 01H DUP (?)
GLAD_GL_NV_copy_image DD 01H DUP (?)
	ALIGN	8

glad_glUniformMatrix2x4fv DQ 01H DUP (?)
glad_glLoadTransposeMatrixfARB DQ 01H DUP (?)
glad_glLoadTransposeMatrixdARB DQ 01H DUP (?)
glad_glMultTransposeMatrixfARB DQ 01H DUP (?)
glad_glUniformMatrix4x2fv DQ 01H DUP (?)
glad_glMultTransposeMatrixdARB DQ 01H DUP (?)
GLAD_GL_ARB_uniform_buffer_object DD 01H DUP (?)
GLAD_GL_ARB_vertex_array_bgra DD 01H DUP (?)
GLAD_GL_ARB_vertex_array_object DD 01H DUP (?)
GLAD_GL_ARB_vertex_attrib_64bit DD 01H DUP (?)
GLAD_GL_ARB_vertex_attrib_binding DD 01H DUP (?)
GLAD_GL_ARB_vertex_blend DD 01H DUP (?)
glad_glUniformMatrix3x4fv DQ 01H DUP (?)
glad_glWeightbvARB DQ 01H DUP (?)
glad_glUniformMatrix4x3fv DQ 01H DUP (?)
GLAD_GL_VERSION_3_0 DD 01H DUP (?)
	ALIGN	8

glad_glWeightsvARB DQ 01H DUP (?)
glad_glCopyImageSubDataNV DQ 01H DUP (?)
GLAD_GL_NV_deep_texture3D DD 01H DUP (?)
GLAD_GL_NV_depth_buffer_float DD 01H DUP (?)
glad_glWeightivARB DQ 01H DUP (?)
glad_glDepthRangedNV DQ 01H DUP (?)
glad_glClearDepthdNV DQ 01H DUP (?)
glad_glColorMaski DQ 01H DUP (?)
glad_glWeightfvARB DQ 01H DUP (?)
glad_glWeightdvARB DQ 01H DUP (?)
glad_glDepthBoundsdNV DQ 01H DUP (?)
GLAD_GL_NV_depth_clamp DD 01H DUP (?)
GLAD_GL_NV_draw_texture DD 01H DUP (?)
glad_glGetBooleani_v DQ 01H DUP (?)
glad_glWeightubvARB DQ 01H DUP (?)
glad_glGetIntegeri_v DQ 01H DUP (?)
glad_glWeightusvARB DQ 01H DUP (?)
glad_glEnablei DQ 01H DUP (?)
glad_glWeightuivARB DQ 01H DUP (?)
glad_glDisablei DQ 01H DUP (?)
glad_glDrawTextureNV DQ 01H DUP (?)
GLAD_GL_NV_draw_vulkan_image DD 01H DUP (?)
	ALIGN	8

glad_glIsEnabledi DQ 01H DUP (?)
glad_glWeightPointerARB DQ 01H DUP (?)
glad_glBeginTransformFeedback DQ 01H DUP (?)
glad_glVertexBlendARB DQ 01H DUP (?)
GLAD_GL_ARB_vertex_buffer_object DD 01H DUP (?)
	ALIGN	8

glad_glEndTransformFeedback DQ 01H DUP (?)
glad_glBindBufferARB DQ 01H DUP (?)
glad_glDeleteBuffersARB DQ 01H DUP (?)
glad_glBindBufferRange DQ 01H DUP (?)
glad_glGenBuffersARB DQ 01H DUP (?)
glad_glDrawVkImageNV DQ 01H DUP (?)
glad_glIsBufferARB DQ 01H DUP (?)
glad_glBindBufferBase DQ 01H DUP (?)
glad_glGetVkProcAddrNV DQ 01H DUP (?)
glad_glWaitVkSemaphoreNV DQ 01H DUP (?)
glad_glSignalVkSemaphoreNV DQ 01H DUP (?)
glad_glTransformFeedbackVaryings DQ 01H DUP (?)
glad_glBufferDataARB DQ 01H DUP (?)
glad_glSignalVkFenceNV DQ 01H DUP (?)
GLAD_GL_NV_evaluators DD 01H DUP (?)
	ALIGN	8

glad_glBufferSubDataARB DQ 01H DUP (?)
glad_glGetTransformFeedbackVarying DQ 01H DUP (?)
glad_glGetBufferSubDataARB DQ 01H DUP (?)
glad_glClampColor DQ 01H DUP (?)
glad_glMapControlPointsNV DQ 01H DUP (?)
glad_glMapBufferARB DQ 01H DUP (?)
glad_glBeginConditionalRender DQ 01H DUP (?)
glad_glUnmapBufferARB DQ 01H DUP (?)
glad_glMapParameterivNV DQ 01H DUP (?)
glad_glEndConditionalRender DQ 01H DUP (?)
glad_glGetBufferParameterivARB DQ 01H DUP (?)
glad_glMapParameterfvNV DQ 01H DUP (?)
glad_glVertexAttribIPointer DQ 01H DUP (?)
glad_glGetBufferPointervARB DQ 01H DUP (?)
GLAD_GL_ARB_vertex_program DD 01H DUP (?)
	ALIGN	8

glad_glGetVertexAttribIiv DQ 01H DUP (?)
glad_glVertexAttrib1dARB DQ 01H DUP (?)
glad_glGetMapControlPointsNV DQ 01H DUP (?)
glad_glVertexAttrib1dvARB DQ 01H DUP (?)
glad_glGetVertexAttribIuiv DQ 01H DUP (?)
glad_glGetMapParameterivNV DQ 01H DUP (?)
glad_glVertexAttribI1i DQ 01H DUP (?)
glad_glVertexAttrib1fARB DQ 01H DUP (?)
glad_glVertexAttrib1fvARB DQ 01H DUP (?)
glad_glGetMapParameterfvNV DQ 01H DUP (?)
glad_glVertexAttribI2i DQ 01H DUP (?)
glad_glVertexAttrib1sARB DQ 01H DUP (?)
glad_glGetMapAttribParameterivNV DQ 01H DUP (?)
glad_glVertexAttrib1svARB DQ 01H DUP (?)
glad_glVertexAttribI3i DQ 01H DUP (?)
glad_glGetMapAttribParameterfvNV DQ 01H DUP (?)
glad_glVertexAttrib2dARB DQ 01H DUP (?)
glad_glVertexAttribI4i DQ 01H DUP (?)
glad_glVertexAttrib2dvARB DQ 01H DUP (?)
glad_glEvalMapsNV DQ 01H DUP (?)
GLAD_GL_NV_explicit_multisample DD 01H DUP (?)
	ALIGN	8

glad_glVertexAttribI1ui DQ 01H DUP (?)
glad_glVertexAttrib2fARB DQ 01H DUP (?)
glad_glGetMultisamplefvNV DQ 01H DUP (?)
glad_glVertexAttribI2ui DQ 01H DUP (?)
glad_glVertexAttrib2fvARB DQ 01H DUP (?)
glad_glSampleMaskIndexedNV DQ 01H DUP (?)
glad_glTexRenderbufferNV DQ 01H DUP (?)
glad_glVertexAttribI3ui DQ 01H DUP (?)
glad_glVertexAttrib2sARB DQ 01H DUP (?)
GLAD_GL_NV_fence DD 01H DUP (?)
	ALIGN	8

glad_glVertexAttrib2svARB DQ 01H DUP (?)
glad_glDeleteFencesNV DQ 01H DUP (?)
glad_glVertexAttribI4ui DQ 01H DUP (?)
glad_glGenFencesNV DQ 01H DUP (?)
glad_glIsFenceNV DQ 01H DUP (?)
glad_glVertexAttrib3dARB DQ 01H DUP (?)
glad_glVertexAttribI1iv DQ 01H DUP (?)
glad_glTestFenceNV DQ 01H DUP (?)
glad_glVertexAttrib3dvARB DQ 01H DUP (?)
glad_glVertexAttribI2iv DQ 01H DUP (?)
glad_glGetFenceivNV DQ 01H DUP (?)
glad_glVertexAttribI3iv DQ 01H DUP (?)
glad_glVertexAttrib3fARB DQ 01H DUP (?)
glad_glFinishFenceNV DQ 01H DUP (?)
glad_glVertexAttribI4iv DQ 01H DUP (?)
glad_glVertexAttrib3fvARB DQ 01H DUP (?)
glad_glSetFenceNV DQ 01H DUP (?)
GLAD_GL_NV_fill_rectangle DD 01H DUP (?)
GLAD_GL_NV_float_buffer DD 01H DUP (?)
GLAD_GL_NV_fog_distance DD 01H DUP (?)
	ALIGN	8

glad_glVertexAttribI1uiv DQ 01H DUP (?)
GLAD_GL_NV_fragment_coverage_to_color DD 01H DUP (?)
	ALIGN	8

glad_glFragmentCoverageColorNV DQ 01H DUP (?)
GLAD_GL_NV_fragment_program DD 01H DUP (?)
	ALIGN	8

glad_glVertexAttribI2uiv DQ 01H DUP (?)
glad_glVertexAttrib3sARB DQ 01H DUP (?)
glad_glVertexAttribI3uiv DQ 01H DUP (?)
glad_glVertexAttrib3svARB DQ 01H DUP (?)
glad_glVertexAttribI4uiv DQ 01H DUP (?)
glad_glVertexAttrib4NbvARB DQ 01H DUP (?)
glad_glProgramNamedParameter4fNV DQ 01H DUP (?)
glad_glVertexAttrib4NivARB DQ 01H DUP (?)
glad_glVertexAttribI4bv DQ 01H DUP (?)
glad_glVertexAttrib4NsvARB DQ 01H DUP (?)
glad_glVertexAttribI4sv DQ 01H DUP (?)
glad_glProgramNamedParameter4fvNV DQ 01H DUP (?)
glad_glVertexAttribI4ubv DQ 01H DUP (?)
glad_glVertexAttrib4NubARB DQ 01H DUP (?)
glad_glVertexAttribI4usv DQ 01H DUP (?)
glad_glProgramNamedParameter4dNV DQ 01H DUP (?)
glad_glVertexAttrib4NubvARB DQ 01H DUP (?)
glad_glGetUniformuiv DQ 01H DUP (?)
glad_glVertexAttrib4NuivARB DQ 01H DUP (?)
glad_glProgramNamedParameter4dvNV DQ 01H DUP (?)
glad_glBindFragDataLocation DQ 01H DUP (?)
glad_glVertexAttrib4NusvARB DQ 01H DUP (?)
glad_glGetFragDataLocation DQ 01H DUP (?)
glad_glVertexAttrib4bvARB DQ 01H DUP (?)
glad_glGetProgramNamedParameterfvNV DQ 01H DUP (?)
glad_glUniform1ui DQ 01H DUP (?)
glad_glGetProgramNamedParameterdvNV DQ 01H DUP (?)
glad_glUniform2ui DQ 01H DUP (?)
glad_glVertexAttrib4dARB DQ 01H DUP (?)
GLAD_GL_NV_fragment_program2 DD 01H DUP (?)
GLAD_GL_NV_fragment_program4 DD 01H DUP (?)
GLAD_GL_NV_fragment_program_option DD 01H DUP (?)
GLAD_GL_NV_fragment_shader_barycentric DD 01H DUP (?)
GLAD_GL_NV_fragment_shader_interlock DD 01H DUP (?)
GLAD_GL_NV_framebuffer_mixed_samples DD 01H DUP (?)
glad_glVertexAttrib4dvARB DQ 01H DUP (?)
glad_glUniform3ui DQ 01H DUP (?)
glad_glCoverageModulationTableNV DQ 01H DUP (?)
glad_glGetCoverageModulationTableNV DQ 01H DUP (?)
glad_glVertexAttrib4fARB DQ 01H DUP (?)
glad_glCoverageModulationNV DQ 01H DUP (?)
glad_glUniform4ui DQ 01H DUP (?)
GLAD_GL_NV_framebuffer_multisample_coverage DD 01H DUP (?)
	ALIGN	8

glad_glVertexAttrib4fvARB DQ 01H DUP (?)
glad_glVertexAttrib4ivARB DQ 01H DUP (?)
glad_glUniform1uiv DQ 01H DUP (?)
glad_glRenderbufferStorageMultisampleCoverageNV DQ 01H DUP (?)
GLAD_GL_NV_geometry_program4 DD 01H DUP (?)
	ALIGN	8

glad_glUniform2uiv DQ 01H DUP (?)
glad_glVertexAttrib4sARB DQ 01H DUP (?)
glad_glProgramVertexLimitNV DQ 01H DUP (?)
glad_glUniform3uiv DQ 01H DUP (?)
glad_glVertexAttrib4svARB DQ 01H DUP (?)
glad_glFramebufferTextureEXT DQ 01H DUP (?)
glad_glVertexAttrib4ubvARB DQ 01H DUP (?)
glad_glUniform4uiv DQ 01H DUP (?)
glad_glVertexAttrib4uivARB DQ 01H DUP (?)
glad_glTexParameterIiv DQ 01H DUP (?)
glad_glFramebufferTextureFaceEXT DQ 01H DUP (?)
glad_glVertexAttrib4usvARB DQ 01H DUP (?)
GLAD_GL_NV_geometry_shader4 DD 01H DUP (?)
GLAD_GL_NV_geometry_shader_passthrough DD 01H DUP (?)
GLAD_GL_NV_gpu_multicast DD 01H DUP (?)
	ALIGN	8

glad_glTexParameterIuiv DQ 01H DUP (?)
glad_glRenderGpuMaskNV DQ 01H DUP (?)
glad_glGetTexParameterIiv DQ 01H DUP (?)
glad_glVertexAttribPointerARB DQ 01H DUP (?)
glad_glEnableVertexAttribArrayARB DQ 01H DUP (?)
glad_glMulticastBufferSubDataNV DQ 01H DUP (?)
glad_glGetTexParameterIuiv DQ 01H DUP (?)
glad_glDisableVertexAttribArrayARB DQ 01H DUP (?)
glad_glClearBufferiv DQ 01H DUP (?)
glad_glGetVertexAttribdvARB DQ 01H DUP (?)
glad_glMulticastCopyBufferSubDataNV DQ 01H DUP (?)
glad_glClearBufferuiv DQ 01H DUP (?)
glad_glGetVertexAttribfvARB DQ 01H DUP (?)
glad_glClearBufferfv DQ 01H DUP (?)
glad_glGetVertexAttribivARB DQ 01H DUP (?)
glad_glClearBufferfi DQ 01H DUP (?)
glad_glGetVertexAttribPointervARB DQ 01H DUP (?)
GLAD_GL_ARB_vertex_shader DD 01H DUP (?)
	ALIGN	8

glad_glGetStringi DQ 01H DUP (?)
glad_glBindAttribLocationARB DQ 01H DUP (?)
glad_glIsRenderbuffer DQ 01H DUP (?)
glad_glBindRenderbuffer DQ 01H DUP (?)
glad_glMulticastCopyImageSubDataNV DQ 01H DUP (?)
glad_glDeleteRenderbuffers DQ 01H DUP (?)
glad_glGetActiveAttribARB DQ 01H DUP (?)
glad_glGenRenderbuffers DQ 01H DUP (?)
glad_glGetAttribLocationARB DQ 01H DUP (?)
GLAD_GL_ARB_vertex_type_10f_11f_11f_rev DD 01H DUP (?)
GLAD_GL_ARB_vertex_type_2_10_10_10_rev DD 01H DUP (?)
GLAD_GL_ARB_viewport_array DD 01H DUP (?)
GLAD_GL_ARB_window_pos DD 01H DUP (?)
glad_glRenderbufferStorage DQ 01H DUP (?)
glad_glWindowPos2dARB DQ 01H DUP (?)
glad_glMulticastBlitFramebufferNV DQ 01H DUP (?)
glad_glWindowPos2dvARB DQ 01H DUP (?)
glad_glGetRenderbufferParameteriv DQ 01H DUP (?)
glad_glIsFramebuffer DQ 01H DUP (?)
glad_glWindowPos2fARB DQ 01H DUP (?)
glad_glMulticastFramebufferSampleLocationsfvNV DQ 01H DUP (?)
glad_glWindowPos2fvARB DQ 01H DUP (?)
glad_glBindFramebuffer DQ 01H DUP (?)
glad_glMulticastBarrierNV DQ 01H DUP (?)
glad_glWindowPos2iARB DQ 01H DUP (?)
glad_glDeleteFramebuffers DQ 01H DUP (?)
glad_glMulticastWaitSyncNV DQ 01H DUP (?)
glad_glWindowPos2ivARB DQ 01H DUP (?)
glad_glGenFramebuffers DQ 01H DUP (?)
glad_glWindowPos2sARB DQ 01H DUP (?)
glad_glCheckFramebufferStatus DQ 01H DUP (?)
glad_glMulticastGetQueryObjectivNV DQ 01H DUP (?)
glad_glWindowPos2svARB DQ 01H DUP (?)
glad_glWindowPos3dARB DQ 01H DUP (?)
glad_glMulticastGetQueryObjectuivNV DQ 01H DUP (?)
glad_glFramebufferTexture1D DQ 01H DUP (?)
glad_glWindowPos3dvARB DQ 01H DUP (?)
glad_glMulticastGetQueryObjecti64vNV DQ 01H DUP (?)
glad_glWindowPos3fARB DQ 01H DUP (?)
glad_glFramebufferTexture2D DQ 01H DUP (?)
glad_glWindowPos3fvARB DQ 01H DUP (?)
glad_glMulticastGetQueryObjectui64vNV DQ 01H DUP (?)
GLAD_GL_NV_gpu_program4 DD 01H DUP (?)
	ALIGN	8

glad_glWindowPos3iARB DQ 01H DUP (?)
glad_glFramebufferTexture3D DQ 01H DUP (?)
glad_glWindowPos3ivARB DQ 01H DUP (?)
glad_glProgramLocalParameterI4iNV DQ 01H DUP (?)
glad_glWindowPos3sARB DQ 01H DUP (?)
glad_glFramebufferRenderbuffer DQ 01H DUP (?)
glad_glWindowPos3svARB DQ 01H DUP (?)
GLAD_GL_ATI_draw_buffers DD 01H DUP (?)
	ALIGN	8

glad_glProgramLocalParameterI4ivNV DQ 01H DUP (?)
glad_glGetFramebufferAttachmentParameteriv DQ 01H DUP (?)
glad_glDrawBuffersATI DQ 01H DUP (?)
GLAD_GL_ATI_element_array DD 01H DUP (?)
	ALIGN	8

glad_glGenerateMipmap DQ 01H DUP (?)
glad_glProgramLocalParametersI4ivNV DQ 01H DUP (?)
glad_glElementPointerATI DQ 01H DUP (?)
glad_glDrawElementArrayATI DQ 01H DUP (?)
glad_glProgramLocalParameterI4uiNV DQ 01H DUP (?)
glad_glDrawRangeElementArrayATI DQ 01H DUP (?)
GLAD_GL_ATI_envmap_bumpmap DD 01H DUP (?)
	ALIGN	8

glad_glBlitFramebuffer DQ 01H DUP (?)
glad_glProgramLocalParameterI4uivNV DQ 01H DUP (?)
glad_glTexBumpParameterivATI DQ 01H DUP (?)
glad_glTexBumpParameterfvATI DQ 01H DUP (?)
glad_glProgramLocalParametersI4uivNV DQ 01H DUP (?)
glad_glRenderbufferStorageMultisample DQ 01H DUP (?)
glad_glGetTexBumpParameterivATI DQ 01H DUP (?)
glad_glGetTexBumpParameterfvATI DQ 01H DUP (?)
GLAD_GL_ATI_fragment_shader DD 01H DUP (?)
	ALIGN	8

glad_glFramebufferTextureLayer DQ 01H DUP (?)
glad_glProgramEnvParameterI4iNV DQ 01H DUP (?)
glad_glGenFragmentShadersATI DQ 01H DUP (?)
glad_glBindFragmentShaderATI DQ 01H DUP (?)
glad_glMapBufferRange DQ 01H DUP (?)
glad_glProgramEnvParameterI4ivNV DQ 01H DUP (?)
glad_glDeleteFragmentShaderATI DQ 01H DUP (?)
glad_glBeginFragmentShaderATI DQ 01H DUP (?)
glad_glEndFragmentShaderATI DQ 01H DUP (?)
glad_glFlushMappedBufferRange DQ 01H DUP (?)
glad_glProgramEnvParametersI4ivNV DQ 01H DUP (?)
glad_glBindVertexArray DQ 01H DUP (?)
glad_glPassTexCoordATI DQ 01H DUP (?)
glad_glDeleteVertexArrays DQ 01H DUP (?)
glad_glSampleMapATI DQ 01H DUP (?)
glad_glProgramEnvParameterI4uiNV DQ 01H DUP (?)
glad_glGenVertexArrays DQ 01H DUP (?)
glad_glIsVertexArray DQ 01H DUP (?)
GLAD_GL_VERSION_3_1 DD 01H DUP (?)
	ALIGN	8

glad_glProgramEnvParameterI4uivNV DQ 01H DUP (?)
glad_glColorFragmentOp1ATI DQ 01H DUP (?)
glad_glDrawArraysInstanced DQ 01H DUP (?)
glad_glProgramEnvParametersI4uivNV DQ 01H DUP (?)
glad_glGetProgramLocalParameterIivNV DQ 01H DUP (?)
glad_glDrawElementsInstanced DQ 01H DUP (?)
glad_glGetProgramLocalParameterIuivNV DQ 01H DUP (?)
glad_glTexBuffer DQ 01H DUP (?)
glad_glColorFragmentOp2ATI DQ 01H DUP (?)
glad_glPrimitiveRestartIndex DQ 01H DUP (?)
glad_glGetProgramEnvParameterIivNV DQ 01H DUP (?)
glad_glGetProgramEnvParameterIuivNV DQ 01H DUP (?)
glad_glCopyBufferSubData DQ 01H DUP (?)
GLAD_GL_NV_gpu_program5 DD 01H DUP (?)
	ALIGN	8

glad_glProgramSubroutineParametersuivNV DQ 01H DUP (?)
glad_glGetUniformIndices DQ 01H DUP (?)
glad_glColorFragmentOp3ATI DQ 01H DUP (?)
glad_glGetProgramSubroutineParameteruivNV DQ 01H DUP (?)
GLAD_GL_NV_gpu_program5_mem_extended DD 01H DUP (?)
GLAD_GL_NV_gpu_shader5 DD 01H DUP (?)
GLAD_GL_NV_half_float DD 01H DUP (?)
	ALIGN	8

glad_glGetActiveUniformsiv DQ 01H DUP (?)
glad_glVertex2hNV DQ 01H DUP (?)
glad_glAlphaFragmentOp1ATI DQ 01H DUP (?)
glad_glVertex2hvNV DQ 01H DUP (?)
glad_glGetActiveUniformName DQ 01H DUP (?)
glad_glVertex3hNV DQ 01H DUP (?)
glad_glGetUniformBlockIndex DQ 01H DUP (?)
glad_glVertex3hvNV DQ 01H DUP (?)
glad_glAlphaFragmentOp2ATI DQ 01H DUP (?)
glad_glGetActiveUniformBlockiv DQ 01H DUP (?)
glad_glVertex4hNV DQ 01H DUP (?)
glad_glVertex4hvNV DQ 01H DUP (?)
glad_glGetActiveUniformBlockName DQ 01H DUP (?)
glad_glNormal3hNV DQ 01H DUP (?)
glad_glNormal3hvNV DQ 01H DUP (?)
glad_glUniformBlockBinding DQ 01H DUP (?)
GLAD_GL_VERSION_3_2 DD 01H DUP (?)
	ALIGN	8

glad_glAlphaFragmentOp3ATI DQ 01H DUP (?)
glad_glColor3hNV DQ 01H DUP (?)
glad_glColor3hvNV DQ 01H DUP (?)
glad_glSetFragmentShaderConstantATI DQ 01H DUP (?)
GLAD_GL_ATI_map_object_buffer DD 01H DUP (?)
	ALIGN	8

glad_glDrawElementsBaseVertex DQ 01H DUP (?)
glad_glMapObjectBufferATI DQ 01H DUP (?)
glad_glColor4hNV DQ 01H DUP (?)
glad_glUnmapObjectBufferATI DQ 01H DUP (?)
GLAD_GL_ATI_meminfo DD 01H DUP (?)
GLAD_GL_ATI_pixel_format_float DD 01H DUP (?)
GLAD_GL_ATI_pn_triangles DD 01H DUP (?)
	ALIGN	8

glad_glColor4hvNV DQ 01H DUP (?)
glad_glTexCoord1hNV DQ 01H DUP (?)
glad_glPNTrianglesiATI DQ 01H DUP (?)
glad_glDrawRangeElementsBaseVertex DQ 01H DUP (?)
glad_glTexCoord1hvNV DQ 01H DUP (?)
glad_glPNTrianglesfATI DQ 01H DUP (?)
GLAD_GL_ATI_separate_stencil DD 01H DUP (?)
	ALIGN	8

glad_glTexCoord2hNV DQ 01H DUP (?)
glad_glTexCoord2hvNV DQ 01H DUP (?)
glad_glDrawElementsInstancedBaseVertex DQ 01H DUP (?)
glad_glStencilOpSeparateATI DQ 01H DUP (?)
glad_glTexCoord3hNV DQ 01H DUP (?)
glad_glTexCoord3hvNV DQ 01H DUP (?)
glad_glStencilFuncSeparateATI DQ 01H DUP (?)
GLAD_GL_ATI_text_fragment_shader DD 01H DUP (?)
GLAD_GL_ATI_texture_env_combine3 DD 01H DUP (?)
glad_glMultiDrawElementsBaseVertex DQ 01H DUP (?)
GLAD_GL_ATI_texture_float DD 01H DUP (?)
GLAD_GL_ATI_texture_mirror_once DD 01H DUP (?)
GLAD_GL_ATI_vertex_array_object DD 01H DUP (?)
	ALIGN	8

glad_glProvokingVertex DQ 01H DUP (?)
glad_glTexCoord4hNV DQ 01H DUP (?)
glad_glTexCoord4hvNV DQ 01H DUP (?)
glad_glFenceSync DQ 01H DUP (?)
glad_glNewObjectBufferATI DQ 01H DUP (?)
glad_glIsSync DQ 01H DUP (?)
glad_glIsObjectBufferATI DQ 01H DUP (?)
glad_glMultiTexCoord1hNV DQ 01H DUP (?)
glad_glDeleteSync DQ 01H DUP (?)
glad_glMultiTexCoord1hvNV DQ 01H DUP (?)
glad_glClientWaitSync DQ 01H DUP (?)
glad_glUpdateObjectBufferATI DQ 01H DUP (?)
glad_glMultiTexCoord2hNV DQ 01H DUP (?)
glad_glWaitSync DQ 01H DUP (?)
glad_glGetObjectBufferfvATI DQ 01H DUP (?)
glad_glMultiTexCoord2hvNV DQ 01H DUP (?)
glad_glGetInteger64v DQ 01H DUP (?)
glad_glGetObjectBufferivATI DQ 01H DUP (?)
glad_glMultiTexCoord3hNV DQ 01H DUP (?)
glad_glFreeObjectBufferATI DQ 01H DUP (?)
glad_glMultiTexCoord3hvNV DQ 01H DUP (?)
glad_glGetSynciv DQ 01H DUP (?)
glad_glGetInteger64i_v DQ 01H DUP (?)
glad_glArrayObjectATI DQ 01H DUP (?)
glad_glMultiTexCoord4hNV DQ 01H DUP (?)
glad_glGetBufferParameteri64v DQ 01H DUP (?)
glad_glGetArrayObjectfvATI DQ 01H DUP (?)
glad_glMultiTexCoord4hvNV DQ 01H DUP (?)
glad_glFogCoordhNV DQ 01H DUP (?)
glad_glGetArrayObjectivATI DQ 01H DUP (?)
glad_glFramebufferTexture DQ 01H DUP (?)
glad_glFogCoordhvNV DQ 01H DUP (?)
glad_glSecondaryColor3hNV DQ 01H DUP (?)
glad_glVariantArrayObjectATI DQ 01H DUP (?)
glad_glSecondaryColor3hvNV DQ 01H DUP (?)
glad_glTexImage2DMultisample DQ 01H DUP (?)
glad_glVertexWeighthNV DQ 01H DUP (?)
glad_glGetVariantArrayObjectfvATI DQ 01H DUP (?)
glad_glVertexWeighthvNV DQ 01H DUP (?)
glad_glVertexAttrib1hNV DQ 01H DUP (?)
glad_glGetVariantArrayObjectivATI DQ 01H DUP (?)
GLAD_GL_ATI_vertex_attrib_array_object DD 01H DUP (?)
	ALIGN	8

glad_glTexImage3DMultisample DQ 01H DUP (?)
glad_glVertexAttrib1hvNV DQ 01H DUP (?)
glad_glGetMultisamplefv DQ 01H DUP (?)
glad_glVertexAttrib2hNV DQ 01H DUP (?)
glad_glSampleMaski DQ 01H DUP (?)
glad_glVertexAttribArrayObjectATI DQ 01H DUP (?)
GLAD_GL_VERSION_3_3 DD 01H DUP (?)
	ALIGN	8

glad_glVertexAttrib2hvNV DQ 01H DUP (?)
glad_glGetVertexAttribArrayObjectfvATI DQ 01H DUP (?)
glad_glBindFragDataLocationIndexed DQ 01H DUP (?)
glad_glVertexAttrib3hNV DQ 01H DUP (?)
glad_glGetVertexAttribArrayObjectivATI DQ 01H DUP (?)
glad_glGetFragDataIndex DQ 01H DUP (?)
GLAD_GL_ATI_vertex_streams DD 01H DUP (?)
	ALIGN	8

glad_glVertexAttrib3hvNV DQ 01H DUP (?)
glad_glGenSamplers DQ 01H DUP (?)
glad_glVertexStream1sATI DQ 01H DUP (?)
glad_glVertexStream1svATI DQ 01H DUP (?)
glad_glDeleteSamplers DQ 01H DUP (?)
glad_glVertexAttrib4hNV DQ 01H DUP (?)
glad_glIsSampler DQ 01H DUP (?)
glad_glVertexStream1iATI DQ 01H DUP (?)
glad_glVertexAttrib4hvNV DQ 01H DUP (?)
glad_glBindSampler DQ 01H DUP (?)
glad_glVertexStream1ivATI DQ 01H DUP (?)
glad_glVertexAttribs1hvNV DQ 01H DUP (?)
glad_glVertexStream1fATI DQ 01H DUP (?)
glad_glSamplerParameteri DQ 01H DUP (?)
glad_glVertexAttribs2hvNV DQ 01H DUP (?)
glad_glVertexStream1fvATI DQ 01H DUP (?)
glad_glSamplerParameteriv DQ 01H DUP (?)
glad_glVertexStream1dATI DQ 01H DUP (?)
glad_glVertexAttribs3hvNV DQ 01H DUP (?)
glad_glSamplerParameterf DQ 01H DUP (?)
glad_glVertexStream1dvATI DQ 01H DUP (?)
glad_glVertexAttribs4hvNV DQ 01H DUP (?)
GLAD_GL_NV_internalformat_sample_query DD 01H DUP (?)
	ALIGN	8

glad_glSamplerParameterfv DQ 01H DUP (?)
glad_glVertexStream2sATI DQ 01H DUP (?)
glad_glSamplerParameterIiv DQ 01H DUP (?)
glad_glVertexStream2svATI DQ 01H DUP (?)
glad_glGetInternalformatSampleivNV DQ 01H DUP (?)
GLAD_GL_NV_light_max_exponent DD 01H DUP (?)
GLAD_GL_NV_memory_attachment DD 01H DUP (?)
glad_glVertexStream2iATI DQ 01H DUP (?)
glad_glSamplerParameterIuiv DQ 01H DUP (?)
glad_glVertexStream2ivATI DQ 01H DUP (?)
glad_glGetSamplerParameteriv DQ 01H DUP (?)
glad_glGetMemoryObjectDetachedResourcesuivNV DQ 01H DUP (?)
glad_glVertexStream2fATI DQ 01H DUP (?)
glad_glGetSamplerParameterIiv DQ 01H DUP (?)
glad_glResetMemoryObjectParameterNV DQ 01H DUP (?)
glad_glVertexStream2fvATI DQ 01H DUP (?)
glad_glGetSamplerParameterfv DQ 01H DUP (?)
glad_glTexAttachMemoryNV DQ 01H DUP (?)
glad_glVertexStream2dATI DQ 01H DUP (?)
glad_glBufferAttachMemoryNV DQ 01H DUP (?)
glad_glGetSamplerParameterIuiv DQ 01H DUP (?)
glad_glVertexStream2dvATI DQ 01H DUP (?)
glad_glQueryCounter DQ 01H DUP (?)
glad_glTextureAttachMemoryNV DQ 01H DUP (?)
glad_glVertexStream3sATI DQ 01H DUP (?)
glad_glGetQueryObjecti64v DQ 01H DUP (?)
glad_glNamedBufferAttachMemoryNV DQ 01H DUP (?)
GLAD_GL_NV_mesh_shader DD 01H DUP (?)
	ALIGN	8

glad_glVertexStream3svATI DQ 01H DUP (?)
glad_glGetQueryObjectui64v DQ 01H DUP (?)
glad_glDrawMeshTasksNV DQ 01H DUP (?)
glad_glDrawMeshTasksIndirectNV DQ 01H DUP (?)
glad_glVertexAttribDivisor DQ 01H DUP (?)
glad_glVertexStream3iATI DQ 01H DUP (?)
glad_glVertexStream3ivATI DQ 01H DUP (?)
glad_glMultiDrawMeshTasksIndirectNV DQ 01H DUP (?)
glad_glVertexAttribP1ui DQ 01H DUP (?)
glad_glVertexStream3fATI DQ 01H DUP (?)
glad_glMultiDrawMeshTasksIndirectCountNV DQ 01H DUP (?)
GLAD_GL_NV_multisample_coverage DD 01H DUP (?)
GLAD_GL_NV_multisample_filter_hint DD 01H DUP (?)
GLAD_GL_NV_occlusion_query DD 01H DUP (?)
	ALIGN	8

glad_glVertexAttribP1uiv DQ 01H DUP (?)
glad_glVertexStream3fvATI DQ 01H DUP (?)
glad_glGenOcclusionQueriesNV DQ 01H DUP (?)
glad_glVertexAttribP2ui DQ 01H DUP (?)
glad_glDeleteOcclusionQueriesNV DQ 01H DUP (?)
glad_glVertexStream3dATI DQ 01H DUP (?)
glad_glIsOcclusionQueryNV DQ 01H DUP (?)
glad_glVertexStream3dvATI DQ 01H DUP (?)
glad_glBeginOcclusionQueryNV DQ 01H DUP (?)
glad_glVertexAttribP2uiv DQ 01H DUP (?)
glad_glEndOcclusionQueryNV DQ 01H DUP (?)
glad_glVertexAttribP3ui DQ 01H DUP (?)
glad_glVertexStream4sATI DQ 01H DUP (?)
glad_glGetOcclusionQueryivNV DQ 01H DUP (?)
glad_glVertexStream4svATI DQ 01H DUP (?)
glad_glGetOcclusionQueryuivNV DQ 01H DUP (?)
GLAD_GL_NV_packed_depth_stencil DD 01H DUP (?)
	ALIGN	8

glad_glVertexAttribP3uiv DQ 01H DUP (?)
GLAD_GL_NV_parameter_buffer_object DD 01H DUP (?)
	ALIGN	8

glad_glVertexStream4iATI DQ 01H DUP (?)
glad_glVertexAttribP4ui DQ 01H DUP (?)
glad_glProgramBufferParametersfvNV DQ 01H DUP (?)
glad_glVertexStream4ivATI DQ 01H DUP (?)
glad_glVertexAttribP4uiv DQ 01H DUP (?)
glad_glProgramBufferParametersIivNV DQ 01H DUP (?)
glad_glVertexP2ui DQ 01H DUP (?)
glad_glVertexStream4fATI DQ 01H DUP (?)
glad_glVertexStream4fvATI DQ 01H DUP (?)
glad_glVertexP2uiv DQ 01H DUP (?)
glad_glProgramBufferParametersIuivNV DQ 01H DUP (?)
GLAD_GL_NV_parameter_buffer_object2 DD 01H DUP (?)
	ALIGN	8

glad_glVertexP3ui DQ 01H DUP (?)
GLAD_GL_NV_path_rendering DD 01H DUP (?)
	ALIGN	8

glad_glGenPathsNV DQ 01H DUP (?)
glad_glVertexP3uiv DQ 01H DUP (?)
glad_glVertexStream4dATI DQ 01H DUP (?)
glad_glDeletePathsNV DQ 01H DUP (?)
glad_glVertexP4ui DQ 01H DUP (?)
glad_glVertexStream4dvATI DQ 01H DUP (?)
glad_glIsPathNV DQ 01H DUP (?)
glad_glVertexP4uiv DQ 01H DUP (?)
glad_glNormalStream3bATI DQ 01H DUP (?)
glad_glTexCoordP1ui DQ 01H DUP (?)
glad_glNormalStream3bvATI DQ 01H DUP (?)
glad_glPathCommandsNV DQ 01H DUP (?)
glad_glTexCoordP1uiv DQ 01H DUP (?)
glad_glTexCoordP2ui DQ 01H DUP (?)
glad_glNormalStream3sATI DQ 01H DUP (?)
glad_glPathCoordsNV DQ 01H DUP (?)
glad_glTexCoordP2uiv DQ 01H DUP (?)
glad_glNormalStream3svATI DQ 01H DUP (?)
glad_glTexCoordP3ui DQ 01H DUP (?)
glad_glNormalStream3iATI DQ 01H DUP (?)
glad_glTexCoordP3uiv DQ 01H DUP (?)
glad_glPathSubCommandsNV DQ 01H DUP (?)
glad_glNormalStream3ivATI DQ 01H DUP (?)
glad_glTexCoordP4ui DQ 01H DUP (?)
glad_glTexCoordP4uiv DQ 01H DUP (?)
glad_glPathSubCoordsNV DQ 01H DUP (?)
glad_glNormalStream3fATI DQ 01H DUP (?)
glad_glMultiTexCoordP1ui DQ 01H DUP (?)
glad_glNormalStream3fvATI DQ 01H DUP (?)
glad_glPathStringNV DQ 01H DUP (?)
glad_glMultiTexCoordP1uiv DQ 01H DUP (?)
glad_glNormalStream3dATI DQ 01H DUP (?)
glad_glMultiTexCoordP2ui DQ 01H DUP (?)
glad_glNormalStream3dvATI DQ 01H DUP (?)
glad_glClientActiveVertexStreamATI DQ 01H DUP (?)
glad_glMultiTexCoordP2uiv DQ 01H DUP (?)
glad_glPathGlyphsNV DQ 01H DUP (?)
glad_glVertexBlendEnviATI DQ 01H DUP (?)
glad_glMultiTexCoordP3ui DQ 01H DUP (?)
glad_glVertexBlendEnvfATI DQ 01H DUP (?)
GLAD_GL_EXT_422_pixels DD 01H DUP (?)
GLAD_GL_EXT_EGL_image_storage DD 01H DUP (?)
glad_glMultiTexCoordP3uiv DQ 01H DUP (?)
glad_glEGLImageTargetTexStorageEXT DQ 01H DUP (?)
glad_glPathGlyphRangeNV DQ 01H DUP (?)
glad_glMultiTexCoordP4ui DQ 01H DUP (?)
glad_glEGLImageTargetTextureStorageEXT DQ 01H DUP (?)
GLAD_GL_EXT_EGL_sync DD 01H DUP (?)
GLAD_GL_EXT_abgr DD 01H DUP (?)
GLAD_GL_EXT_bgra DD 01H DUP (?)
	ALIGN	8

glad_glMultiTexCoordP4uiv DQ 01H DUP (?)
GLAD_GL_EXT_bindable_uniform DD 01H DUP (?)
	ALIGN	8

glad_glWeightPathsNV DQ 01H DUP (?)
glad_glNormalP3ui DQ 01H DUP (?)
glad_glCopyPathNV DQ 01H DUP (?)
glad_glUniformBufferEXT DQ 01H DUP (?)
glad_glNormalP3uiv DQ 01H DUP (?)
glad_glGetUniformBufferSizeEXT DQ 01H DUP (?)
glad_glInterpolatePathsNV DQ 01H DUP (?)
glad_glColorP3ui DQ 01H DUP (?)
glad_glGetUniformOffsetEXT DQ 01H DUP (?)
GLAD_GL_EXT_blend_color DD 01H DUP (?)
	ALIGN	8

glad_glColorP3uiv DQ 01H DUP (?)
glad_glTransformPathNV DQ 01H DUP (?)
glad_glColorP4ui DQ 01H DUP (?)
glad_glBlendColorEXT DQ 01H DUP (?)
GLAD_GL_EXT_blend_equation_separate DD 01H DUP (?)
	ALIGN	8

glad_glPathParameterivNV DQ 01H DUP (?)
glad_glColorP4uiv DQ 01H DUP (?)
glad_glBlendEquationSeparateEXT DQ 01H DUP (?)
GLAD_GL_EXT_blend_func_separate DD 01H DUP (?)
	ALIGN	8

glad_glSecondaryColorP3ui DQ 01H DUP (?)
glad_glPathParameteriNV DQ 01H DUP (?)
glad_glSecondaryColorP3uiv DQ 01H DUP (?)
GLAD_GL_VERSION_4_0 DD 01H DUP (?)
	ALIGN	8

glad_glBlendFuncSeparateEXT DQ 01H DUP (?)
GLAD_GL_EXT_blend_logic_op DD 01H DUP (?)
	ALIGN	8

glad_glPathParameterfvNV DQ 01H DUP (?)
GLAD_GL_EXT_blend_minmax DD 01H DUP (?)
	ALIGN	8

glad_glMinSampleShading DQ 01H DUP (?)
glad_glBlendEquationEXT DQ 01H DUP (?)
GLAD_GL_EXT_blend_subtract DD 01H DUP (?)
GLAD_GL_EXT_clip_volume_hint DD 01H DUP (?)
GLAD_GL_EXT_cmyka DD 01H DUP (?)
GLAD_GL_EXT_color_subtable DD 01H DUP (?)
glad_glBlendEquationi DQ 01H DUP (?)
glad_glPathParameterfNV DQ 01H DUP (?)
glad_glPathDashArrayNV DQ 01H DUP (?)
glad_glBlendEquationSeparatei DQ 01H DUP (?)
glad_glColorSubTableEXT DQ 01H DUP (?)
glad_glBlendFunci DQ 01H DUP (?)
glad_glPathStencilFuncNV DQ 01H DUP (?)
glad_glPathStencilDepthOffsetNV DQ 01H DUP (?)
glad_glCopyColorSubTableEXT DQ 01H DUP (?)
GLAD_GL_EXT_compiled_vertex_array DD 01H DUP (?)
	ALIGN	8

glad_glBlendFuncSeparatei DQ 01H DUP (?)
glad_glStencilFillPathNV DQ 01H DUP (?)
glad_glLockArraysEXT DQ 01H DUP (?)
glad_glDrawArraysIndirect DQ 01H DUP (?)
glad_glUnlockArraysEXT DQ 01H DUP (?)
GLAD_GL_EXT_convolution DD 01H DUP (?)
	ALIGN	8

glad_glStencilStrokePathNV DQ 01H DUP (?)
glad_glDrawElementsIndirect DQ 01H DUP (?)
glad_glUniform1d DQ 01H DUP (?)
glad_glConvolutionFilter1DEXT DQ 01H DUP (?)
glad_glStencilFillPathInstancedNV DQ 01H DUP (?)
glad_glUniform2d DQ 01H DUP (?)
glad_glUniform3d DQ 01H DUP (?)
glad_glConvolutionFilter2DEXT DQ 01H DUP (?)
glad_glStencilStrokePathInstancedNV DQ 01H DUP (?)
glad_glConvolutionParameterfEXT DQ 01H DUP (?)
glad_glUniform4d DQ 01H DUP (?)
glad_glPathCoverDepthFuncNV DQ 01H DUP (?)
glad_glConvolutionParameterfvEXT DQ 01H DUP (?)
glad_glCoverFillPathNV DQ 01H DUP (?)
glad_glUniform1dv DQ 01H DUP (?)
glad_glCoverStrokePathNV DQ 01H DUP (?)
glad_glConvolutionParameteriEXT DQ 01H DUP (?)
glad_glUniform2dv DQ 01H DUP (?)
glad_glConvolutionParameterivEXT DQ 01H DUP (?)
glad_glUniform3dv DQ 01H DUP (?)
glad_glCoverFillPathInstancedNV DQ 01H DUP (?)
glad_glUniform4dv DQ 01H DUP (?)
glad_glCopyConvolutionFilter1DEXT DQ 01H DUP (?)
glad_glUniformMatrix2dv DQ 01H DUP (?)
glad_glCoverStrokePathInstancedNV DQ 01H DUP (?)
glad_glCopyConvolutionFilter2DEXT DQ 01H DUP (?)
glad_glGetPathParameterivNV DQ 01H DUP (?)
glad_glUniformMatrix3dv DQ 01H DUP (?)
glad_glGetConvolutionFilterEXT DQ 01H DUP (?)
glad_glGetPathParameterfvNV DQ 01H DUP (?)
glad_glUniformMatrix4dv DQ 01H DUP (?)
glad_glGetConvolutionParameterfvEXT DQ 01H DUP (?)
glad_glGetPathCommandsNV DQ 01H DUP (?)
glad_glUniformMatrix2x3dv DQ 01H DUP (?)
glad_glGetPathCoordsNV DQ 01H DUP (?)
glad_glGetConvolutionParameterivEXT DQ 01H DUP (?)
glad_glGetPathDashArrayNV DQ 01H DUP (?)
glad_glUniformMatrix2x4dv DQ 01H DUP (?)
glad_glGetSeparableFilterEXT DQ 01H DUP (?)
glad_glUniformMatrix3x2dv DQ 01H DUP (?)
glad_glGetPathMetricsNV DQ 01H DUP (?)
glad_glUniformMatrix3x4dv DQ 01H DUP (?)
glad_glSeparableFilter2DEXT DQ 01H DUP (?)
GLAD_GL_EXT_coordinate_frame DD 01H DUP (?)
	ALIGN	8

glad_glGetPathMetricRangeNV DQ 01H DUP (?)
glad_glUniformMatrix4x2dv DQ 01H DUP (?)
glad_glTangent3bEXT DQ 01H DUP (?)
glad_glTangent3bvEXT DQ 01H DUP (?)
glad_glUniformMatrix4x3dv DQ 01H DUP (?)
glad_glGetPathSpacingNV DQ 01H DUP (?)
glad_glTangent3dEXT DQ 01H DUP (?)
glad_glGetUniformdv DQ 01H DUP (?)
glad_glTangent3dvEXT DQ 01H DUP (?)
glad_glIsPointInFillPathNV DQ 01H DUP (?)
glad_glGetSubroutineUniformLocation DQ 01H DUP (?)
glad_glTangent3fEXT DQ 01H DUP (?)
glad_glTangent3fvEXT DQ 01H DUP (?)
glad_glIsPointInStrokePathNV DQ 01H DUP (?)
glad_glGetSubroutineIndex DQ 01H DUP (?)
glad_glTangent3iEXT DQ 01H DUP (?)
glad_glGetPathLengthNV DQ 01H DUP (?)
glad_glTangent3ivEXT DQ 01H DUP (?)
glad_glGetActiveSubroutineUniformiv DQ 01H DUP (?)
glad_glTangent3sEXT DQ 01H DUP (?)
glad_glTangent3svEXT DQ 01H DUP (?)
glad_glPointAlongPathNV DQ 01H DUP (?)
glad_glGetActiveSubroutineUniformName DQ 01H DUP (?)
glad_glBinormal3bEXT DQ 01H DUP (?)
glad_glMatrixLoad3x2fNV DQ 01H DUP (?)
glad_glBinormal3bvEXT DQ 01H DUP (?)
glad_glMatrixLoad3x3fNV DQ 01H DUP (?)
glad_glGetActiveSubroutineName DQ 01H DUP (?)
glad_glBinormal3dEXT DQ 01H DUP (?)
glad_glMatrixLoadTranspose3x3fNV DQ 01H DUP (?)
glad_glBinormal3dvEXT DQ 01H DUP (?)
glad_glMatrixMult3x2fNV DQ 01H DUP (?)
glad_glUniformSubroutinesuiv DQ 01H DUP (?)
glad_glBinormal3fEXT DQ 01H DUP (?)
glad_glMatrixMult3x3fNV DQ 01H DUP (?)
glad_glGetUniformSubroutineuiv DQ 01H DUP (?)
glad_glBinormal3fvEXT DQ 01H DUP (?)
glad_glMatrixMultTranspose3x3fNV DQ 01H DUP (?)
glad_glBinormal3iEXT DQ 01H DUP (?)
glad_glGetProgramStageiv DQ 01H DUP (?)
glad_glBinormal3ivEXT DQ 01H DUP (?)
glad_glStencilThenCoverFillPathNV DQ 01H DUP (?)
glad_glPatchParameteri DQ 01H DUP (?)
glad_glBinormal3sEXT DQ 01H DUP (?)
glad_glPatchParameterfv DQ 01H DUP (?)
glad_glBinormal3svEXT DQ 01H DUP (?)
glad_glStencilThenCoverStrokePathNV DQ 01H DUP (?)
glad_glBindTransformFeedback DQ 01H DUP (?)
glad_glTangentPointerEXT DQ 01H DUP (?)
glad_glDeleteTransformFeedbacks DQ 01H DUP (?)
glad_glBinormalPointerEXT DQ 01H DUP (?)
glad_glGenTransformFeedbacks DQ 01H DUP (?)
GLAD_GL_EXT_copy_texture DD 01H DUP (?)
	ALIGN	8

glad_glIsTransformFeedback DQ 01H DUP (?)
glad_glStencilThenCoverFillPathInstancedNV DQ 01H DUP (?)
glad_glPauseTransformFeedback DQ 01H DUP (?)
glad_glResumeTransformFeedback DQ 01H DUP (?)
glad_glDrawTransformFeedback DQ 01H DUP (?)
glad_glCopyTexImage1DEXT DQ 01H DUP (?)
glad_glStencilThenCoverStrokePathInstancedNV DQ 01H DUP (?)
glad_glDrawTransformFeedbackStream DQ 01H DUP (?)
glad_glBeginQueryIndexed DQ 01H DUP (?)
glad_glCopyTexImage2DEXT DQ 01H DUP (?)
glad_glPathGlyphIndexRangeNV DQ 01H DUP (?)
glad_glEndQueryIndexed DQ 01H DUP (?)
glad_glGetQueryIndexediv DQ 01H DUP (?)
GLAD_GL_VERSION_4_1 DD 01H DUP (?)
	ALIGN	8

glad_glCopyTexSubImage1DEXT DQ 01H DUP (?)
glad_glReleaseShaderCompiler DQ 01H DUP (?)
glad_glPathGlyphIndexArrayNV DQ 01H DUP (?)
glad_glShaderBinary DQ 01H DUP (?)
glad_glCopyTexSubImage2DEXT DQ 01H DUP (?)
glad_glGetShaderPrecisionFormat DQ 01H DUP (?)
glad_glPathMemoryGlyphIndexArrayNV DQ 01H DUP (?)
glad_glDepthRangef DQ 01H DUP (?)
glad_glClearDepthf DQ 01H DUP (?)
glad_glCopyTexSubImage3DEXT DQ 01H DUP (?)
glad_glProgramPathFragmentInputGenNV DQ 01H DUP (?)
GLAD_GL_EXT_cull_vertex DD 01H DUP (?)
	ALIGN	8

glad_glCullParameterdvEXT DQ 01H DUP (?)
glad_glGetProgramBinary DQ 01H DUP (?)
glad_glCullParameterfvEXT DQ 01H DUP (?)
GLAD_GL_EXT_debug_label DD 01H DUP (?)
	ALIGN	8

glad_glGetProgramResourcefvNV DQ 01H DUP (?)
glad_glProgramBinary DQ 01H DUP (?)
glad_glLabelObjectEXT DQ 01H DUP (?)
glad_glProgramParameteri DQ 01H DUP (?)
glad_glPathColorGenNV DQ 01H DUP (?)
glad_glUseProgramStages DQ 01H DUP (?)
glad_glGetObjectLabelEXT DQ 01H DUP (?)
GLAD_GL_EXT_debug_marker DD 01H DUP (?)
	ALIGN	8

glad_glPathTexGenNV DQ 01H DUP (?)
glad_glActiveShaderProgram DQ 01H DUP (?)
glad_glInsertEventMarkerEXT DQ 01H DUP (?)
glad_glPathFogGenNV DQ 01H DUP (?)
glad_glCreateShaderProgramv DQ 01H DUP (?)
glad_glPushGroupMarkerEXT DQ 01H DUP (?)
glad_glGetPathColorGenivNV DQ 01H DUP (?)
glad_glPopGroupMarkerEXT DQ 01H DUP (?)
glad_glBindProgramPipeline DQ 01H DUP (?)
GLAD_GL_EXT_depth_bounds_test DD 01H DUP (?)
	ALIGN	8

glad_glGetPathColorGenfvNV DQ 01H DUP (?)
glad_glDepthBoundsEXT DQ 01H DUP (?)
glad_glDeleteProgramPipelines DQ 01H DUP (?)
GLAD_GL_EXT_direct_state_access DD 01H DUP (?)
	ALIGN	8

glad_glGenProgramPipelines DQ 01H DUP (?)
glad_glMatrixLoadfEXT DQ 01H DUP (?)
glad_glGetPathTexGenivNV DQ 01H DUP (?)
glad_glIsProgramPipeline DQ 01H DUP (?)
glad_glMatrixLoaddEXT DQ 01H DUP (?)
glad_glGetPathTexGenfvNV DQ 01H DUP (?)
GLAD_GL_NV_path_rendering_shared_edge DD 01H DUP (?)
GLAD_GL_NV_pixel_data_range DD 01H DUP (?)
glad_glGetProgramPipelineiv DQ 01H DUP (?)
glad_glMatrixMultfEXT DQ 01H DUP (?)
glad_glMatrixMultdEXT DQ 01H DUP (?)
glad_glPixelDataRangeNV DQ 01H DUP (?)
glad_glProgramUniform1i DQ 01H DUP (?)
glad_glMatrixLoadIdentityEXT DQ 01H DUP (?)
glad_glFlushPixelDataRangeNV DQ 01H DUP (?)
GLAD_GL_NV_point_sprite DD 01H DUP (?)
	ALIGN	8

glad_glProgramUniform1iv DQ 01H DUP (?)
glad_glPointParameteriNV DQ 01H DUP (?)
glad_glMatrixRotatefEXT DQ 01H DUP (?)
glad_glPointParameterivNV DQ 01H DUP (?)
GLAD_GL_NV_present_video DD 01H DUP (?)
	ALIGN	8

glad_glProgramUniform1f DQ 01H DUP (?)
glad_glMatrixRotatedEXT DQ 01H DUP (?)
glad_glProgramUniform1fv DQ 01H DUP (?)
glad_glProgramUniform1d DQ 01H DUP (?)
glad_glMatrixScalefEXT DQ 01H DUP (?)
glad_glPresentFrameKeyedNV DQ 01H DUP (?)
glad_glProgramUniform1dv DQ 01H DUP (?)
glad_glMatrixScaledEXT DQ 01H DUP (?)
glad_glProgramUniform1ui DQ 01H DUP (?)
glad_glMatrixTranslatefEXT DQ 01H DUP (?)
glad_glProgramUniform1uiv DQ 01H DUP (?)
glad_glMatrixTranslatedEXT DQ 01H DUP (?)
glad_glPresentFrameDualFillNV DQ 01H DUP (?)
glad_glProgramUniform2i DQ 01H DUP (?)
glad_glGetVideoivNV DQ 01H DUP (?)
glad_glMatrixFrustumEXT DQ 01H DUP (?)
glad_glProgramUniform2iv DQ 01H DUP (?)
glad_glGetVideouivNV DQ 01H DUP (?)
glad_glGetVideoi64vNV DQ 01H DUP (?)
glad_glProgramUniform2f DQ 01H DUP (?)
glad_glMatrixOrthoEXT DQ 01H DUP (?)
glad_glGetVideoui64vNV DQ 01H DUP (?)
GLAD_GL_NV_primitive_restart DD 01H DUP (?)
	ALIGN	8

glad_glMatrixPopEXT DQ 01H DUP (?)
glad_glProgramUniform2fv DQ 01H DUP (?)
glad_glPrimitiveRestartNV DQ 01H DUP (?)
glad_glMatrixPushEXT DQ 01H DUP (?)
glad_glPrimitiveRestartIndexNV DQ 01H DUP (?)
GLAD_GL_NV_query_resource DD 01H DUP (?)
	ALIGN	8

glad_glClientAttribDefaultEXT DQ 01H DUP (?)
glad_glProgramUniform2d DQ 01H DUP (?)
glad_glPushClientAttribDefaultEXT DQ 01H DUP (?)
glad_glQueryResourceNV DQ 01H DUP (?)
GLAD_GL_NV_query_resource_tag DD 01H DUP (?)
	ALIGN	8

glad_glProgramUniform2dv DQ 01H DUP (?)
glad_glTextureParameterfEXT DQ 01H DUP (?)
glad_glGenQueryResourceTagNV DQ 01H DUP (?)
glad_glProgramUniform2ui DQ 01H DUP (?)
glad_glDeleteQueryResourceTagNV DQ 01H DUP (?)
glad_glTextureParameterfvEXT DQ 01H DUP (?)
glad_glQueryResourceTagNV DQ 01H DUP (?)
GLAD_GL_NV_register_combiners DD 01H DUP (?)
	ALIGN	8

glad_glProgramUniform2uiv DQ 01H DUP (?)
glad_glTextureParameteriEXT DQ 01H DUP (?)
glad_glCombinerParameterfvNV DQ 01H DUP (?)
glad_glCombinerParameterfNV DQ 01H DUP (?)
glad_glTextureParameterivEXT DQ 01H DUP (?)
glad_glProgramUniform3i DQ 01H DUP (?)
glad_glCombinerParameterivNV DQ 01H DUP (?)
glad_glCombinerParameteriNV DQ 01H DUP (?)
glad_glProgramUniform3iv DQ 01H DUP (?)
glad_glTextureImage1DEXT DQ 01H DUP (?)
glad_glProgramUniform3f DQ 01H DUP (?)
glad_glCombinerInputNV DQ 01H DUP (?)
glad_glProgramUniform3fv DQ 01H DUP (?)
glad_glTextureImage2DEXT DQ 01H DUP (?)
glad_glProgramUniform3d DQ 01H DUP (?)
glad_glCombinerOutputNV DQ 01H DUP (?)
glad_glProgramUniform3dv DQ 01H DUP (?)
glad_glFinalCombinerInputNV DQ 01H DUP (?)
glad_glTextureSubImage1DEXT DQ 01H DUP (?)
glad_glProgramUniform3ui DQ 01H DUP (?)
glad_glGetCombinerInputParameterfvNV DQ 01H DUP (?)
glad_glProgramUniform3uiv DQ 01H DUP (?)
glad_glGetCombinerInputParameterivNV DQ 01H DUP (?)
glad_glTextureSubImage2DEXT DQ 01H DUP (?)
glad_glGetCombinerOutputParameterfvNV DQ 01H DUP (?)
glad_glProgramUniform4i DQ 01H DUP (?)
glad_glCopyTextureImage1DEXT DQ 01H DUP (?)
glad_glGetCombinerOutputParameterivNV DQ 01H DUP (?)
glad_glProgramUniform4iv DQ 01H DUP (?)
glad_glGetFinalCombinerInputParameterfvNV DQ 01H DUP (?)
glad_glProgramUniform4f DQ 01H DUP (?)
glad_glGetFinalCombinerInputParameterivNV DQ 01H DUP (?)
GLAD_GL_NV_register_combiners2 DD 01H DUP (?)
	ALIGN	8

glad_glCopyTextureImage2DEXT DQ 01H DUP (?)
glad_glCombinerStageParameterfvNV DQ 01H DUP (?)
glad_glProgramUniform4fv DQ 01H DUP (?)
glad_glGetCombinerStageParameterfvNV DQ 01H DUP (?)
GLAD_GL_NV_representative_fragment_test DD 01H DUP (?)
GLAD_GL_NV_robustness_video_memory_purge DD 01H DUP (?)
GLAD_GL_NV_sample_locations DD 01H DUP (?)
	ALIGN	8

glad_glCopyTextureSubImage1DEXT DQ 01H DUP (?)
glad_glProgramUniform4d DQ 01H DUP (?)
glad_glFramebufferSampleLocationsfvNV DQ 01H DUP (?)
glad_glProgramUniform4dv DQ 01H DUP (?)
glad_glCopyTextureSubImage2DEXT DQ 01H DUP (?)
glad_glNamedFramebufferSampleLocationsfvNV DQ 01H DUP (?)
glad_glResolveDepthValuesNV DQ 01H DUP (?)
GLAD_GL_NV_sample_mask_override_coverage DD 01H DUP (?)
GLAD_GL_NV_scissor_exclusive DD 01H DUP (?)
glad_glProgramUniform4ui DQ 01H DUP (?)
glad_glGetTextureImageEXT DQ 01H DUP (?)
glad_glScissorExclusiveNV DQ 01H DUP (?)
glad_glProgramUniform4uiv DQ 01H DUP (?)
glad_glScissorExclusiveArrayvNV DQ 01H DUP (?)
glad_glGetTextureParameterfvEXT DQ 01H DUP (?)
GLAD_GL_NV_shader_atomic_counters DD 01H DUP (?)
GLAD_GL_NV_shader_atomic_float DD 01H DUP (?)
GLAD_GL_NV_shader_atomic_float64 DD 01H DUP (?)
GLAD_GL_NV_shader_atomic_fp16_vector DD 01H DUP (?)
GLAD_GL_NV_shader_atomic_int64 DD 01H DUP (?)
	ALIGN	8

glad_glProgramUniformMatrix2fv DQ 01H DUP (?)
GLAD_GL_NV_shader_buffer_load DD 01H DUP (?)
	ALIGN	8

glad_glGetTextureParameterivEXT DQ 01H DUP (?)
glad_glMakeBufferResidentNV DQ 01H DUP (?)
glad_glMakeBufferNonResidentNV DQ 01H DUP (?)
glad_glProgramUniformMatrix3fv DQ 01H DUP (?)
glad_glIsBufferResidentNV DQ 01H DUP (?)
glad_glGetTextureLevelParameterfvEXT DQ 01H DUP (?)
glad_glMakeNamedBufferResidentNV DQ 01H DUP (?)
glad_glProgramUniformMatrix4fv DQ 01H DUP (?)
glad_glMakeNamedBufferNonResidentNV DQ 01H DUP (?)
glad_glIsNamedBufferResidentNV DQ 01H DUP (?)
glad_glGetTextureLevelParameterivEXT DQ 01H DUP (?)
glad_glProgramUniformMatrix2dv DQ 01H DUP (?)
glad_glGetBufferParameterui64vNV DQ 01H DUP (?)
glad_glGetNamedBufferParameterui64vNV DQ 01H DUP (?)
glad_glProgramUniformMatrix3dv DQ 01H DUP (?)
glad_glGetIntegerui64vNV DQ 01H DUP (?)
glad_glTextureImage3DEXT DQ 01H DUP (?)
glad_glUniformui64NV DQ 01H DUP (?)
glad_glProgramUniformMatrix4dv DQ 01H DUP (?)
glad_glUniformui64vNV DQ 01H DUP (?)
glad_glProgramUniformMatrix2x3fv DQ 01H DUP (?)
glad_glProgramUniformui64NV DQ 01H DUP (?)
glad_glTextureSubImage3DEXT DQ 01H DUP (?)
glad_glProgramUniformui64vNV DQ 01H DUP (?)
GLAD_GL_NV_shader_buffer_store DD 01H DUP (?)
	ALIGN	8

glad_glProgramUniformMatrix3x2fv DQ 01H DUP (?)
GLAD_GL_NV_shader_storage_buffer_object DD 01H DUP (?)
GLAD_GL_NV_shader_subgroup_partitioned DD 01H DUP (?)
GLAD_GL_NV_shader_texture_footprint DD 01H DUP (?)
GLAD_GL_NV_shader_thread_group DD 01H DUP (?)
GLAD_GL_NV_shader_thread_shuffle DD 01H DUP (?)
GLAD_GL_NV_shading_rate_image DD 01H DUP (?)
glad_glBindShadingRateImageNV DQ 01H DUP (?)
glad_glProgramUniformMatrix2x4fv DQ 01H DUP (?)
glad_glCopyTextureSubImage3DEXT DQ 01H DUP (?)
glad_glGetShadingRateImagePaletteNV DQ 01H DUP (?)
glad_glProgramUniformMatrix4x2fv DQ 01H DUP (?)
glad_glBindMultiTextureEXT DQ 01H DUP (?)
glad_glGetShadingRateSampleLocationivNV DQ 01H DUP (?)
glad_glShadingRateImageBarrierNV DQ 01H DUP (?)
glad_glProgramUniformMatrix3x4fv DQ 01H DUP (?)
glad_glMultiTexCoordPointerEXT DQ 01H DUP (?)
glad_glShadingRateImagePaletteNV DQ 01H DUP (?)
glad_glShadingRateSampleOrderNV DQ 01H DUP (?)
glad_glMultiTexEnvfEXT DQ 01H DUP (?)
glad_glProgramUniformMatrix4x3fv DQ 01H DUP (?)
glad_glShadingRateSampleOrderCustomNV DQ 01H DUP (?)
GLAD_GL_NV_stereo_view_rendering DD 01H DUP (?)
GLAD_GL_NV_tessellation_program5 DD 01H DUP (?)
GLAD_GL_NV_texgen_emboss DD 01H DUP (?)
	ALIGN	8

glad_glMultiTexEnvfvEXT DQ 01H DUP (?)
GLAD_GL_NV_texgen_reflection DD 01H DUP (?)
GLAD_GL_NV_texture_barrier DD 01H DUP (?)
glad_glProgramUniformMatrix2x3dv DQ 01H DUP (?)
glad_glTextureBarrierNV DQ 01H DUP (?)
GLAD_GL_NV_texture_compression_vtc DD 01H DUP (?)
GLAD_GL_NV_texture_env_combine4 DD 01H DUP (?)
GLAD_GL_NV_texture_expand_normal DD 01H DUP (?)
GLAD_GL_NV_texture_multisample DD 01H DUP (?)
glad_glMultiTexEnviEXT DQ 01H DUP (?)
glad_glProgramUniformMatrix3x2dv DQ 01H DUP (?)
glad_glMultiTexEnvivEXT DQ 01H DUP (?)
glad_glTexImage2DMultisampleCoverageNV DQ 01H DUP (?)
glad_glProgramUniformMatrix2x4dv DQ 01H DUP (?)
glad_glMultiTexGendEXT DQ 01H DUP (?)
glad_glProgramUniformMatrix4x2dv DQ 01H DUP (?)
glad_glMultiTexGendvEXT DQ 01H DUP (?)
glad_glTexImage3DMultisampleCoverageNV DQ 01H DUP (?)
glad_glMultiTexGenfEXT DQ 01H DUP (?)
glad_glProgramUniformMatrix3x4dv DQ 01H DUP (?)
glad_glTextureImage2DMultisampleNV DQ 01H DUP (?)
glad_glMultiTexGenfvEXT DQ 01H DUP (?)
glad_glProgramUniformMatrix4x3dv DQ 01H DUP (?)
glad_glValidateProgramPipeline DQ 01H DUP (?)
glad_glMultiTexGeniEXT DQ 01H DUP (?)
glad_glTextureImage3DMultisampleNV DQ 01H DUP (?)
glad_glGetProgramPipelineInfoLog DQ 01H DUP (?)
glad_glMultiTexGenivEXT DQ 01H DUP (?)
glad_glVertexAttribL1d DQ 01H DUP (?)
glad_glGetMultiTexEnvfvEXT DQ 01H DUP (?)
glad_glVertexAttribL2d DQ 01H DUP (?)
glad_glTextureImage2DMultisampleCoverageNV DQ 01H DUP (?)
glad_glGetMultiTexEnvivEXT DQ 01H DUP (?)
glad_glVertexAttribL3d DQ 01H DUP (?)
glad_glGetMultiTexGendvEXT DQ 01H DUP (?)
glad_glVertexAttribL4d DQ 01H DUP (?)
glad_glTextureImage3DMultisampleCoverageNV DQ 01H DUP (?)
GLAD_GL_NV_texture_rectangle DD 01H DUP (?)
GLAD_GL_NV_texture_rectangle_compressed DD 01H DUP (?)
GLAD_GL_NV_texture_shader DD 01H DUP (?)
GLAD_GL_NV_texture_shader2 DD 01H DUP (?)
GLAD_GL_NV_texture_shader3 DD 01H DUP (?)
	ALIGN	8

glad_glVertexAttribL1dv DQ 01H DUP (?)
glad_glGetMultiTexGenfvEXT DQ 01H DUP (?)
GLAD_GL_NV_transform_feedback DD 01H DUP (?)
	ALIGN	8

glad_glBeginTransformFeedbackNV DQ 01H DUP (?)
glad_glVertexAttribL2dv DQ 01H DUP (?)
glad_glEndTransformFeedbackNV DQ 01H DUP (?)
glad_glGetMultiTexGenivEXT DQ 01H DUP (?)
glad_glVertexAttribL3dv DQ 01H DUP (?)
glad_glTransformFeedbackAttribsNV DQ 01H DUP (?)
glad_glVertexAttribL4dv DQ 01H DUP (?)
glad_glMultiTexParameteriEXT DQ 01H DUP (?)
glad_glBindBufferRangeNV DQ 01H DUP (?)
glad_glVertexAttribLPointer DQ 01H DUP (?)
glad_glMultiTexParameterivEXT DQ 01H DUP (?)
glad_glGetVertexAttribLdv DQ 01H DUP (?)
glad_glBindBufferOffsetNV DQ 01H DUP (?)
glad_glMultiTexParameterfEXT DQ 01H DUP (?)
glad_glBindBufferBaseNV DQ 01H DUP (?)
glad_glViewportArrayv DQ 01H DUP (?)
glad_glMultiTexParameterfvEXT DQ 01H DUP (?)
glad_glTransformFeedbackVaryingsNV DQ 01H DUP (?)
glad_glViewportIndexedf DQ 01H DUP (?)
glad_glActiveVaryingNV DQ 01H DUP (?)
glad_glViewportIndexedfv DQ 01H DUP (?)
glad_glGetVaryingLocationNV DQ 01H DUP (?)
glad_glMultiTexImage1DEXT DQ 01H DUP (?)
glad_glScissorArrayv DQ 01H DUP (?)
glad_glScissorIndexed DQ 01H DUP (?)
glad_glGetActiveVaryingNV DQ 01H DUP (?)
glad_glScissorIndexedv DQ 01H DUP (?)
glad_glGetTransformFeedbackVaryingNV DQ 01H DUP (?)
glad_glMultiTexImage2DEXT DQ 01H DUP (?)
glad_glDepthRangeArrayv DQ 01H DUP (?)
glad_glTransformFeedbackStreamAttribsNV DQ 01H DUP (?)
GLAD_GL_NV_transform_feedback2 DD 01H DUP (?)
	ALIGN	8

glad_glDepthRangeIndexed DQ 01H DUP (?)
glad_glMultiTexSubImage1DEXT DQ 01H DUP (?)
glad_glBindTransformFeedbackNV DQ 01H DUP (?)
glad_glGetFloati_v DQ 01H DUP (?)
glad_glDeleteTransformFeedbacksNV DQ 01H DUP (?)
glad_glGetDoublei_v DQ 01H DUP (?)
GLAD_GL_VERSION_4_2 DD 01H DUP (?)
	ALIGN	8

glad_glGenTransformFeedbacksNV DQ 01H DUP (?)
glad_glIsTransformFeedbackNV DQ 01H DUP (?)
glad_glPauseTransformFeedbackNV DQ 01H DUP (?)
glad_glResumeTransformFeedbackNV DQ 01H DUP (?)
glad_glMultiTexSubImage2DEXT DQ 01H DUP (?)
glad_glDrawArraysInstancedBaseInstance DQ 01H DUP (?)
glad_glDrawTransformFeedbackNV DQ 01H DUP (?)
GLAD_GL_NV_uniform_buffer_unified_memory DD 01H DUP (?)
GLAD_GL_NV_vdpau_interop DD 01H DUP (?)
glad_glVDPAUInitNV DQ 01H DUP (?)
glad_glDrawElementsInstancedBaseInstance DQ 01H DUP (?)
glad_glVDPAUFiniNV DQ 01H DUP (?)
glad_glCopyMultiTexImage1DEXT DQ 01H DUP (?)
glad_glVDPAURegisterVideoSurfaceNV DQ 01H DUP (?)
glad_glDrawElementsInstancedBaseVertexBaseInstance DQ 01H DUP (?)
glad_glVDPAURegisterOutputSurfaceNV DQ 01H DUP (?)
glad_glCopyMultiTexImage2DEXT DQ 01H DUP (?)
glad_glVDPAUIsSurfaceNV DQ 01H DUP (?)
glad_glGetInternalformativ DQ 01H DUP (?)
glad_glVDPAUUnregisterSurfaceNV DQ 01H DUP (?)
glad_glGetActiveAtomicCounterBufferiv DQ 01H DUP (?)
glad_glCopyMultiTexSubImage1DEXT DQ 01H DUP (?)
glad_glVDPAUGetSurfaceivNV DQ 01H DUP (?)
glad_glVDPAUSurfaceAccessNV DQ 01H DUP (?)
glad_glVDPAUMapSurfacesNV DQ 01H DUP (?)
glad_glBindImageTexture DQ 01H DUP (?)
glad_glMemoryBarrier DQ 01H DUP (?)
glad_glCopyMultiTexSubImage2DEXT DQ 01H DUP (?)
glad_glVDPAUUnmapSurfacesNV DQ 01H DUP (?)
GLAD_GL_NV_vdpau_interop2 DD 01H DUP (?)
	ALIGN	8

glad_glTexStorage1D DQ 01H DUP (?)
glad_glVDPAURegisterVideoSurfaceWithPictureStructureNV DQ 01H DUP (?)
glad_glGetMultiTexImageEXT DQ 01H DUP (?)
GLAD_GL_NV_vertex_array_range DD 01H DUP (?)
	ALIGN	8

glad_glFlushVertexArrayRangeNV DQ 01H DUP (?)
glad_glTexStorage2D DQ 01H DUP (?)
glad_glVertexArrayRangeNV DQ 01H DUP (?)
glad_glGetMultiTexParameterfvEXT DQ 01H DUP (?)
GLAD_GL_NV_vertex_array_range2 DD 01H DUP (?)
GLAD_GL_NV_vertex_attrib_integer_64bit DD 01H DUP (?)
glad_glVertexAttribL1i64NV DQ 01H DUP (?)
glad_glGetMultiTexParameterivEXT DQ 01H DUP (?)
glad_glTexStorage3D DQ 01H DUP (?)
glad_glVertexAttribL2i64NV DQ 01H DUP (?)
glad_glDrawTransformFeedbackInstanced DQ 01H DUP (?)
glad_glGetMultiTexLevelParameterfvEXT DQ 01H DUP (?)
glad_glVertexAttribL3i64NV DQ 01H DUP (?)
glad_glDrawTransformFeedbackStreamInstanced DQ 01H DUP (?)
GLAD_GL_VERSION_4_3 DD 01H DUP (?)
	ALIGN	8

glad_glGetMultiTexLevelParameterivEXT DQ 01H DUP (?)
glad_glVertexAttribL4i64NV DQ 01H DUP (?)
glad_glClearBufferData DQ 01H DUP (?)
glad_glVertexAttribL1i64vNV DQ 01H DUP (?)
glad_glVertexAttribL2i64vNV DQ 01H DUP (?)
glad_glVertexAttribL3i64vNV DQ 01H DUP (?)
glad_glMultiTexImage3DEXT DQ 01H DUP (?)
glad_glClearBufferSubData DQ 01H DUP (?)
glad_glVertexAttribL4i64vNV DQ 01H DUP (?)
glad_glDispatchCompute DQ 01H DUP (?)
glad_glVertexAttribL1ui64NV DQ 01H DUP (?)
glad_glDispatchComputeIndirect DQ 01H DUP (?)
glad_glVertexAttribL2ui64NV DQ 01H DUP (?)
glad_glMultiTexSubImage3DEXT DQ 01H DUP (?)
glad_glVertexAttribL3ui64NV DQ 01H DUP (?)
glad_glVertexAttribL4ui64NV DQ 01H DUP (?)
glad_glCopyImageSubData DQ 01H DUP (?)
glad_glVertexAttribL1ui64vNV DQ 01H DUP (?)
glad_glCopyMultiTexSubImage3DEXT DQ 01H DUP (?)
glad_glVertexAttribL2ui64vNV DQ 01H DUP (?)
glad_glFramebufferParameteri DQ 01H DUP (?)
glad_glEnableClientStateIndexedEXT DQ 01H DUP (?)
glad_glVertexAttribL3ui64vNV DQ 01H DUP (?)
glad_glDisableClientStateIndexedEXT DQ 01H DUP (?)
glad_glGetFramebufferParameteriv DQ 01H DUP (?)
glad_glVertexAttribL4ui64vNV DQ 01H DUP (?)
glad_glGetFloatIndexedvEXT DQ 01H DUP (?)
glad_glGetVertexAttribLi64vNV DQ 01H DUP (?)
glad_glGetInternalformati64v DQ 01H DUP (?)
glad_glGetDoubleIndexedvEXT DQ 01H DUP (?)
glad_glGetVertexAttribLui64vNV DQ 01H DUP (?)
glad_glGetPointerIndexedvEXT DQ 01H DUP (?)
glad_glEnableIndexedEXT DQ 01H DUP (?)
glad_glVertexAttribLFormatNV DQ 01H DUP (?)
GLAD_GL_NV_vertex_buffer_unified_memory DD 01H DUP (?)
	ALIGN	8

glad_glInvalidateTexSubImage DQ 01H DUP (?)
glad_glDisableIndexedEXT DQ 01H DUP (?)
glad_glInvalidateTexImage DQ 01H DUP (?)
glad_glBufferAddressRangeNV DQ 01H DUP (?)
