; Listing generated by Microsoft (R) Optimizing Compiler Version 19.23.28106.4 

include listing.inc

INCLUDELIB MSVCRT
INCLUDELIB OLDNAMES

PUBLIC	??_C@_02DPKJAMEF@?$CFd@				; `string'
PUBLIC	??_C@_02GMHACPFF@?$CFu@				; `string'
PUBLIC	??_C@_05LLAMLEHD@?$CFI64d@			; `string'
PUBLIC	??_C@_05OINFJHGD@?$CFI64u@			; `string'
PUBLIC	??_C@_02NJPGOMH@?$CFf@				; `string'
PUBLIC	??_C@_03DLDNIBIK@?$CFlf@			; `string'
;	COMDAT ??_C@_03DLDNIBIK@?$CFlf@
CONST	SEGMENT
??_C@_03DLDNIBIK@?$CFlf@ DB '%lf', 00H			; `string'
CONST	ENDS
;	COMDAT ??_C@_02NJPGOMH@?$CFf@
CONST	SEGMENT
??_C@_02NJPGOMH@?$CFf@ DB '%f', 00H			; `string'
CONST	ENDS
;	COMDAT ??_C@_05OINFJHGD@?$CFI64u@
CONST	SEGMENT
??_C@_05OINFJHGD@?$CFI64u@ DB '%I64u', 00H		; `string'
CONST	ENDS
;	COMDAT ??_C@_05LLAMLEHD@?$CFI64d@
CONST	SEGMENT
??_C@_05LLAMLEHD@?$CFI64d@ DB '%I64d', 00H		; `string'
CONST	ENDS
;	COMDAT ??_C@_02GMHACPFF@?$CFu@
CONST	SEGMENT
??_C@_02GMHACPFF@?$CFu@ DB '%u', 00H			; `string'
CONST	ENDS
;	COMDAT ??_C@_02DPKJAMEF@?$CFd@
CONST	SEGMENT
??_C@_02DPKJAMEF@?$CFd@ DB '%d', 00H			; `string'
CONST	ENDS
CONST	SEGMENT
?GDataTypeInfo@@3QBUImGuiDataTypeInfo@@B DQ 0000000000000001H ; GDataTypeInfo
	DQ	FLAT:??_C@_02DPKJAMEF@?$CFd@
	DQ	FLAT:??_C@_02DPKJAMEF@?$CFd@
	DQ	0000000000000001H
	DQ	FLAT:??_C@_02GMHACPFF@?$CFu@
	DQ	FLAT:??_C@_02GMHACPFF@?$CFu@
	DQ	0000000000000002H
	DQ	FLAT:??_C@_02DPKJAMEF@?$CFd@
	DQ	FLAT:??_C@_02DPKJAMEF@?$CFd@
	DQ	0000000000000002H
	DQ	FLAT:??_C@_02GMHACPFF@?$CFu@
	DQ	FLAT:??_C@_02GMHACPFF@?$CFu@
	DQ	0000000000000004H
	DQ	FLAT:??_C@_02DPKJAMEF@?$CFd@
	DQ	FLAT:??_C@_02DPKJAMEF@?$CFd@
	DQ	0000000000000004H
	DQ	FLAT:??_C@_02GMHACPFF@?$CFu@
	DQ	FLAT:??_C@_02GMHACPFF@?$CFu@
	DQ	0000000000000008H
	DQ	FLAT:??_C@_05LLAMLEHD@?$CFI64d@
	DQ	FLAT:??_C@_05LLAMLEHD@?$CFI64d@
	DQ	0000000000000008H
	DQ	FLAT:??_C@_05OINFJHGD@?$CFI64u@
	DQ	FLAT:??_C@_05OINFJHGD@?$CFI64u@
	DQ	0000000000000004H
	DQ	FLAT:??_C@_02NJPGOMH@?$CFf@
	DQ	FLAT:??_C@_02NJPGOMH@?$CFf@
	DQ	0000000000000008H
	DQ	FLAT:??_C@_02NJPGOMH@?$CFf@
	DQ	FLAT:??_C@_03DLDNIBIK@?$CFlf@
CONST	ENDS
PUBLIC	??0ImVec2@@QEAA@XZ				; ImVec2::ImVec2
PUBLIC	??0ImVec2@@QEAA@MM@Z				; ImVec2::ImVec2
PUBLIC	??AImVec2@@QEBAM_K@Z				; ImVec2::operator[]
PUBLIC	??AImVec2@@QEAAAEAM_K@Z				; ImVec2::operator[]
PUBLIC	??0ImVec4@@QEAA@XZ				; ImVec4::ImVec4
PUBLIC	??0ImVec4@@QEAA@MMMM@Z				; ImVec4::ImVec4
PUBLIC	?Separator@ImGui@@YAXXZ				; ImGui::Separator
PUBLIC	?NewLine@ImGui@@YAXXZ				; ImGui::NewLine
PUBLIC	?Spacing@ImGui@@YAXXZ				; ImGui::Spacing
PUBLIC	?Dummy@ImGui@@YAXAEBUImVec2@@@Z			; ImGui::Dummy
PUBLIC	?AlignTextToFramePadding@ImGui@@YAXXZ		; ImGui::AlignTextToFramePadding
PUBLIC	?TextUnformatted@ImGui@@YAXPEBD0@Z		; ImGui::TextUnformatted
PUBLIC	?Text@ImGui@@YAXPEBDZZ				; ImGui::Text
PUBLIC	?TextV@ImGui@@YAXPEBDPEAD@Z			; ImGui::TextV
PUBLIC	?TextColored@ImGui@@YAXAEBUImVec4@@PEBDZZ	; ImGui::TextColored
PUBLIC	?TextColoredV@ImGui@@YAXAEBUImVec4@@PEBDPEAD@Z	; ImGui::TextColoredV
PUBLIC	?TextDisabled@ImGui@@YAXPEBDZZ			; ImGui::TextDisabled
PUBLIC	?TextDisabledV@ImGui@@YAXPEBDPEAD@Z		; ImGui::TextDisabledV
PUBLIC	?TextWrapped@ImGui@@YAXPEBDZZ			; ImGui::TextWrapped
PUBLIC	?TextWrappedV@ImGui@@YAXPEBDPEAD@Z		; ImGui::TextWrappedV
PUBLIC	?LabelText@ImGui@@YAXPEBD0ZZ			; ImGui::LabelText
PUBLIC	?LabelTextV@ImGui@@YAXPEBD0PEAD@Z		; ImGui::LabelTextV
PUBLIC	?BulletText@ImGui@@YAXPEBDZZ			; ImGui::BulletText
PUBLIC	?BulletTextV@ImGui@@YAXPEBDPEAD@Z		; ImGui::BulletTextV
PUBLIC	?Button@ImGui@@YA_NPEBDAEBUImVec2@@@Z		; ImGui::Button
PUBLIC	?SmallButton@ImGui@@YA_NPEBD@Z			; ImGui::SmallButton
PUBLIC	?InvisibleButton@ImGui@@YA_NPEBDAEBUImVec2@@@Z	; ImGui::InvisibleButton
PUBLIC	?ArrowButton@ImGui@@YA_NPEBDH@Z			; ImGui::ArrowButton
PUBLIC	?Image@ImGui@@YAXPEAXAEBUImVec2@@11AEBUImVec4@@2@Z ; ImGui::Image
PUBLIC	?ImageButton@ImGui@@YA_NPEAXAEBUImVec2@@11HAEBUImVec4@@2@Z ; ImGui::ImageButton
PUBLIC	?Checkbox@ImGui@@YA_NPEBDPEA_N@Z		; ImGui::Checkbox
PUBLIC	?CheckboxFlags@ImGui@@YA_NPEBDPEAII@Z		; ImGui::CheckboxFlags
PUBLIC	?RadioButton@ImGui@@YA_NPEBD_N@Z		; ImGui::RadioButton
PUBLIC	?RadioButton@ImGui@@YA_NPEBDPEAHH@Z		; ImGui::RadioButton
PUBLIC	?ProgressBar@ImGui@@YAXMAEBUImVec2@@PEBD@Z	; ImGui::ProgressBar
PUBLIC	?Bullet@ImGui@@YAXXZ				; ImGui::Bullet
PUBLIC	?BeginCombo@ImGui@@YA_NPEBD0H@Z			; ImGui::BeginCombo
PUBLIC	?EndCombo@ImGui@@YAXXZ				; ImGui::EndCombo
PUBLIC	?Combo@ImGui@@YA_NPEBDPEAHQEBQEBDHH@Z		; ImGui::Combo
PUBLIC	?Combo@ImGui@@YA_NPEBDPEAH0H@Z			; ImGui::Combo
PUBLIC	?Combo@ImGui@@YA_NPEBDPEAHP6A_NPEAXHPEAPEBD@Z2HH@Z ; ImGui::Combo
PUBLIC	?DragFloat@ImGui@@YA_NPEBDPEAMMMM0M@Z		; ImGui::DragFloat
PUBLIC	?DragFloat2@ImGui@@YA_NPEBDQEAMMMM0M@Z		; ImGui::DragFloat2
PUBLIC	?DragFloat3@ImGui@@YA_NPEBDQEAMMMM0M@Z		; ImGui::DragFloat3
PUBLIC	?DragFloat4@ImGui@@YA_NPEBDQEAMMMM0M@Z		; ImGui::DragFloat4
PUBLIC	?DragFloatRange2@ImGui@@YA_NPEBDPEAM1MMM00M@Z	; ImGui::DragFloatRange2
PUBLIC	?DragInt@ImGui@@YA_NPEBDPEAHMHH0@Z		; ImGui::DragInt
PUBLIC	?DragInt2@ImGui@@YA_NPEBDQEAHMHH0@Z		; ImGui::DragInt2
PUBLIC	?DragInt3@ImGui@@YA_NPEBDQEAHMHH0@Z		; ImGui::DragInt3
PUBLIC	?DragInt4@ImGui@@YA_NPEBDQEAHMHH0@Z		; ImGui::DragInt4
PUBLIC	?DragIntRange2@ImGui@@YA_NPEBDPEAH1MHH00@Z	; ImGui::DragIntRange2
PUBLIC	?DragScalar@ImGui@@YA_NPEBDHPEAXMPEBX20M@Z	; ImGui::DragScalar
PUBLIC	?DragScalarN@ImGui@@YA_NPEBDHPEAXHMPEBX20M@Z	; ImGui::DragScalarN
PUBLIC	?SliderFloat@ImGui@@YA_NPEBDPEAMMM0M@Z		; ImGui::SliderFloat
PUBLIC	?SliderFloat2@ImGui@@YA_NPEBDQEAMMM0M@Z		; ImGui::SliderFloat2
PUBLIC	?SliderFloat3@ImGui@@YA_NPEBDQEAMMM0M@Z		; ImGui::SliderFloat3
PUBLIC	?SliderFloat4@ImGui@@YA_NPEBDQEAMMM0M@Z		; ImGui::SliderFloat4
PUBLIC	?SliderAngle@ImGui@@YA_NPEBDPEAMMM0@Z		; ImGui::SliderAngle
PUBLIC	?SliderInt@ImGui@@YA_NPEBDPEAHHH0@Z		; ImGui::SliderInt
PUBLIC	?SliderInt2@ImGui@@YA_NPEBDQEAHHH0@Z		; ImGui::SliderInt2
PUBLIC	?SliderInt3@ImGui@@YA_NPEBDQEAHHH0@Z		; ImGui::SliderInt3
PUBLIC	?SliderInt4@ImGui@@YA_NPEBDQEAHHH0@Z		; ImGui::SliderInt4
PUBLIC	?SliderScalar@ImGui@@YA_NPEBDHPEAXPEBX20M@Z	; ImGui::SliderScalar
PUBLIC	?SliderScalarN@ImGui@@YA_NPEBDHPEAXHPEBX20M@Z	; ImGui::SliderScalarN
PUBLIC	?VSliderFloat@ImGui@@YA_NPEBDAEBUImVec2@@PEAMMM0M@Z ; ImGui::VSliderFloat
PUBLIC	?VSliderInt@ImGui@@YA_NPEBDAEBUImVec2@@PEAHHH0@Z ; ImGui::VSliderInt
PUBLIC	?VSliderScalar@ImGui@@YA_NPEBDAEBUImVec2@@HPEAXPEBX30M@Z ; ImGui::VSliderScalar
PUBLIC	?InputText@ImGui@@YA_NPEBDPEAD_KHP6AHPEAUImGuiInputTextCallbackData@@@ZPEAX@Z ; ImGui::InputText
PUBLIC	?InputTextMultiline@ImGui@@YA_NPEBDPEAD_KAEBUImVec2@@HP6AHPEAUImGuiInputTextCallbackData@@@ZPEAX@Z ; ImGui::InputTextMultiline
PUBLIC	?InputTextWithHint@ImGui@@YA_NPEBD0PEAD_KHP6AHPEAUImGuiInputTextCallbackData@@@ZPEAX@Z ; ImGui::InputTextWithHint
PUBLIC	?InputFloat@ImGui@@YA_NPEBDPEAMMM0H@Z		; ImGui::InputFloat
PUBLIC	?InputFloat2@ImGui@@YA_NPEBDQEAM0H@Z		; ImGui::InputFloat2
PUBLIC	?InputFloat3@ImGui@@YA_NPEBDQEAM0H@Z		; ImGui::InputFloat3
PUBLIC	?InputFloat4@ImGui@@YA_NPEBDQEAM0H@Z		; ImGui::InputFloat4
PUBLIC	?InputInt@ImGui@@YA_NPEBDPEAHHHH@Z		; ImGui::InputInt
PUBLIC	?InputInt2@ImGui@@YA_NPEBDQEAHH@Z		; ImGui::InputInt2
PUBLIC	?InputInt3@ImGui@@YA_NPEBDQEAHH@Z		; ImGui::InputInt3
PUBLIC	?InputInt4@ImGui@@YA_NPEBDQEAHH@Z		; ImGui::InputInt4
PUBLIC	?InputDouble@ImGui@@YA_NPEBDPEANNN0H@Z		; ImGui::InputDouble
PUBLIC	?InputScalar@ImGui@@YA_NPEBDHPEAXPEBX20H@Z	; ImGui::InputScalar
PUBLIC	?InputScalarN@ImGui@@YA_NPEBDHPEAXHPEBX20H@Z	; ImGui::InputScalarN
PUBLIC	?ColorEdit3@ImGui@@YA_NPEBDQEAMH@Z		; ImGui::ColorEdit3
PUBLIC	?ColorEdit4@ImGui@@YA_NPEBDQEAMH@Z		; ImGui::ColorEdit4
PUBLIC	?ColorPicker3@ImGui@@YA_NPEBDQEAMH@Z		; ImGui::ColorPicker3
PUBLIC	?ColorPicker4@ImGui@@YA_NPEBDQEAMHPEBM@Z	; ImGui::ColorPicker4
PUBLIC	?ColorButton@ImGui@@YA_NPEBDAEBUImVec4@@HUImVec2@@@Z ; ImGui::ColorButton
PUBLIC	?SetColorEditOptions@ImGui@@YAXH@Z		; ImGui::SetColorEditOptions
PUBLIC	?TreeNode@ImGui@@YA_NPEBD@Z			; ImGui::TreeNode
PUBLIC	?TreeNode@ImGui@@YA_NPEBD0ZZ			; ImGui::TreeNode
PUBLIC	?TreeNode@ImGui@@YA_NPEBXPEBDZZ			; ImGui::TreeNode
PUBLIC	?TreeNodeV@ImGui@@YA_NPEBD0PEAD@Z		; ImGui::TreeNodeV
PUBLIC	?TreeNodeV@ImGui@@YA_NPEBXPEBDPEAD@Z		; ImGui::TreeNodeV
PUBLIC	?TreeNodeEx@ImGui@@YA_NPEBDH@Z			; ImGui::TreeNodeEx
PUBLIC	?TreeNodeEx@ImGui@@YA_NPEBDH0ZZ			; ImGui::TreeNodeEx
PUBLIC	?TreeNodeEx@ImGui@@YA_NPEBXHPEBDZZ		; ImGui::TreeNodeEx
PUBLIC	?TreeNodeExV@ImGui@@YA_NPEBDH0PEAD@Z		; ImGui::TreeNodeExV
PUBLIC	?TreeNodeExV@ImGui@@YA_NPEBXHPEBDPEAD@Z		; ImGui::TreeNodeExV
PUBLIC	?TreePush@ImGui@@YAXPEBD@Z			; ImGui::TreePush
PUBLIC	?TreePush@ImGui@@YAXPEBX@Z			; ImGui::TreePush
PUBLIC	?TreePop@ImGui@@YAXXZ				; ImGui::TreePop
PUBLIC	?GetTreeNodeToLabelSpacing@ImGui@@YAMXZ		; ImGui::GetTreeNodeToLabelSpacing
PUBLIC	?CollapsingHeader@ImGui@@YA_NPEBDH@Z		; ImGui::CollapsingHeader
PUBLIC	?CollapsingHeader@ImGui@@YA_NPEBDPEA_NH@Z	; ImGui::CollapsingHeader
PUBLIC	?SetNextItemOpen@ImGui@@YAX_NH@Z		; ImGui::SetNextItemOpen
PUBLIC	?Selectable@ImGui@@YA_NPEBD_NHAEBUImVec2@@@Z	; ImGui::Selectable
PUBLIC	?Selectable@ImGui@@YA_NPEBDPEA_NHAEBUImVec2@@@Z	; ImGui::Selectable
PUBLIC	?ListBox@ImGui@@YA_NPEBDPEAHQEBQEBDHH@Z		; ImGui::ListBox
PUBLIC	?ListBox@ImGui@@YA_NPEBDPEAHP6A_NPEAXHPEAPEBD@Z2HH@Z ; ImGui::ListBox
PUBLIC	?ListBoxHeader@ImGui@@YA_NPEBDAEBUImVec2@@@Z	; ImGui::ListBoxHeader
PUBLIC	?ListBoxHeader@ImGui@@YA_NPEBDHH@Z		; ImGui::ListBoxHeader
PUBLIC	?ListBoxFooter@ImGui@@YAXXZ			; ImGui::ListBoxFooter
PUBLIC	?PlotLines@ImGui@@YAXPEBDPEBMHH0MMUImVec2@@H@Z	; ImGui::PlotLines
PUBLIC	?PlotLines@ImGui@@YAXPEBDP6AMPEAXH@Z1HH0MMUImVec2@@@Z ; ImGui::PlotLines
PUBLIC	?PlotHistogram@ImGui@@YAXPEBDPEBMHH0MMUImVec2@@H@Z ; ImGui::PlotHistogram
PUBLIC	?PlotHistogram@ImGui@@YAXPEBDP6AMPEAXH@Z1HH0MMUImVec2@@@Z ; ImGui::PlotHistogram
PUBLIC	?Value@ImGui@@YAXPEBD_N@Z			; ImGui::Value
PUBLIC	?Value@ImGui@@YAXPEBDH@Z			; ImGui::Value
PUBLIC	?Value@ImGui@@YAXPEBDI@Z			; ImGui::Value
PUBLIC	?Value@ImGui@@YAXPEBDM0@Z			; ImGui::Value
PUBLIC	?BeginMenuBar@ImGui@@YA_NXZ			; ImGui::BeginMenuBar
PUBLIC	?EndMenuBar@ImGui@@YAXXZ			; ImGui::EndMenuBar
PUBLIC	?BeginMainMenuBar@ImGui@@YA_NXZ			; ImGui::BeginMainMenuBar
PUBLIC	?EndMainMenuBar@ImGui@@YAXXZ			; ImGui::EndMainMenuBar
PUBLIC	?BeginMenu@ImGui@@YA_NPEBD_N@Z			; ImGui::BeginMenu
PUBLIC	?EndMenu@ImGui@@YAXXZ				; ImGui::EndMenu
PUBLIC	?MenuItem@ImGui@@YA_NPEBD0_N1@Z			; ImGui::MenuItem
PUBLIC	?MenuItem@ImGui@@YA_NPEBD0PEA_N_N@Z		; ImGui::MenuItem
PUBLIC	?Columns@ImGui@@YAXHPEBD_N@Z			; ImGui::Columns
PUBLIC	?NextColumn@ImGui@@YAXXZ			; ImGui::NextColumn
PUBLIC	?GetColumnIndex@ImGui@@YAHXZ			; ImGui::GetColumnIndex
PUBLIC	?GetColumnWidth@ImGui@@YAMH@Z			; ImGui::GetColumnWidth
PUBLIC	?SetColumnWidth@ImGui@@YAXHM@Z			; ImGui::SetColumnWidth
PUBLIC	?GetColumnOffset@ImGui@@YAMH@Z			; ImGui::GetColumnOffset
PUBLIC	?SetColumnOffset@ImGui@@YAXHM@Z			; ImGui::SetColumnOffset
PUBLIC	?GetColumnsCount@ImGui@@YAHXZ			; ImGui::GetColumnsCount
PUBLIC	?BeginTabBar@ImGui@@YA_NPEBDH@Z			; ImGui::BeginTabBar
PUBLIC	?EndTabBar@ImGui@@YAXXZ				; ImGui::EndTabBar
PUBLIC	?BeginTabItem@ImGui@@YA_NPEBDPEA_NH@Z		; ImGui::BeginTabItem
PUBLIC	?EndTabItem@ImGui@@YAXXZ			; ImGui::EndTabItem
PUBLIC	?SetTabItemClosed@ImGui@@YAXPEBD@Z		; ImGui::SetTabItemClosed
PUBLIC	??2@YAPEAX_KUImNewDummy@@PEAX@Z			; operator new
PUBLIC	??3@YAXPEAXUImNewDummy@@0@Z			; operator delete
PUBLIC	??0?$ImVector@G@@QEAA@XZ			; ImVector<unsigned short>::ImVector<unsigned short>
PUBLIC	??1?$ImVector@G@@QEAA@XZ			; ImVector<unsigned short>::~ImVector<unsigned short>
PUBLIC	?empty@?$ImVector@G@@QEBA_NXZ			; ImVector<unsigned short>::empty
PUBLIC	??A?$ImVector@G@@QEAAAEAGH@Z			; ImVector<unsigned short>::operator[]
PUBLIC	??A?$ImVector@G@@QEBAAEBGH@Z			; ImVector<unsigned short>::operator[]
PUBLIC	?_grow_capacity@?$ImVector@G@@QEBAHH@Z		; ImVector<unsigned short>::_grow_capacity
PUBLIC	?resize@?$ImVector@G@@QEAAXH@Z			; ImVector<unsigned short>::resize
PUBLIC	?reserve@?$ImVector@G@@QEAAXH@Z			; ImVector<unsigned short>::reserve
PUBLIC	?contains@?$ImVector@G@@QEBA_NAEBG@Z		; ImVector<unsigned short>::contains
PUBLIC	??0ImGuiInputTextCallbackData@@QEAA@XZ		; ImGuiInputTextCallbackData::ImGuiInputTextCallbackData
PUBLIC	?DeleteChars@ImGuiInputTextCallbackData@@QEAAXHH@Z ; ImGuiInputTextCallbackData::DeleteChars
PUBLIC	?InsertChars@ImGuiInputTextCallbackData@@QEAAXHPEBD0@Z ; ImGuiInputTextCallbackData::InsertChars
PUBLIC	?InputFloat@ImGui@@YA_NPEBDPEAMMMHH@Z		; ImGui::InputFloat
PUBLIC	?InputFloat2@ImGui@@YA_NPEBDQEAMHH@Z		; ImGui::InputFloat2
PUBLIC	?InputFloat3@ImGui@@YA_NPEBDQEAMHH@Z		; ImGui::InputFloat3
PUBLIC	?InputFloat4@ImGui@@YA_NPEBDQEAMHH@Z		; ImGui::InputFloat4
PUBLIC	??0?$ImVector@D@@QEAA@XZ			; ImVector<char>::ImVector<char>
PUBLIC	??1?$ImVector@D@@QEAA@XZ			; ImVector<char>::~ImVector<char>
PUBLIC	?_grow_capacity@?$ImVector@D@@QEBAHH@Z		; ImVector<char>::_grow_capacity
PUBLIC	?resize@?$ImVector@D@@QEAAXH@Z			; ImVector<char>::resize
PUBLIC	?reserve@?$ImVector@D@@QEAAXH@Z			; ImVector<char>::reserve
PUBLIC	??0ImGuiTextBuffer@@QEAA@XZ			; ImGuiTextBuffer::ImGuiTextBuffer
PUBLIC	?size@ImGuiTextBuffer@@QEBAHXZ			; ImGuiTextBuffer::size
PUBLIC	??1ImGuiTextBuffer@@QEAA@XZ			; ImGuiTextBuffer::~ImGuiTextBuffer
PUBLIC	??0ImGuiListClipper@@QEAA@HM@Z			; ImGuiListClipper::ImGuiListClipper
PUBLIC	??1ImGuiListClipper@@QEAA@XZ			; ImGuiListClipper::~ImGuiListClipper
PUBLIC	??0?$ImVector@UImDrawChannel@@@@QEAA@XZ		; ImVector<ImDrawChannel>::ImVector<ImDrawChannel>
PUBLIC	??1?$ImVector@UImDrawChannel@@@@QEAA@XZ		; ImVector<ImDrawChannel>::~ImVector<ImDrawChannel>
PUBLIC	??0ImDrawListSplitter@@QEAA@XZ			; ImDrawListSplitter::ImDrawListSplitter
PUBLIC	??1ImDrawListSplitter@@QEAA@XZ			; ImDrawListSplitter::~ImDrawListSplitter
PUBLIC	?Clear@ImDrawListSplitter@@QEAAXXZ		; ImDrawListSplitter::Clear
PUBLIC	?_grow_capacity@?$ImVector@UImVec2@@@@QEBAHH@Z	; ImVector<ImVec2>::_grow_capacity
PUBLIC	?reserve@?$ImVector@UImVec2@@@@QEAAXH@Z		; ImVector<ImVec2>::reserve
PUBLIC	?push_back@?$ImVector@UImVec2@@@@QEAAXAEBUImVec2@@@Z ; ImVector<ImVec2>::push_back
PUBLIC	?PathLineTo@ImDrawList@@QEAAXAEBUImVec2@@@Z	; ImDrawList::PathLineTo
PUBLIC	?PathFillConvex@ImDrawList@@QEAAXI@Z		; ImDrawList::PathFillConvex
PUBLIC	?PathStroke@ImDrawList@@QEAAXI_NM@Z		; ImDrawList::PathStroke
PUBLIC	?PrimWriteVtx@ImDrawList@@QEAAXAEBUImVec2@@0I@Z	; ImDrawList::PrimWriteVtx
PUBLIC	?PrimWriteIdx@ImDrawList@@QEAAXG@Z		; ImDrawList::PrimWriteIdx
PUBLIC	?PrimVtx@ImDrawList@@QEAAXAEBUImVec2@@0I@Z	; ImDrawList::PrimVtx
PUBLIC	?back@?$ImVector@I@@QEAAAEAIXZ			; ImVector<unsigned int>::back
PUBLIC	?_grow_capacity@?$ImVector@I@@QEBAHH@Z		; ImVector<unsigned int>::_grow_capacity
PUBLIC	?reserve@?$ImVector@I@@QEAAXH@Z			; ImVector<unsigned int>::reserve
PUBLIC	?push_back@?$ImVector@I@@QEAAXAEBI@Z		; ImVector<unsigned int>::push_back
PUBLIC	?pop_back@?$ImVector@I@@QEAAXXZ			; ImVector<unsigned int>::pop_back
PUBLIC	?contains@?$ImVector@I@@QEBA_NAEBI@Z		; ImVector<unsigned int>::contains
PUBLIC	?empty@?$ImVector@M@@QEBA_NXZ			; ImVector<float>::empty
PUBLIC	??A?$ImVector@M@@QEBAAEBMH@Z			; ImVector<float>::operator[]
PUBLIC	?empty@?$ImVector@UImFontGlyph@@@@QEBA_NXZ	; ImVector<ImFontGlyph>::empty
PUBLIC	?GetCharAdvance@ImFont@@QEBAMG@Z		; ImFont::GetCharAdvance
PUBLIC	__local_stdio_scanf_options
PUBLIC	_vsscanf_l
PUBLIC	sscanf
PUBLIC	fabsf
PUBLIC	?ImParseFormatFindStart@@YAPEBDPEBD@Z		; ImParseFormatFindStart
PUBLIC	?ImParseFormatFindEnd@@YAPEBDPEBD@Z		; ImParseFormatFindEnd
PUBLIC	?ImParseFormatTrimDecorations@@YAPEBDPEBDPEAD_K@Z ; ImParseFormatTrimDecorations
PUBLIC	?ImParseFormatPrecision@@YAHPEBDH@Z		; ImParseFormatPrecision
PUBLIC	??0ImRect@@QEAA@XZ				; ImRect::ImRect
PUBLIC	??0ImRect@@QEAA@AEBUImVec2@@0@Z			; ImRect::ImRect
PUBLIC	??0ImRect@@QEAA@AEBUImVec4@@@Z			; ImRect::ImRect
PUBLIC	??0ImRect@@QEAA@MMMM@Z				; ImRect::ImRect
PUBLIC	?GetCenter@ImRect@@QEBA?AUImVec2@@XZ		; ImRect::GetCenter
PUBLIC	?GetSize@ImRect@@QEBA?AUImVec2@@XZ		; ImRect::GetSize
PUBLIC	?GetWidth@ImRect@@QEBAMXZ			; ImRect::GetWidth
PUBLIC	?GetHeight@ImRect@@QEBAMXZ			; ImRect::GetHeight
PUBLIC	?GetTL@ImRect@@QEBA?AUImVec2@@XZ		; ImRect::GetTL
PUBLIC	?GetTR@ImRect@@QEBA?AUImVec2@@XZ		; ImRect::GetTR
PUBLIC	?GetBL@ImRect@@QEBA?AUImVec2@@XZ		; ImRect::GetBL
PUBLIC	?GetBR@ImRect@@QEBA?AUImVec2@@XZ		; ImRect::GetBR
PUBLIC	?Contains@ImRect@@QEBA_NAEBUImVec2@@@Z		; ImRect::Contains
PUBLIC	?Contains@ImRect@@QEBA_NAEBU1@@Z		; ImRect::Contains
PUBLIC	?Overlaps@ImRect@@QEBA_NAEBU1@@Z		; ImRect::Overlaps
PUBLIC	?Expand@ImRect@@QEAAXM@Z			; ImRect::Expand
PUBLIC	?Expand@ImRect@@QEAAXAEBUImVec2@@@Z		; ImRect::Expand
PUBLIC	?Translate@ImRect@@QEAAXAEBUImVec2@@@Z		; ImRect::Translate
PUBLIC	?ClipWith@ImRect@@QEAAXAEBU1@@Z			; ImRect::ClipWith
PUBLIC	??0ImGuiMenuColumns@@QEAA@XZ			; ImGuiMenuColumns::ImGuiMenuColumns
PUBLIC	?Update@ImGuiMenuColumns@@QEAAXHM_N@Z		; ImGuiMenuColumns::Update
PUBLIC	?DeclColumns@ImGuiMenuColumns@@QEAAMMMM@Z	; ImGuiMenuColumns::DeclColumns
PUBLIC	?CalcExtraSpace@ImGuiMenuColumns@@QEBAMM@Z	; ImGuiMenuColumns::CalcExtraSpace
PUBLIC	?OnKeyPressed@ImGuiInputTextState@@QEAAXH@Z	; ImGuiInputTextState::OnKeyPressed
PUBLIC	?CursorAnimReset@ImGuiInputTextState@@QEAAXXZ	; ImGuiInputTextState::CursorAnimReset
PUBLIC	?CursorClamp@ImGuiInputTextState@@QEAAXXZ	; ImGuiInputTextState::CursorClamp
PUBLIC	?HasSelection@ImGuiInputTextState@@QEBA_NXZ	; ImGuiInputTextState::HasSelection
PUBLIC	?ClearSelection@ImGuiInputTextState@@QEAAXXZ	; ImGuiInputTextState::ClearSelection
PUBLIC	?SelectAll@ImGuiInputTextState@@QEAAXXZ		; ImGuiInputTextState::SelectAll
PUBLIC	?ClearFlags@ImGuiNextWindowData@@QEAAXXZ	; ImGuiNextWindowData::ClearFlags
PUBLIC	?ClearFlags@ImGuiNextItemData@@QEAAXXZ		; ImGuiNextItemData::ClearFlags
PUBLIC	??0ImGuiPtrOrIndex@@QEAA@PEAX@Z			; ImGuiPtrOrIndex::ImGuiPtrOrIndex
PUBLIC	??0ImGuiPtrOrIndex@@QEAA@H@Z			; ImGuiPtrOrIndex::ImGuiPtrOrIndex
PUBLIC	??0ImGuiColumnData@@QEAA@XZ			; ImGuiColumnData::ImGuiColumnData
PUBLIC	??0?$ImVector@UImGuiColumnData@@@@QEAA@XZ	; ImVector<ImGuiColumnData>::ImVector<ImGuiColumnData>
PUBLIC	??1?$ImVector@UImGuiColumnData@@@@QEAA@XZ	; ImVector<ImGuiColumnData>::~ImVector<ImGuiColumnData>
PUBLIC	??A?$ImVector@UImGuiColumnData@@@@QEAAAEAUImGuiColumnData@@H@Z ; ImVector<ImGuiColumnData>::operator[]
PUBLIC	?clear@?$ImVector@UImGuiColumnData@@@@QEAAXXZ	; ImVector<ImGuiColumnData>::clear
PUBLIC	?_grow_capacity@?$ImVector@UImGuiColumnData@@@@QEBAHH@Z ; ImVector<ImGuiColumnData>::_grow_capacity
PUBLIC	?resize@?$ImVector@UImGuiColumnData@@@@QEAAXH@Z	; ImVector<ImGuiColumnData>::resize
PUBLIC	?reserve@?$ImVector@UImGuiColumnData@@@@QEAAXH@Z ; ImVector<ImGuiColumnData>::reserve
PUBLIC	?push_back@?$ImVector@UImGuiColumnData@@@@QEAAXAEBUImGuiColumnData@@@Z ; ImVector<ImGuiColumnData>::push_back
PUBLIC	??0ImGuiColumns@@QEAA@XZ			; ImGuiColumns::ImGuiColumns
PUBLIC	?Clear@ImGuiColumns@@QEAAXXZ			; ImGuiColumns::Clear
PUBLIC	??1ImGuiColumns@@QEAA@XZ			; ImGuiColumns::~ImGuiColumns
PUBLIC	??A?$ImVector@UImGuiPopupData@@@@QEAAAEAUImGuiPopupData@@H@Z ; ImVector<ImGuiPopupData>::operator[]
PUBLIC	??A?$ImVector@UImGuiTabBar@@@@QEAAAEAUImGuiTabBar@@H@Z ; ImVector<ImGuiTabBar>::operator[]
PUBLIC	?_grow_capacity@?$ImVector@UImGuiTabBar@@@@QEBAHH@Z ; ImVector<ImGuiTabBar>::_grow_capacity
PUBLIC	?resize@?$ImVector@UImGuiTabBar@@@@QEAAXH@Z	; ImVector<ImGuiTabBar>::resize
PUBLIC	?reserve@?$ImVector@UImGuiTabBar@@@@QEAAXH@Z	; ImVector<ImGuiTabBar>::reserve
PUBLIC	?GetByIndex@?$ImPool@UImGuiTabBar@@@@QEAAPEAUImGuiTabBar@@H@Z ; ImPool<ImGuiTabBar>::GetByIndex
PUBLIC	?GetIndex@?$ImPool@UImGuiTabBar@@@@QEBAHPEBUImGuiTabBar@@@Z ; ImPool<ImGuiTabBar>::GetIndex
PUBLIC	?GetOrAddByKey@?$ImPool@UImGuiTabBar@@@@QEAAPEAUImGuiTabBar@@I@Z ; ImPool<ImGuiTabBar>::GetOrAddByKey
PUBLIC	?Contains@?$ImPool@UImGuiTabBar@@@@QEBA_NPEBUImGuiTabBar@@@Z ; ImPool<ImGuiTabBar>::Contains
PUBLIC	?Add@?$ImPool@UImGuiTabBar@@@@QEAAPEAUImGuiTabBar@@XZ ; ImPool<ImGuiTabBar>::Add
PUBLIC	?empty@?$ImVector@UImGuiPtrOrIndex@@@@QEBA_NXZ	; ImVector<ImGuiPtrOrIndex>::empty
PUBLIC	?back@?$ImVector@UImGuiPtrOrIndex@@@@QEAAAEAUImGuiPtrOrIndex@@XZ ; ImVector<ImGuiPtrOrIndex>::back
PUBLIC	?_grow_capacity@?$ImVector@UImGuiPtrOrIndex@@@@QEBAHH@Z ; ImVector<ImGuiPtrOrIndex>::_grow_capacity
PUBLIC	?reserve@?$ImVector@UImGuiPtrOrIndex@@@@QEAAXH@Z ; ImVector<ImGuiPtrOrIndex>::reserve
PUBLIC	?push_back@?$ImVector@UImGuiPtrOrIndex@@@@QEAAXAEBUImGuiPtrOrIndex@@@Z ; ImVector<ImGuiPtrOrIndex>::push_back
PUBLIC	?pop_back@?$ImVector@UImGuiPtrOrIndex@@@@QEAAXXZ ; ImVector<ImGuiPtrOrIndex>::pop_back
PUBLIC	??A?$ImVector@UImGuiShrinkWidthItem@@@@QEAAAEAUImGuiShrinkWidthItem@@H@Z ; ImVector<ImGuiShrinkWidthItem>::operator[]
PUBLIC	?_grow_capacity@?$ImVector@UImGuiShrinkWidthItem@@@@QEBAHH@Z ; ImVector<ImGuiShrinkWidthItem>::_grow_capacity
PUBLIC	?resize@?$ImVector@UImGuiShrinkWidthItem@@@@QEAAXH@Z ; ImVector<ImGuiShrinkWidthItem>::resize
PUBLIC	?reserve@?$ImVector@UImGuiShrinkWidthItem@@@@QEAAXH@Z ; ImVector<ImGuiShrinkWidthItem>::reserve
PUBLIC	?empty@?$ImVector@UImGuiGroupData@@@@QEBA_NXZ	; ImVector<ImGuiGroupData>::empty
PUBLIC	?back@?$ImVector@UImGuiGroupData@@@@QEAAAEAUImGuiGroupData@@XZ ; ImVector<ImGuiGroupData>::back
PUBLIC	??A?$ImVector@UImGuiColumns@@@@QEAAAEAUImGuiColumns@@H@Z ; ImVector<ImGuiColumns>::operator[]
PUBLIC	?back@?$ImVector@UImGuiColumns@@@@QEAAAEAUImGuiColumns@@XZ ; ImVector<ImGuiColumns>::back
PUBLIC	?_grow_capacity@?$ImVector@UImGuiColumns@@@@QEBAHH@Z ; ImVector<ImGuiColumns>::_grow_capacity
PUBLIC	?reserve@?$ImVector@UImGuiColumns@@@@QEAAXH@Z	; ImVector<ImGuiColumns>::reserve
PUBLIC	?push_back@?$ImVector@UImGuiColumns@@@@QEAAXAEBUImGuiColumns@@@Z ; ImVector<ImGuiColumns>::push_back
PUBLIC	?Rect@ImGuiWindow@@QEBA?AUImRect@@XZ		; ImGuiWindow::Rect
PUBLIC	?CalcFontSize@ImGuiWindow@@QEBAMXZ		; ImGuiWindow::CalcFontSize
PUBLIC	?TitleBarHeight@ImGuiWindow@@QEBAMXZ		; ImGuiWindow::TitleBarHeight
PUBLIC	?MenuBarHeight@ImGuiWindow@@QEBAMXZ		; ImGuiWindow::MenuBarHeight
PUBLIC	?MenuBarRect@ImGuiWindow@@QEBA?AUImRect@@XZ	; ImGuiWindow::MenuBarRect
PUBLIC	??0ImGuiItemHoveredDataBackup@@QEAA@XZ		; ImGuiItemHoveredDataBackup::ImGuiItemHoveredDataBackup
PUBLIC	?Backup@ImGuiItemHoveredDataBackup@@QEAAXXZ	; ImGuiItemHoveredDataBackup::Backup
PUBLIC	?Restore@ImGuiItemHoveredDataBackup@@QEBAXXZ	; ImGuiItemHoveredDataBackup::Restore
PUBLIC	??0ImGuiTabItem@@QEAA@XZ			; ImGuiTabItem::ImGuiTabItem
PUBLIC	??0?$ImVector@UImGuiTabItem@@@@QEAA@XZ		; ImVector<ImGuiTabItem>::ImVector<ImGuiTabItem>
PUBLIC	??1?$ImVector@UImGuiTabItem@@@@QEAA@XZ		; ImVector<ImGuiTabItem>::~ImVector<ImGuiTabItem>
PUBLIC	??A?$ImVector@UImGuiTabItem@@@@QEAAAEAUImGuiTabItem@@H@Z ; ImVector<ImGuiTabItem>::operator[]
PUBLIC	?back@?$ImVector@UImGuiTabItem@@@@QEAAAEAUImGuiTabItem@@XZ ; ImVector<ImGuiTabItem>::back
PUBLIC	?_grow_capacity@?$ImVector@UImGuiTabItem@@@@QEBAHH@Z ; ImVector<ImGuiTabItem>::_grow_capacity
PUBLIC	?resize@?$ImVector@UImGuiTabItem@@@@QEAAXH@Z	; ImVector<ImGuiTabItem>::resize
PUBLIC	?reserve@?$ImVector@UImGuiTabItem@@@@QEAAXH@Z	; ImVector<ImGuiTabItem>::reserve
PUBLIC	?push_back@?$ImVector@UImGuiTabItem@@@@QEAAXAEBUImGuiTabItem@@@Z ; ImVector<ImGuiTabItem>::push_back
PUBLIC	?erase@?$ImVector@UImGuiTabItem@@@@QEAAPEAUImGuiTabItem@@PEBU2@@Z ; ImVector<ImGuiTabItem>::erase
PUBLIC	?index_from_ptr@?$ImVector@UImGuiTabItem@@@@QEBAHPEBUImGuiTabItem@@@Z ; ImVector<ImGuiTabItem>::index_from_ptr
PUBLIC	??0ImGuiTabBar@@QEAA@XZ				; ImGuiTabBar::ImGuiTabBar
PUBLIC	?GetTabOrder@ImGuiTabBar@@QEBAHPEBUImGuiTabItem@@@Z ; ImGuiTabBar::GetTabOrder
PUBLIC	?GetTabName@ImGuiTabBar@@QEBAPEBDPEBUImGuiTabItem@@@Z ; ImGuiTabBar::GetTabName
PUBLIC	?GetCurrentWindowRead@ImGui@@YAPEAUImGuiWindow@@XZ ; ImGui::GetCurrentWindowRead
PUBLIC	?GetCurrentWindow@ImGui@@YAPEAUImGuiWindow@@XZ	; ImGui::GetCurrentWindow
PUBLIC	?ShrinkWidths@ImGui@@YAXPEAUImGuiShrinkWidthItem@@HM@Z ; ImGui::ShrinkWidths
PUBLIC	?IsKeyPressedMap@ImGui@@YA_NH_N@Z		; ImGui::IsKeyPressedMap
PUBLIC	?IsNavInputDown@ImGui@@YA_NH@Z			; ImGui::IsNavInputDown
PUBLIC	?IsNavInputTest@ImGui@@YA_NHW4ImGuiInputReadMode@@@Z ; ImGui::IsNavInputTest
PUBLIC	?BeginColumns@ImGui@@YAXPEBDHH@Z		; ImGui::BeginColumns
PUBLIC	?EndColumns@ImGui@@YAXXZ			; ImGui::EndColumns
PUBLIC	?PushColumnClipRect@ImGui@@YAXH@Z		; ImGui::PushColumnClipRect
PUBLIC	?PushColumnsBackground@ImGui@@YAXXZ		; ImGui::PushColumnsBackground
PUBLIC	?PopColumnsBackground@ImGui@@YAXXZ		; ImGui::PopColumnsBackground
PUBLIC	?GetColumnsID@ImGui@@YAIPEBDH@Z			; ImGui::GetColumnsID
PUBLIC	?FindOrCreateColumns@ImGui@@YAPEAUImGuiColumns@@PEAUImGuiWindow@@I@Z ; ImGui::FindOrCreateColumns
PUBLIC	?GetColumnOffsetFromNorm@ImGui@@YAMPEBUImGuiColumns@@M@Z ; ImGui::GetColumnOffsetFromNorm
PUBLIC	?GetColumnNormFromOffset@ImGui@@YAMPEBUImGuiColumns@@M@Z ; ImGui::GetColumnNormFromOffset
PUBLIC	?BeginTabBarEx@ImGui@@YA_NPEAUImGuiTabBar@@AEBUImRect@@H@Z ; ImGui::BeginTabBarEx
PUBLIC	?TabBarFindTabByID@ImGui@@YAPEAUImGuiTabItem@@PEAUImGuiTabBar@@I@Z ; ImGui::TabBarFindTabByID
PUBLIC	?TabBarRemoveTab@ImGui@@YAXPEAUImGuiTabBar@@I@Z	; ImGui::TabBarRemoveTab
PUBLIC	?TabBarCloseTab@ImGui@@YAXPEAUImGuiTabBar@@PEAUImGuiTabItem@@@Z ; ImGui::TabBarCloseTab
PUBLIC	?TabBarQueueChangeTabOrder@ImGui@@YAXPEAUImGuiTabBar@@PEBUImGuiTabItem@@H@Z ; ImGui::TabBarQueueChangeTabOrder
PUBLIC	?TabItemEx@ImGui@@YA_NPEAUImGuiTabBar@@PEBDPEA_NH@Z ; ImGui::TabItemEx
PUBLIC	?TabItemCalcSize@ImGui@@YA?AUImVec2@@PEBD_N@Z	; ImGui::TabItemCalcSize
PUBLIC	?TabItemBackground@ImGui@@YAXPEAUImDrawList@@AEBUImRect@@HI@Z ; ImGui::TabItemBackground
PUBLIC	?TabItemLabelAndCloseButton@ImGui@@YA_NPEAUImDrawList@@AEBUImRect@@HUImVec2@@PEBDII_N@Z ; ImGui::TabItemLabelAndCloseButton
PUBLIC	?TextEx@ImGui@@YAXPEBD0H@Z			; ImGui::TextEx
PUBLIC	?ButtonEx@ImGui@@YA_NPEBDAEBUImVec2@@H@Z	; ImGui::ButtonEx
PUBLIC	?CloseButton@ImGui@@YA_NIAEBUImVec2@@@Z		; ImGui::CloseButton
PUBLIC	?CollapseButton@ImGui@@YA_NIAEBUImVec2@@@Z	; ImGui::CollapseButton
PUBLIC	?ArrowButtonEx@ImGui@@YA_NPEBDHUImVec2@@H@Z	; ImGui::ArrowButtonEx
PUBLIC	?Scrollbar@ImGui@@YAXW4ImGuiAxis@@@Z		; ImGui::Scrollbar
PUBLIC	?ScrollbarEx@ImGui@@YA_NAEBUImRect@@IW4ImGuiAxis@@PEAMMMH@Z ; ImGui::ScrollbarEx
PUBLIC	?GetWindowScrollbarRect@ImGui@@YA?AUImRect@@PEAUImGuiWindow@@W4ImGuiAxis@@@Z ; ImGui::GetWindowScrollbarRect
PUBLIC	?GetWindowScrollbarID@ImGui@@YAIPEAUImGuiWindow@@W4ImGuiAxis@@@Z ; ImGui::GetWindowScrollbarID
PUBLIC	?SeparatorEx@ImGui@@YAXH@Z			; ImGui::SeparatorEx
PUBLIC	?ButtonBehavior@ImGui@@YA_NAEBUImRect@@IPEA_N1H@Z ; ImGui::ButtonBehavior
PUBLIC	?DragBehavior@ImGui@@YA_NIHPEAXMPEBX1PEBDMH@Z	; ImGui::DragBehavior
PUBLIC	?SliderBehavior@ImGui@@YA_NAEBUImRect@@IHPEAXPEBX2PEBDMHPEAU2@@Z ; ImGui::SliderBehavior
PUBLIC	?SplitterBehavior@ImGui@@YA_NAEBUImRect@@IW4ImGuiAxis@@PEAM2MMMM@Z ; ImGui::SplitterBehavior
PUBLIC	?TreeNodeBehavior@ImGui@@YA_NIHPEBD0@Z		; ImGui::TreeNodeBehavior
PUBLIC	?TreeNodeBehaviorIsOpen@ImGui@@YA_NIH@Z		; ImGui::TreeNodeBehaviorIsOpen
PUBLIC	?TreePushOverrideID@ImGui@@YAXI@Z		; ImGui::TreePushOverrideID
PUBLIC	?DataTypeGetInfo@ImGui@@YAPEBUImGuiDataTypeInfo@@H@Z ; ImGui::DataTypeGetInfo
PUBLIC	?DataTypeFormatString@ImGui@@YAHPEADHHPEBXPEBD@Z ; ImGui::DataTypeFormatString
PUBLIC	?DataTypeApplyOp@ImGui@@YAXHHPEAX0PEBX@Z	; ImGui::DataTypeApplyOp
PUBLIC	?DataTypeApplyOpFromText@ImGui@@YA_NPEBD0HPEAX0@Z ; ImGui::DataTypeApplyOpFromText
PUBLIC	?DataTypeClamp@ImGui@@YA_NHPEAXPEBX1@Z		; ImGui::DataTypeClamp
PUBLIC	?InputTextEx@ImGui@@YA_NPEBD0PEADHAEBUImVec2@@HP6AHPEAUImGuiInputTextCallbackData@@@ZPEAX@Z ; ImGui::InputTextEx
PUBLIC	?TempInputText@ImGui@@YA_NAEBUImRect@@IPEBDPEADHH@Z ; ImGui::TempInputText
PUBLIC	?TempInputScalar@ImGui@@YA_NAEBUImRect@@IPEBDHPEAX1PEBX3@Z ; ImGui::TempInputScalar
PUBLIC	?TempInputIsActive@ImGui@@YA_NI@Z		; ImGui::TempInputIsActive
PUBLIC	?GetInputTextState@ImGui@@YAPEAUImGuiInputTextState@@I@Z ; ImGui::GetInputTextState
PUBLIC	?ColorTooltip@ImGui@@YAXPEBDPEBMH@Z		; ImGui::ColorTooltip
PUBLIC	?ColorEditOptionsPopup@ImGui@@YAXPEBMH@Z	; ImGui::ColorEditOptionsPopup
PUBLIC	?ColorPickerOptionsPopup@ImGui@@YAXPEBMH@Z	; ImGui::ColorPickerOptionsPopup
PUBLIC	?PlotEx@ImGui@@YAHW4ImGuiPlotType@@PEBDP6AMPEAXH@Z2HH1MMUImVec2@@@Z ; ImGui::PlotEx
PUBLIC	??$DragBehaviorT@HHM@ImGui@@YA_NHPEAHMHHPEBDMH@Z ; ImGui::DragBehaviorT<int,int,float>
PUBLIC	??$DragBehaviorT@IHM@ImGui@@YA_NHPEAIMIIPEBDMH@Z ; ImGui::DragBehaviorT<unsigned int,int,float>
PUBLIC	??$DragBehaviorT@_J_JN@ImGui@@YA_NHPEA_JM_J1PEBDMH@Z ; ImGui::DragBehaviorT<__int64,__int64,double>
PUBLIC	??$DragBehaviorT@_K_JN@ImGui@@YA_NHPEA_KM_K1PEBDMH@Z ; ImGui::DragBehaviorT<unsigned __int64,__int64,double>
PUBLIC	??$DragBehaviorT@MMM@ImGui@@YA_NHPEAMMMMPEBDMH@Z ; ImGui::DragBehaviorT<float,float,float>
PUBLIC	??$DragBehaviorT@NNN@ImGui@@YA_NHPEANMNNPEBDMH@Z ; ImGui::DragBehaviorT<double,double,double>
PUBLIC	??$SliderBehaviorT@HHM@ImGui@@YA_NAEBUImRect@@IHPEAHHHPEBDMHPEAU1@@Z ; ImGui::SliderBehaviorT<int,int,float>
PUBLIC	??$SliderBehaviorT@IHM@ImGui@@YA_NAEBUImRect@@IHPEAIIIPEBDMHPEAU1@@Z ; ImGui::SliderBehaviorT<unsigned int,int,float>
PUBLIC	??$SliderBehaviorT@_J_JN@ImGui@@YA_NAEBUImRect@@IHPEA_J_J2PEBDMHPEAU1@@Z ; ImGui::SliderBehaviorT<__int64,__int64,double>
PUBLIC	??$SliderBehaviorT@_K_JN@ImGui@@YA_NAEBUImRect@@IHPEA_K_K2PEBDMHPEAU1@@Z ; ImGui::SliderBehaviorT<unsigned __int64,__int64,double>
PUBLIC	??$SliderBehaviorT@MMM@ImGui@@YA_NAEBUImRect@@IHPEAMMMPEBDMHPEAU1@@Z ; ImGui::SliderBehaviorT<float,float,float>
PUBLIC	??$SliderBehaviorT@NNN@ImGui@@YA_NAEBUImRect@@IHPEANNNPEBDMHPEAU1@@Z ; ImGui::SliderBehaviorT<double,double,double>
PUBLIC	??0ImGuiPlotArrayGetterData@@QEAA@PEBMH@Z	; ImGuiPlotArrayGetterData::ImGuiPlotArrayGetterData
PUBLIC	??$RoundScalarWithFormatT@HH@ImGui@@YAHPEBDHH@Z	; ImGui::RoundScalarWithFormatT<int,int>
PUBLIC	??$RoundScalarWithFormatT@IH@ImGui@@YAIPEBDHI@Z	; ImGui::RoundScalarWithFormatT<unsigned int,int>
PUBLIC	??$RoundScalarWithFormatT@_J_J@ImGui@@YA_JPEBDH_J@Z ; ImGui::RoundScalarWithFormatT<__int64,__int64>
PUBLIC	??$RoundScalarWithFormatT@_K_J@ImGui@@YA_KPEBDH_K@Z ; ImGui::RoundScalarWithFormatT<unsigned __int64,__int64>
PUBLIC	??$RoundScalarWithFormatT@MM@ImGui@@YAMPEBDHM@Z	; ImGui::RoundScalarWithFormatT<float,float>
PUBLIC	??$RoundScalarWithFormatT@NN@ImGui@@YANPEBDHN@Z	; ImGui::RoundScalarWithFormatT<double,double>
PUBLIC	??$SliderCalcRatioFromValueT@HM@ImGui@@YAMHHHHMM@Z ; ImGui::SliderCalcRatioFromValueT<int,float>
PUBLIC	??$SliderCalcRatioFromValueT@IM@ImGui@@YAMHIIIMM@Z ; ImGui::SliderCalcRatioFromValueT<unsigned int,float>
PUBLIC	??$SliderCalcRatioFromValueT@_JN@ImGui@@YAMH_J00MM@Z ; ImGui::SliderCalcRatioFromValueT<__int64,double>
PUBLIC	??$SliderCalcRatioFromValueT@_KN@ImGui@@YAMH_K00MM@Z ; ImGui::SliderCalcRatioFromValueT<unsigned __int64,double>
PUBLIC	??$SliderCalcRatioFromValueT@MM@ImGui@@YAMHMMMMM@Z ; ImGui::SliderCalcRatioFromValueT<float,float>
PUBLIC	??$SliderCalcRatioFromValueT@NN@ImGui@@YAMHNNNMM@Z ; ImGui::SliderCalcRatioFromValueT<double,double>
PUBLIC	??_C@_1DM@HCDEHEAL@?$AAE?$AA?3?$AA?2?$AAr?$AAe?$AAp?$AAs?$AA?2?$AAo?$AAc?$AAo?$AAr?$AAn?$AAu?$AAt@ ; `string'
PUBLIC	??_C@_1BC@IIGHOJGM@?$AAi?$AAd?$AAx?$AA?5?$AA?$DM?$AA?$DN?$AA?5?$AA1@ ; `string'
PUBLIC	??_C@_13COJANIEC@?$AA0@				; `string'
PUBLIC	??_C@_1CC@IHACEFEE@?$AAI?$AAt?$AAe?$AAm?$AAs?$AAC?$AAo?$AAu?$AAn?$AAt?$AA?5?$AA?$DN?$AA?$DN?$AA?5?$AA?9@ ; `string'
PUBLIC	?_OptionsStorage@?1??__local_stdio_scanf_options@@9@4_KA ; `__local_stdio_scanf_options'::`2'::_OptionsStorage
PUBLIC	??_C@_1EO@FHOHIDNF@?$AAE?$AA?3?$AA?2?$AAr?$AAe?$AAp?$AAs?$AA?2?$AAo?$AAc?$AAo?$AAr?$AAn?$AAu?$AAt@ ; `string'
PUBLIC	??_C@_1HM@PJKJLKEH@?$AAt?$AAa?$AAb?$AA?9?$AA?$DO?$AAN?$AAa?$AAm?$AAe?$AAO?$AAf?$AAf?$AAs?$AAe?$AAt@ ; `string'
PUBLIC	??_C@_1FA@BMDADGB@?$AAE?$AA?3?$AA?1?$AAr?$AAe?$AAp?$AAs?$AA?1?$AAo?$AAc?$AAo?$AAr?$AAn?$AAu?$AAt@ ; `string'
PUBLIC	??_C@_1BE@HMGDGFIB@?$AAt?$AAe?$AAx?$AAt?$AA?5?$AA?$CB?$AA?$DN?$AA?5?$AA0@ ; `string'
PUBLIC	??_C@_1HG@LHACLJHI@?$AAm?$AAo?$AAu?$AAs?$AAe?$AA_?$AAb?$AAu?$AAt?$AAt?$AAo?$AAn?$AA?5?$AA?$DO?$AA?$DN@ ; `string'
PUBLIC	??_C@_1FC@KJEAANOI@?$AAs?$AAi?$AAz?$AAe?$AA_?$AAa?$AAr?$AAg?$AA?4?$AAx?$AA?5?$AA?$CB?$AA?$DN?$AA?5?$AA0@ ; `string'
PUBLIC	??_C@_08ENAFOMOP@?$CDSCROLLX@			; `string'
PUBLIC	??_C@_08FEBONNKO@?$CDSCROLLY@			; `string'
PUBLIC	??_C@_1CM@GFPJIOBE@?$AAs?$AAc?$AAr?$AAo?$AAl?$AAl?$AAb?$AAa?$AAr?$AA_?$AAs?$AAi?$AAz?$AAe?$AA?5@ ; `string'
PUBLIC	??_C@_1FI@OFJDJLOI@?$AAI?$AAm?$AAM?$AAa?$AAx?$AA?$CI?$AAs?$AAi?$AAz?$AAe?$AA_?$AAc?$AAo?$AAn?$AAt@ ; `string'
PUBLIC	??_C@_06EBHDMMP@?$CDimage@			; `string'
PUBLIC	??_C@_03JHEALCLB@?$FLx?$FN@			; `string'
PUBLIC	??_C@_03PFOPMNLJ@?$FL?5?$FN@			; `string'
PUBLIC	??_C@_03KFJJABDB@?$CIx?$CJ@			; `string'
PUBLIC	??_C@_03MHDGHODJ@?$CI?5?$CJ@			; `string'
PUBLIC	??_C@_06KLKJBGEJ@?$CF?40f?$CF?$CF@		; `string'
PUBLIC	??_C@_1LA@FPPCKOP@?$AAI?$AAm?$AAI?$AAs?$AAP?$AAo?$AAw?$AAe?$AAr?$AAO?$AAf?$AAT?$AAw?$AAo?$AA?$CI@ ; `string'
PUBLIC	??_C@_02LLHJFGPH@?5?$HM@			; `string'
PUBLIC	??_C@_0CB@GNHPAIID@?9?9?9?9?9?9?9?9?9?9?9?9?9?9?9?9?9?9?9?9?9?9?9?9?9?9?9?9?9?9?9@ ; `string'
PUBLIC	??_C@_1EE@HJGLFFIG@?$AA?$CK?$AAs?$AAi?$AAz?$AAe?$AA1?$AA?5?$AA?$CL?$AA?5?$AAm?$AAo?$AAu?$AAs?$AAe?$AA_@ ; `string'
PUBLIC	??_C@_1EE@LBEKBPGJ@?$AA?$CK?$AAs?$AAi?$AAz?$AAe?$AA2?$AA?5?$AA?9?$AA?5?$AAm?$AAo?$AAu?$AAs?$AAe?$AA_@ ; `string'
PUBLIC	??_C@_1BAK@ONBANIIG@?$AA?$CI?$AAf?$AAl?$AAa?$AAg?$AAs?$AA?5?$AA?$CG?$AA?5?$AA?$CI?$AAI?$AAm?$AAG?$AAu?$AAi@ ; `string'
PUBLIC	??_C@_1GI@IOEAHNLK@?$AAI?$AAm?$AAI?$AAs?$AAP?$AAo?$AAw?$AAe?$AAr?$AAO?$AAf?$AAT?$AAw?$AAo?$AA?$CI@ ; `string'
PUBLIC	??_C@_0N@JOGGDHMO@?$CD?$CDCombo_?$CF02d@	; `string'
PUBLIC	??_C@_0P@HFPOEILF@?$CKUnknown?5item?$CK@	; `string'
PUBLIC	??_C@_09JKJEEIJP@?$CF?4?$CKs?$CF?$CFd?$CFs@	; `string'
PUBLIC	??_C@_1GE@PMGCKKHF@?$AAd?$AAa?$AAt?$AAa?$AA_?$AAt?$AAy?$AAp?$AAe?$AA?5?$AA?$DO?$AA?$DN?$AA?5?$AA0?$AA?5@ ; `string'
PUBLIC	??_C@_1CO@LEDHMGOL@?$AAo?$AAp?$AA?5?$AA?$DN?$AA?$DN?$AA?5?$AA?8?$AA?$CL?$AA?8?$AA?5?$AA?$HM?$AA?$HM?$AA?5?$AAo?$AAp@ ; `string'
PUBLIC	??_C@_1DC@IAANKGPJ@?$AAp?$AA_?$AAm?$AAi?$AAn?$AA?5?$AA?$CB?$AA?$DN?$AA?5?$AA0?$AA?5?$AA?$CG?$AA?$CG?$AA?5?$AAp@ ; `string'
PUBLIC	??_C@_00CNPNBAHC@@				; `string'
PUBLIC	??_C@_05DMFAOFEI@?$CD?$CDmin@			; `string'
PUBLIC	??_C@_05CONLABCH@?$CD?$CDmax@			; `string'
PUBLIC	??_C@_1JK@KBPJHMJO@?$AA?$CK?$AA?$CI?$AAc?$AAo?$AAn?$AAs?$AAt?$AA?5?$AAI?$AAm?$AAS?$AA3?$AA2?$AA?$CK?$AA?$CJ@ ; `string'
PUBLIC	??_C@_1EK@CNKAEFCM@?$AA?$CK?$AA?$CI?$AAc?$AAo?$AAn?$AAs?$AAt?$AA?5?$AAI?$AAm?$AAU?$AA3?$AA2?$AA?$CK?$AA?$CJ@ ; `string'
PUBLIC	??_C@_1JK@NOHGLDJN@?$AA?$CK?$AA?$CI?$AAc?$AAo?$AAn?$AAs?$AAt?$AA?5?$AAI?$AAm?$AAS?$AA6?$AA4?$AA?$CK?$AA?$CJ@ ; `string'
PUBLIC	??_C@_1EK@CBABBPPD@?$AA?$CK?$AA?$CI?$AAc?$AAo?$AAn?$AAs?$AAt?$AA?5?$AAI?$AAm?$AAU?$AA6?$AA4?$AA?$CK?$AA?$CJ@ ; `string'
PUBLIC	??_C@_1MA@ELIKKGKL@?$AA?$CK?$AA?$CI?$AAc?$AAo?$AAn?$AAs?$AAt?$AA?5?$AAf?$AAl?$AAo?$AAa?$AAt?$AA?$CK?$AA?$CJ@ ; `string'
PUBLIC	??_C@_1OA@OEHGOKMN@?$AA?$CK?$AA?$CI?$AAc?$AAo?$AAn?$AAs?$AAt?$AA?5?$AAd?$AAo?$AAu?$AAb?$AAl?$AAe?$AA?$CK@ ; `string'
PUBLIC	??_C@_08FKIHKODH@?$CF?40f?5deg@			; `string'
PUBLIC	??_C@_1CC@LLIJAMKA@?$AAg?$AA?4?$AAA?$AAc?$AAt?$AAi?$AAv?$AAe?$AAI?$AAd?$AA?5?$AA?$DN?$AA?$DN?$AA?5?$AAi@ ; `string'
PUBLIC	??_C@_01JOAMLHOP@?9@				; `string'
PUBLIC	??_C@_01MIFGBAGJ@?$CL@				; `string'
PUBLIC	??_C@_06DNBDMDIL@?$CF?$CF?4?$CFdf@		; `string'
PUBLIC	??_C@_04JIMNDDED@?$CF08X@			; `string'
PUBLIC	??_C@_1FC@IFNBIILP@?$AA?$CB?$AA?$CI?$AAf?$AAl?$AAa?$AAg?$AAs?$AA?5?$AA?$CG?$AA?5?$AAI?$AAm?$AAG?$AAu?$AAi@ ; `string'
PUBLIC	??_C@_1CA@MNHDBBDP@?$AAp?$AAo?$AAs?$AA?5?$AA?$DM?$AA?$DN?$AA?5?$AAt?$AAe?$AAx?$AAt?$AA_?$AAl?$AAe?$AAn@ ; `string'
PUBLIC	??_C@_1DG@IEAPMEMO@?$AAt?$AAe?$AAx?$AAt?$AA_?$AAl?$AAe?$AAn?$AA?5?$AA?$DM?$AA?5?$AAo?$AAb?$AAj?$AA?9@ ; `string'
PUBLIC	??_C@_1EO@BIHLMMPF@?$AAE?$AA?3?$AA?2?$AAr?$AAe?$AAp?$AAs?$AA?2?$AAo?$AAc?$AAo?$AAr?$AAn?$AAu?$AAt@ ; `string'
PUBLIC	??_C@_1HI@OHEJKGLD@?$AA?$CI?$AA?$CI?$AAc?$AAh?$AAa?$AAr?$AA?$CK?$AA?$CJ?$AA?$CI?$AAs?$AAt?$AAa?$AAt?$AAe?$AA?9@ ; `string'
PUBLIC	??_C@_1JE@JEJNCKKO@?$AA?$CI?$AA?$CI?$AAc?$AAh?$AAa?$AAr?$AA?$CK?$AA?$CJ?$AA?$CI?$AAs?$AAt?$AAa?$AAt?$AAe?$AA?9@ ; `string'
PUBLIC	??_C@_1EA@OOMMGKHM@?$AAp?$AAo?$AAs?$AA?5?$AA?$CL?$AA?5?$AAb?$AAy?$AAt?$AAe?$AAs?$AA_?$AAc?$AAo?$AAu@ ; `string'
PUBLIC	??_C@_1GI@EFFMAEBL@?$AAe?$AAd?$AAi?$AAt?$AA_?$AAs?$AAt?$AAa?$AAt?$AAe?$AA?9?$AA?$DO?$AAI?$AAD?$AA?5@ ; `string'
PUBLIC	??_C@_1DM@LDGOBGNL@?$AAB?$AAu?$AAf?$AA?5?$AA?$DN?$AA?$DN?$AA?5?$AAe?$AAd?$AAi?$AAt?$AA_?$AAs?$AAt?$AAa@ ; `string'
PUBLIC	??_C@_1DE@KCJLPEOI@?$AAb?$AAu?$AAf?$AA?5?$AA?$CB?$AA?$DN?$AA?5?$AA0?$AA?5?$AA?$CG?$AA?$CG?$AA?5?$AAb?$AAu?$AAf@ ; `string'
PUBLIC	??_C@_1LI@BDNHGOFF@?$AA?$CB?$AA?$CI?$AA?$CI?$AAf?$AAl?$AAa?$AAg?$AAs?$AA?5?$AA?$CG?$AA?5?$AAI?$AAm?$AAG?$AAu@ ; `string'
PUBLIC	??_C@_1MG@MGOPIKJM@?$AA?$CB?$AA?$CI?$AA?$CI?$AAf?$AAl?$AAa?$AAg?$AAs?$AA?5?$AA?$CG?$AA?5?$AAI?$AAm?$AAG?$AAu@ ; `string'
PUBLIC	??_C@_1BM@CBGPMFEC@?$AAc?$AAa?$AAl?$AAl?$AAb?$AAa?$AAc?$AAk?$AA?5?$AA?$CB?$AA?$DN?$AA?5?$AA0@ ; `string'
PUBLIC	??_C@_1DC@CMKEKNGP@?$AAs?$AAt?$AAa?$AAt?$AAe?$AA?5?$AA?$CG?$AA?$CG?$AA?5?$AAs?$AAt?$AAa?$AAt?$AAe?$AA?9@ ; `string'
PUBLIC	??_C@_1NI@EFFIGGBI@?$AAp?$AAa?$AAs?$AAs?$AAw?$AAo?$AAr?$AAd?$AA_?$AAf?$AAo?$AAn?$AAt?$AA?9?$AA?$DO@ ; `string'
PUBLIC	??_C@_1BG@FOPGMADN@?$AAs?$AAt?$AAa?$AAt?$AAe?$AA?5?$AA?$CB?$AA?$DN?$AA?5?$AA0@ ; `string'
PUBLIC	??_C@_1OC@MAFKNLH@?$AAi?$AAo?$AA?4?$AAK?$AAe?$AAy?$AAM?$AAo?$AAd?$AAs?$AA?5?$AA?$DN?$AA?$DN?$AA?5?$AAG@ ; `string'
PUBLIC	??_C@_1EO@GEAEFBFI@?$AAc?$AAa?$AAl?$AAl?$AAb?$AAa?$AAc?$AAk?$AA_?$AAd?$AAa?$AAt?$AAa?$AA?4?$AAB@ ; `string'
PUBLIC	??_C@_1FK@GDPCIOA@?$AAc?$AAa?$AAl?$AAl?$AAb?$AAa?$AAc?$AAk?$AA_?$AAd?$AAa?$AAt?$AAa?$AA?4?$AAB@ ; `string'
PUBLIC	??_C@_1DK@HOPDKFNI@?$AAc?$AAa?$AAl?$AAl?$AAb?$AAa?$AAc?$AAk?$AA_?$AAd?$AAa?$AAt?$AAa?$AA?4?$AAF@ ; `string'
PUBLIC	??_C@_1HG@EHLBBEIB@?$AAc?$AAa?$AAl?$AAl?$AAb?$AAa?$AAc?$AAk?$AA_?$AAd?$AAa?$AAt?$AAa?$AA?4?$AAB@ ; `string'
PUBLIC	??_C@_1DG@CHDFECEK@?$AAa?$AAp?$AAp?$AAl?$AAy?$AA_?$AAn?$AAe?$AAw?$AA_?$AAt?$AAe?$AAx?$AAt?$AA_@ ; `string'
PUBLIC	??_C@_1EE@MOOHJKEO@?$AAa?$AAp?$AAp?$AAl?$AAy?$AA_?$AAn?$AAe?$AAw?$AA_?$AAt?$AAe?$AAx?$AAt?$AA_@ ; `string'
PUBLIC	??_C@_03CEFFAPNG@?$CD?$CDX@			; `string'
PUBLIC	??_C@_03DNEODOJH@?$CD?$CDY@			; `string'
PUBLIC	??_C@_03BGGDGNFE@?$CD?$CDZ@			; `string'
PUBLIC	??_C@_03KDMNBDBJ@?$CD?$CDW@			; `string'
PUBLIC	??_C@_03GOOLIKIF@?$CF3d@			; `string'
PUBLIC	??_C@_05FELKPNOB@R?3?$CF3d@			; `string'
PUBLIC	??_C@_05HKBGOMJ@G?3?$CF3d@			; `string'
PUBLIC	??_C@_05FHGMPPHK@B?3?$CF3d@			; `string'
PUBLIC	??_C@_05NBPIINNE@A?3?$CF3d@			; `string'
PUBLIC	??_C@_05PGPHNMBM@H?3?$CF3d@			; `string'
PUBLIC	??_C@_05JPOGCOEE@S?3?$CF3d@			; `string'
PUBLIC	??_C@_05MPCLLPPH@V?3?$CF3d@			; `string'
PUBLIC	??_C@_05ONBKDNLK@?$CF0?43f@			; `string'
PUBLIC	??_C@_07CCOKENNH@R?3?$CF0?43f@			; `string'
PUBLIC	??_C@_07BGLBHCJI@G?3?$CF0?43f@			; `string'
PUBLIC	??_C@_07FOFBHMPM@B?3?$CF0?43f@			; `string'
PUBLIC	??_C@_07NANOHLBP@A?3?$CF0?43f@			; `string'
PUBLIC	??_C@_07MPJBGADE@H?3?$CF0?43f@			; `string'
PUBLIC	??_C@_07OOEAENEJ@S?3?$CF0?43f@			; `string'
PUBLIC	??_C@_07KGKAEDCN@V?3?$CF0?43f@			; `string'
PUBLIC	??_C@_1HC@IFIJNDDD@?$AAI?$AAm?$AAI?$AAs?$AAP?$AAo?$AAw?$AAe?$AAr?$AAO?$AAf?$AAT?$AAw?$AAo?$AA?$CI@ ; `string'
PUBLIC	??_C@_1GO@CDHIBPHM@?$AAI?$AAm?$AAI?$AAs?$AAP?$AAo?$AAw?$AAe?$AAr?$AAO?$AAf?$AAT?$AAw?$AAo?$AA?$CI@ ; `string'
PUBLIC	??_C@_07FFNLLALM@M?30?4000@			; `string'
PUBLIC	??_C@_05BNGMMMAL@M?3000@			; `string'
PUBLIC	??_C@_07JKKCBBMM@context@			; `string'
PUBLIC	??_C@_0BC@CKPCOFBK@?$CD?$CF02X?$CF02X?$CF02X?$CF02X@ ; `string'
PUBLIC	??_C@_0O@MBPBDFLP@?$CD?$CF02X?$CF02X?$CF02X@	; `string'
PUBLIC	??_C@_06MNCEJPDI@?$CD?$CDText@			; `string'
PUBLIC	??_C@_0BB@DDMGLOLI@?$CF02X?$CF02X?$CF02X?$CF02X@ ; `string'
PUBLIC	??_C@_0N@KODLFHPJ@?$CF02X?$CF02X?$CF02X@	; `string'
PUBLIC	??_C@_0O@GLNBIEEK@?$CD?$CDColorButton@		; `string'
PUBLIC	??_C@_06MAKAMBBI@picker@			; `string'
PUBLIC	??_C@_08HHEANBBL@?$CD?$CDpicker@		; `string'
PUBLIC	??_C@_06LFKNFKEK@_COL3F@			; `string'
PUBLIC	??_C@_06LAOCEMMP@_COL4F@			; `string'
PUBLIC	??_C@_1HA@IEGAFBEB@?$AAI?$AAm?$AAI?$AAs?$AAP?$AAo?$AAw?$AAe?$AAr?$AAO?$AAf?$AAT?$AAw?$AAo?$AA?$CI@ ; `string'
PUBLIC	??_C@_03PPLPHHG@hsv@				; `string'
PUBLIC	??_C@_02CPGMCOJE@sv@				; `string'
PUBLIC	??_C@_03GKJJMKFG@hue@				; `string'
PUBLIC	??_C@_05IAEKHIAN@alpha@				; `string'
PUBLIC	??_C@_07EDIFFIJI@Current@			; `string'
PUBLIC	??_C@_09CDENILGE@?$CD?$CDcurrent@		; `string'
PUBLIC	??_C@_08DCPBJHAO@Original@			; `string'
PUBLIC	??_C@_0L@IGJKOBOK@?$CD?$CDoriginal@		; `string'
PUBLIC	??_C@_05JCABMAIH@?$CD?$CDrgb@			; `string'
PUBLIC	??_C@_05JICEKLIF@?$CD?$CDhsv@			; `string'
PUBLIC	??_C@_05BOAMFJMJ@?$CD?$CDhex@			; `string'
PUBLIC	??_C@_05PDOBBJNA@Color@				; `string'
PUBLIC	??_C@_1HE@ECJOEGME@?$AAI?$AAm?$AAI?$AAs?$AAP?$AAo?$AAw?$AAe?$AAr?$AAO?$AAf?$AAT?$AAw?$AAo?$AA?$CI@ ; `string'
PUBLIC	??_C@_09JCCDBEFL@?$CD?$CDpreview@		; `string'
PUBLIC	??_C@_0DF@FAPNKOHO@?$CD?$CF02X?$CF02X?$CF02X?6R?3?5?$CFd?0?5G?3?5?$CFd?0?5B?3?5@ ; `string'
PUBLIC	??_C@_0EC@EBPMGCGK@?$CD?$CF02X?$CF02X?$CF02X?$CF02X?6R?3?$CFd?0?5G?3?$CFd?0?5B@ ; `string'
PUBLIC	??_C@_0BK@HKNBICJE@H?3?5?$CF?43f?0?5S?3?5?$CF?43f?0?5V?3?5?$CF?43f@ ; `string'
PUBLIC	??_C@_0CD@EEDEAEPG@H?3?5?$CF?43f?0?5S?3?5?$CF?43f?0?5V?3?5?$CF?43f?0?5A?3?5?$CF@ ; `string'
PUBLIC	??_C@_03ICFFBAI@RGB@				; `string'
PUBLIC	??_C@_03CAADKAK@HSV@				; `string'
PUBLIC	??_C@_03CJOBKKAE@Hex@				; `string'
PUBLIC	??_C@_06FDBEKFBH@0?4?4255@			; `string'
PUBLIC	??_C@_0L@MDNPBJBM@0?400?4?41?400@		; `string'
PUBLIC	??_C@_09NMCCFHEI@Copy?5as?4?4@			; `string'
PUBLIC	??_C@_04OPMHGHMB@Copy@				; `string'
PUBLIC	??_C@_0BN@GKCJMPCH@?$CI?$CF?43ff?0?5?$CF?43ff?0?5?$CF?43ff?0?5?$CF?43ff?$CJ@ ; `string'
PUBLIC	??_C@_0O@EJHNAHBL@?$CI?$CFd?0?$CFd?0?$CFd?0?$CFd?$CJ@ ; `string'
PUBLIC	??_C@_0N@KFBFGFJL@?$CD?$CDselectable@		; `string'
PUBLIC	??_C@_0O@KNMNNHNH@?$CD?$CDdummypicker@		; `string'
PUBLIC	??_C@_09KEDLMDJL@Alpha?5Bar@			; `string'
PUBLIC	??_C@_1GM@OMMPBCGC@?$AAb?$AAu?$AAt?$AAt?$AAo?$AAn?$AA_?$AAf?$AAl?$AAa?$AAg?$AAs?$AA?5?$AA?$CG?$AA?5@ ; `string'
PUBLIC	??_C@_02IEBMKJDF@?$CD?$CD@			; `string'
PUBLIC	??_C@_01PPODPGHN@?$DO@				; `string'
PUBLIC	??_C@_09GHACPMKF@?$CDTreePush@			; `string'
PUBLIC	??_C@_1DC@KOOPJPAL@?$AAw?$AAi?$AAn?$AAd?$AAo?$AAw?$AA?9?$AA?$DO?$AAI?$AAD?$AAS?$AAt?$AAa?$AAc?$AAk@ ; `string'
PUBLIC	??_C@_1EG@HCGMCBDC@?$AAv?$AA_?$AAi?$AAd?$AAx?$AA?5?$AA?$DO?$AA?$DN?$AA?5?$AA0?$AA?5?$AA?$CG?$AA?$CG?$AA?5?$AAv@ ; `string'
PUBLIC	??_C@_0BE@OBCBLNMM@?$CFd?3?5?$CF8?44g?6?$CFd?3?5?$CF8?44g@ ; `string'
PUBLIC	??_C@_09OADNPGHP@?$CFd?3?5?$CF8?44g@		; `string'
PUBLIC	??_C@_1EK@JIGPMMPH@?$AAv?$AA1?$AA_?$AAi?$AAd?$AAx?$AA?5?$AA?$DO?$AA?$DN?$AA?5?$AA0?$AA?5?$AA?$CG?$AA?$CG?$AA?5@ ; `string'
PUBLIC	??_C@_04LOAJBDKD@true@				; `string'
PUBLIC	??_C@_05LAPONLG@false@				; `string'
PUBLIC	??_C@_06DJHOIPC@?$CFs?3?5?$CFs@			; `string'
PUBLIC	??_C@_06GBEGMGE@?$CFs?3?5?$CFd@			; `string'
PUBLIC	??_C@_07EKEPIENH@?$CF?$CFs?3?5?$CFs@		; `string'
PUBLIC	??_C@_08KELGKKHF@?$CFs?3?5?$CF?43f@		; `string'
PUBLIC	??_C@_1FK@BNPKANMO@?$AAc?$AAo?$AAu?$AAn?$AAt?$AA?5?$AA?$DN?$AA?$DN?$AA?5?$AA?$CI?$AA?$CI?$AAi?$AAn?$AAt?$AA?$CJ@ ; `string'
PUBLIC	??_C@_1DK@MIADNLCN@?$AA?$CB?$AAw?$AAi?$AAn?$AAd?$AAo?$AAw?$AA?9?$AA?$DO?$AAD?$AAC?$AA?4?$AAM?$AAe?$AAn@ ; `string'
PUBLIC	??_C@_09FHPMMDGK@?$CD?$CDmenubar@		; `string'
PUBLIC	??_C@_1GC@NKCHGHAD@?$AAw?$AAi?$AAn?$AAd?$AAo?$AAw?$AA?9?$AA?$DO?$AAD?$AAC?$AA?4?$AAN?$AAa?$AAv?$AAL@ ; `string'
PUBLIC	??_C@_1FC@MMAFNJJP@?$AAw?$AAi?$AAn?$AAd?$AAo?$AAw?$AA?9?$AA?$DO?$AAF?$AAl?$AAa?$AAg?$AAs?$AA?5?$AA?$CG@ ; `string'
PUBLIC	??_C@_1DI@HJHPMKIH@?$AAw?$AAi?$AAn?$AAd?$AAo?$AAw?$AA?9?$AA?$DO?$AAD?$AAC?$AA?4?$AAM?$AAe?$AAn?$AAu@ ; `string'
PUBLIC	??_C@_0O@BKOLOJFE@?$CD?$CDMainMenuBar@		; `string'
PUBLIC	??_C@_1HE@HMPOLDED@?$AA?$CI?$AAt?$AAa?$AAb?$AA_?$AAb?$AAa?$AAr?$AA?5?$AA?$CB?$AA?$DN?$AA?5?$AA0?$AA?$CJ?$AA?5@ ; `string'
PUBLIC	??_C@_1GG@ODBMJKON@?$AAt?$AAa?$AAb?$AA?9?$AA?$DO?$AAL?$AAa?$AAs?$AAt?$AAF?$AAr?$AAa?$AAm?$AAe?$AAV@ ; `string'
PUBLIC	??_C@_1CE@HKABMAAD@?$AAt?$AAa?$AAb?$AA?9?$AA?$DO?$AAW?$AAi?$AAd?$AAt?$AAh?$AA?5?$AA?$DO?$AA?5?$AA0?$AA?4@ ; `string'
PUBLIC	??_C@_1CO@FGAFEEBL@?$AAd?$AAi?$AAr?$AA?5?$AA?$DN?$AA?$DN?$AA?5?$AA?9?$AA1?$AA?5?$AA?$HM?$AA?$HM?$AA?5?$AAd?$AAi@ ; `string'
PUBLIC	??_C@_1EE@NGAACFPK@?$AAt?$AAa?$AAb?$AA_?$AAb?$AAa?$AAr?$AA?9?$AA?$DO?$AAR?$AAe?$AAo?$AAr?$AAd?$AAe@ ; `string'
PUBLIC	??_C@_03CFMEKBHF@?$CD?$CD?$DM@			; `string'
PUBLIC	??_C@_03BHPCMDPH@?$CD?$CD?$DO@			; `string'
PUBLIC	??_C@_03CPFCAGPK@?$CD?$CDv@			; `string'
PUBLIC	??_C@_1LA@GNEGANEK@?$AA?$CI?$AAt?$AAa?$AAb?$AA_?$AAb?$AAa?$AAr?$AA?$CJ?$AA?5?$AA?$CG?$AA?$CG?$AA?5?$AA?$CC?$AAB@ ; `string'
PUBLIC	??_C@_1JI@HFPIFMIP@?$AAt?$AAa?$AAb?$AA_?$AAb?$AAa?$AAr?$AA?5?$AA?$CB?$AA?$DN?$AA?5?$AA0?$AA?5?$AA?$CG?$AA?$CG@ ; `string'
PUBLIC	??_C@_1DK@HGEILAOB@?$AAt?$AAa?$AAb?$AA_?$AAb?$AAa?$AAr?$AA?9?$AA?$DO?$AAL?$AAa?$AAs?$AAt?$AAT?$AAa@ ; `string'
PUBLIC	??_C@_04EBNJJJJI@?$CF?4?$CKs@			; `string'
PUBLIC	??_C@_1CI@FDDNDGMG@?$AAt?$AAa?$AAb?$AA_?$AAb?$AAa?$AAr?$AA?9?$AA?$DO?$AAW?$AAa?$AAn?$AAt?$AAL?$AAa@ ; `string'
PUBLIC	??_C@_1BK@HMBBPDPB@?$AAw?$AAi?$AAd?$AAt?$AAh?$AA?5?$AA?$DO?$AA?5?$AA0?$AA?4?$AA0?$AAf@ ; `string'
PUBLIC	??_C@_01NBENCBCI@?$CK@				; `string'
PUBLIC	??_C@_1CC@HNMGCLDB@?$AAc?$AAo?$AAl?$AAu?$AAm?$AAn?$AA_?$AAi?$AAn?$AAd?$AAe?$AAx?$AA?5?$AA?$DO?$AA?5@ ; `string'
PUBLIC	??_C@_1GE@CFLLPKGA@?$AAg?$AA?4?$AAA?$AAc?$AAt?$AAi?$AAv?$AAe?$AAI?$AAd?$AA?5?$AA?$DN?$AA?$DN?$AA?5?$AAc@ ; `string'
PUBLIC	??_C@_1EK@FCGFMMCK@?$AAc?$AAo?$AAl?$AAu?$AAm?$AAn?$AA_?$AAi?$AAn?$AAd?$AAe?$AAx?$AA?5?$AA?$DM?$AA?5@ ; `string'
PUBLIC	??_C@_1BK@FLGDBJKG@?$AAc?$AAo?$AAl?$AAu?$AAm?$AAn?$AAs?$AA?5?$AA?$CB?$AA?$DN?$AA?5?$AA0@ ; `string'
PUBLIC	??_C@_1FK@BKCOEDF@?$AAc?$AAm?$AAd?$AA_?$AAs?$AAi?$AAz?$AAe?$AA?5?$AA?$DN?$AA?$DN?$AA?5?$AAw?$AAi?$AAn@ ; `string'
PUBLIC	??_C@_07HIFEPIJN@columns@			; `string'
PUBLIC	??_C@_1CG@GDAJJGIO@?$AAc?$AAo?$AAl?$AAu?$AAm?$AAn?$AAs?$AA_?$AAc?$AAo?$AAu?$AAn?$AAt?$AA?5?$AA?$DO@ ; `string'
PUBLIC	??_C@_1DO@BPFJENMI@?$AAw?$AAi?$AAn?$AAd?$AAo?$AAw?$AA?9?$AA?$DO?$AAD?$AAC?$AA?4?$AAC?$AAu?$AAr?$AAr@ ; `string'
PUBLIC	??_C@_1CE@IJEAECLN@?$AAc?$AAo?$AAl?$AAu?$AAm?$AAn?$AAs?$AA?9?$AA?$DO?$AAI?$AAD?$AA?5?$AA?$DN?$AA?$DN?$AA?5@ ; `string'
PUBLIC	??_C@_1CM@HCFAHNAF@?$AAc?$AAo?$AAl?$AAu?$AAm?$AAn?$AAs?$AA?9?$AA?$DO?$AAC?$AAu?$AAr?$AAr?$AAe?$AAn@ ; `string'
PUBLIC	??_C@_1DO@NPHOAPAC@?$AAi?$AAt?$AA?5?$AA?$DO?$AA?$DN?$AA?5?$AAD?$AAa?$AAt?$AAa?$AA?5?$AA?$CG?$AA?$CG?$AA?5?$AAi@ ; `string'
PUBLIC	??_C@_1DK@JJGEFOJO@?$AAi?$AAt?$AA?5?$AA?$DO?$AA?$DN?$AA?5?$AAD?$AAa?$AAt?$AAa?$AA?5?$AA?$CG?$AA?$CG?$AA?5?$AAi@ ; `string'
PUBLIC	??_C@_1BC@KCECIPDP@?$AAS?$AAi?$AAz?$AAe?$AA?5?$AA?$DO?$AA?5?$AA0@ ; `string'
PUBLIC	??_C@_1BC@DCMHDKFO@?$AAi?$AA?5?$AA?$DM?$AA?5?$AAS?$AAi?$AAz?$AAe@ ; `string'
PUBLIC	??_C@_1FC@BIEMKEOL@?$AAp?$AA?5?$AA?$DO?$AA?$DN?$AA?5?$AAB?$AAu?$AAf?$AA?4?$AAD?$AAa?$AAt?$AAa?$AA?5?$AA?$CG@ ; `string'
PUBLIC	__real@00000000
PUBLIC	__real@0000000000000000
PUBLIC	__real@00800000
PUBLIC	__real@358637bd
PUBLIC	__real@3727c5ac
PUBLIC	__real@38d1b717
PUBLIC	__real@3b808081
PUBLIC	__real@3c23d70a
PUBLIC	__real@3cdd2f1b
PUBLIC	__real@3da3d70a
PUBLIC	__real@3dcccccd
PUBLIC	__real@3e09374c
PUBLIC	__real@3e19999a
PUBLIC	__real@3e4ccccd
PUBLIC	__real@3e800000
PUBLIC	__real@3e99999a
PUBLIC	__real@3ecccccd
PUBLIC	__real@3f000000
PUBLIC	__real@3f0ccccd
PUBLIC	__real@3f19999a
PUBLIC	__real@3f266666
PUBLIC	__real@3f333333
PUBLIC	__real@3f350481
PUBLIC	__real@3f400000
PUBLIC	__real@3f4ccccd
PUBLIC	__real@3f5db22d
PUBLIC	__real@3f5db3d0
PUBLIC	__real@3f7ff972
PUBLIC	__real@3f800000
PUBLIC	__real@3f99999a
PUBLIC	__real@3fb33333
PUBLIC	__real@3fc00000
PUBLIC	__real@3fe0000000000000
PUBLIC	__real@3ff0000000000000
PUBLIC	__real@40000000
PUBLIC	__real@4024000000000000
PUBLIC	__real@403f5c29
PUBLIC	__real@40400000
PUBLIC	__real@40490fdb
PUBLIC	__real@4059000000000000
PUBLIC	__real@40666666
PUBLIC	__real@40800000
PUBLIC	__real@40a00000
PUBLIC	__real@40c00000
PUBLIC	__real@40c90fdb
PUBLIC	__real@40eccccd
PUBLIC	__real@41000000
PUBLIC	__real@41200000
PUBLIC	__real@41400000
PUBLIC	__real@41a00000
PUBLIC	__real@41f00000
PUBLIC	__real@428c0000
PUBLIC	__real@42c80000
PUBLIC	__real@437f0000
PUBLIC	__real@43b40000
PUBLIC	__real@43e0000000000000
PUBLIC	__real@47efffffe0000000
PUBLIC	__real@5f000000
PUBLIC	__real@7effffff
PUBLIC	__real@7f7fffff
PUBLIC	__real@7fdfffffffffffff
PUBLIC	__real@7fefffffffffffff
PUBLIC	__real@bf000000
PUBLIC	__real@bf400000
PUBLIC	__real@bf5db3d0
PUBLIC	__real@bf800000
PUBLIC	__real@c0000000
PUBLIC	__real@c059000000000000
PUBLIC	__real@c2c80000
PUBLIC	__real@feffffff
PUBLIC	__real@ff7fffff
PUBLIC	__real@ffdfffffffffffff
PUBLIC	__real@ffefffffffffffff
PUBLIC	__xmm@437f0000437f0000437f0000437f0000
PUBLIC	__xmm@7fffffff7fffffff7fffffff7fffffff
PUBLIC	__xmm@7fffffffffffffff7fffffffffffffff
PUBLIC	__xmm@80000000000000008000000000000000
PUBLIC	__xmm@80000000800000008000000080000000
EXTRN	__std_terminate:PROC
EXTRN	__imp__wassert:PROC
EXTRN	?GetStyle@ImGui@@YAAEAUImGuiStyle@@XZ:PROC	; ImGui::GetStyle
EXTRN	?Begin@ImGui@@YA_NPEBDPEA_NH@Z:PROC		; ImGui::Begin
EXTRN	?End@ImGui@@YAXXZ:PROC				; ImGui::End
EXTRN	?EndChild@ImGui@@YAXXZ:PROC			; ImGui::EndChild
EXTRN	?SetNextWindowPos@ImGui@@YAXAEBUImVec2@@H0@Z:PROC ; ImGui::SetNextWindowPos
EXTRN	?SetNextWindowSize@ImGui@@YAXAEBUImVec2@@H@Z:PROC ; ImGui::SetNextWindowSize
EXTRN	?SetNextWindowSizeConstraints@ImGui@@YAXAEBUImVec2@@0P6AXPEAUImGuiSizeCallbackData@@@ZPEAX@Z:PROC ; ImGui::SetNextWindowSizeConstraints
EXTRN	?GetContentRegionAvail@ImGui@@YA?AUImVec2@@XZ:PROC ; ImGui::GetContentRegionAvail
EXTRN	?GetScrollMaxY@ImGui@@YAMXZ:PROC		; ImGui::GetScrollMaxY
EXTRN	?PushFont@ImGui@@YAXPEAUImFont@@@Z:PROC		; ImGui::PushFont
EXTRN	?PopFont@ImGui@@YAXXZ:PROC			; ImGui::PopFont
EXTRN	?PushStyleColor@ImGui@@YAXHAEBUImVec4@@@Z:PROC	; ImGui::PushStyleColor
EXTRN	?PopStyleColor@ImGui@@YAXH@Z:PROC		; ImGui::PopStyleColor
EXTRN	?PushStyleVar@ImGui@@YAXHM@Z:PROC		; ImGui::PushStyleVar
EXTRN	?PushStyleVar@ImGui@@YAXHAEBUImVec2@@@Z:PROC	; ImGui::PushStyleVar
EXTRN	?PopStyleVar@ImGui@@YAXH@Z:PROC			; ImGui::PopStyleVar
EXTRN	?GetFontTexUvWhitePixel@ImGui@@YA?AUImVec2@@XZ:PROC ; ImGui::GetFontTexUvWhitePixel
EXTRN	?GetColorU32@ImGui@@YAIHM@Z:PROC		; ImGui::GetColorU32
EXTRN	?GetColorU32@ImGui@@YAIAEBUImVec4@@@Z:PROC	; ImGui::GetColorU32
EXTRN	?PushItemWidth@ImGui@@YAXM@Z:PROC		; ImGui::PushItemWidth
EXTRN	?PopItemWidth@ImGui@@YAXXZ:PROC			; ImGui::PopItemWidth
EXTRN	?SetNextItemWidth@ImGui@@YAXM@Z:PROC		; ImGui::SetNextItemWidth
EXTRN	?CalcItemWidth@ImGui@@YAMXZ:PROC		; ImGui::CalcItemWidth
EXTRN	?PushTextWrapPos@ImGui@@YAXM@Z:PROC		; ImGui::PushTextWrapPos
EXTRN	?PopTextWrapPos@ImGui@@YAXXZ:PROC		; ImGui::PopTextWrapPos
EXTRN	?SameLine@ImGui@@YAXMM@Z:PROC			; ImGui::SameLine
EXTRN	?Indent@ImGui@@YAXM@Z:PROC			; ImGui::Indent
EXTRN	?Unindent@ImGui@@YAXM@Z:PROC			; ImGui::Unindent
EXTRN	?BeginGroup@ImGui@@YAXXZ:PROC			; ImGui::BeginGroup
EXTRN	?EndGroup@ImGui@@YAXXZ:PROC			; ImGui::EndGroup
EXTRN	?GetCursorScreenPos@ImGui@@YA?AUImVec2@@XZ:PROC	; ImGui::GetCursorScreenPos
EXTRN	?SetCursorScreenPos@ImGui@@YAXAEBUImVec2@@@Z:PROC ; ImGui::SetCursorScreenPos
EXTRN	?GetTextLineHeight@ImGui@@YAMXZ:PROC		; ImGui::GetTextLineHeight
EXTRN	?GetTextLineHeightWithSpacing@ImGui@@YAMXZ:PROC	; ImGui::GetTextLineHeightWithSpacing
EXTRN	?GetFrameHeight@ImGui@@YAMXZ:PROC		; ImGui::GetFrameHeight
EXTRN	?PushID@ImGui@@YAXPEBD@Z:PROC			; ImGui::PushID
EXTRN	?PushID@ImGui@@YAXPEBX@Z:PROC			; ImGui::PushID
EXTRN	?PushID@ImGui@@YAXH@Z:PROC			; ImGui::PushID
EXTRN	?PopID@ImGui@@YAXXZ:PROC			; ImGui::PopID
EXTRN	?GetID@ImGui@@YAIPEBD@Z:PROC			; ImGui::GetID
EXTRN	?EndTooltip@ImGui@@YAXXZ:PROC			; ImGui::EndTooltip
EXTRN	?SetTooltip@ImGui@@YAXPEBDZZ:PROC		; ImGui::SetTooltip
EXTRN	?OpenPopup@ImGui@@YAXPEBD@Z:PROC		; ImGui::OpenPopup
EXTRN	?BeginPopup@ImGui@@YA_NPEBDH@Z:PROC		; ImGui::BeginPopup
EXTRN	?EndPopup@ImGui@@YAXXZ:PROC			; ImGui::EndPopup
EXTRN	?OpenPopupOnItemClick@ImGui@@YA_NPEBDH@Z:PROC	; ImGui::OpenPopupOnItemClick
EXTRN	?CloseCurrentPopup@ImGui@@YAXXZ:PROC		; ImGui::CloseCurrentPopup
EXTRN	?LogText@ImGui@@YAXPEBDZZ:PROC			; ImGui::LogText
EXTRN	?BeginDragDropSource@ImGui@@YA_NH@Z:PROC	; ImGui::BeginDragDropSource
EXTRN	?SetDragDropPayload@ImGui@@YA_NPEBDPEBX_KH@Z:PROC ; ImGui::SetDragDropPayload
EXTRN	?EndDragDropSource@ImGui@@YAXXZ:PROC		; ImGui::EndDragDropSource
EXTRN	?BeginDragDropTarget@ImGui@@YA_NXZ:PROC		; ImGui::BeginDragDropTarget
EXTRN	?AcceptDragDropPayload@ImGui@@YAPEBUImGuiPayload@@PEBDH@Z:PROC ; ImGui::AcceptDragDropPayload
EXTRN	?EndDragDropTarget@ImGui@@YAXXZ:PROC		; ImGui::EndDragDropTarget
EXTRN	?PushClipRect@ImGui@@YAXAEBUImVec2@@0_N@Z:PROC	; ImGui::PushClipRect
EXTRN	?PopClipRect@ImGui@@YAXXZ:PROC			; ImGui::PopClipRect
EXTRN	?SetItemDefaultFocus@ImGui@@YAXXZ:PROC		; ImGui::SetItemDefaultFocus
EXTRN	?IsItemHovered@ImGui@@YA_NH@Z:PROC		; ImGui::IsItemHovered
EXTRN	?IsItemActive@ImGui@@YA_NXZ:PROC		; ImGui::IsItemActive
EXTRN	?SetItemAllowOverlap@ImGui@@YAXXZ:PROC		; ImGui::SetItemAllowOverlap
EXTRN	?IsRectVisible@ImGui@@YA_NAEBUImVec2@@0@Z:PROC	; ImGui::IsRectVisible
EXTRN	?BeginChildFrame@ImGui@@YA_NIAEBUImVec2@@H@Z:PROC ; ImGui::BeginChildFrame
EXTRN	?EndChildFrame@ImGui@@YAXXZ:PROC		; ImGui::EndChildFrame
EXTRN	?CalcTextSize@ImGui@@YA?AUImVec2@@PEBD0_NM@Z:PROC ; ImGui::CalcTextSize
EXTRN	?ColorConvertFloat4ToU32@ImGui@@YAIAEBUImVec4@@@Z:PROC ; ImGui::ColorConvertFloat4ToU32
EXTRN	?ColorConvertRGBtoHSV@ImGui@@YAXMMMAEAM00@Z:PROC ; ImGui::ColorConvertRGBtoHSV
EXTRN	?ColorConvertHSVtoRGB@ImGui@@YAXMMMAEAM00@Z:PROC ; ImGui::ColorConvertHSVtoRGB
EXTRN	?IsKeyPressed@ImGui@@YA_NH_N@Z:PROC		; ImGui::IsKeyPressed
EXTRN	?IsMouseClicked@ImGui@@YA_NH_N@Z:PROC		; ImGui::IsMouseClicked
EXTRN	?IsMouseReleased@ImGui@@YA_NH@Z:PROC		; ImGui::IsMouseReleased
EXTRN	?IsMousePosValid@ImGui@@YA_NPEBUImVec2@@@Z:PROC	; ImGui::IsMousePosValid
EXTRN	?IsMouseDragging@ImGui@@YA_NHM@Z:PROC		; ImGui::IsMouseDragging
EXTRN	?SetMouseCursor@ImGui@@YAXH@Z:PROC		; ImGui::SetMouseCursor
EXTRN	?GetClipboardText@ImGui@@YAPEBDXZ:PROC		; ImGui::GetClipboardText
EXTRN	?SetClipboardText@ImGui@@YAXPEBD@Z:PROC		; ImGui::SetClipboardText
EXTRN	?MemAlloc@ImGui@@YAPEAX_K@Z:PROC		; ImGui::MemAlloc
EXTRN	?MemFree@ImGui@@YAXPEAX@Z:PROC			; ImGui::MemFree
EXTRN	?append@ImGuiTextBuffer@@QEAAXPEBD0@Z:PROC	; ImGuiTextBuffer::append
EXTRN	?GetInt@ImGuiStorage@@QEBAHIH@Z:PROC		; ImGuiStorage::GetInt
EXTRN	?SetInt@ImGuiStorage@@QEAAXIH@Z:PROC		; ImGuiStorage::SetInt
EXTRN	?GetIntRef@ImGuiStorage@@QEAAPEAHIH@Z:PROC	; ImGuiStorage::GetIntRef
EXTRN	?Step@ImGuiListClipper@@QEAA_NXZ:PROC		; ImGuiListClipper::Step
EXTRN	?Begin@ImGuiListClipper@@QEAAXHM@Z:PROC		; ImGuiListClipper::Begin
EXTRN	?ClearFreeMemory@ImDrawListSplitter@@QEAAXXZ:PROC ; ImDrawListSplitter::ClearFreeMemory
EXTRN	?Split@ImDrawListSplitter@@QEAAXPEAUImDrawList@@H@Z:PROC ; ImDrawListSplitter::Split
EXTRN	?Merge@ImDrawListSplitter@@QEAAXPEAUImDrawList@@@Z:PROC ; ImDrawListSplitter::Merge
EXTRN	?SetCurrentChannel@ImDrawListSplitter@@QEAAXPEAUImDrawList@@H@Z:PROC ; ImDrawListSplitter::SetCurrentChannel
EXTRN	?AddLine@ImDrawList@@QEAAXAEBUImVec2@@0IM@Z:PROC ; ImDrawList::AddLine
EXTRN	?AddRect@ImDrawList@@QEAAXAEBUImVec2@@0IMHM@Z:PROC ; ImDrawList::AddRect
EXTRN	?AddRectFilled@ImDrawList@@QEAAXAEBUImVec2@@0IMH@Z:PROC ; ImDrawList::AddRectFilled
EXTRN	?AddRectFilledMultiColor@ImDrawList@@QEAAXAEBUImVec2@@0IIII@Z:PROC ; ImDrawList::AddRectFilledMultiColor
EXTRN	?AddTriangle@ImDrawList@@QEAAXAEBUImVec2@@00IM@Z:PROC ; ImDrawList::AddTriangle
EXTRN	?AddCircle@ImDrawList@@QEAAXAEBUImVec2@@MIHM@Z:PROC ; ImDrawList::AddCircle
EXTRN	?AddCircleFilled@ImDrawList@@QEAAXAEBUImVec2@@MIH@Z:PROC ; ImDrawList::AddCircleFilled
EXTRN	?AddText@ImDrawList@@QEAAXPEBUImFont@@MAEBUImVec2@@IPEBD2MPEBUImVec4@@@Z:PROC ; ImDrawList::AddText
EXTRN	?AddPolyline@ImDrawList@@QEAAXPEBUImVec2@@HI_NM@Z:PROC ; ImDrawList::AddPolyline
EXTRN	?AddConvexPolyFilled@ImDrawList@@QEAAXPEBUImVec2@@HI@Z:PROC ; ImDrawList::AddConvexPolyFilled
EXTRN	?AddImage@ImDrawList@@QEAAXPEAXAEBUImVec2@@111I@Z:PROC ; ImDrawList::AddImage
EXTRN	?PathArcTo@ImDrawList@@QEAAXAEBUImVec2@@MMMH@Z:PROC ; ImDrawList::PathArcTo
EXTRN	?PathArcToFast@ImDrawList@@QEAAXAEBUImVec2@@MHH@Z:PROC ; ImDrawList::PathArcToFast
EXTRN	?PrimReserve@ImDrawList@@QEAAXHH@Z:PROC		; ImDrawList::PrimReserve
EXTRN	?FindGlyph@ImFont@@QEBAPEBUImFontGlyph@@G@Z:PROC ; ImFont::FindGlyph
EXTRN	__imp___stdio_common_vsscanf:PROC
EXTRN	__imp_qsort:PROC
EXTRN	__imp_atof:PROC
EXTRN	?ImHashStr@@YAIPEBD_KI@Z:PROC			; ImHashStr
EXTRN	?ImStrncpy@@YAXPEADPEBD_K@Z:PROC		; ImStrncpy
EXTRN	?ImStrbolW@@YAPEBGPEBG0@Z:PROC			; ImStrbolW
EXTRN	?ImStrTrimBlanks@@YAXPEAD@Z:PROC		; ImStrTrimBlanks
EXTRN	?ImFormatString@@YAHPEAD_KPEBDZZ:PROC		; ImFormatString
EXTRN	?ImFormatStringV@@YAHPEAD_KPEBD0@Z:PROC		; ImFormatStringV
EXTRN	?ImTextStrToUtf8@@YAHPEADHPEBG1@Z:PROC		; ImTextStrToUtf8
EXTRN	?ImTextCharFromUtf8@@YAHPEAIPEBD1@Z:PROC	; ImTextCharFromUtf8
EXTRN	?ImTextStrFromUtf8@@YAHPEAGHPEBD1PEAPEBD@Z:PROC	; ImTextStrFromUtf8
EXTRN	?ImTextCountCharsFromUtf8@@YAHPEBD0@Z:PROC	; ImTextCountCharsFromUtf8
EXTRN	?ImTextCountUtf8BytesFromStr@@YAHPEBG0@Z:PROC	; ImTextCountUtf8BytesFromStr
EXTRN	?ImTriangleContainsPoint@@YA_NAEBUImVec2@@000@Z:PROC ; ImTriangleContainsPoint
EXTRN	?ImTriangleClosestPoint@@YA?AUImVec2@@AEBU1@000@Z:PROC ; ImTriangleClosestPoint
EXTRN	?ImTriangleBarycentricCoords@@YAXAEBUImVec2@@000AEAM11@Z:PROC ; ImTriangleBarycentricCoords
EXTRN	?GetID@ImGuiWindow@@QEAAIPEBD0@Z:PROC		; ImGuiWindow::GetID
EXTRN	?GetID@ImGuiWindow@@QEAAIPEBX@Z:PROC		; ImGuiWindow::GetID
EXTRN	?GetIDNoKeepAlive@ImGuiWindow@@QEAAIPEBD0@Z:PROC ; ImGuiWindow::GetIDNoKeepAlive
EXTRN	?FindWindowByName@ImGui@@YAPEAUImGuiWindow@@PEBD@Z:PROC ; ImGui::FindWindowByName
EXTRN	?CalcWindowExpectedSize@ImGui@@YA?AUImVec2@@PEAUImGuiWindow@@@Z:PROC ; ImGui::CalcWindowExpectedSize
EXTRN	?GetWindowAllowedExtentRect@ImGui@@YA?AUImRect@@PEAUImGuiWindow@@@Z:PROC ; ImGui::GetWindowAllowedExtentRect
EXTRN	?FocusWindow@ImGui@@YAXPEAUImGuiWindow@@@Z:PROC	; ImGui::FocusWindow
EXTRN	?FocusTopMostWindowUnderOne@ImGui@@YAXPEAUImGuiWindow@@0@Z:PROC ; ImGui::FocusTopMostWindowUnderOne
EXTRN	?StartMouseMovingWindow@ImGui@@YAXPEAUImGuiWindow@@@Z:PROC ; ImGui::StartMouseMovingWindow
EXTRN	?MarkIniSettingsDirty@ImGui@@YAXXZ:PROC		; ImGui::MarkIniSettingsDirty
EXTRN	?SetScrollY@ImGui@@YAXPEAUImGuiWindow@@M@Z:PROC	; ImGui::SetScrollY
EXTRN	?SetActiveID@ImGui@@YAXIPEAUImGuiWindow@@@Z:PROC ; ImGui::SetActiveID
EXTRN	?SetFocusID@ImGui@@YAXIPEAUImGuiWindow@@@Z:PROC	; ImGui::SetFocusID
EXTRN	?ClearActiveID@ImGui@@YAXXZ:PROC		; ImGui::ClearActiveID
EXTRN	?SetHoveredID@ImGui@@YAXI@Z:PROC		; ImGui::SetHoveredID
EXTRN	?KeepAliveID@ImGui@@YAXI@Z:PROC			; ImGui::KeepAliveID
EXTRN	?MarkItemEdited@ImGui@@YAXI@Z:PROC		; ImGui::MarkItemEdited
EXTRN	?PushOverrideID@ImGui@@YAXI@Z:PROC		; ImGui::PushOverrideID
EXTRN	?ItemSize@ImGui@@YAXAEBUImVec2@@M@Z:PROC	; ImGui::ItemSize
EXTRN	?ItemSize@ImGui@@YAXAEBUImRect@@M@Z:PROC	; ImGui::ItemSize
EXTRN	?ItemAdd@ImGui@@YA_NAEBUImRect@@IPEBU2@@Z:PROC	; ImGui::ItemAdd
EXTRN	?ItemHoverable@ImGui@@YA_NAEBUImRect@@I@Z:PROC	; ImGui::ItemHoverable
EXTRN	?IsClippedEx@ImGui@@YA_NAEBUImRect@@I_N@Z:PROC	; ImGui::IsClippedEx
EXTRN	?FocusableItemRegister@ImGui@@YA_NPEAUImGuiWindow@@I@Z:PROC ; ImGui::FocusableItemRegister
EXTRN	?FocusableItemUnregister@ImGui@@YAXPEAUImGuiWindow@@@Z:PROC ; ImGui::FocusableItemUnregister
EXTRN	?CalcItemSize@ImGui@@YA?AUImVec2@@U2@MM@Z:PROC	; ImGui::CalcItemSize
EXTRN	?CalcWrapWidthForPos@ImGui@@YAMAEBUImVec2@@M@Z:PROC ; ImGui::CalcWrapWidthForPos
EXTRN	?PushMultiItemsWidths@ImGui@@YAXHM@Z:PROC	; ImGui::PushMultiItemsWidths
EXTRN	?PushItemFlag@ImGui@@YAXH_N@Z:PROC		; ImGui::PushItemFlag
EXTRN	?PopItemFlag@ImGui@@YAXXZ:PROC			; ImGui::PopItemFlag
EXTRN	?GetContentRegionMaxAbs@ImGui@@YA?AUImVec2@@XZ:PROC ; ImGui::GetContentRegionMaxAbs
EXTRN	?BeginChildEx@ImGui@@YA_NPEBDIAEBUImVec2@@_NH@Z:PROC ; ImGui::BeginChildEx
EXTRN	?OpenPopupEx@ImGui@@YAXI@Z:PROC			; ImGui::OpenPopupEx
EXTRN	?ClosePopupToLevel@ImGui@@YAXH_N@Z:PROC		; ImGui::ClosePopupToLevel
EXTRN	?IsPopupOpen@ImGui@@YA_NI@Z:PROC		; ImGui::IsPopupOpen
EXTRN	?BeginPopupEx@ImGui@@YA_NIH@Z:PROC		; ImGui::BeginPopupEx
EXTRN	?BeginTooltipEx@ImGui@@YAXHH@Z:PROC		; ImGui::BeginTooltipEx
EXTRN	?FindBestWindowPosForPopupEx@ImGui@@YA?AUImVec2@@AEBU2@0PEAHAEBUImRect@@2W4ImGuiPopupPositionPolicy@@@Z:PROC ; ImGui::FindBestWindowPosForPopupEx
EXTRN	?NavMoveRequestButNoResultYet@ImGui@@YA_NXZ:PROC ; ImGui::NavMoveRequestButNoResultYet
EXTRN	?NavMoveRequestCancel@ImGui@@YAXXZ:PROC		; ImGui::NavMoveRequestCancel
EXTRN	?GetNavInputAmount@ImGui@@YAMHW4ImGuiInputReadMode@@@Z:PROC ; ImGui::GetNavInputAmount
EXTRN	?GetNavInputAmount2d@ImGui@@YA?AUImVec2@@HW4ImGuiInputReadMode@@MM@Z:PROC ; ImGui::GetNavInputAmount2d
EXTRN	?CalcTypematicRepeatAmount@ImGui@@YAHMMMM@Z:PROC ; ImGui::CalcTypematicRepeatAmount
EXTRN	?SetNavID@ImGui@@YAXIHI@Z:PROC			; ImGui::SetNavID
EXTRN	?SetNavIDWithRectRel@ImGui@@YAXIHIAEBUImRect@@@Z:PROC ; ImGui::SetNavIDWithRectRel
EXTRN	?GetMergedKeyModFlags@ImGui@@YAHXZ:PROC		; ImGui::GetMergedKeyModFlags
EXTRN	?RenderText@ImGui@@YAXUImVec2@@PEBD1_N@Z:PROC	; ImGui::RenderText
EXTRN	?RenderTextWrapped@ImGui@@YAXUImVec2@@PEBD1M@Z:PROC ; ImGui::RenderTextWrapped
EXTRN	?RenderTextClipped@ImGui@@YAXAEBUImVec2@@0PEBD1PEBU2@0PEBUImRect@@@Z:PROC ; ImGui::RenderTextClipped
EXTRN	?RenderTextClippedEx@ImGui@@YAXPEAUImDrawList@@AEBUImVec2@@1PEBD2PEBU3@1PEBUImRect@@@Z:PROC ; ImGui::RenderTextClippedEx
EXTRN	?RenderTextEllipsis@ImGui@@YAXPEAUImDrawList@@AEBUImVec2@@1MMPEBD2PEBU3@@Z:PROC ; ImGui::RenderTextEllipsis
EXTRN	?RenderFrame@ImGui@@YAXUImVec2@@0I_NM@Z:PROC	; ImGui::RenderFrame
EXTRN	?RenderFrameBorder@ImGui@@YAXUImVec2@@0M@Z:PROC	; ImGui::RenderFrameBorder
EXTRN	?RenderColorRectWithAlphaCheckerboard@ImGui@@YAXPEAUImDrawList@@UImVec2@@1IM1MH@Z:PROC ; ImGui::RenderColorRectWithAlphaCheckerboard
EXTRN	?RenderNavHighlight@ImGui@@YAXAEBUImRect@@IH@Z:PROC ; ImGui::RenderNavHighlight
EXTRN	?FindRenderedTextEnd@ImGui@@YAPEBDPEBD0@Z:PROC	; ImGui::FindRenderedTextEnd
EXTRN	?LogRenderedText@ImGui@@YAXPEBUImVec2@@PEBD1@Z:PROC ; ImGui::LogRenderedText
EXTRN	?RenderArrow@ImGui@@YAXPEAUImDrawList@@UImVec2@@IHM@Z:PROC ; ImGui::RenderArrow
EXTRN	?RenderBullet@ImGui@@YAXPEAUImDrawList@@UImVec2@@I@Z:PROC ; ImGui::RenderBullet
EXTRN	?RenderCheckMark@ImGui@@YAXPEAUImDrawList@@UImVec2@@IM@Z:PROC ; ImGui::RenderCheckMark
EXTRN	?RenderArrowPointingAt@ImGui@@YAXPEAUImDrawList@@UImVec2@@1HI@Z:PROC ; ImGui::RenderArrowPointingAt
EXTRN	?RenderRectFilledRangeH@ImGui@@YAXPEAUImDrawList@@AEBUImRect@@IMMM@Z:PROC ; ImGui::RenderRectFilledRangeH
EXTRN	?ShadeVertsLinearColorGradientKeepAlpha@ImGui@@YAXPEAUImDrawList@@HHUImVec2@@1II@Z:PROC ; ImGui::ShadeVertsLinearColorGradientKeepAlpha
EXTRN	__CxxFrameHandler4:PROC
EXTRN	__GSHandlerCheck:PROC
EXTRN	__security_check_cookie:PROC
EXTRN	atan2f:PROC
EXTRN	cosf:PROC
EXTRN	fmodf:PROC
EXTRN	memchr:PROC
EXTRN	memcmp:PROC
EXTRN	memcpy:PROC
EXTRN	memmove:PROC
EXTRN	pow:PROC
EXTRN	powf:PROC
EXTRN	sinf:PROC
EXTRN	?GImGui@@3PEAUImGuiContext@@EA:QWORD		; GImGui
EXTRN	__ImageBase:BYTE
EXTRN	__security_cookie:QWORD
EXTRN	_fltused:DWORD
;	COMDAT ?_OptionsStorage@?1??__local_stdio_scanf_options@@9@4_KA
_BSS	SEGMENT
?_OptionsStorage@?1??__local_stdio_scanf_options@@9@4_KA DQ 01H DUP (?) ; `__local_stdio_scanf_options'::`2'::_OptionsStorage
_BSS	ENDS
;	COMDAT pdata
pdata	SEGMENT
$pdata$??AImVec2@@QEBAM_K@Z DD imagerel $LN6
	DD	imagerel $LN6+80
	DD	imagerel $unwind$??AImVec2@@QEBAM_K@Z
pdata	ENDS
;	COMDAT pdata
pdata	SEGMENT
$pdata$??AImVec2@@QEAAAEAM_K@Z DD imagerel $LN6
	DD	imagerel $LN6+78
	DD	imagerel $unwind$??AImVec2@@QEAAAEAM_K@Z
pdata	ENDS
;	COMDAT pdata
pdata	SEGMENT
$pdata$?NewLine@ImGui@@YAXXZ DD imagerel $LN14
	DD	imagerel $LN14+66
	DD	imagerel $unwind$?NewLine@ImGui@@YAXXZ
pdata	ENDS
;	COMDAT pdata
pdata	SEGMENT
$pdata$0$?NewLine@ImGui@@YAXXZ DD imagerel $LN14+66
	DD	imagerel $LN14+149
	DD	imagerel $chain$0$?NewLine@ImGui@@YAXXZ
pdata	ENDS
;	COMDAT pdata
pdata	SEGMENT
$pdata$1$?NewLine@ImGui@@YAXXZ DD imagerel $LN14+149
	DD	imagerel $LN14+155
	DD	imagerel $chain$1$?NewLine@ImGui@@YAXXZ
pdata	ENDS
;	COMDAT pdata
pdata	SEGMENT
$pdata$?Spacing@ImGui@@YAXXZ DD imagerel $LN9
	DD	imagerel $LN9+73
	DD	imagerel $unwind$?Spacing@ImGui@@YAXXZ
pdata	ENDS
;	COMDAT pdata
pdata	SEGMENT
$pdata$?Dummy@ImGui@@YAXAEBUImVec2@@@Z DD imagerel $LN13
	DD	imagerel $LN13+134
	DD	imagerel $unwind$?Dummy@ImGui@@YAXAEBUImVec2@@@Z
pdata	ENDS
;	COMDAT pdata
pdata	SEGMENT
$pdata$?Text@ImGui@@YAXPEBDZZ DD imagerel $LN4
	DD	imagerel $LN4+39
	DD	imagerel $unwind$?Text@ImGui@@YAXPEBDZZ
pdata	ENDS
;	COMDAT pdata
pdata	SEGMENT
$pdata$?TextV@ImGui@@YAXPEBDPEAD@Z DD imagerel $LN7
	DD	imagerel $LN7+41
	DD	imagerel $unwind$?TextV@ImGui@@YAXPEBDPEAD@Z
pdata	ENDS
;	COMDAT pdata
pdata	SEGMENT
$pdata$1$?TextV@ImGui@@YAXPEBDPEAD@Z DD imagerel $LN7+41
	DD	imagerel $LN7+121
	DD	imagerel $chain$1$?TextV@ImGui@@YAXPEBDPEAD@Z
pdata	ENDS
;	COMDAT pdata
pdata	SEGMENT
$pdata$2$?TextV@ImGui@@YAXPEBDPEAD@Z DD imagerel $LN7+121
	DD	imagerel $LN7+126
	DD	imagerel $chain$2$?TextV@ImGui@@YAXPEBDPEAD@Z
pdata	ENDS
;	COMDAT pdata
pdata	SEGMENT
$pdata$?TextColored@ImGui@@YAXAEBUImVec4@@PEBDZZ DD imagerel $LN6
	DD	imagerel $LN6+67
	DD	imagerel $unwind$?TextColored@ImGui@@YAXAEBUImVec4@@PEBDZZ
pdata	ENDS
;	COMDAT pdata
pdata	SEGMENT
$pdata$?TextColoredV@ImGui@@YAXAEBUImVec4@@PEBDPEAD@Z DD imagerel $LN4
	DD	imagerel $LN4+57
	DD	imagerel $unwind$?TextColoredV@ImGui@@YAXAEBUImVec4@@PEBDPEAD@Z
pdata	ENDS
;	COMDAT pdata
pdata	SEGMENT
$pdata$?TextDisabled@ImGui@@YAXPEBDZZ DD imagerel $LN6
	DD	imagerel $LN6+83
	DD	imagerel $unwind$?TextDisabled@ImGui@@YAXPEBDZZ
pdata	ENDS
;	COMDAT pdata
pdata	SEGMENT
$pdata$?TextDisabledV@ImGui@@YAXPEBDPEAD@Z DD imagerel $LN4
	DD	imagerel $LN4+68
	DD	imagerel $unwind$?TextDisabledV@ImGui@@YAXPEBDPEAD@Z
pdata	ENDS
;	COMDAT pdata
pdata	SEGMENT
$pdata$?TextWrapped@ImGui@@YAXPEBDZZ DD imagerel $LN10
	DD	imagerel $LN10+116
	DD	imagerel $unwind$?TextWrapped@ImGui@@YAXPEBDZZ
pdata	ENDS
;	COMDAT pdata
pdata	SEGMENT
$pdata$?TextWrappedV@ImGui@@YAXPEBDPEAD@Z DD imagerel $LN8
	DD	imagerel $LN8+107
	DD	imagerel $unwind$?TextWrappedV@ImGui@@YAXPEBDPEAD@Z
pdata	ENDS
;	COMDAT pdata
pdata	SEGMENT
$pdata$?LabelText@ImGui@@YAXPEBD0ZZ DD imagerel $LN39
	DD	imagerel $LN39+78
	DD	imagerel $unwind$?LabelText@ImGui@@YAXPEBD0ZZ
pdata	ENDS
;	COMDAT pdata
pdata	SEGMENT
$pdata$1$?LabelText@ImGui@@YAXPEBD0ZZ DD imagerel $LN39+78
	DD	imagerel $LN39+94
	DD	imagerel $chain$1$?LabelText@ImGui@@YAXPEBD0ZZ
pdata	ENDS
;	COMDAT pdata
pdata	SEGMENT
$pdata$2$?LabelText@ImGui@@YAXPEBD0ZZ DD imagerel $LN39+94
	DD	imagerel $LN39+366
	DD	imagerel $chain$2$?LabelText@ImGui@@YAXPEBD0ZZ
pdata	ENDS
;	COMDAT pdata
pdata	SEGMENT
$pdata$3$?LabelText@ImGui@@YAXPEBD0ZZ DD imagerel $LN39+366
	DD	imagerel $LN39+537
	DD	imagerel $chain$3$?LabelText@ImGui@@YAXPEBD0ZZ
pdata	ENDS
;	COMDAT pdata
pdata	SEGMENT
$pdata$4$?LabelText@ImGui@@YAXPEBD0ZZ DD imagerel $LN39+537
	DD	imagerel $LN39+550
	DD	imagerel $chain$4$?LabelText@ImGui@@YAXPEBD0ZZ
pdata	ENDS
;	COMDAT pdata
pdata	SEGMENT
$pdata$?LabelTextV@ImGui@@YAXPEBD0PEAD@Z DD imagerel $LN37
	DD	imagerel $LN37+68
	DD	imagerel $unwind$?LabelTextV@ImGui@@YAXPEBD0PEAD@Z
pdata	ENDS
;	COMDAT pdata
pdata	SEGMENT
$pdata$1$?LabelTextV@ImGui@@YAXPEBD0PEAD@Z DD imagerel $LN37+68
	DD	imagerel $LN37+84
	DD	imagerel $chain$1$?LabelTextV@ImGui@@YAXPEBD0PEAD@Z
pdata	ENDS
;	COMDAT pdata
pdata	SEGMENT
$pdata$2$?LabelTextV@ImGui@@YAXPEBD0PEAD@Z DD imagerel $LN37+84
	DD	imagerel $LN37+365
	DD	imagerel $chain$2$?LabelTextV@ImGui@@YAXPEBD0PEAD@Z
pdata	ENDS
;	COMDAT pdata
pdata	SEGMENT
$pdata$3$?LabelTextV@ImGui@@YAXPEBD0PEAD@Z DD imagerel $LN37+365
	DD	imagerel $LN37+539
	DD	imagerel $chain$3$?LabelTextV@ImGui@@YAXPEBD0PEAD@Z
pdata	ENDS
;	COMDAT pdata
pdata	SEGMENT
$pdata$4$?LabelTextV@ImGui@@YAXPEBD0PEAD@Z DD imagerel $LN37+539
	DD	imagerel $LN37+559
	DD	imagerel $chain$4$?LabelTextV@ImGui@@YAXPEBD0PEAD@Z
pdata	ENDS
;	COMDAT pdata
pdata	SEGMENT
$pdata$?BulletText@ImGui@@YAXPEBDZZ DD imagerel $LN36
	DD	imagerel $LN36+75
	DD	imagerel $unwind$?BulletText@ImGui@@YAXPEBDZZ
pdata	ENDS
;	COMDAT pdata
pdata	SEGMENT
$pdata$2$?BulletText@ImGui@@YAXPEBDZZ DD imagerel $LN36+75
	DD	imagerel $LN36+99
	DD	imagerel $chain$2$?BulletText@ImGui@@YAXPEBDZZ
pdata	ENDS
;	COMDAT pdata
pdata	SEGMENT
$pdata$5$?BulletText@ImGui@@YAXPEBDZZ DD imagerel $LN36+99
	DD	imagerel $LN36+343
	DD	imagerel $chain$5$?BulletText@ImGui@@YAXPEBDZZ
pdata	ENDS
;	COMDAT pdata
pdata	SEGMENT
$pdata$6$?BulletText@ImGui@@YAXPEBDZZ DD imagerel $LN36+343
	DD	imagerel $LN36+509
	DD	imagerel $chain$6$?BulletText@ImGui@@YAXPEBDZZ
pdata	ENDS
;	COMDAT pdata
pdata	SEGMENT
$pdata$7$?BulletText@ImGui@@YAXPEBDZZ DD imagerel $LN36+509
	DD	imagerel $LN36+518
	DD	imagerel $chain$7$?BulletText@ImGui@@YAXPEBDZZ
pdata	ENDS
;	COMDAT pdata
pdata	SEGMENT
$pdata$?BulletTextV@ImGui@@YAXPEBDPEAD@Z DD imagerel $LN34
	DD	imagerel $LN34+52
	DD	imagerel $unwind$?BulletTextV@ImGui@@YAXPEBDPEAD@Z
pdata	ENDS
;	COMDAT pdata
pdata	SEGMENT
$pdata$2$?BulletTextV@ImGui@@YAXPEBDPEAD@Z DD imagerel $LN34+52
	DD	imagerel $LN34+82
	DD	imagerel $chain$2$?BulletTextV@ImGui@@YAXPEBDPEAD@Z
pdata	ENDS
;	COMDAT pdata
pdata	SEGMENT
$pdata$5$?BulletTextV@ImGui@@YAXPEBDPEAD@Z DD imagerel $LN34+82
	DD	imagerel $LN34+350
	DD	imagerel $chain$5$?BulletTextV@ImGui@@YAXPEBDPEAD@Z
pdata	ENDS
;	COMDAT pdata
pdata	SEGMENT
$pdata$6$?BulletTextV@ImGui@@YAXPEBDPEAD@Z DD imagerel $LN34+350
	DD	imagerel $LN34+510
	DD	imagerel $chain$6$?BulletTextV@ImGui@@YAXPEBDPEAD@Z
pdata	ENDS
;	COMDAT pdata
pdata	SEGMENT
$pdata$7$?BulletTextV@ImGui@@YAXPEBDPEAD@Z DD imagerel $LN34+510
	DD	imagerel $LN34+519
	DD	imagerel $chain$7$?BulletTextV@ImGui@@YAXPEBDPEAD@Z
pdata	ENDS
;	COMDAT pdata
pdata	SEGMENT
$pdata$?SmallButton@ImGui@@YA_NPEBD@Z DD imagerel $LN6
	DD	imagerel $LN6+80
	DD	imagerel $unwind$?SmallButton@ImGui@@YA_NPEBD@Z
pdata	ENDS
;	COMDAT pdata
pdata	SEGMENT
$pdata$?InvisibleButton@ImGui@@YA_NPEBDAEBUImVec2@@@Z DD imagerel $LN18
	DD	imagerel $LN18+66
	DD	imagerel $unwind$?InvisibleButton@ImGui@@YA_NPEBDAEBUImVec2@@@Z
pdata	ENDS
;	COMDAT pdata
pdata	SEGMENT
$pdata$0$?InvisibleButton@ImGui@@YA_NPEBDAEBUImVec2@@@Z DD imagerel $LN18+66
	DD	imagerel $LN18+259
	DD	imagerel $chain$0$?InvisibleButton@ImGui@@YA_NPEBDAEBUImVec2@@@Z
pdata	ENDS
;	COMDAT pdata
pdata	SEGMENT
$pdata$1$?InvisibleButton@ImGui@@YA_NPEBDAEBUImVec2@@@Z DD imagerel $LN18+259
	DD	imagerel $LN18+329
	DD	imagerel $chain$1$?InvisibleButton@ImGui@@YA_NPEBDAEBUImVec2@@@Z
pdata	ENDS
;	COMDAT pdata
pdata	SEGMENT
$pdata$?ArrowButton@ImGui@@YA_NPEBDH@Z DD imagerel $LN6
	DD	imagerel $LN6+54
	DD	imagerel $unwind$?ArrowButton@ImGui@@YA_NPEBDH@Z
pdata	ENDS
;	COMDAT pdata
pdata	SEGMENT
$pdata$?Image@ImGui@@YAXPEAXAEBUImVec2@@11AEBUImVec4@@2@Z DD imagerel $LN35
	DD	imagerel $LN35+102
	DD	imagerel $unwind$?Image@ImGui@@YAXPEAXAEBUImVec2@@11AEBUImVec4@@2@Z
pdata	ENDS
;	COMDAT pdata
pdata	SEGMENT
$pdata$1$?Image@ImGui@@YAXPEAXAEBUImVec2@@11AEBUImVec4@@2@Z DD imagerel $LN35+102
	DD	imagerel $LN35+250
	DD	imagerel $chain$1$?Image@ImGui@@YAXPEAXAEBUImVec2@@11AEBUImVec4@@2@Z
pdata	ENDS
;	COMDAT pdata
pdata	SEGMENT
$pdata$2$?Image@ImGui@@YAXPEAXAEBUImVec2@@11AEBUImVec4@@2@Z DD imagerel $LN35+250
	DD	imagerel $LN35+436
	DD	imagerel $chain$2$?Image@ImGui@@YAXPEAXAEBUImVec2@@11AEBUImVec4@@2@Z
pdata	ENDS
;	COMDAT pdata
pdata	SEGMENT
$pdata$3$?Image@ImGui@@YAXPEAXAEBUImVec2@@11AEBUImVec4@@2@Z DD imagerel $LN35+436
	DD	imagerel $LN35+501
	DD	imagerel $chain$3$?Image@ImGui@@YAXPEAXAEBUImVec2@@11AEBUImVec4@@2@Z
pdata	ENDS
;	COMDAT pdata
pdata	SEGMENT
$pdata$4$?Image@ImGui@@YAXPEAXAEBUImVec2@@11AEBUImVec4@@2@Z DD imagerel $LN35+501
	DD	imagerel $LN35+527
	DD	imagerel $chain$4$?Image@ImGui@@YAXPEAXAEBUImVec2@@11AEBUImVec4@@2@Z
pdata	ENDS
;	COMDAT pdata
pdata	SEGMENT
$pdata$?ImageButton@ImGui@@YA_NPEAXAEBUImVec2@@11HAEBUImVec4@@2@Z DD imagerel $LN55
	DD	imagerel $LN55+365
	DD	imagerel $unwind$?ImageButton@ImGui@@YA_NPEAXAEBUImVec2@@11HAEBUImVec4@@2@Z
pdata	ENDS
;	COMDAT pdata
pdata	SEGMENT
$pdata$0$?ImageButton@ImGui@@YA_NPEAXAEBUImVec2@@11HAEBUImVec4@@2@Z DD imagerel $LN55+365
	DD	imagerel $LN55+638
	DD	imagerel $chain$0$?ImageButton@ImGui@@YA_NPEAXAEBUImVec2@@11HAEBUImVec4@@2@Z
pdata	ENDS
;	COMDAT pdata
pdata	SEGMENT
$pdata$1$?ImageButton@ImGui@@YA_NPEAXAEBUImVec2@@11HAEBUImVec4@@2@Z DD imagerel $LN55+638
	DD	imagerel $LN55+678
	DD	imagerel $chain$1$?ImageButton@ImGui@@YA_NPEAXAEBUImVec2@@11HAEBUImVec4@@2@Z
pdata	ENDS
;	COMDAT pdata
pdata	SEGMENT
$pdata$?Checkbox@ImGui@@YA_NPEBDPEA_N@Z DD imagerel $LN69
	DD	imagerel $LN69+293
	DD	imagerel $unwind$?Checkbox@ImGui@@YA_NPEBDPEA_N@Z
pdata	ENDS
;	COMDAT pdata
pdata	SEGMENT
$pdata$4$?Checkbox@ImGui@@YA_NPEBDPEA_N@Z DD imagerel $LN69+293
	DD	imagerel $LN69+559
	DD	imagerel $chain$4$?Checkbox@ImGui@@YA_NPEBDPEA_N@Z
pdata	ENDS
;	COMDAT pdata
pdata	SEGMENT
$pdata$5$?Checkbox@ImGui@@YA_NPEBDPEA_N@Z DD imagerel $LN69+559
	DD	imagerel $LN69+796
	DD	imagerel $chain$5$?Checkbox@ImGui@@YA_NPEBDPEA_N@Z
pdata	ENDS
;	COMDAT pdata
pdata	SEGMENT
$pdata$6$?Checkbox@ImGui@@YA_NPEBDPEA_N@Z DD imagerel $LN69+796
	DD	imagerel $LN69+904
	DD	imagerel $chain$6$?Checkbox@ImGui@@YA_NPEBDPEA_N@Z
pdata	ENDS
;	COMDAT pdata
pdata	SEGMENT
$pdata$7$?Checkbox@ImGui@@YA_NPEBDPEA_N@Z DD imagerel $LN69+904
	DD	imagerel $LN69+947
	DD	imagerel $chain$7$?Checkbox@ImGui@@YA_NPEBDPEA_N@Z
pdata	ENDS
;	COMDAT pdata
pdata	SEGMENT
$pdata$?CheckboxFlags@ImGui@@YA_NPEBDPEAII@Z DD imagerel $LN8
	DD	imagerel $LN8+84
	DD	imagerel $unwind$?CheckboxFlags@ImGui@@YA_NPEBDPEAII@Z
pdata	ENDS
;	COMDAT pdata
pdata	SEGMENT
$pdata$?RadioButton@ImGui@@YA_NPEBD_N@Z DD imagerel $LN54
	DD	imagerel $LN54+337
	DD	imagerel $unwind$?RadioButton@ImGui@@YA_NPEBD_N@Z
pdata	ENDS
;	COMDAT pdata
pdata	SEGMENT
$pdata$1$?RadioButton@ImGui@@YA_NPEBD_N@Z DD imagerel $LN54+337
	DD	imagerel $LN54+577
	DD	imagerel $chain$1$?RadioButton@ImGui@@YA_NPEBD_N@Z
pdata	ENDS
;	COMDAT pdata
pdata	SEGMENT
$pdata$2$?RadioButton@ImGui@@YA_NPEBD_N@Z DD imagerel $LN54+577
	DD	imagerel $LN54+923
	DD	imagerel $chain$2$?RadioButton@ImGui@@YA_NPEBD_N@Z
pdata	ENDS
;	COMDAT pdata
pdata	SEGMENT
$pdata$3$?RadioButton@ImGui@@YA_NPEBD_N@Z DD imagerel $LN54+923
	DD	imagerel $LN54+976
	DD	imagerel $chain$3$?RadioButton@ImGui@@YA_NPEBD_N@Z
pdata	ENDS
;	COMDAT pdata
pdata	SEGMENT
$pdata$?RadioButton@ImGui@@YA_NPEBDPEAHH@Z DD imagerel $LN6
	DD	imagerel $LN6+44
	DD	imagerel $unwind$?RadioButton@ImGui@@YA_NPEBDPEAHH@Z
pdata	ENDS
;	COMDAT pdata
pdata	SEGMENT
$pdata$?ProgressBar@ImGui@@YAXMAEBUImVec2@@PEBD@Z DD imagerel $LN44
	DD	imagerel $LN44+89
	DD	imagerel $unwind$?ProgressBar@ImGui@@YAXMAEBUImVec2@@PEBD@Z
pdata	ENDS
;	COMDAT pdata
pdata	SEGMENT
$pdata$3$?ProgressBar@ImGui@@YAXMAEBUImVec2@@PEBD@Z DD imagerel $LN44+89
	DD	imagerel $LN44+722
	DD	imagerel $chain$3$?ProgressBar@ImGui@@YAXMAEBUImVec2@@PEBD@Z
pdata	ENDS
;	COMDAT pdata
pdata	SEGMENT
$pdata$4$?ProgressBar@ImGui@@YAXMAEBUImVec2@@PEBD@Z DD imagerel $LN44+722
	DD	imagerel $LN44+756
	DD	imagerel $chain$4$?ProgressBar@ImGui@@YAXMAEBUImVec2@@PEBD@Z
pdata	ENDS
;	COMDAT pdata
pdata	SEGMENT
$pdata$?Bullet@ImGui@@YAXXZ DD imagerel $LN33
	DD	imagerel $LN33+47
	DD	imagerel $unwind$?Bullet@ImGui@@YAXXZ
pdata	ENDS
;	COMDAT pdata
pdata	SEGMENT
$pdata$1$?Bullet@ImGui@@YAXXZ DD imagerel $LN33+47
	DD	imagerel $LN33+311
	DD	imagerel $chain$1$?Bullet@ImGui@@YAXXZ
pdata	ENDS
;	COMDAT pdata
pdata	SEGMENT
$pdata$2$?Bullet@ImGui@@YAXXZ DD imagerel $LN33+311
	DD	imagerel $LN33+317
	DD	imagerel $chain$2$?Bullet@ImGui@@YAXXZ
pdata	ENDS
;	COMDAT pdata
pdata	SEGMENT
$pdata$?BeginCombo@ImGui@@YA_NPEBD0H@Z DD imagerel $LN100
	DD	imagerel $LN100+449
	DD	imagerel $unwind$?BeginCombo@ImGui@@YA_NPEBD0H@Z
pdata	ENDS
;	COMDAT pdata
pdata	SEGMENT
$pdata$0$?BeginCombo@ImGui@@YA_NPEBD0H@Z DD imagerel $LN100+449
	DD	imagerel $LN100+468
	DD	imagerel $chain$0$?BeginCombo@ImGui@@YA_NPEBD0H@Z
pdata	ENDS
;	COMDAT pdata
pdata	SEGMENT
$pdata$1$?BeginCombo@ImGui@@YA_NPEBD0H@Z DD imagerel $LN100+468
	DD	imagerel $LN100+943
	DD	imagerel $chain$1$?BeginCombo@ImGui@@YA_NPEBD0H@Z
pdata	ENDS
;	COMDAT pdata
pdata	SEGMENT
$pdata$2$?BeginCombo@ImGui@@YA_NPEBD0H@Z DD imagerel $LN100+943
	DD	imagerel $LN100+1081
	DD	imagerel $chain$2$?BeginCombo@ImGui@@YA_NPEBD0H@Z
pdata	ENDS
;	COMDAT pdata
pdata	SEGMENT
$pdata$3$?BeginCombo@ImGui@@YA_NPEBD0H@Z DD imagerel $LN100+1081
	DD	imagerel $LN100+1755
	DD	imagerel $chain$3$?BeginCombo@ImGui@@YA_NPEBD0H@Z
pdata	ENDS
;	COMDAT pdata
pdata	SEGMENT
$pdata$?Combo@ImGui@@YA_NPEBDPEAHQEBQEBDHH@Z DD imagerel $LN4
	DD	imagerel $LN4+37
	DD	imagerel $unwind$?Combo@ImGui@@YA_NPEBDPEAHQEBQEBDHH@Z
pdata	ENDS
;	COMDAT pdata
pdata	SEGMENT
$pdata$?Combo@ImGui@@YA_NPEBDPEAH0H@Z DD imagerel $LN11
	DD	imagerel $LN11+87
	DD	imagerel $unwind$?Combo@ImGui@@YA_NPEBDPEAH0H@Z
pdata	ENDS
;	COMDAT pdata
pdata	SEGMENT
$pdata$?Combo@ImGui@@YA_NPEBDPEAHP6A_NPEAXHPEAPEBD@Z2HH@Z DD imagerel $LN30
	DD	imagerel $LN30+258
	DD	imagerel $unwind$?Combo@ImGui@@YA_NPEBDPEAHP6A_NPEAXHPEAPEBD@Z2HH@Z
pdata	ENDS
;	COMDAT pdata
pdata	SEGMENT
$pdata$1$?Combo@ImGui@@YA_NPEBDPEAHP6A_NPEAXHPEAPEBD@Z2HH@Z DD imagerel $LN30+258
	DD	imagerel $LN30+382
	DD	imagerel $chain$1$?Combo@ImGui@@YA_NPEBDPEAHP6A_NPEAXHPEAPEBD@Z2HH@Z
pdata	ENDS
;	COMDAT pdata
pdata	SEGMENT
$pdata$2$?Combo@ImGui@@YA_NPEBDPEAHP6A_NPEAXHPEAPEBD@Z2HH@Z DD imagerel $LN30+382
	DD	imagerel $LN30+410
	DD	imagerel $chain$2$?Combo@ImGui@@YA_NPEBDPEAHP6A_NPEAXHPEAPEBD@Z2HH@Z
pdata	ENDS
;	COMDAT pdata
pdata	SEGMENT
$pdata$?DragFloat@ImGui@@YA_NPEBDPEAMMMM0M@Z DD imagerel $LN4
	DD	imagerel $LN4+76
	DD	imagerel $unwind$?DragFloat@ImGui@@YA_NPEBDPEAMMMM0M@Z
pdata	ENDS
;	COMDAT pdata
pdata	SEGMENT
$pdata$?DragFloat2@ImGui@@YA_NPEBDQEAMMMM0M@Z DD imagerel $LN4
	DD	imagerel $LN4+85
	DD	imagerel $unwind$?DragFloat2@ImGui@@YA_NPEBDQEAMMMM0M@Z
pdata	ENDS
;	COMDAT pdata
pdata	SEGMENT
$pdata$?DragFloat3@ImGui@@YA_NPEBDQEAMMMM0M@Z DD imagerel $LN4
	DD	imagerel $LN4+85
	DD	imagerel $unwind$?DragFloat3@ImGui@@YA_NPEBDQEAMMMM0M@Z
pdata	ENDS
;	COMDAT pdata
pdata	SEGMENT
$pdata$?DragFloat4@ImGui@@YA_NPEBDQEAMMMM0M@Z DD imagerel $LN4
	DD	imagerel $LN4+85
	DD	imagerel $unwind$?DragFloat4@ImGui@@YA_NPEBDQEAMMMM0M@Z
pdata	ENDS
;	COMDAT pdata
pdata	SEGMENT
$pdata$?DragFloatRange2@ImGui@@YA_NPEBDPEAM1MMM00M@Z DD imagerel $LN28
	DD	imagerel $LN28+125
	DD	imagerel $unwind$?DragFloatRange2@ImGui@@YA_NPEBDPEAM1MMM00M@Z
pdata	ENDS
;	COMDAT pdata
pdata	SEGMENT
$pdata$5$?DragFloatRange2@ImGui@@YA_NPEBDPEAM1MMM00M@Z DD imagerel $LN28+125
	DD	imagerel $LN28+362
	DD	imagerel $chain$5$?DragFloatRange2@ImGui@@YA_NPEBDPEAM1MMM00M@Z
pdata	ENDS
;	COMDAT pdata
pdata	SEGMENT
$pdata$6$?DragFloatRange2@ImGui@@YA_NPEBDPEAM1MMM00M@Z DD imagerel $LN28+362
	DD	imagerel $LN28+570
	DD	imagerel $chain$6$?DragFloatRange2@ImGui@@YA_NPEBDPEAM1MMM00M@Z
pdata	ENDS
;	COMDAT pdata
pdata	SEGMENT
$pdata$?DragInt@ImGui@@YA_NPEBDPEAHMHH0@Z DD imagerel $LN4
	DD	imagerel $LN4+74
	DD	imagerel $unwind$?DragInt@ImGui@@YA_NPEBDPEAHMHH0@Z
pdata	ENDS
;	COMDAT pdata
pdata	SEGMENT
$pdata$?DragInt2@ImGui@@YA_NPEBDQEAHMHH0@Z DD imagerel $LN4
	DD	imagerel $LN4+82
	DD	imagerel $unwind$?DragInt2@ImGui@@YA_NPEBDQEAHMHH0@Z
pdata	ENDS
;	COMDAT pdata
pdata	SEGMENT
$pdata$?DragInt3@ImGui@@YA_NPEBDQEAHMHH0@Z DD imagerel $LN4
	DD	imagerel $LN4+82
	DD	imagerel $unwind$?DragInt3@ImGui@@YA_NPEBDQEAHMHH0@Z
pdata	ENDS
;	COMDAT pdata
pdata	SEGMENT
$pdata$?DragInt4@ImGui@@YA_NPEBDQEAHMHH0@Z DD imagerel $LN4
	DD	imagerel $LN4+81
	DD	imagerel $unwind$?DragInt4@ImGui@@YA_NPEBDQEAHMHH0@Z
pdata	ENDS
;	COMDAT pdata
pdata	SEGMENT
$pdata$?DragIntRange2@ImGui@@YA_NPEBDPEAH1MHH00@Z DD imagerel $LN19
	DD	imagerel $LN19+520
	DD	imagerel $unwind$?DragIntRange2@ImGui@@YA_NPEBDPEAH1MHH00@Z
pdata	ENDS
;	COMDAT pdata
pdata	SEGMENT
$pdata$?DragScalar@ImGui@@YA_NPEBDHPEAXMPEBX20M@Z DD imagerel $LN65
	DD	imagerel $LN65+481
	DD	imagerel $unwind$?DragScalar@ImGui@@YA_NPEBDHPEAXMPEBX20M@Z
pdata	ENDS
;	COMDAT pdata
pdata	SEGMENT
$pdata$0$?DragScalar@ImGui@@YA_NPEBDHPEAXMPEBX20M@Z DD imagerel $LN65+481
	DD	imagerel $LN65+1043
	DD	imagerel $chain$0$?DragScalar@ImGui@@YA_NPEBDHPEAXMPEBX20M@Z
pdata	ENDS
;	COMDAT pdata
pdata	SEGMENT
$pdata$1$?DragScalar@ImGui@@YA_NPEBDHPEAXMPEBX20M@Z DD imagerel $LN65+1043
	DD	imagerel $LN65+1092
	DD	imagerel $chain$1$?DragScalar@ImGui@@YA_NPEBDHPEAXMPEBX20M@Z
pdata	ENDS
;	COMDAT pdata
pdata	SEGMENT
$pdata$2$?DragScalar@ImGui@@YA_NPEBDHPEAXMPEBX20M@Z DD imagerel $LN65+1092
	DD	imagerel $LN65+1150
	DD	imagerel $chain$2$?DragScalar@ImGui@@YA_NPEBDHPEAXMPEBX20M@Z
pdata	ENDS
;	COMDAT pdata
pdata	SEGMENT
$pdata$3$?DragScalar@ImGui@@YA_NPEBDHPEAXMPEBX20M@Z DD imagerel $LN65+1150
	DD	imagerel $LN65+1154
	DD	imagerel $chain$3$?DragScalar@ImGui@@YA_NPEBDHPEAXMPEBX20M@Z
pdata	ENDS
;	COMDAT pdata
pdata	SEGMENT
$pdata$?DragScalarN@ImGui@@YA_NPEBDHPEAXHMPEBX20M@Z DD imagerel $LN16
	DD	imagerel $LN16+176
	DD	imagerel $unwind$?DragScalarN@ImGui@@YA_NPEBDHPEAXHMPEBX20M@Z
pdata	ENDS
;	COMDAT pdata
pdata	SEGMENT
$pdata$5$?DragScalarN@ImGui@@YA_NPEBDHPEAXHMPEBX20M@Z DD imagerel $LN16+176
	DD	imagerel $LN16+353
	DD	imagerel $chain$5$?DragScalarN@ImGui@@YA_NPEBDHPEAXHMPEBX20M@Z
pdata	ENDS
;	COMDAT pdata
pdata	SEGMENT
$pdata$6$?DragScalarN@ImGui@@YA_NPEBDHPEAXHMPEBX20M@Z DD imagerel $LN16+353
	DD	imagerel $LN16+448
	DD	imagerel $chain$6$?DragScalarN@ImGui@@YA_NPEBDHPEAXHMPEBX20M@Z
pdata	ENDS
;	COMDAT pdata
pdata	SEGMENT
$pdata$?SliderFloat@ImGui@@YA_NPEBDPEAMMM0M@Z DD imagerel $LN4
	DD	imagerel $LN4+71
	DD	imagerel $unwind$?SliderFloat@ImGui@@YA_NPEBDPEAMMM0M@Z
pdata	ENDS
;	COMDAT pdata
pdata	SEGMENT
$pdata$?SliderFloat2@ImGui@@YA_NPEBDQEAMMM0M@Z DD imagerel $LN4
	DD	imagerel $LN4+81
	DD	imagerel $unwind$?SliderFloat2@ImGui@@YA_NPEBDQEAMMM0M@Z
pdata	ENDS
;	COMDAT pdata
pdata	SEGMENT
$pdata$?SliderFloat3@ImGui@@YA_NPEBDQEAMMM0M@Z DD imagerel $LN4
	DD	imagerel $LN4+81
	DD	imagerel $unwind$?SliderFloat3@ImGui@@YA_NPEBDQEAMMM0M@Z
pdata	ENDS
;	COMDAT pdata
pdata	SEGMENT
$pdata$?SliderFloat4@ImGui@@YA_NPEBDQEAMMM0M@Z DD imagerel $LN4
	DD	imagerel $LN4+81
	DD	imagerel $unwind$?SliderFloat4@ImGui@@YA_NPEBDQEAMMM0M@Z
pdata	ENDS
;	COMDAT pdata
pdata	SEGMENT
$pdata$?SliderAngle@ImGui@@YA_NPEBDPEAMMM0@Z DD imagerel $LN7
	DD	imagerel $LN7+147
	DD	imagerel $unwind$?SliderAngle@ImGui@@YA_NPEBDPEAMMM0@Z
pdata	ENDS
;	COMDAT pdata
pdata	SEGMENT
$pdata$?SliderInt@ImGui@@YA_NPEBDPEAHHH0@Z DD imagerel $LN4
	DD	imagerel $LN4+71
	DD	imagerel $unwind$?SliderInt@ImGui@@YA_NPEBDPEAHHH0@Z
pdata	ENDS
;	COMDAT pdata
pdata	SEGMENT
$pdata$?SliderInt2@ImGui@@YA_NPEBDQEAHHH0@Z DD imagerel $LN4
	DD	imagerel $LN4+77
	DD	imagerel $unwind$?SliderInt2@ImGui@@YA_NPEBDQEAHHH0@Z
pdata	ENDS
;	COMDAT pdata
pdata	SEGMENT
$pdata$?SliderInt3@ImGui@@YA_NPEBDQEAHHH0@Z DD imagerel $LN4
	DD	imagerel $LN4+77
	DD	imagerel $unwind$?SliderInt3@ImGui@@YA_NPEBDQEAHHH0@Z
pdata	ENDS
;	COMDAT pdata
pdata	SEGMENT
$pdata$?SliderInt4@ImGui@@YA_NPEBDQEAHHH0@Z DD imagerel $LN4
	DD	imagerel $LN4+76
	DD	imagerel $unwind$?SliderInt4@ImGui@@YA_NPEBDQEAHHH0@Z
pdata	ENDS
;	COMDAT pdata
pdata	SEGMENT
$pdata$?SliderScalar@ImGui@@YA_NPEBDHPEAXPEBX20M@Z DD imagerel $LN66
	DD	imagerel $LN66+410
	DD	imagerel $unwind$?SliderScalar@ImGui@@YA_NPEBDHPEAXPEBX20M@Z
pdata	ENDS
;	COMDAT pdata
pdata	SEGMENT
$pdata$0$?SliderScalar@ImGui@@YA_NPEBDHPEAXPEBX20M@Z DD imagerel $LN66+410
	DD	imagerel $LN66+1029
	DD	imagerel $chain$0$?SliderScalar@ImGui@@YA_NPEBDHPEAXPEBX20M@Z
pdata	ENDS
;	COMDAT pdata
pdata	SEGMENT
$pdata$1$?SliderScalar@ImGui@@YA_NPEBDHPEAXPEBX20M@Z DD imagerel $LN66+1029
	DD	imagerel $LN66+1075
	DD	imagerel $chain$1$?SliderScalar@ImGui@@YA_NPEBDHPEAXPEBX20M@Z
pdata	ENDS
;	COMDAT pdata
pdata	SEGMENT
$pdata$2$?SliderScalar@ImGui@@YA_NPEBDHPEAXPEBX20M@Z DD imagerel $LN66+1075
	DD	imagerel $LN66+1133
	DD	imagerel $chain$2$?SliderScalar@ImGui@@YA_NPEBDHPEAXPEBX20M@Z
pdata	ENDS
;	COMDAT pdata
pdata	SEGMENT
$pdata$3$?SliderScalar@ImGui@@YA_NPEBDHPEAXPEBX20M@Z DD imagerel $LN66+1133
	DD	imagerel $LN66+1137
	DD	imagerel $chain$3$?SliderScalar@ImGui@@YA_NPEBDHPEAXPEBX20M@Z
pdata	ENDS
;	COMDAT pdata
pdata	SEGMENT
$pdata$?SliderScalarN@ImGui@@YA_NPEBDHPEAXHPEBX20M@Z DD imagerel $LN16
	DD	imagerel $LN16+176
	DD	imagerel $unwind$?SliderScalarN@ImGui@@YA_NPEBDHPEAXHPEBX20M@Z
pdata	ENDS
;	COMDAT pdata
pdata	SEGMENT
$pdata$4$?SliderScalarN@ImGui@@YA_NPEBDHPEAXHPEBX20M@Z DD imagerel $LN16+176
	DD	imagerel $LN16+324
	DD	imagerel $chain$4$?SliderScalarN@ImGui@@YA_NPEBDHPEAXHPEBX20M@Z
pdata	ENDS
;	COMDAT pdata
pdata	SEGMENT
$pdata$5$?SliderScalarN@ImGui@@YA_NPEBDHPEAXHPEBX20M@Z DD imagerel $LN16+324
	DD	imagerel $LN16+419
	DD	imagerel $chain$5$?SliderScalarN@ImGui@@YA_NPEBDHPEAXHPEBX20M@Z
pdata	ENDS
;	COMDAT pdata
pdata	SEGMENT
$pdata$?VSliderFloat@ImGui@@YA_NPEBDAEBUImVec2@@PEAMMM0M@Z DD imagerel $LN4
	DD	imagerel $LN4+74
	DD	imagerel $unwind$?VSliderFloat@ImGui@@YA_NPEBDAEBUImVec2@@PEAMMM0M@Z
pdata	ENDS
;	COMDAT pdata
pdata	SEGMENT
$pdata$?VSliderInt@ImGui@@YA_NPEBDAEBUImVec2@@PEAHHH0@Z DD imagerel $LN4
	DD	imagerel $LN4+72
	DD	imagerel $unwind$?VSliderInt@ImGui@@YA_NPEBDAEBUImVec2@@PEAHHH0@Z
pdata	ENDS
;	COMDAT pdata
pdata	SEGMENT
$pdata$?VSliderScalar@ImGui@@YA_NPEBDAEBUImVec2@@HPEAXPEBX30M@Z DD imagerel $LN49
	DD	imagerel $LN49+978
	DD	imagerel $unwind$?VSliderScalar@ImGui@@YA_NPEBDAEBUImVec2@@HPEAXPEBX30M@Z
pdata	ENDS
;	COMDAT pdata
pdata	SEGMENT
$pdata$?InputText@ImGui@@YA_NPEBDPEAD_KHP6AHPEAUImGuiInputTextCallbackData@@@ZPEAX@Z DD imagerel $LN7
	DD	imagerel $LN7+151
	DD	imagerel $unwind$?InputText@ImGui@@YA_NPEBDPEAD_KHP6AHPEAUImGuiInputTextCallbackData@@@ZPEAX@Z
pdata	ENDS
;	COMDAT pdata
pdata	SEGMENT
$pdata$?InputTextMultiline@ImGui@@YA_NPEBDPEAD_KAEBUImVec2@@HP6AHPEAUImGuiInputTextCallbackData@@@ZPEAX@Z DD imagerel $LN4
	DD	imagerel $LN4+65
	DD	imagerel $unwind$?InputTextMultiline@ImGui@@YA_NPEBDPEAD_KAEBUImVec2@@HP6AHPEAUImGuiInputTextCallbackData@@@ZPEAX@Z
pdata	ENDS
;	COMDAT pdata
pdata	SEGMENT
$pdata$?InputTextWithHint@ImGui@@YA_NPEBD0PEAD_KHP6AHPEAUImGuiInputTextCallbackData@@@ZPEAX@Z DD imagerel $LN7
	DD	imagerel $LN7+170
	DD	imagerel $unwind$?InputTextWithHint@ImGui@@YA_NPEBD0PEAD_KHP6AHPEAUImGuiInputTextCallbackData@@@ZPEAX@Z
pdata	ENDS
;	COMDAT pdata
pdata	SEGMENT
$pdata$?InputFloat@ImGui@@YA_NPEBDPEAMMM0H@Z DD imagerel $LN4
	DD	imagerel $LN4+90
	DD	imagerel $unwind$?InputFloat@ImGui@@YA_NPEBDPEAMMM0H@Z
pdata	ENDS
;	COMDAT pdata
pdata	SEGMENT
$pdata$?InputFloat2@ImGui@@YA_NPEBDQEAM0H@Z DD imagerel $LN4
	DD	imagerel $LN4+46
	DD	imagerel $unwind$?InputFloat2@ImGui@@YA_NPEBDQEAM0H@Z
pdata	ENDS
;	COMDAT pdata
pdata	SEGMENT
$pdata$?InputFloat3@ImGui@@YA_NPEBDQEAM0H@Z DD imagerel $LN4
	DD	imagerel $LN4+46
	DD	imagerel $unwind$?InputFloat3@ImGui@@YA_NPEBDQEAM0H@Z
pdata	ENDS
;	COMDAT pdata
pdata	SEGMENT
$pdata$?InputFloat4@ImGui@@YA_NPEBDQEAM0H@Z DD imagerel $LN4
	DD	imagerel $LN4+46
	DD	imagerel $unwind$?InputFloat4@ImGui@@YA_NPEBDQEAM0H@Z
pdata	ENDS
;	COMDAT pdata
pdata	SEGMENT
$pdata$?InputInt@ImGui@@YA_NPEBDPEAHHHH@Z DD imagerel $LN4
	DD	imagerel $LN4+100
	DD	imagerel $unwind$?InputInt@ImGui@@YA_NPEBDPEAHHHH@Z
pdata	ENDS
;	COMDAT pdata
pdata	SEGMENT
$pdata$?InputInt2@ImGui@@YA_NPEBDQEAHH@Z DD imagerel $LN4
	DD	imagerel $LN4+53
	DD	imagerel $unwind$?InputInt2@ImGui@@YA_NPEBDQEAHH@Z
pdata	ENDS
;	COMDAT pdata
pdata	SEGMENT
$pdata$?InputInt3@ImGui@@YA_NPEBDQEAHH@Z DD imagerel $LN4
	DD	imagerel $LN4+53
	DD	imagerel $unwind$?InputInt3@ImGui@@YA_NPEBDQEAHH@Z
pdata	ENDS
;	COMDAT pdata
pdata	SEGMENT
$pdata$?InputInt4@ImGui@@YA_NPEBDQEAHH@Z DD imagerel $LN4
	DD	imagerel $LN4+55
	DD	imagerel $unwind$?InputInt4@ImGui@@YA_NPEBDQEAHH@Z
pdata	ENDS
;	COMDAT pdata
pdata	SEGMENT
$pdata$?InputDouble@ImGui@@YA_NPEBDPEANNN0H@Z DD imagerel $LN4
	DD	imagerel $LN4+92
	DD	imagerel $unwind$?InputDouble@ImGui@@YA_NPEBDPEANNN0H@Z
pdata	ENDS
;	COMDAT pdata
pdata	SEGMENT
$pdata$?InputScalar@ImGui@@YA_NPEBDHPEAXPEBX20H@Z DD imagerel $LN154
	DD	imagerel $LN154+117
	DD	imagerel $unwind$?InputScalar@ImGui@@YA_NPEBDHPEAXPEBX20H@Z
pdata	ENDS
;	COMDAT pdata
pdata	SEGMENT
$pdata$2$?InputScalar@ImGui@@YA_NPEBDHPEAXPEBX20H@Z DD imagerel $LN154+117
	DD	imagerel $LN154+277
	DD	imagerel $chain$2$?InputScalar@ImGui@@YA_NPEBDHPEAXPEBX20H@Z
pdata	ENDS
;	COMDAT pdata
pdata	SEGMENT
$pdata$3$?InputScalar@ImGui@@YA_NPEBDHPEAXPEBX20H@Z DD imagerel $LN154+277
	DD	imagerel $LN154+285
	DD	imagerel $chain$3$?InputScalar@ImGui@@YA_NPEBDHPEAXPEBX20H@Z
pdata	ENDS
;	COMDAT pdata
pdata	SEGMENT
$pdata$5$?InputScalar@ImGui@@YA_NPEBDHPEAXPEBX20H@Z DD imagerel $LN154+285
	DD	imagerel $LN154+1163
	DD	imagerel $chain$5$?InputScalar@ImGui@@YA_NPEBDHPEAXPEBX20H@Z
pdata	ENDS
;	COMDAT pdata
pdata	SEGMENT
$pdata$6$?InputScalar@ImGui@@YA_NPEBDHPEAXPEBX20H@Z DD imagerel $LN154+1163
	DD	imagerel $LN154+1311
	DD	imagerel $chain$6$?InputScalar@ImGui@@YA_NPEBDHPEAXPEBX20H@Z
pdata	ENDS
;	COMDAT pdata
pdata	SEGMENT
$pdata$7$?InputScalar@ImGui@@YA_NPEBDHPEAXPEBX20H@Z DD imagerel $LN154+1311
	DD	imagerel $LN154+1485
	DD	imagerel $chain$7$?InputScalar@ImGui@@YA_NPEBDHPEAXPEBX20H@Z
pdata	ENDS
;	COMDAT pdata
pdata	SEGMENT
$pdata$8$?InputScalar@ImGui@@YA_NPEBDHPEAXPEBX20H@Z DD imagerel $LN154+1485
	DD	imagerel $LN154+1556
	DD	imagerel $chain$8$?InputScalar@ImGui@@YA_NPEBDHPEAXPEBX20H@Z
pdata	ENDS
;	COMDAT pdata
pdata	SEGMENT
$pdata$?InputScalarN@ImGui@@YA_NPEBDHPEAXHPEBX20H@Z DD imagerel $LN16
	DD	imagerel $LN16+176
	DD	imagerel $unwind$?InputScalarN@ImGui@@YA_NPEBDHPEAXHPEBX20H@Z
pdata	ENDS
;	COMDAT pdata
pdata	SEGMENT
$pdata$3$?InputScalarN@ImGui@@YA_NPEBDHPEAXHPEBX20H@Z DD imagerel $LN16+176
	DD	imagerel $LN16+310
	DD	imagerel $chain$3$?InputScalarN@ImGui@@YA_NPEBDHPEAXHPEBX20H@Z
pdata	ENDS
;	COMDAT pdata
pdata	SEGMENT
$pdata$4$?InputScalarN@ImGui@@YA_NPEBDHPEAXHPEBX20H@Z DD imagerel $LN16+310
	DD	imagerel $LN16+405
	DD	imagerel $chain$4$?InputScalarN@ImGui@@YA_NPEBDHPEAXHPEBX20H@Z
pdata	ENDS
;	COMDAT pdata
pdata	SEGMENT
$pdata$?ColorEdit4@ImGui@@YA_NPEBDQEAMH@Z DD imagerel $LN208
	DD	imagerel $LN208+103
	DD	imagerel $unwind$?ColorEdit4@ImGui@@YA_NPEBDQEAMH@Z
pdata	ENDS
;	COMDAT pdata
pdata	SEGMENT
$pdata$2$?ColorEdit4@ImGui@@YA_NPEBDQEAMH@Z DD imagerel $LN208+103
	DD	imagerel $LN208+134
	DD	imagerel $chain$2$?ColorEdit4@ImGui@@YA_NPEBDQEAMH@Z
pdata	ENDS
;	COMDAT pdata
pdata	SEGMENT
$pdata$12$?ColorEdit4@ImGui@@YA_NPEBDQEAMH@Z DD imagerel $LN208+134
	DD	imagerel $LN208+1679
	DD	imagerel $chain$12$?ColorEdit4@ImGui@@YA_NPEBDQEAMH@Z
pdata	ENDS
;	COMDAT pdata
pdata	SEGMENT
$pdata$13$?ColorEdit4@ImGui@@YA_NPEBDQEAMH@Z DD imagerel $LN208+1679
	DD	imagerel $LN208+1715
	DD	imagerel $chain$13$?ColorEdit4@ImGui@@YA_NPEBDQEAMH@Z
pdata	ENDS
;	COMDAT pdata
pdata	SEGMENT
$pdata$14$?ColorEdit4@ImGui@@YA_NPEBDQEAMH@Z DD imagerel $LN208+1715
	DD	imagerel $LN208+2154
	DD	imagerel $chain$14$?ColorEdit4@ImGui@@YA_NPEBDQEAMH@Z
pdata	ENDS
;	COMDAT pdata
pdata	SEGMENT
$pdata$15$?ColorEdit4@ImGui@@YA_NPEBDQEAMH@Z DD imagerel $LN208+2154
	DD	imagerel $LN208+2621
	DD	imagerel $chain$15$?ColorEdit4@ImGui@@YA_NPEBDQEAMH@Z
pdata	ENDS
;	COMDAT pdata
pdata	SEGMENT
$pdata$16$?ColorEdit4@ImGui@@YA_NPEBDQEAMH@Z DD imagerel $LN208+2621
	DD	imagerel $LN208+2734
	DD	imagerel $chain$16$?ColorEdit4@ImGui@@YA_NPEBDQEAMH@Z
pdata	ENDS
;	COMDAT pdata
pdata	SEGMENT
$pdata$17$?ColorEdit4@ImGui@@YA_NPEBDQEAMH@Z DD imagerel $LN208+2734
	DD	imagerel $LN208+3230
	DD	imagerel $chain$17$?ColorEdit4@ImGui@@YA_NPEBDQEAMH@Z
pdata	ENDS
;	COMDAT pdata
pdata	SEGMENT
$pdata$18$?ColorEdit4@ImGui@@YA_NPEBDQEAMH@Z DD imagerel $LN208+3230
	DD	imagerel $LN208+3253
	DD	imagerel $chain$18$?ColorEdit4@ImGui@@YA_NPEBDQEAMH@Z
pdata	ENDS
;	COMDAT pdata
pdata	SEGMENT
$pdata$19$?ColorEdit4@ImGui@@YA_NPEBDQEAMH@Z DD imagerel $LN208+3253
	DD	imagerel $LN208+3280
	DD	imagerel $chain$19$?ColorEdit4@ImGui@@YA_NPEBDQEAMH@Z
pdata	ENDS
;	COMDAT pdata
pdata	SEGMENT
$pdata$?ColorPicker3@ImGui@@YA_NPEBDQEAMH@Z DD imagerel $LN5
	DD	imagerel $LN5+163
	DD	imagerel $unwind$?ColorPicker3@ImGui@@YA_NPEBDQEAMH@Z
pdata	ENDS
;	COMDAT pdata
pdata	SEGMENT
$pdata$?ColorPicker4@ImGui@@YA_NPEBDQEAMHPEBM@Z DD imagerel $LN927
	DD	imagerel $LN927+110
	DD	imagerel $unwind$?ColorPicker4@ImGui@@YA_NPEBDQEAMHPEBM@Z
pdata	ENDS
;	COMDAT pdata
pdata	SEGMENT
$pdata$11$?ColorPicker4@ImGui@@YA_NPEBDQEAMHPEBM@Z DD imagerel $LN927+110
	DD	imagerel $LN927+220
	DD	imagerel $chain$11$?ColorPicker4@ImGui@@YA_NPEBDQEAMHPEBM@Z
pdata	ENDS
;	COMDAT pdata
pdata	SEGMENT
$pdata$12$?ColorPicker4@ImGui@@YA_NPEBDQEAMHPEBM@Z DD imagerel $LN927+220
	DD	imagerel $LN927+6373
	DD	imagerel $chain$12$?ColorPicker4@ImGui@@YA_NPEBDQEAMHPEBM@Z
pdata	ENDS
;	COMDAT pdata
pdata	SEGMENT
$pdata$13$?ColorPicker4@ImGui@@YA_NPEBDQEAMHPEBM@Z DD imagerel $LN927+6373
	DD	imagerel $LN927+6784
	DD	imagerel $chain$13$?ColorPicker4@ImGui@@YA_NPEBDQEAMHPEBM@Z
pdata	ENDS
;	COMDAT pdata
pdata	SEGMENT
$pdata$14$?ColorPicker4@ImGui@@YA_NPEBDQEAMHPEBM@Z DD imagerel $LN927+6784
	DD	imagerel $LN927+6851
	DD	imagerel $chain$14$?ColorPicker4@ImGui@@YA_NPEBDQEAMHPEBM@Z
pdata	ENDS
;	COMDAT pdata
pdata	SEGMENT
$pdata$15$?ColorPicker4@ImGui@@YA_NPEBDQEAMHPEBM@Z DD imagerel $LN927+6851
	DD	imagerel $LN927+6878
	DD	imagerel $chain$15$?ColorPicker4@ImGui@@YA_NPEBDQEAMHPEBM@Z
pdata	ENDS
;	COMDAT pdata
pdata	SEGMENT
$pdata$?ColorButton@ImGui@@YA_NPEBDAEBUImVec4@@HUImVec2@@@Z DD imagerel $LN55
	DD	imagerel $LN55+280
	DD	imagerel $unwind$?ColorButton@ImGui@@YA_NPEBDAEBUImVec4@@HUImVec2@@@Z
pdata	ENDS
;	COMDAT pdata
pdata	SEGMENT
$pdata$0$?ColorButton@ImGui@@YA_NPEBDAEBUImVec4@@HUImVec2@@@Z DD imagerel $LN55+280
	DD	imagerel $LN55+293
	DD	imagerel $chain$0$?ColorButton@ImGui@@YA_NPEBDAEBUImVec4@@HUImVec2@@@Z
pdata	ENDS
;	COMDAT pdata
pdata	SEGMENT
$pdata$1$?ColorButton@ImGui@@YA_NPEBDAEBUImVec4@@HUImVec2@@@Z DD imagerel $LN55+293
	DD	imagerel $LN55+307
	DD	imagerel $chain$1$?ColorButton@ImGui@@YA_NPEBDAEBUImVec4@@HUImVec2@@@Z
pdata	ENDS
;	COMDAT pdata
pdata	SEGMENT
$pdata$5$?ColorButton@ImGui@@YA_NPEBDAEBUImVec4@@HUImVec2@@@Z DD imagerel $LN55+307
	DD	imagerel $LN55+700
	DD	imagerel $chain$5$?ColorButton@ImGui@@YA_NPEBDAEBUImVec4@@HUImVec2@@@Z
pdata	ENDS
;	COMDAT pdata
pdata	SEGMENT
$pdata$6$?ColorButton@ImGui@@YA_NPEBDAEBUImVec4@@HUImVec2@@@Z DD imagerel $LN55+700
	DD	imagerel $LN55+896
	DD	imagerel $chain$6$?ColorButton@ImGui@@YA_NPEBDAEBUImVec4@@HUImVec2@@@Z
pdata	ENDS
;	COMDAT pdata
pdata	SEGMENT
$pdata$7$?ColorButton@ImGui@@YA_NPEBDAEBUImVec4@@HUImVec2@@@Z DD imagerel $LN55+896
	DD	imagerel $LN55+1098
	DD	imagerel $chain$7$?ColorButton@ImGui@@YA_NPEBDAEBUImVec4@@HUImVec2@@@Z
pdata	ENDS
;	COMDAT pdata
pdata	SEGMENT
$pdata$8$?ColorButton@ImGui@@YA_NPEBDAEBUImVec4@@HUImVec2@@@Z DD imagerel $LN55+1098
	DD	imagerel $LN55+1225
	DD	imagerel $chain$8$?ColorButton@ImGui@@YA_NPEBDAEBUImVec4@@HUImVec2@@@Z
pdata	ENDS
;	COMDAT pdata
pdata	SEGMENT
$pdata$9$?ColorButton@ImGui@@YA_NPEBDAEBUImVec4@@HUImVec2@@@Z DD imagerel $LN55+1225
	DD	imagerel $LN55+1413
	DD	imagerel $chain$9$?ColorButton@ImGui@@YA_NPEBDAEBUImVec4@@HUImVec2@@@Z
pdata	ENDS
;	COMDAT pdata
pdata	SEGMENT
$pdata$10$?ColorButton@ImGui@@YA_NPEBDAEBUImVec4@@HUImVec2@@@Z DD imagerel $LN55+1413
	DD	imagerel $LN55+1459
	DD	imagerel $chain$10$?ColorButton@ImGui@@YA_NPEBDAEBUImVec4@@HUImVec2@@@Z
pdata	ENDS
;	COMDAT pdata
pdata	SEGMENT
$pdata$?SetColorEditOptions@ImGui@@YAXH@Z DD imagerel $LN34
	DD	imagerel $LN34+270
	DD	imagerel $unwind$?SetColorEditOptions@ImGui@@YAXH@Z
pdata	ENDS
;	COMDAT pdata
pdata	SEGMENT
$pdata$?TreeNode@ImGui@@YA_NPEBD@Z DD imagerel $LN7
	DD	imagerel $LN7+85
	DD	imagerel $unwind$?TreeNode@ImGui@@YA_NPEBD@Z
pdata	ENDS
;	COMDAT pdata
pdata	SEGMENT
$pdata$?TreeNode@ImGui@@YA_NPEBD0ZZ DD imagerel $LN4
	DD	imagerel $LN4+39
	DD	imagerel $unwind$?TreeNode@ImGui@@YA_NPEBD0ZZ
pdata	ENDS
;	COMDAT pdata
pdata	SEGMENT
$pdata$?TreeNode@ImGui@@YA_NPEBXPEBDZZ DD imagerel $LN4
	DD	imagerel $LN4+39
	DD	imagerel $unwind$?TreeNode@ImGui@@YA_NPEBXPEBDZZ
pdata	ENDS
;	COMDAT pdata
pdata	SEGMENT
$pdata$?TreeNodeEx@ImGui@@YA_NPEBDH@Z DD imagerel $LN7
	DD	imagerel $LN7+101
	DD	imagerel $unwind$?TreeNodeEx@ImGui@@YA_NPEBDH@Z
pdata	ENDS
;	COMDAT pdata
pdata	SEGMENT
$pdata$?TreeNodeEx@ImGui@@YA_NPEBDH0ZZ DD imagerel $LN4
	DD	imagerel $LN4+29
	DD	imagerel $unwind$?TreeNodeEx@ImGui@@YA_NPEBDH0ZZ
pdata	ENDS
;	COMDAT pdata
pdata	SEGMENT
$pdata$?TreeNodeEx@ImGui@@YA_NPEBXHPEBDZZ DD imagerel $LN4
	DD	imagerel $LN4+29
	DD	imagerel $unwind$?TreeNodeEx@ImGui@@YA_NPEBXHPEBDZZ
pdata	ENDS
;	COMDAT pdata
pdata	SEGMENT
$pdata$?TreeNodeExV@ImGui@@YA_NPEBDH0PEAD@Z DD imagerel $LN7
	DD	imagerel $LN7+179
	DD	imagerel $unwind$?TreeNodeExV@ImGui@@YA_NPEBDH0PEAD@Z
pdata	ENDS
;	COMDAT pdata
pdata	SEGMENT
$pdata$?TreeNodeExV@ImGui@@YA_NPEBXHPEBDPEAD@Z DD imagerel $LN7
	DD	imagerel $LN7+176
	DD	imagerel $unwind$?TreeNodeExV@ImGui@@YA_NPEBXHPEBDPEAD@Z
pdata	ENDS
;	COMDAT pdata
pdata	SEGMENT
$pdata$?TreePush@ImGui@@YAXPEBD@Z DD imagerel $LN6
	DD	imagerel $LN6+84
	DD	imagerel $unwind$?TreePush@ImGui@@YAXPEBD@Z
pdata	ENDS
;	COMDAT pdata
pdata	SEGMENT
$pdata$?TreePush@ImGui@@YAXPEBX@Z DD imagerel $LN6
	DD	imagerel $LN6+84
	DD	imagerel $unwind$?TreePush@ImGui@@YAXPEBX@Z
pdata	ENDS
;	COMDAT pdata
pdata	SEGMENT
$pdata$?TreePop@ImGui@@YAXXZ DD imagerel $LN7
	DD	imagerel $LN7+199
	DD	imagerel $unwind$?TreePop@ImGui@@YAXXZ
pdata	ENDS
;	COMDAT pdata
pdata	SEGMENT
$pdata$?CollapsingHeader@ImGui@@YA_NPEBDH@Z DD imagerel $LN7
	DD	imagerel $LN7+104
	DD	imagerel $unwind$?CollapsingHeader@ImGui@@YA_NPEBDH@Z
pdata	ENDS
;	COMDAT pdata
pdata	SEGMENT
$pdata$?CollapsingHeader@ImGui@@YA_NPEBDPEA_NH@Z DD imagerel $LN36
	DD	imagerel $LN36+79
	DD	imagerel $unwind$?CollapsingHeader@ImGui@@YA_NPEBDPEA_NH@Z
pdata	ENDS
;	COMDAT pdata
pdata	SEGMENT
$pdata$0$?CollapsingHeader@ImGui@@YA_NPEBDPEA_NH@Z DD imagerel $LN36+79
	DD	imagerel $LN36+157
	DD	imagerel $chain$0$?CollapsingHeader@ImGui@@YA_NPEBDPEA_NH@Z
pdata	ENDS
;	COMDAT pdata
pdata	SEGMENT
$pdata$3$?CollapsingHeader@ImGui@@YA_NPEBDPEA_NH@Z DD imagerel $LN36+157
	DD	imagerel $LN36+349
	DD	imagerel $chain$3$?CollapsingHeader@ImGui@@YA_NPEBDPEA_NH@Z
pdata	ENDS
;	COMDAT pdata
pdata	SEGMENT
$pdata$4$?CollapsingHeader@ImGui@@YA_NPEBDPEA_NH@Z DD imagerel $LN36+349
	DD	imagerel $LN36+371
	DD	imagerel $chain$4$?CollapsingHeader@ImGui@@YA_NPEBDPEA_NH@Z
pdata	ENDS
;	COMDAT pdata
pdata	SEGMENT
$pdata$5$?CollapsingHeader@ImGui@@YA_NPEBDPEA_NH@Z DD imagerel $LN36+371
	DD	imagerel $LN36+386
	DD	imagerel $chain$5$?CollapsingHeader@ImGui@@YA_NPEBDPEA_NH@Z
pdata	ENDS
;	COMDAT pdata
pdata	SEGMENT
$pdata$?Selectable@ImGui@@YA_NPEBD_NHAEBUImVec2@@@Z DD imagerel $LN66
	DD	imagerel $LN66+105
	DD	imagerel $unwind$?Selectable@ImGui@@YA_NPEBD_NHAEBUImVec2@@@Z
pdata	ENDS
;	COMDAT pdata
pdata	SEGMENT
$pdata$3$?Selectable@ImGui@@YA_NPEBD_NHAEBUImVec2@@@Z DD imagerel $LN66+105
	DD	imagerel $LN66+570
	DD	imagerel $chain$3$?Selectable@ImGui@@YA_NPEBD_NHAEBUImVec2@@@Z
pdata	ENDS
;	COMDAT pdata
pdata	SEGMENT
$pdata$4$?Selectable@ImGui@@YA_NPEBD_NHAEBUImVec2@@@Z DD imagerel $LN66+570
	DD	imagerel $LN66+1181
	DD	imagerel $chain$4$?Selectable@ImGui@@YA_NPEBD_NHAEBUImVec2@@@Z
pdata	ENDS
;	COMDAT pdata
pdata	SEGMENT
$pdata$?Selectable@ImGui@@YA_NPEBDPEA_NHAEBUImVec2@@@Z DD imagerel $LN5
	DD	imagerel $LN5+45
	DD	imagerel $unwind$?Selectable@ImGui@@YA_NPEBDPEA_NHAEBUImVec2@@@Z
pdata	ENDS
;	COMDAT pdata
pdata	SEGMENT
$pdata$?ListBox@ImGui@@YA_NPEBDPEAHQEBQEBDHH@Z DD imagerel $LN41
	DD	imagerel $LN41+453
	DD	imagerel $unwind$?ListBox@ImGui@@YA_NPEBDPEAHQEBQEBDHH@Z
pdata	ENDS
;	COMDAT pdata
pdata	SEGMENT
$pdata$?ListBox@ImGui@@YA_NPEBDPEAHP6A_NPEAXHPEAPEBD@Z2HH@Z DD imagerel $LN36
	DD	imagerel $LN36+478
	DD	imagerel $unwind$?ListBox@ImGui@@YA_NPEBDPEAHP6A_NPEAXHPEAPEBD@Z2HH@Z
pdata	ENDS
;	COMDAT pdata
pdata	SEGMENT
$pdata$?ListBoxHeader@ImGui@@YA_NPEBDAEBUImVec2@@@Z DD imagerel $LN45
	DD	imagerel $LN45+532
	DD	imagerel $unwind$?ListBoxHeader@ImGui@@YA_NPEBDAEBUImVec2@@@Z
pdata	ENDS
;	COMDAT pdata
pdata	SEGMENT
$pdata$?ListBoxHeader@ImGui@@YA_NPEBDHH@Z DD imagerel $LN55
	DD	imagerel $LN55+659
	DD	imagerel $unwind$?ListBoxHeader@ImGui@@YA_NPEBDHH@Z
pdata	ENDS
;	COMDAT pdata
pdata	SEGMENT
$pdata$?ListBoxFooter@ImGui@@YAXXZ DD imagerel $LN6
	DD	imagerel $LN6+145
	DD	imagerel $unwind$?ListBoxFooter@ImGui@@YAXXZ
pdata	ENDS
;	COMDAT pdata
pdata	SEGMENT
$pdata$?PlotLines@ImGui@@YAXPEBDPEBMHH0MMUImVec2@@H@Z DD imagerel $LN6
	DD	imagerel $LN6+110
	DD	imagerel $unwind$?PlotLines@ImGui@@YAXPEBDPEBMHH0MMUImVec2@@H@Z
pdata	ENDS
;	COMDAT pdata
pdata	SEGMENT
$pdata$?PlotLines@ImGui@@YAXPEBDP6AMPEAXH@Z1HH0MMUImVec2@@@Z DD imagerel $LN4
	DD	imagerel $LN4+95
	DD	imagerel $unwind$?PlotLines@ImGui@@YAXPEBDP6AMPEAXH@Z1HH0MMUImVec2@@@Z
pdata	ENDS
;	COMDAT pdata
pdata	SEGMENT
$pdata$?PlotHistogram@ImGui@@YAXPEBDPEBMHH0MMUImVec2@@H@Z DD imagerel $LN6
	DD	imagerel $LN6+113
	DD	imagerel $unwind$?PlotHistogram@ImGui@@YAXPEBDPEBMHH0MMUImVec2@@H@Z
pdata	ENDS
;	COMDAT pdata
pdata	SEGMENT
$pdata$?PlotHistogram@ImGui@@YAXPEBDP6AMPEAXH@Z1HH0MMUImVec2@@@Z DD imagerel $LN4
	DD	imagerel $LN4+98
	DD	imagerel $unwind$?PlotHistogram@ImGui@@YAXPEBDP6AMPEAXH@Z1HH0MMUImVec2@@@Z
pdata	ENDS
;	COMDAT pdata
pdata	SEGMENT
$pdata$?Value@ImGui@@YAXPEBDM0@Z DD imagerel $LN7
	DD	imagerel $LN7+126
	DD	imagerel $unwind$?Value@ImGui@@YAXPEBDM0@Z
pdata	ENDS
;	COMDAT pdata
pdata	SEGMENT
$pdata$?BeginMenuBar@ImGui@@YA_NXZ DD imagerel $LN57
	DD	imagerel $LN57+67
	DD	imagerel $unwind$?BeginMenuBar@ImGui@@YA_NXZ
pdata	ENDS
;	COMDAT pdata
pdata	SEGMENT
$pdata$1$?BeginMenuBar@ImGui@@YA_NXZ DD imagerel $LN57+67
	DD	imagerel $LN57+453
	DD	imagerel $chain$1$?BeginMenuBar@ImGui@@YA_NXZ
pdata	ENDS
;	COMDAT pdata
pdata	SEGMENT
$pdata$2$?BeginMenuBar@ImGui@@YA_NXZ DD imagerel $LN57+453
	DD	imagerel $LN57+540
	DD	imagerel $chain$2$?BeginMenuBar@ImGui@@YA_NXZ
pdata	ENDS
;	COMDAT pdata
pdata	SEGMENT
$pdata$?EndMenuBar@ImGui@@YAXXZ DD imagerel $LN24
	DD	imagerel $LN24+47
	DD	imagerel $unwind$?EndMenuBar@ImGui@@YAXXZ
pdata	ENDS
;	COMDAT pdata
pdata	SEGMENT
$pdata$0$?EndMenuBar@ImGui@@YAXXZ DD imagerel $LN24+47
	DD	imagerel $LN24+282
	DD	imagerel $chain$0$?EndMenuBar@ImGui@@YAXXZ
pdata	ENDS
;	COMDAT pdata
pdata	SEGMENT
$pdata$1$?EndMenuBar@ImGui@@YAXXZ DD imagerel $LN24+282
	DD	imagerel $LN24+494
	DD	imagerel $chain$1$?EndMenuBar@ImGui@@YAXXZ
pdata	ENDS
;	COMDAT pdata
pdata	SEGMENT
$pdata$?BeginMainMenuBar@ImGui@@YA_NXZ DD imagerel $LN23
	DD	imagerel $LN23+300
	DD	imagerel $unwind$?BeginMainMenuBar@ImGui@@YA_NXZ
pdata	ENDS
;	COMDAT pdata
pdata	SEGMENT
$pdata$?EndMainMenuBar@ImGui@@YAXXZ DD imagerel $LN5
	DD	imagerel $LN5+66
	DD	imagerel $unwind$?EndMainMenuBar@ImGui@@YAXXZ
pdata	ENDS
;	COMDAT pdata
pdata	SEGMENT
$pdata$?BeginMenu@ImGui@@YA_NPEBD_N@Z DD imagerel $LN160
	DD	imagerel $LN160+215
	DD	imagerel $unwind$?BeginMenu@ImGui@@YA_NPEBD_N@Z
pdata	ENDS
;	COMDAT pdata
pdata	SEGMENT
$pdata$7$?BeginMenu@ImGui@@YA_NPEBD_N@Z DD imagerel $LN160+215
	DD	imagerel $LN160+273
	DD	imagerel $chain$7$?BeginMenu@ImGui@@YA_NPEBD_N@Z
pdata	ENDS
;	COMDAT pdata
pdata	SEGMENT
$pdata$8$?BeginMenu@ImGui@@YA_NPEBD_N@Z DD imagerel $LN160+273
	DD	imagerel $LN160+302
	DD	imagerel $chain$8$?BeginMenu@ImGui@@YA_NPEBD_N@Z
pdata	ENDS
;	COMDAT pdata
pdata	SEGMENT
$pdata$11$?BeginMenu@ImGui@@YA_NPEBD_N@Z DD imagerel $LN160+302
	DD	imagerel $LN160+797
	DD	imagerel $chain$11$?BeginMenu@ImGui@@YA_NPEBD_N@Z
pdata	ENDS
;	COMDAT pdata
pdata	SEGMENT
$pdata$12$?BeginMenu@ImGui@@YA_NPEBD_N@Z DD imagerel $LN160+797
	DD	imagerel $LN160+1050
	DD	imagerel $chain$12$?BeginMenu@ImGui@@YA_NPEBD_N@Z
pdata	ENDS
;	COMDAT pdata
pdata	SEGMENT
$pdata$13$?BeginMenu@ImGui@@YA_NPEBD_N@Z DD imagerel $LN160+1050
	DD	imagerel $LN160+1080
	DD	imagerel $chain$13$?BeginMenu@ImGui@@YA_NPEBD_N@Z
pdata	ENDS
;	COMDAT pdata
pdata	SEGMENT
$pdata$14$?BeginMenu@ImGui@@YA_NPEBD_N@Z DD imagerel $LN160+1080
	DD	imagerel $LN160+1827
	DD	imagerel $chain$14$?BeginMenu@ImGui@@YA_NPEBD_N@Z
pdata	ENDS
;	COMDAT pdata
pdata	SEGMENT
$pdata$15$?BeginMenu@ImGui@@YA_NPEBD_N@Z DD imagerel $LN160+1827
	DD	imagerel $LN160+2012
	DD	imagerel $chain$15$?BeginMenu@ImGui@@YA_NPEBD_N@Z
pdata	ENDS
;	COMDAT pdata
pdata	SEGMENT
$pdata$?EndMenu@ImGui@@YAXXZ DD imagerel $LN6
	DD	imagerel $LN6+25
	DD	imagerel $unwind$?EndMenu@ImGui@@YAXXZ
pdata	ENDS
;	COMDAT pdata
pdata	SEGMENT
$pdata$0$?EndMenu@ImGui@@YAXXZ DD imagerel $LN6+25
	DD	imagerel $LN6+96
	DD	imagerel $chain$0$?EndMenu@ImGui@@YAXXZ
pdata	ENDS
;	COMDAT pdata
pdata	SEGMENT
$pdata$1$?EndMenu@ImGui@@YAXXZ DD imagerel $LN6+96
	DD	imagerel $LN6+106
	DD	imagerel $chain$1$?EndMenu@ImGui@@YAXXZ
pdata	ENDS
;	COMDAT pdata
pdata	SEGMENT
$pdata$?MenuItem@ImGui@@YA_NPEBD0_N1@Z DD imagerel $LN39
	DD	imagerel $LN39+80
	DD	imagerel $unwind$?MenuItem@ImGui@@YA_NPEBD0_N1@Z
pdata	ENDS
;	COMDAT pdata
pdata	SEGMENT
$pdata$5$?MenuItem@ImGui@@YA_NPEBD0_N1@Z DD imagerel $LN39+80
	DD	imagerel $LN39+410
	DD	imagerel $chain$5$?MenuItem@ImGui@@YA_NPEBD0_N1@Z
pdata	ENDS
;	COMDAT pdata
pdata	SEGMENT
$pdata$6$?MenuItem@ImGui@@YA_NPEBD0_N1@Z DD imagerel $LN39+410
	DD	imagerel $LN39+419
	DD	imagerel $chain$6$?MenuItem@ImGui@@YA_NPEBD0_N1@Z
pdata	ENDS
;	COMDAT pdata
pdata	SEGMENT
$pdata$7$?MenuItem@ImGui@@YA_NPEBD0_N1@Z DD imagerel $LN39+419
	DD	imagerel $LN39+596
	DD	imagerel $chain$7$?MenuItem@ImGui@@YA_NPEBD0_N1@Z
pdata	ENDS
;	COMDAT pdata
pdata	SEGMENT
$pdata$8$?MenuItem@ImGui@@YA_NPEBD0_N1@Z DD imagerel $LN39+596
	DD	imagerel $LN39+794
	DD	imagerel $chain$8$?MenuItem@ImGui@@YA_NPEBD0_N1@Z
pdata	ENDS
;	COMDAT pdata
pdata	SEGMENT
$pdata$9$?MenuItem@ImGui@@YA_NPEBD0_N1@Z DD imagerel $LN39+794
	DD	imagerel $LN39+842
	DD	imagerel $chain$9$?MenuItem@ImGui@@YA_NPEBD0_N1@Z
pdata	ENDS
;	COMDAT pdata
pdata	SEGMENT
$pdata$10$?MenuItem@ImGui@@YA_NPEBD0_N1@Z DD imagerel $LN39+842
	DD	imagerel $LN39+867
	DD	imagerel $chain$10$?MenuItem@ImGui@@YA_NPEBD0_N1@Z
pdata	ENDS
;	COMDAT pdata
pdata	SEGMENT
$pdata$?MenuItem@ImGui@@YA_NPEBD0PEA_N_N@Z DD imagerel $LN8
	DD	imagerel $LN8+56
	DD	imagerel $unwind$?MenuItem@ImGui@@YA_NPEBD0PEA_N_N@Z
pdata	ENDS
;	COMDAT pdata
pdata	SEGMENT
$pdata$?Columns@ImGui@@YAXHPEBD_N@Z DD imagerel $LN10
	DD	imagerel $LN10+157
	DD	imagerel $unwind$?Columns@ImGui@@YAXHPEBD_N@Z
pdata	ENDS
;	COMDAT pdata
pdata	SEGMENT
$pdata$?NextColumn@ImGui@@YAXXZ DD imagerel $LN24
	DD	imagerel $LN24+47
	DD	imagerel $unwind$?NextColumn@ImGui@@YAXXZ
pdata	ENDS
;	COMDAT pdata
pdata	SEGMENT
$pdata$1$?NextColumn@ImGui@@YAXXZ DD imagerel $LN24+47
	DD	imagerel $LN24+178
	DD	imagerel $chain$1$?NextColumn@ImGui@@YAXXZ
pdata	ENDS
;	COMDAT pdata
pdata	SEGMENT
$pdata$7$?NextColumn@ImGui@@YAXXZ DD imagerel $LN24+178
	DD	imagerel $LN24+507
	DD	imagerel $chain$7$?NextColumn@ImGui@@YAXXZ
pdata	ENDS
;	COMDAT pdata
pdata	SEGMENT
$pdata$3$?NextColumn@ImGui@@YAXXZ DD imagerel $LN24+507
	DD	imagerel $LN24+512
	DD	imagerel $chain$3$?NextColumn@ImGui@@YAXXZ
pdata	ENDS
;	COMDAT pdata
pdata	SEGMENT
$pdata$8$?NextColumn@ImGui@@YAXXZ DD imagerel $LN24+512
	DD	imagerel $LN24+517
	DD	imagerel $chain$8$?NextColumn@ImGui@@YAXXZ
pdata	ENDS
;	COMDAT pdata
pdata	SEGMENT
$pdata$9$?NextColumn@ImGui@@YAXXZ DD imagerel $LN24+517
	DD	imagerel $LN24+523
	DD	imagerel $chain$9$?NextColumn@ImGui@@YAXXZ
pdata	ENDS
;	COMDAT pdata
pdata	SEGMENT
$pdata$?GetColumnWidth@ImGui@@YAMH@Z DD imagerel $LN14
	DD	imagerel $LN14+220
	DD	imagerel $unwind$?GetColumnWidth@ImGui@@YAMH@Z
pdata	ENDS
;	COMDAT pdata
pdata	SEGMENT
$pdata$?SetColumnWidth@ImGui@@YAXHM@Z DD imagerel $LN8
	DD	imagerel $LN8+116
	DD	imagerel $unwind$?SetColumnWidth@ImGui@@YAXHM@Z
pdata	ENDS
;	COMDAT pdata
pdata	SEGMENT
$pdata$?GetColumnOffset@ImGui@@YAMH@Z DD imagerel $LN15
	DD	imagerel $LN15+163
	DD	imagerel $unwind$?GetColumnOffset@ImGui@@YAMH@Z
pdata	ENDS
;	COMDAT pdata
pdata	SEGMENT
$pdata$?SetColumnOffset@ImGui@@YAXHM@Z DD imagerel $LN55
	DD	imagerel $LN55+607
	DD	imagerel $unwind$?SetColumnOffset@ImGui@@YAXHM@Z
pdata	ENDS
;	COMDAT pdata
pdata	SEGMENT
$pdata$?BeginTabBar@ImGui@@YA_NPEBDH@Z DD imagerel $LN17
	DD	imagerel $LN17+300
	DD	imagerel $unwind$?BeginTabBar@ImGui@@YA_NPEBDH@Z
pdata	ENDS
;	COMDAT pdata
pdata	SEGMENT
$pdata$?EndTabBar@ImGui@@YAXXZ DD imagerel $LN37
	DD	imagerel $LN37+37
	DD	imagerel $unwind$?EndTabBar@ImGui@@YAXXZ
pdata	ENDS
;	COMDAT pdata
pdata	SEGMENT
$pdata$0$?EndTabBar@ImGui@@YAXXZ DD imagerel $LN37+37
	DD	imagerel $LN37+96
	DD	imagerel $chain$0$?EndTabBar@ImGui@@YAXXZ
pdata	ENDS
;	COMDAT pdata
pdata	SEGMENT
$pdata$2$?EndTabBar@ImGui@@YAXXZ DD imagerel $LN37+96
	DD	imagerel $LN37+382
	DD	imagerel $chain$2$?EndTabBar@ImGui@@YAXXZ
pdata	ENDS
;	COMDAT pdata
pdata	SEGMENT
$pdata$3$?EndTabBar@ImGui@@YAXXZ DD imagerel $LN37+382
	DD	imagerel $LN37+393
	DD	imagerel $chain$3$?EndTabBar@ImGui@@YAXXZ
pdata	ENDS
;	COMDAT pdata
pdata	SEGMENT
$pdata$?BeginTabItem@ImGui@@YA_NPEBDPEA_NH@Z DD imagerel $LN10
	DD	imagerel $LN10+161
	DD	imagerel $unwind$?BeginTabItem@ImGui@@YA_NPEBDPEA_NH@Z
pdata	ENDS
;	COMDAT pdata
pdata	SEGMENT
$pdata$?EndTabItem@ImGui@@YAXXZ DD imagerel $LN16
	DD	imagerel $LN16+90
	DD	imagerel $unwind$?EndTabItem@ImGui@@YAXXZ
pdata	ENDS
;	COMDAT pdata
pdata	SEGMENT
$pdata$0$?EndTabItem@ImGui@@YAXXZ DD imagerel $LN16+90
	DD	imagerel $LN16+187
	DD	imagerel $chain$0$?EndTabItem@ImGui@@YAXXZ
pdata	ENDS
;	COMDAT pdata
pdata	SEGMENT
$pdata$1$?EndTabItem@ImGui@@YAXXZ DD imagerel $LN16+187
	DD	imagerel $LN16+248
	DD	imagerel $chain$1$?EndTabItem@ImGui@@YAXXZ
pdata	ENDS
;	COMDAT pdata
pdata	SEGMENT
$pdata$?SetTabItemClosed@ImGui@@YAXPEBD@Z DD imagerel $LN26
	DD	imagerel $LN26+53
	DD	imagerel $unwind$?SetTabItemClosed@ImGui@@YAXPEBD@Z
pdata	ENDS
;	COMDAT pdata
pdata	SEGMENT
$pdata$0$?SetTabItemClosed@ImGui@@YAXPEBD@Z DD imagerel $LN26+53
	DD	imagerel $LN26+272
	DD	imagerel $chain$0$?SetTabItemClosed@ImGui@@YAXPEBD@Z
pdata	ENDS
;	COMDAT pdata
pdata	SEGMENT
$pdata$1$?SetTabItemClosed@ImGui@@YAXPEBD@Z DD imagerel $LN26+272
	DD	imagerel $LN26+302
	DD	imagerel $chain$1$?SetTabItemClosed@ImGui@@YAXPEBD@Z
pdata	ENDS
;	COMDAT pdata
pdata	SEGMENT
$pdata$??1?$ImVector@G@@QEAA@XZ DD imagerel $LN6
	DD	imagerel $LN6+24
	DD	imagerel $unwind$??1?$ImVector@G@@QEAA@XZ
pdata	ENDS
;	COMDAT pdata
pdata	SEGMENT
$pdata$??A?$ImVector@G@@QEAAAEAGH@Z DD imagerel $LN5
	DD	imagerel $LN5+65
	DD	imagerel $unwind$??A?$ImVector@G@@QEAAAEAGH@Z
pdata	ENDS
;	COMDAT pdata
pdata	SEGMENT
$pdata$??A?$ImVector@G@@QEBAAEBGH@Z DD imagerel $LN5
	DD	imagerel $LN5+65
	DD	imagerel $unwind$??A?$ImVector@G@@QEBAAEBGH@Z
pdata	ENDS
;	COMDAT pdata
pdata	SEGMENT
$pdata$?resize@?$ImVector@G@@QEAAXH@Z DD imagerel $LN16
	DD	imagerel $LN16+26
	DD	imagerel $unwind$?resize@?$ImVector@G@@QEAAXH@Z
pdata	ENDS
;	COMDAT pdata
pdata	SEGMENT
$pdata$1$?resize@?$ImVector@G@@QEAAXH@Z DD imagerel $LN16+26
	DD	imagerel $LN16+143
	DD	imagerel $chain$1$?resize@?$ImVector@G@@QEAAXH@Z
pdata	ENDS
;	COMDAT pdata
pdata	SEGMENT
$pdata$3$?resize@?$ImVector@G@@QEAAXH@Z DD imagerel $LN16+143
	DD	imagerel $LN16+161
	DD	imagerel $chain$3$?resize@?$ImVector@G@@QEAAXH@Z
pdata	ENDS
;	COMDAT pdata
pdata	SEGMENT
$pdata$4$?resize@?$ImVector@G@@QEAAXH@Z DD imagerel $LN16+161
	DD	imagerel $LN16+174
	DD	imagerel $chain$4$?resize@?$ImVector@G@@QEAAXH@Z
pdata	ENDS
;	COMDAT pdata
pdata	SEGMENT
$pdata$?reserve@?$ImVector@G@@QEAAXH@Z DD imagerel $LN6
	DD	imagerel $LN6+24
	DD	imagerel $unwind$?reserve@?$ImVector@G@@QEAAXH@Z
pdata	ENDS
;	COMDAT pdata
pdata	SEGMENT
$pdata$0$?reserve@?$ImVector@G@@QEAAXH@Z DD imagerel $LN6+24
	DD	imagerel $LN6+84
	DD	imagerel $chain$0$?reserve@?$ImVector@G@@QEAAXH@Z
pdata	ENDS
;	COMDAT pdata
pdata	SEGMENT
$pdata$1$?reserve@?$ImVector@G@@QEAAXH@Z DD imagerel $LN6+84
	DD	imagerel $LN6+95
	DD	imagerel $chain$1$?reserve@?$ImVector@G@@QEAAXH@Z
pdata	ENDS
;	COMDAT pdata
pdata	SEGMENT
$pdata$?DeleteChars@ImGuiInputTextCallbackData@@QEAAXHH@Z DD imagerel $LN14
	DD	imagerel $LN14+154
	DD	imagerel $unwind$?DeleteChars@ImGuiInputTextCallbackData@@QEAAXHH@Z
pdata	ENDS
;	COMDAT pdata
pdata	SEGMENT
$pdata$?InsertChars@ImGuiInputTextCallbackData@@QEAAXHPEBD0@Z DD imagerel $LN21
	DD	imagerel $LN21+92
	DD	imagerel $unwind$?InsertChars@ImGuiInputTextCallbackData@@QEAAXHPEBD0@Z
pdata	ENDS
;	COMDAT pdata
pdata	SEGMENT
$pdata$1$?InsertChars@ImGuiInputTextCallbackData@@QEAAXHPEBD0@Z DD imagerel $LN21+92
	DD	imagerel $LN21+273
	DD	imagerel $chain$1$?InsertChars@ImGuiInputTextCallbackData@@QEAAXHPEBD0@Z
pdata	ENDS
;	COMDAT pdata
pdata	SEGMENT
$pdata$2$?InsertChars@ImGuiInputTextCallbackData@@QEAAXHPEBD0@Z DD imagerel $LN21+273
	DD	imagerel $LN21+391
	DD	imagerel $chain$2$?InsertChars@ImGuiInputTextCallbackData@@QEAAXHPEBD0@Z
pdata	ENDS
;	COMDAT pdata
pdata	SEGMENT
$pdata$?InputFloat@ImGui@@YA_NPEBDPEAMMMHH@Z DD imagerel $LN7
	DD	imagerel $LN7+242
	DD	imagerel $unwind$?InputFloat@ImGui@@YA_NPEBDPEAMMMHH@Z
pdata	ENDS
;	COMDAT pdata
pdata	SEGMENT
$pdata$?InputFloat2@ImGui@@YA_NPEBDQEAMHH@Z DD imagerel $LN5
	DD	imagerel $LN5+163
	DD	imagerel $unwind$?InputFloat2@ImGui@@YA_NPEBDQEAMHH@Z
pdata	ENDS
;	COMDAT pdata
pdata	SEGMENT
$pdata$?InputFloat3@ImGui@@YA_NPEBDQEAMHH@Z DD imagerel $LN5
	DD	imagerel $LN5+163
	DD	imagerel $unwind$?InputFloat3@ImGui@@YA_NPEBDQEAMHH@Z
pdata	ENDS
;	COMDAT pdata
pdata	SEGMENT
$pdata$?InputFloat4@ImGui@@YA_NPEBDQEAMHH@Z DD imagerel $LN5
	DD	imagerel $LN5+163
	DD	imagerel $unwind$?InputFloat4@ImGui@@YA_NPEBDQEAMHH@Z
pdata	ENDS
;	COMDAT pdata
pdata	SEGMENT
$pdata$??1?$ImVector@D@@QEAA@XZ DD imagerel $LN6
	DD	imagerel $LN6+24
	DD	imagerel $unwind$??1?$ImVector@D@@QEAA@XZ
pdata	ENDS
;	COMDAT pdata
pdata	SEGMENT
$pdata$?resize@?$ImVector@D@@QEAAXH@Z DD imagerel $LN16
	DD	imagerel $LN16+26
	DD	imagerel $unwind$?resize@?$ImVector@D@@QEAAXH@Z
pdata	ENDS
;	COMDAT pdata
pdata	SEGMENT
$pdata$1$?resize@?$ImVector@D@@QEAAXH@Z DD imagerel $LN16+26
	DD	imagerel $LN16+137
	DD	imagerel $chain$1$?resize@?$ImVector@D@@QEAAXH@Z
pdata	ENDS
;	COMDAT pdata
pdata	SEGMENT
$pdata$3$?resize@?$ImVector@D@@QEAAXH@Z DD imagerel $LN16+137
	DD	imagerel $LN16+155
	DD	imagerel $chain$3$?resize@?$ImVector@D@@QEAAXH@Z
pdata	ENDS
;	COMDAT pdata
pdata	SEGMENT
$pdata$4$?resize@?$ImVector@D@@QEAAXH@Z DD imagerel $LN16+155
	DD	imagerel $LN16+168
	DD	imagerel $chain$4$?resize@?$ImVector@D@@QEAAXH@Z
pdata	ENDS
;	COMDAT pdata
pdata	SEGMENT
$pdata$?reserve@?$ImVector@D@@QEAAXH@Z DD imagerel $LN6
	DD	imagerel $LN6+24
	DD	imagerel $unwind$?reserve@?$ImVector@D@@QEAAXH@Z
pdata	ENDS
;	COMDAT pdata
pdata	SEGMENT
$pdata$0$?reserve@?$ImVector@D@@QEAAXH@Z DD imagerel $LN6+24
	DD	imagerel $LN6+78
	DD	imagerel $chain$0$?reserve@?$ImVector@D@@QEAAXH@Z
pdata	ENDS
;	COMDAT pdata
pdata	SEGMENT
$pdata$1$?reserve@?$ImVector@D@@QEAAXH@Z DD imagerel $LN6+78
	DD	imagerel $LN6+89
	DD	imagerel $chain$1$?reserve@?$ImVector@D@@QEAAXH@Z
pdata	ENDS
;	COMDAT pdata
pdata	SEGMENT
$pdata$??1ImGuiTextBuffer@@QEAA@XZ DD imagerel $LN10
	DD	imagerel $LN10+24
	DD	imagerel $unwind$??1ImGuiTextBuffer@@QEAA@XZ
pdata	ENDS
;	COMDAT pdata
pdata	SEGMENT
$pdata$??0ImGuiListClipper@@QEAA@HM@Z DD imagerel $LN4
	DD	imagerel $LN4+23
	DD	imagerel $unwind$??0ImGuiListClipper@@QEAA@HM@Z
pdata	ENDS
;	COMDAT pdata
pdata	SEGMENT
$pdata$??1?$ImVector@UImDrawChannel@@@@QEAA@XZ DD imagerel $LN6
	DD	imagerel $LN6+24
	DD	imagerel $unwind$??1?$ImVector@UImDrawChannel@@@@QEAA@XZ
pdata	ENDS
;	COMDAT pdata
pdata	SEGMENT
$pdata$??1ImDrawListSplitter@@QEAA@XZ DD imagerel $LN10
	DD	imagerel $LN10+36
	DD	imagerel $unwind$??1ImDrawListSplitter@@QEAA@XZ
pdata	ENDS
;	COMDAT pdata
pdata	SEGMENT
$pdata$?reserve@?$ImVector@UImVec2@@@@QEAAXH@Z DD imagerel $LN6
	DD	imagerel $LN6+24
	DD	imagerel $unwind$?reserve@?$ImVector@UImVec2@@@@QEAAXH@Z
pdata	ENDS
;	COMDAT pdata
pdata	SEGMENT
$pdata$0$?reserve@?$ImVector@UImVec2@@@@QEAAXH@Z DD imagerel $LN6+24
	DD	imagerel $LN6+86
	DD	imagerel $chain$0$?reserve@?$ImVector@UImVec2@@@@QEAAXH@Z
pdata	ENDS
;	COMDAT pdata
pdata	SEGMENT
$pdata$1$?reserve@?$ImVector@UImVec2@@@@QEAAXH@Z DD imagerel $LN6+86
	DD	imagerel $LN6+97
	DD	imagerel $chain$1$?reserve@?$ImVector@UImVec2@@@@QEAAXH@Z
pdata	ENDS
;	COMDAT pdata
pdata	SEGMENT
$pdata$?push_back@?$ImVector@UImVec2@@@@QEAAXAEBUImVec2@@@Z DD imagerel $LN14
	DD	imagerel $LN14+28
	DD	imagerel $unwind$?push_back@?$ImVector@UImVec2@@@@QEAAXAEBUImVec2@@@Z
pdata	ENDS
;	COMDAT pdata
pdata	SEGMENT
$pdata$0$?push_back@?$ImVector@UImVec2@@@@QEAAXAEBUImVec2@@@Z DD imagerel $LN14+28
	DD	imagerel $LN14+76
	DD	imagerel $chain$0$?push_back@?$ImVector@UImVec2@@@@QEAAXAEBUImVec2@@@Z
pdata	ENDS
;	COMDAT pdata
pdata	SEGMENT
$pdata$1$?push_back@?$ImVector@UImVec2@@@@QEAAXAEBUImVec2@@@Z DD imagerel $LN14+76
	DD	imagerel $LN14+136
	DD	imagerel $chain$1$?push_back@?$ImVector@UImVec2@@@@QEAAXAEBUImVec2@@@Z
pdata	ENDS
;	COMDAT pdata
pdata	SEGMENT
$pdata$2$?push_back@?$ImVector@UImVec2@@@@QEAAXAEBUImVec2@@@Z DD imagerel $LN14+136
	DD	imagerel $LN14+141
	DD	imagerel $chain$2$?push_back@?$ImVector@UImVec2@@@@QEAAXAEBUImVec2@@@Z
pdata	ENDS
;	COMDAT pdata
pdata	SEGMENT
$pdata$3$?push_back@?$ImVector@UImVec2@@@@QEAAXAEBUImVec2@@@Z DD imagerel $LN14+141
	DD	imagerel $LN14+169
	DD	imagerel $chain$3$?push_back@?$ImVector@UImVec2@@@@QEAAXAEBUImVec2@@@Z
pdata	ENDS
;	COMDAT pdata
pdata	SEGMENT
$pdata$?PathLineTo@ImDrawList@@QEAAXAEBUImVec2@@@Z DD imagerel $LN16
	DD	imagerel $LN16+39
	DD	imagerel $unwind$?PathLineTo@ImDrawList@@QEAAXAEBUImVec2@@@Z
pdata	ENDS
;	COMDAT pdata
pdata	SEGMENT
$pdata$0$?PathLineTo@ImDrawList@@QEAAXAEBUImVec2@@@Z DD imagerel $LN16+39
	DD	imagerel $LN16+87
	DD	imagerel $chain$0$?PathLineTo@ImDrawList@@QEAAXAEBUImVec2@@@Z
pdata	ENDS
;	COMDAT pdata
pdata	SEGMENT
$pdata$1$?PathLineTo@ImDrawList@@QEAAXAEBUImVec2@@@Z DD imagerel $LN16+87
	DD	imagerel $LN16+167
	DD	imagerel $chain$1$?PathLineTo@ImDrawList@@QEAAXAEBUImVec2@@@Z
pdata	ENDS
;	COMDAT pdata
pdata	SEGMENT
$pdata$2$?PathLineTo@ImDrawList@@QEAAXAEBUImVec2@@@Z DD imagerel $LN16+167
	DD	imagerel $LN16+172
	DD	imagerel $chain$2$?PathLineTo@ImDrawList@@QEAAXAEBUImVec2@@@Z
pdata	ENDS
;	COMDAT pdata
pdata	SEGMENT
$pdata$3$?PathLineTo@ImDrawList@@QEAAXAEBUImVec2@@@Z DD imagerel $LN16+172
	DD	imagerel $LN16+207
	DD	imagerel $chain$3$?PathLineTo@ImDrawList@@QEAAXAEBUImVec2@@@Z
pdata	ENDS
;	COMDAT pdata
pdata	SEGMENT
$pdata$?PathFillConvex@ImDrawList@@QEAAXI@Z DD imagerel $LN4
	DD	imagerel $LN4+47
	DD	imagerel $unwind$?PathFillConvex@ImDrawList@@QEAAXI@Z
pdata	ENDS
;	COMDAT pdata
pdata	SEGMENT
$pdata$?PathStroke@ImDrawList@@QEAAXI_NM@Z DD imagerel $LN4
	DD	imagerel $LN4+58
	DD	imagerel $unwind$?PathStroke@ImDrawList@@QEAAXI_NM@Z
pdata	ENDS
;	COMDAT pdata
pdata	SEGMENT
$pdata$?back@?$ImVector@I@@QEAAAEAIXZ DD imagerel $LN5
	DD	imagerel $LN5+62
	DD	imagerel $unwind$?back@?$ImVector@I@@QEAAAEAIXZ
pdata	ENDS
;	COMDAT pdata
pdata	SEGMENT
$pdata$?reserve@?$ImVector@I@@QEAAXH@Z DD imagerel $LN6
	DD	imagerel $LN6+24
	DD	imagerel $unwind$?reserve@?$ImVector@I@@QEAAXH@Z
pdata	ENDS
;	COMDAT pdata
pdata	SEGMENT
$pdata$0$?reserve@?$ImVector@I@@QEAAXH@Z DD imagerel $LN6+24
	DD	imagerel $LN6+86
	DD	imagerel $chain$0$?reserve@?$ImVector@I@@QEAAXH@Z
pdata	ENDS
;	COMDAT pdata
pdata	SEGMENT
$pdata$1$?reserve@?$ImVector@I@@QEAAXH@Z DD imagerel $LN6+86
	DD	imagerel $LN6+97
	DD	imagerel $chain$1$?reserve@?$ImVector@I@@QEAAXH@Z
pdata	ENDS
;	COMDAT pdata
pdata	SEGMENT
$pdata$?push_back@?$ImVector@I@@QEAAXAEBI@Z DD imagerel $LN9
	DD	imagerel $LN9+94
	DD	imagerel $unwind$?push_back@?$ImVector@I@@QEAAXAEBI@Z
pdata	ENDS
;	COMDAT pdata
pdata	SEGMENT
$pdata$?pop_back@?$ImVector@I@@QEAAXXZ DD imagerel $LN6
	DD	imagerel $LN6+59
	DD	imagerel $unwind$?pop_back@?$ImVector@I@@QEAAXXZ
pdata	ENDS
;	COMDAT pdata
pdata	SEGMENT
$pdata$??A?$ImVector@M@@QEBAAEBMH@Z DD imagerel $LN5
	DD	imagerel $LN5+65
	DD	imagerel $unwind$??A?$ImVector@M@@QEBAAEBMH@Z
pdata	ENDS
;	COMDAT pdata
pdata	SEGMENT
$pdata$_vsscanf_l DD imagerel $LN4
	DD	imagerel $LN4+90
	DD	imagerel $unwind$_vsscanf_l
pdata	ENDS
;	COMDAT pdata
pdata	SEGMENT
$pdata$sscanf DD imagerel $LN6
	DD	imagerel $LN6+82
	DD	imagerel $unwind$sscanf
pdata	ENDS
;	COMDAT pdata
pdata	SEGMENT
$pdata$?ImParseFormatTrimDecorations@@YAPEBDPEBDPEAD_K@Z DD imagerel $LN23
	DD	imagerel $LN23+170
	DD	imagerel $unwind$?ImParseFormatTrimDecorations@@YAPEBDPEBDPEAD_K@Z
pdata	ENDS
;	COMDAT pdata
pdata	SEGMENT
$pdata$?Update@ImGuiMenuColumns@@QEAAXHM_N@Z DD imagerel $LN20
	DD	imagerel $LN20+215
	DD	imagerel $unwind$?Update@ImGuiMenuColumns@@QEAAXHM_N@Z
pdata	ENDS
;	COMDAT pdata
pdata	SEGMENT
$pdata$?OnKeyPressed@ImGuiInputTextState@@QEAAXH@Z DD imagerel $LN6
	DD	imagerel $LN6+44
	DD	imagerel $unwind$?OnKeyPressed@ImGuiInputTextState@@QEAAXH@Z
pdata	ENDS
;	COMDAT pdata
pdata	SEGMENT
$pdata$??1?$ImVector@UImGuiColumnData@@@@QEAA@XZ DD imagerel $LN6
	DD	imagerel $LN6+24
	DD	imagerel $unwind$??1?$ImVector@UImGuiColumnData@@@@QEAA@XZ
pdata	ENDS
;	COMDAT pdata
pdata	SEGMENT
$pdata$??A?$ImVector@UImGuiColumnData@@@@QEAAAEAUImGuiColumnData@@H@Z DD imagerel $LN5
	DD	imagerel $LN5+65
	DD	imagerel $unwind$??A?$ImVector@UImGuiColumnData@@@@QEAAAEAUImGuiColumnData@@H@Z
pdata	ENDS
;	COMDAT pdata
pdata	SEGMENT
$pdata$?clear@?$ImVector@UImGuiColumnData@@@@QEAAXXZ DD imagerel $LN5
	DD	imagerel $LN5+44
	DD	imagerel $unwind$?clear@?$ImVector@UImGuiColumnData@@@@QEAAXXZ
pdata	ENDS
;	COMDAT pdata
pdata	SEGMENT
$pdata$?resize@?$ImVector@UImGuiColumnData@@@@QEAAXH@Z DD imagerel $LN16
	DD	imagerel $LN16+26
	DD	imagerel $unwind$?resize@?$ImVector@UImGuiColumnData@@@@QEAAXH@Z
pdata	ENDS
;	COMDAT pdata
pdata	SEGMENT
$pdata$1$?resize@?$ImVector@UImGuiColumnData@@@@QEAAXH@Z DD imagerel $LN16+26
	DD	imagerel $LN16+145
	DD	imagerel $chain$1$?resize@?$ImVector@UImGuiColumnData@@@@QEAAXH@Z
pdata	ENDS
;	COMDAT pdata
pdata	SEGMENT
$pdata$3$?resize@?$ImVector@UImGuiColumnData@@@@QEAAXH@Z DD imagerel $LN16+145
	DD	imagerel $LN16+163
	DD	imagerel $chain$3$?resize@?$ImVector@UImGuiColumnData@@@@QEAAXH@Z
pdata	ENDS
;	COMDAT pdata
pdata	SEGMENT
$pdata$4$?resize@?$ImVector@UImGuiColumnData@@@@QEAAXH@Z DD imagerel $LN16+163
	DD	imagerel $LN16+176
	DD	imagerel $chain$4$?resize@?$ImVector@UImGuiColumnData@@@@QEAAXH@Z
pdata	ENDS
;	COMDAT pdata
pdata	SEGMENT
$pdata$?reserve@?$ImVector@UImGuiColumnData@@@@QEAAXH@Z DD imagerel $LN6
	DD	imagerel $LN6+25
	DD	imagerel $unwind$?reserve@?$ImVector@UImGuiColumnData@@@@QEAAXH@Z
pdata	ENDS
;	COMDAT pdata
pdata	SEGMENT
$pdata$0$?reserve@?$ImVector@UImGuiColumnData@@@@QEAAXH@Z DD imagerel $LN6+25
	DD	imagerel $LN6+83
	DD	imagerel $chain$0$?reserve@?$ImVector@UImGuiColumnData@@@@QEAAXH@Z
pdata	ENDS
;	COMDAT pdata
pdata	SEGMENT
$pdata$1$?reserve@?$ImVector@UImGuiColumnData@@@@QEAAXH@Z DD imagerel $LN6+83
	DD	imagerel $LN6+94
	DD	imagerel $chain$1$?reserve@?$ImVector@UImGuiColumnData@@@@QEAAXH@Z
pdata	ENDS
;	COMDAT pdata
pdata	SEGMENT
$pdata$?push_back@?$ImVector@UImGuiColumnData@@@@QEAAXAEBUImGuiColumnData@@@Z DD imagerel $LN14
	DD	imagerel $LN14+27
	DD	imagerel $unwind$?push_back@?$ImVector@UImGuiColumnData@@@@QEAAXAEBUImGuiColumnData@@@Z
pdata	ENDS
;	COMDAT pdata
pdata	SEGMENT
$pdata$0$?push_back@?$ImVector@UImGuiColumnData@@@@QEAAXAEBUImGuiColumnData@@@Z DD imagerel $LN14+27
	DD	imagerel $LN14+75
	DD	imagerel $chain$0$?push_back@?$ImVector@UImGuiColumnData@@@@QEAAXAEBUImGuiColumnData@@@Z
pdata	ENDS
;	COMDAT pdata
pdata	SEGMENT
$pdata$1$?push_back@?$ImVector@UImGuiColumnData@@@@QEAAXAEBUImGuiColumnData@@@Z DD imagerel $LN14+75
	DD	imagerel $LN14+135
	DD	imagerel $chain$1$?push_back@?$ImVector@UImGuiColumnData@@@@QEAAXAEBUImGuiColumnData@@@Z
pdata	ENDS
;	COMDAT pdata
pdata	SEGMENT
$pdata$2$?push_back@?$ImVector@UImGuiColumnData@@@@QEAAXAEBUImGuiColumnData@@@Z DD imagerel $LN14+135
	DD	imagerel $LN14+140
	DD	imagerel $chain$2$?push_back@?$ImVector@UImGuiColumnData@@@@QEAAXAEBUImGuiColumnData@@@Z
pdata	ENDS
;	COMDAT pdata
pdata	SEGMENT
$pdata$3$?push_back@?$ImVector@UImGuiColumnData@@@@QEAAXAEBUImGuiColumnData@@@Z DD imagerel $LN14+140
	DD	imagerel $LN14+187
	DD	imagerel $chain$3$?push_back@?$ImVector@UImGuiColumnData@@@@QEAAXAEBUImGuiColumnData@@@Z
pdata	ENDS
;	COMDAT pdata
pdata	SEGMENT
$pdata$??0ImGuiColumns@@QEAA@XZ DD imagerel $LN33
	DD	imagerel $LN33+127
	DD	imagerel $unwind$??0ImGuiColumns@@QEAA@XZ
pdata	ENDS
;	COMDAT pdata
pdata	SEGMENT
$pdata$?Clear@ImGuiColumns@@QEAAXXZ DD imagerel $LN7
	DD	imagerel $LN7+77
	DD	imagerel $unwind$?Clear@ImGuiColumns@@QEAAXXZ
pdata	ENDS
;	COMDAT pdata
pdata	SEGMENT
$pdata$??1ImGuiColumns@@QEAA@XZ DD imagerel $LN17
	DD	imagerel $LN17+64
	DD	imagerel $unwind$??1ImGuiColumns@@QEAA@XZ
pdata	ENDS
;	COMDAT pdata
pdata	SEGMENT
$pdata$??A?$ImVector@UImGuiPopupData@@@@QEAAAEAUImGuiPopupData@@H@Z DD imagerel $LN5
	DD	imagerel $LN5+69
	DD	imagerel $unwind$??A?$ImVector@UImGuiPopupData@@@@QEAAAEAUImGuiPopupData@@H@Z
pdata	ENDS
;	COMDAT pdata
pdata	SEGMENT
$pdata$??A?$ImVector@UImGuiTabBar@@@@QEAAAEAUImGuiTabBar@@H@Z DD imagerel $LN5
	DD	imagerel $LN5+68
	DD	imagerel $unwind$??A?$ImVector@UImGuiTabBar@@@@QEAAAEAUImGuiTabBar@@H@Z
pdata	ENDS
;	COMDAT pdata
pdata	SEGMENT
$pdata$?resize@?$ImVector@UImGuiTabBar@@@@QEAAXH@Z DD imagerel $LN16
	DD	imagerel $LN16+26
	DD	imagerel $unwind$?resize@?$ImVector@UImGuiTabBar@@@@QEAAXH@Z
pdata	ENDS
;	COMDAT pdata
pdata	SEGMENT
$pdata$1$?resize@?$ImVector@UImGuiTabBar@@@@QEAAXH@Z DD imagerel $LN16+26
	DD	imagerel $LN16+145
	DD	imagerel $chain$1$?resize@?$ImVector@UImGuiTabBar@@@@QEAAXH@Z
pdata	ENDS
;	COMDAT pdata
pdata	SEGMENT
$pdata$3$?resize@?$ImVector@UImGuiTabBar@@@@QEAAXH@Z DD imagerel $LN16+145
	DD	imagerel $LN16+163
	DD	imagerel $chain$3$?resize@?$ImVector@UImGuiTabBar@@@@QEAAXH@Z
pdata	ENDS
;	COMDAT pdata
pdata	SEGMENT
$pdata$4$?resize@?$ImVector@UImGuiTabBar@@@@QEAAXH@Z DD imagerel $LN16+163
	DD	imagerel $LN16+176
	DD	imagerel $chain$4$?resize@?$ImVector@UImGuiTabBar@@@@QEAAXH@Z
pdata	ENDS
;	COMDAT pdata
pdata	SEGMENT
$pdata$?reserve@?$ImVector@UImGuiTabBar@@@@QEAAXH@Z DD imagerel $LN6
	DD	imagerel $LN6+24
	DD	imagerel $unwind$?reserve@?$ImVector@UImGuiTabBar@@@@QEAAXH@Z
pdata	ENDS
;	COMDAT pdata
pdata	SEGMENT
$pdata$0$?reserve@?$ImVector@UImGuiTabBar@@@@QEAAXH@Z DD imagerel $LN6+24
	DD	imagerel $LN6+86
	DD	imagerel $chain$0$?reserve@?$ImVector@UImGuiTabBar@@@@QEAAXH@Z
pdata	ENDS
;	COMDAT pdata
pdata	SEGMENT
$pdata$1$?reserve@?$ImVector@UImGuiTabBar@@@@QEAAXH@Z DD imagerel $LN6+86
	DD	imagerel $LN6+97
	DD	imagerel $chain$1$?reserve@?$ImVector@UImGuiTabBar@@@@QEAAXH@Z
pdata	ENDS
;	COMDAT pdata
pdata	SEGMENT
$pdata$?GetByIndex@?$ImPool@UImGuiTabBar@@@@QEAAPEAUImGuiTabBar@@H@Z DD imagerel $LN7
	DD	imagerel $LN7+68
	DD	imagerel $unwind$?GetByIndex@?$ImPool@UImGuiTabBar@@@@QEAAPEAUImGuiTabBar@@H@Z
pdata	ENDS
;	COMDAT pdata
pdata	SEGMENT
$pdata$?GetIndex@?$ImPool@UImGuiTabBar@@@@QEBAHPEBUImGuiTabBar@@@Z DD imagerel $LN6
	DD	imagerel $LN6+90
	DD	imagerel $unwind$?GetIndex@?$ImPool@UImGuiTabBar@@@@QEBAHPEBUImGuiTabBar@@@Z
pdata	ENDS
;	COMDAT pdata
pdata	SEGMENT
$pdata$?GetOrAddByKey@?$ImPool@UImGuiTabBar@@@@QEAAPEAUImGuiTabBar@@I@Z DD imagerel $LN8
	DD	imagerel $LN8+114
	DD	imagerel $unwind$?GetOrAddByKey@?$ImPool@UImGuiTabBar@@@@QEAAPEAUImGuiTabBar@@I@Z
pdata	ENDS
;	COMDAT pdata
pdata	SEGMENT
$pdata$?Add@?$ImPool@UImGuiTabBar@@@@QEAAPEAUImGuiTabBar@@XZ DD imagerel $LN47
	DD	imagerel $LN47+12
	DD	imagerel $unwind$?Add@?$ImPool@UImGuiTabBar@@@@QEAAPEAUImGuiTabBar@@XZ
pdata	ENDS
;	COMDAT pdata
pdata	SEGMENT
$pdata$0$?Add@?$ImPool@UImGuiTabBar@@@@QEAAPEAUImGuiTabBar@@XZ DD imagerel $LN47+12
	DD	imagerel $LN47+21
	DD	imagerel $chain$0$?Add@?$ImPool@UImGuiTabBar@@@@QEAAPEAUImGuiTabBar@@XZ
pdata	ENDS
;	COMDAT pdata
pdata	SEGMENT
$pdata$1$?Add@?$ImPool@UImGuiTabBar@@@@QEAAPEAUImGuiTabBar@@XZ DD imagerel $LN47+21
	DD	imagerel $LN47+45
	DD	imagerel $chain$1$?Add@?$ImPool@UImGuiTabBar@@@@QEAAPEAUImGuiTabBar@@XZ
pdata	ENDS
;	COMDAT pdata
pdata	SEGMENT
$pdata$2$?Add@?$ImPool@UImGuiTabBar@@@@QEAAPEAUImGuiTabBar@@XZ DD imagerel $LN47+45
	DD	imagerel $LN47+90
	DD	imagerel $chain$2$?Add@?$ImPool@UImGuiTabBar@@@@QEAAPEAUImGuiTabBar@@XZ
pdata	ENDS
;	COMDAT pdata
pdata	SEGMENT
$pdata$3$?Add@?$ImPool@UImGuiTabBar@@@@QEAAPEAUImGuiTabBar@@XZ DD imagerel $LN47+90
	DD	imagerel $LN47+151
	DD	imagerel $chain$3$?Add@?$ImPool@UImGuiTabBar@@@@QEAAPEAUImGuiTabBar@@XZ
pdata	ENDS
;	COMDAT pdata
pdata	SEGMENT
$pdata$4$?Add@?$ImPool@UImGuiTabBar@@@@QEAAPEAUImGuiTabBar@@XZ DD imagerel $LN47+151
	DD	imagerel $LN47+156
	DD	imagerel $chain$4$?Add@?$ImPool@UImGuiTabBar@@@@QEAAPEAUImGuiTabBar@@XZ
pdata	ENDS
;	COMDAT pdata
pdata	SEGMENT
$pdata$5$?Add@?$ImPool@UImGuiTabBar@@@@QEAAPEAUImGuiTabBar@@XZ DD imagerel $LN47+156
	DD	imagerel $LN47+218
	DD	imagerel $chain$5$?Add@?$ImPool@UImGuiTabBar@@@@QEAAPEAUImGuiTabBar@@XZ
pdata	ENDS
;	COMDAT pdata
pdata	SEGMENT
$pdata$6$?Add@?$ImPool@UImGuiTabBar@@@@QEAAPEAUImGuiTabBar@@XZ DD imagerel $LN47+218
	DD	imagerel $LN47+358
	DD	imagerel $chain$6$?Add@?$ImPool@UImGuiTabBar@@@@QEAAPEAUImGuiTabBar@@XZ
pdata	ENDS
;	COMDAT pdata
pdata	SEGMENT
$pdata$7$?Add@?$ImPool@UImGuiTabBar@@@@QEAAPEAUImGuiTabBar@@XZ DD imagerel $LN47+358
	DD	imagerel $LN47+398
	DD	imagerel $chain$7$?Add@?$ImPool@UImGuiTabBar@@@@QEAAPEAUImGuiTabBar@@XZ
pdata	ENDS
;	COMDAT pdata
pdata	SEGMENT
$pdata$?back@?$ImVector@UImGuiPtrOrIndex@@@@QEAAAEAUImGuiPtrOrIndex@@XZ DD imagerel $LN5
	DD	imagerel $LN5+61
	DD	imagerel $unwind$?back@?$ImVector@UImGuiPtrOrIndex@@@@QEAAAEAUImGuiPtrOrIndex@@XZ
pdata	ENDS
;	COMDAT pdata
pdata	SEGMENT
$pdata$?reserve@?$ImVector@UImGuiPtrOrIndex@@@@QEAAXH@Z DD imagerel $LN6
	DD	imagerel $LN6+24
	DD	imagerel $unwind$?reserve@?$ImVector@UImGuiPtrOrIndex@@@@QEAAXH@Z
pdata	ENDS
;	COMDAT pdata
pdata	SEGMENT
$pdata$0$?reserve@?$ImVector@UImGuiPtrOrIndex@@@@QEAAXH@Z DD imagerel $LN6+24
	DD	imagerel $LN6+86
	DD	imagerel $chain$0$?reserve@?$ImVector@UImGuiPtrOrIndex@@@@QEAAXH@Z
pdata	ENDS
;	COMDAT pdata
pdata	SEGMENT
$pdata$1$?reserve@?$ImVector@UImGuiPtrOrIndex@@@@QEAAXH@Z DD imagerel $LN6+86
	DD	imagerel $LN6+97
	DD	imagerel $chain$1$?reserve@?$ImVector@UImGuiPtrOrIndex@@@@QEAAXH@Z
pdata	ENDS
;	COMDAT pdata
pdata	SEGMENT
$pdata$?push_back@?$ImVector@UImGuiPtrOrIndex@@@@QEAAXAEBUImGuiPtrOrIndex@@@Z DD imagerel $LN14
	DD	imagerel $LN14+27
	DD	imagerel $unwind$?push_back@?$ImVector@UImGuiPtrOrIndex@@@@QEAAXAEBUImGuiPtrOrIndex@@@Z
pdata	ENDS
;	COMDAT pdata
pdata	SEGMENT
$pdata$0$?push_back@?$ImVector@UImGuiPtrOrIndex@@@@QEAAXAEBUImGuiPtrOrIndex@@@Z DD imagerel $LN14+27
	DD	imagerel $LN14+75
	DD	imagerel $chain$0$?push_back@?$ImVector@UImGuiPtrOrIndex@@@@QEAAXAEBUImGuiPtrOrIndex@@@Z
pdata	ENDS
;	COMDAT pdata
pdata	SEGMENT
$pdata$1$?push_back@?$ImVector@UImGuiPtrOrIndex@@@@QEAAXAEBUImGuiPtrOrIndex@@@Z DD imagerel $LN14+75
	DD	imagerel $LN14+135
	DD	imagerel $chain$1$?push_back@?$ImVector@UImGuiPtrOrIndex@@@@QEAAXAEBUImGuiPtrOrIndex@@@Z
pdata	ENDS
;	COMDAT pdata
pdata	SEGMENT
$pdata$2$?push_back@?$ImVector@UImGuiPtrOrIndex@@@@QEAAXAEBUImGuiPtrOrIndex@@@Z DD imagerel $LN14+135
	DD	imagerel $LN14+140
	DD	imagerel $chain$2$?push_back@?$ImVector@UImGuiPtrOrIndex@@@@QEAAXAEBUImGuiPtrOrIndex@@@Z
pdata	ENDS
;	COMDAT pdata
pdata	SEGMENT
$pdata$3$?push_back@?$ImVector@UImGuiPtrOrIndex@@@@QEAAXAEBUImGuiPtrOrIndex@@@Z DD imagerel $LN14+140
	DD	imagerel $LN14+171
	DD	imagerel $chain$3$?push_back@?$ImVector@UImGuiPtrOrIndex@@@@QEAAXAEBUImGuiPtrOrIndex@@@Z
pdata	ENDS
;	COMDAT pdata
pdata	SEGMENT
$pdata$?pop_back@?$ImVector@UImGuiPtrOrIndex@@@@QEAAXXZ DD imagerel $LN6
	DD	imagerel $LN6+59
	DD	imagerel $unwind$?pop_back@?$ImVector@UImGuiPtrOrIndex@@@@QEAAXXZ
pdata	ENDS
;	COMDAT pdata
pdata	SEGMENT
$pdata$??A?$ImVector@UImGuiShrinkWidthItem@@@@QEAAAEAUImGuiShrinkWidthItem@@H@Z DD imagerel $LN5
	DD	imagerel $LN5+65
	DD	imagerel $unwind$??A?$ImVector@UImGuiShrinkWidthItem@@@@QEAAAEAUImGuiShrinkWidthItem@@H@Z
pdata	ENDS
;	COMDAT pdata
pdata	SEGMENT
$pdata$?resize@?$ImVector@UImGuiShrinkWidthItem@@@@QEAAXH@Z DD imagerel $LN16
	DD	imagerel $LN16+26
	DD	imagerel $unwind$?resize@?$ImVector@UImGuiShrinkWidthItem@@@@QEAAXH@Z
pdata	ENDS
;	COMDAT pdata
pdata	SEGMENT
$pdata$1$?resize@?$ImVector@UImGuiShrinkWidthItem@@@@QEAAXH@Z DD imagerel $LN16+26
	DD	imagerel $LN16+145
	DD	imagerel $chain$1$?resize@?$ImVector@UImGuiShrinkWidthItem@@@@QEAAXH@Z
pdata	ENDS
;	COMDAT pdata
pdata	SEGMENT
$pdata$3$?resize@?$ImVector@UImGuiShrinkWidthItem@@@@QEAAXH@Z DD imagerel $LN16+145
	DD	imagerel $LN16+163
	DD	imagerel $chain$3$?resize@?$ImVector@UImGuiShrinkWidthItem@@@@QEAAXH@Z
pdata	ENDS
;	COMDAT pdata
pdata	SEGMENT
$pdata$4$?resize@?$ImVector@UImGuiShrinkWidthItem@@@@QEAAXH@Z DD imagerel $LN16+163
	DD	imagerel $LN16+176
	DD	imagerel $chain$4$?resize@?$ImVector@UImGuiShrinkWidthItem@@@@QEAAXH@Z
pdata	ENDS
;	COMDAT pdata
pdata	SEGMENT
$pdata$?reserve@?$ImVector@UImGuiShrinkWidthItem@@@@QEAAXH@Z DD imagerel $LN6
	DD	imagerel $LN6+24
	DD	imagerel $unwind$?reserve@?$ImVector@UImGuiShrinkWidthItem@@@@QEAAXH@Z
pdata	ENDS
;	COMDAT pdata
pdata	SEGMENT
$pdata$0$?reserve@?$ImVector@UImGuiShrinkWidthItem@@@@QEAAXH@Z DD imagerel $LN6+24
	DD	imagerel $LN6+86
	DD	imagerel $chain$0$?reserve@?$ImVector@UImGuiShrinkWidthItem@@@@QEAAXH@Z
pdata	ENDS
;	COMDAT pdata
pdata	SEGMENT
$pdata$1$?reserve@?$ImVector@UImGuiShrinkWidthItem@@@@QEAAXH@Z DD imagerel $LN6+86
	DD	imagerel $LN6+97
	DD	imagerel $chain$1$?reserve@?$ImVector@UImGuiShrinkWidthItem@@@@QEAAXH@Z
pdata	ENDS
;	COMDAT pdata
pdata	SEGMENT
$pdata$?back@?$ImVector@UImGuiGroupData@@@@QEAAAEAUImGuiGroupData@@XZ DD imagerel $LN5
	DD	imagerel $LN5+62
	DD	imagerel $unwind$?back@?$ImVector@UImGuiGroupData@@@@QEAAAEAUImGuiGroupData@@XZ
pdata	ENDS
;	COMDAT pdata
pdata	SEGMENT
$pdata$??A?$ImVector@UImGuiColumns@@@@QEAAAEAUImGuiColumns@@H@Z DD imagerel $LN5
	DD	imagerel $LN5+65
	DD	imagerel $unwind$??A?$ImVector@UImGuiColumns@@@@QEAAAEAUImGuiColumns@@H@Z
pdata	ENDS
;	COMDAT pdata
pdata	SEGMENT
$pdata$?back@?$ImVector@UImGuiColumns@@@@QEAAAEAUImGuiColumns@@XZ DD imagerel $LN5
	DD	imagerel $LN5+62
	DD	imagerel $unwind$?back@?$ImVector@UImGuiColumns@@@@QEAAAEAUImGuiColumns@@XZ
pdata	ENDS
;	COMDAT pdata
pdata	SEGMENT
$pdata$?reserve@?$ImVector@UImGuiColumns@@@@QEAAXH@Z DD imagerel $LN6
	DD	imagerel $LN6+25
	DD	imagerel $unwind$?reserve@?$ImVector@UImGuiColumns@@@@QEAAXH@Z
pdata	ENDS
;	COMDAT pdata
pdata	SEGMENT
$pdata$0$?reserve@?$ImVector@UImGuiColumns@@@@QEAAXH@Z DD imagerel $LN6+25
	DD	imagerel $LN6+83
	DD	imagerel $chain$0$?reserve@?$ImVector@UImGuiColumns@@@@QEAAXH@Z
pdata	ENDS
;	COMDAT pdata
pdata	SEGMENT
$pdata$1$?reserve@?$ImVector@UImGuiColumns@@@@QEAAXH@Z DD imagerel $LN6+83
	DD	imagerel $LN6+94
	DD	imagerel $chain$1$?reserve@?$ImVector@UImGuiColumns@@@@QEAAXH@Z
pdata	ENDS
;	COMDAT pdata
pdata	SEGMENT
$pdata$?push_back@?$ImVector@UImGuiColumns@@@@QEAAXAEBUImGuiColumns@@@Z DD imagerel $LN14
	DD	imagerel $LN14+27
	DD	imagerel $unwind$?push_back@?$ImVector@UImGuiColumns@@@@QEAAXAEBUImGuiColumns@@@Z
pdata	ENDS
;	COMDAT pdata
pdata	SEGMENT
$pdata$0$?push_back@?$ImVector@UImGuiColumns@@@@QEAAXAEBUImGuiColumns@@@Z DD imagerel $LN14+27
	DD	imagerel $LN14+75
	DD	imagerel $chain$0$?push_back@?$ImVector@UImGuiColumns@@@@QEAAXAEBUImGuiColumns@@@Z
pdata	ENDS
;	COMDAT pdata
pdata	SEGMENT
$pdata$1$?push_back@?$ImVector@UImGuiColumns@@@@QEAAXAEBUImGuiColumns@@@Z DD imagerel $LN14+75
	DD	imagerel $LN14+135
	DD	imagerel $chain$1$?push_back@?$ImVector@UImGuiColumns@@@@QEAAXAEBUImGuiColumns@@@Z
pdata	ENDS
;	COMDAT pdata
pdata	SEGMENT
$pdata$2$?push_back@?$ImVector@UImGuiColumns@@@@QEAAXAEBUImGuiColumns@@@Z DD imagerel $LN14+135
	DD	imagerel $LN14+140
	DD	imagerel $chain$2$?push_back@?$ImVector@UImGuiColumns@@@@QEAAXAEBUImGuiColumns@@@Z
pdata	ENDS
;	COMDAT pdata
pdata	SEGMENT
$pdata$3$?push_back@?$ImVector@UImGuiColumns@@@@QEAAXAEBUImGuiColumns@@@Z DD imagerel $LN14+140
	DD	imagerel $LN14+236
	DD	imagerel $chain$3$?push_back@?$ImVector@UImGuiColumns@@@@QEAAXAEBUImGuiColumns@@@Z
pdata	ENDS
;	COMDAT pdata
pdata	SEGMENT
$pdata$??1?$ImVector@UImGuiTabItem@@@@QEAA@XZ DD imagerel $LN6
	DD	imagerel $LN6+24
	DD	imagerel $unwind$??1?$ImVector@UImGuiTabItem@@@@QEAA@XZ
pdata	ENDS
;	COMDAT pdata
pdata	SEGMENT
$pdata$??A?$ImVector@UImGuiTabItem@@@@QEAAAEAUImGuiTabItem@@H@Z DD imagerel $LN5
	DD	imagerel $LN5+68
	DD	imagerel $unwind$??A?$ImVector@UImGuiTabItem@@@@QEAAAEAUImGuiTabItem@@H@Z
pdata	ENDS
;	COMDAT pdata
pdata	SEGMENT
$pdata$?back@?$ImVector@UImGuiTabItem@@@@QEAAAEAUImGuiTabItem@@XZ DD imagerel $LN5
	DD	imagerel $LN5+61
	DD	imagerel $unwind$?back@?$ImVector@UImGuiTabItem@@@@QEAAAEAUImGuiTabItem@@XZ
pdata	ENDS
;	COMDAT pdata
pdata	SEGMENT
$pdata$?resize@?$ImVector@UImGuiTabItem@@@@QEAAXH@Z DD imagerel $LN10
	DD	imagerel $LN10+70
	DD	imagerel $unwind$?resize@?$ImVector@UImGuiTabItem@@@@QEAAXH@Z
pdata	ENDS
;	COMDAT pdata
pdata	SEGMENT
$pdata$?reserve@?$ImVector@UImGuiTabItem@@@@QEAAXH@Z DD imagerel $LN6
	DD	imagerel $LN6+24
	DD	imagerel $unwind$?reserve@?$ImVector@UImGuiTabItem@@@@QEAAXH@Z
pdata	ENDS
;	COMDAT pdata
pdata	SEGMENT
$pdata$0$?reserve@?$ImVector@UImGuiTabItem@@@@QEAAXH@Z DD imagerel $LN6+24
	DD	imagerel $LN6+86
	DD	imagerel $chain$0$?reserve@?$ImVector@UImGuiTabItem@@@@QEAAXH@Z
pdata	ENDS
;	COMDAT pdata
pdata	SEGMENT
$pdata$1$?reserve@?$ImVector@UImGuiTabItem@@@@QEAAXH@Z DD imagerel $LN6+86
	DD	imagerel $LN6+97
	DD	imagerel $chain$1$?reserve@?$ImVector@UImGuiTabItem@@@@QEAAXH@Z
pdata	ENDS
;	COMDAT pdata
pdata	SEGMENT
$pdata$?push_back@?$ImVector@UImGuiTabItem@@@@QEAAXAEBUImGuiTabItem@@@Z DD imagerel $LN9
	DD	imagerel $LN9+109
	DD	imagerel $unwind$?push_back@?$ImVector@UImGuiTabItem@@@@QEAAXAEBUImGuiTabItem@@@Z
pdata	ENDS
;	COMDAT pdata
pdata	SEGMENT
$pdata$?erase@?$ImVector@UImGuiTabItem@@@@QEAAPEAUImGuiTabItem@@PEBU2@@Z DD imagerel $LN8
	DD	imagerel $LN8+140
	DD	imagerel $unwind$?erase@?$ImVector@UImGuiTabItem@@@@QEAAPEAUImGuiTabItem@@PEBU2@@Z
pdata	ENDS
;	COMDAT pdata
pdata	SEGMENT
$pdata$?index_from_ptr@?$ImVector@UImGuiTabItem@@@@QEBAHPEBUImGuiTabItem@@@Z DD imagerel $LN6
	DD	imagerel $LN6+90
	DD	imagerel $unwind$?index_from_ptr@?$ImVector@UImGuiTabItem@@@@QEBAHPEBUImGuiTabItem@@@Z
pdata	ENDS
;	COMDAT pdata
pdata	SEGMENT
$pdata$?GetTabOrder@ImGuiTabBar@@QEBAHPEBUImGuiTabItem@@@Z DD imagerel $LN8
	DD	imagerel $LN8+90
	DD	imagerel $unwind$?GetTabOrder@ImGuiTabBar@@QEBAHPEBUImGuiTabItem@@@Z
pdata	ENDS
;	COMDAT pdata
pdata	SEGMENT
$pdata$?GetTabName@ImGuiTabBar@@QEBAPEBDPEBUImGuiTabItem@@@Z DD imagerel $LN6
	DD	imagerel $LN6+75
	DD	imagerel $unwind$?GetTabName@ImGuiTabBar@@QEBAPEBDPEBUImGuiTabItem@@@Z
pdata	ENDS
;	COMDAT pdata
pdata	SEGMENT
$pdata$?ShrinkWidths@ImGui@@YAXPEAUImGuiShrinkWidthItem@@HM@Z DD imagerel $LN74
	DD	imagerel $LN74+812
	DD	imagerel $unwind$?ShrinkWidths@ImGui@@YAXPEAUImGuiShrinkWidthItem@@HM@Z
pdata	ENDS
;	COMDAT pdata
pdata	SEGMENT
$pdata$?IsNavInputTest@ImGui@@YA_NHW4ImGuiInputReadMode@@@Z DD imagerel $LN4
	DD	imagerel $LN4+23
	DD	imagerel $unwind$?IsNavInputTest@ImGui@@YA_NHW4ImGuiInputReadMode@@@Z
pdata	ENDS
;	COMDAT pdata
pdata	SEGMENT
$pdata$?BeginColumns@ImGui@@YAXPEBDHH@Z DD imagerel $LN128
	DD	imagerel $LN128+36
	DD	imagerel $unwind$?BeginColumns@ImGui@@YAXPEBDHH@Z
pdata	ENDS
;	COMDAT pdata
pdata	SEGMENT
$pdata$5$?BeginColumns@ImGui@@YAXPEBDHH@Z DD imagerel $LN128+36
	DD	imagerel $LN128+637
	DD	imagerel $chain$5$?BeginColumns@ImGui@@YAXPEBDHH@Z
pdata	ENDS
;	COMDAT pdata
pdata	SEGMENT
$pdata$6$?BeginColumns@ImGui@@YAXPEBDHH@Z DD imagerel $LN128+637
	DD	imagerel $LN128+907
	DD	imagerel $chain$6$?BeginColumns@ImGui@@YAXPEBDHH@Z
pdata	ENDS
;	COMDAT pdata
pdata	SEGMENT
$pdata$7$?BeginColumns@ImGui@@YAXPEBDHH@Z DD imagerel $LN128+907
	DD	imagerel $LN128+1234
	DD	imagerel $chain$7$?BeginColumns@ImGui@@YAXPEBDHH@Z
pdata	ENDS
;	COMDAT pdata
pdata	SEGMENT
$pdata$8$?BeginColumns@ImGui@@YAXPEBDHH@Z DD imagerel $LN128+1234
	DD	imagerel $LN128+1510
	DD	imagerel $chain$8$?BeginColumns@ImGui@@YAXPEBDHH@Z
pdata	ENDS
;	COMDAT pdata
pdata	SEGMENT
$pdata$?EndColumns@ImGui@@YAXXZ DD imagerel $LN85
	DD	imagerel $LN85+202
	DD	imagerel $unwind$?EndColumns@ImGui@@YAXXZ
pdata	ENDS
;	COMDAT pdata
pdata	SEGMENT
$pdata$2$?EndColumns@ImGui@@YAXXZ DD imagerel $LN85+202
	DD	imagerel $LN85+257
	DD	imagerel $chain$2$?EndColumns@ImGui@@YAXXZ
pdata	ENDS
;	COMDAT pdata
pdata	SEGMENT
$pdata$3$?EndColumns@ImGui@@YAXXZ DD imagerel $LN85+257
	DD	imagerel $LN85+268
	DD	imagerel $chain$3$?EndColumns@ImGui@@YAXXZ
pdata	ENDS
;	COMDAT pdata
pdata	SEGMENT
$pdata$9$?EndColumns@ImGui@@YAXXZ DD imagerel $LN85+268
	DD	imagerel $LN85+753
	DD	imagerel $chain$9$?EndColumns@ImGui@@YAXXZ
pdata	ENDS
;	COMDAT pdata
pdata	SEGMENT
$pdata$10$?EndColumns@ImGui@@YAXXZ DD imagerel $LN85+753
	DD	imagerel $LN85+1092
	DD	imagerel $chain$10$?EndColumns@ImGui@@YAXXZ
pdata	ENDS
;	COMDAT pdata
pdata	SEGMENT
$pdata$11$?EndColumns@ImGui@@YAXXZ DD imagerel $LN85+1092
	DD	imagerel $LN85+1114
	DD	imagerel $chain$11$?EndColumns@ImGui@@YAXXZ
pdata	ENDS
;	COMDAT pdata
pdata	SEGMENT
$pdata$12$?EndColumns@ImGui@@YAXXZ DD imagerel $LN85+1114
	DD	imagerel $LN85+1206
	DD	imagerel $chain$12$?EndColumns@ImGui@@YAXXZ
pdata	ENDS
;	COMDAT pdata
pdata	SEGMENT
$pdata$?PushColumnClipRect@ImGui@@YAXH@Z DD imagerel $LN10
	DD	imagerel $LN10+108
	DD	imagerel $unwind$?PushColumnClipRect@ImGui@@YAXH@Z
pdata	ENDS
;	COMDAT pdata
pdata	SEGMENT
$pdata$?PushColumnsBackground@ImGui@@YAXXZ DD imagerel $LN8
	DD	imagerel $LN8+51
	DD	imagerel $unwind$?PushColumnsBackground@ImGui@@YAXXZ
pdata	ENDS
;	COMDAT pdata
pdata	SEGMENT
$pdata$0$?PushColumnsBackground@ImGui@@YAXXZ DD imagerel $LN8+51
	DD	imagerel $LN8+102
	DD	imagerel $chain$0$?PushColumnsBackground@ImGui@@YAXXZ
pdata	ENDS
;	COMDAT pdata
pdata	SEGMENT
$pdata$1$?PushColumnsBackground@ImGui@@YAXXZ DD imagerel $LN8+102
	DD	imagerel $LN8+139
	DD	imagerel $chain$1$?PushColumnsBackground@ImGui@@YAXXZ
pdata	ENDS
;	COMDAT pdata
pdata	SEGMENT
$pdata$?PopColumnsBackground@ImGui@@YAXXZ DD imagerel $LN7
	DD	imagerel $LN7+68
	DD	imagerel $unwind$?PopColumnsBackground@ImGui@@YAXXZ
pdata	ENDS
;	COMDAT pdata
pdata	SEGMENT
$pdata$?GetColumnsID@ImGui@@YAIPEBDH@Z DD imagerel $LN6
	DD	imagerel $LN6+105
	DD	imagerel $unwind$?GetColumnsID@ImGui@@YAIPEBDH@Z
pdata	ENDS
;	COMDAT pdata
pdata	SEGMENT
$pdata$?FindOrCreateColumns@ImGui@@YAPEAUImGuiColumns@@PEAUImGuiWindow@@I@Z DD imagerel $LN80
	DD	imagerel $LN80+617
	DD	imagerel $unwind$?FindOrCreateColumns@ImGui@@YAPEAUImGuiColumns@@PEAUImGuiWindow@@I@Z
pdata	ENDS
;	COMDAT pdata
pdata	SEGMENT
$pdata$?BeginTabBarEx@ImGui@@YA_NPEAUImGuiTabBar@@AEBUImRect@@H@Z DD imagerel $LN48
	DD	imagerel $LN48+225
	DD	imagerel $unwind$?BeginTabBarEx@ImGui@@YA_NPEAUImGuiTabBar@@AEBUImRect@@H@Z
pdata	ENDS
;	COMDAT pdata
pdata	SEGMENT
$pdata$1$?BeginTabBarEx@ImGui@@YA_NPEAUImGuiTabBar@@AEBUImRect@@H@Z DD imagerel $LN48+225
	DD	imagerel $LN48+311
	DD	imagerel $chain$1$?BeginTabBarEx@ImGui@@YA_NPEAUImGuiTabBar@@AEBUImRect@@H@Z
pdata	ENDS
;	COMDAT pdata
pdata	SEGMENT
$pdata$2$?BeginTabBarEx@ImGui@@YA_NPEAUImGuiTabBar@@AEBUImRect@@H@Z DD imagerel $LN48+311
	DD	imagerel $LN48+388
	DD	imagerel $chain$2$?BeginTabBarEx@ImGui@@YA_NPEAUImGuiTabBar@@AEBUImRect@@H@Z
pdata	ENDS
;	COMDAT pdata
pdata	SEGMENT
$pdata$3$?BeginTabBarEx@ImGui@@YA_NPEAUImGuiTabBar@@AEBUImRect@@H@Z DD imagerel $LN48+388
	DD	imagerel $LN48+714
	DD	imagerel $chain$3$?BeginTabBarEx@ImGui@@YA_NPEAUImGuiTabBar@@AEBUImRect@@H@Z
pdata	ENDS
;	COMDAT pdata
pdata	SEGMENT
$pdata$4$?BeginTabBarEx@ImGui@@YA_NPEAUImGuiTabBar@@AEBUImRect@@H@Z DD imagerel $LN48+714
	DD	imagerel $LN48+736
	DD	imagerel $chain$4$?BeginTabBarEx@ImGui@@YA_NPEAUImGuiTabBar@@AEBUImRect@@H@Z
pdata	ENDS
;	COMDAT pdata
pdata	SEGMENT
$pdata$?TabBarFindTabByID@ImGui@@YAPEAUImGuiTabItem@@PEAUImGuiTabBar@@I@Z DD imagerel $LN21
	DD	imagerel $LN21+159
	DD	imagerel $unwind$?TabBarFindTabByID@ImGui@@YAPEAUImGuiTabItem@@PEAUImGuiTabBar@@I@Z
pdata	ENDS
;	COMDAT pdata
pdata	SEGMENT
$pdata$?TabBarRemoveTab@ImGui@@YAXPEAUImGuiTabBar@@I@Z DD imagerel $LN14
	DD	imagerel $LN14+171
	DD	imagerel $unwind$?TabBarRemoveTab@ImGui@@YAXPEAUImGuiTabBar@@I@Z
pdata	ENDS
;	COMDAT pdata
pdata	SEGMENT
$pdata$?TabBarQueueChangeTabOrder@ImGui@@YAXPEAUImGuiTabBar@@PEBUImGuiTabItem@@H@Z DD imagerel $LN7
	DD	imagerel $LN7+118
	DD	imagerel $unwind$?TabBarQueueChangeTabOrder@ImGui@@YAXPEAUImGuiTabBar@@PEBUImGuiTabItem@@H@Z
pdata	ENDS
;	COMDAT pdata
pdata	SEGMENT
$pdata$?TabItemEx@ImGui@@YA_NPEAUImGuiTabBar@@PEBDPEA_NH@Z DD imagerel $LN146
	DD	imagerel $LN146+99
	DD	imagerel $unwind$?TabItemEx@ImGui@@YA_NPEAUImGuiTabBar@@PEBDPEA_NH@Z
pdata	ENDS
;	COMDAT pdata
pdata	SEGMENT
$pdata$0$?TabItemEx@ImGui@@YA_NPEAUImGuiTabBar@@PEBDPEA_NH@Z DD imagerel $LN146+99
	DD	imagerel $LN146+206
	DD	imagerel $chain$0$?TabItemEx@ImGui@@YA_NPEAUImGuiTabBar@@PEBDPEA_NH@Z
pdata	ENDS
;	COMDAT pdata
pdata	SEGMENT
$pdata$1$?TabItemEx@ImGui@@YA_NPEAUImGuiTabBar@@PEBDPEA_NH@Z DD imagerel $LN146+206
	DD	imagerel $LN146+820
	DD	imagerel $chain$1$?TabItemEx@ImGui@@YA_NPEAUImGuiTabBar@@PEBDPEA_NH@Z
pdata	ENDS
;	COMDAT pdata
pdata	SEGMENT
$pdata$5$?TabItemEx@ImGui@@YA_NPEAUImGuiTabBar@@PEBDPEA_NH@Z DD imagerel $LN146+820
	DD	imagerel $LN146+1189
	DD	imagerel $chain$5$?TabItemEx@ImGui@@YA_NPEAUImGuiTabBar@@PEBDPEA_NH@Z
pdata	ENDS
;	COMDAT pdata
pdata	SEGMENT
$pdata$6$?TabItemEx@ImGui@@YA_NPEAUImGuiTabBar@@PEBDPEA_NH@Z DD imagerel $LN146+1189
	DD	imagerel $LN146+1867
	DD	imagerel $chain$6$?TabItemEx@ImGui@@YA_NPEAUImGuiTabBar@@PEBDPEA_NH@Z
pdata	ENDS
;	COMDAT pdata
pdata	SEGMENT
$pdata$7$?TabItemEx@ImGui@@YA_NPEAUImGuiTabBar@@PEBDPEA_NH@Z DD imagerel $LN146+1867
	DD	imagerel $LN146+1879
	DD	imagerel $chain$7$?TabItemEx@ImGui@@YA_NPEAUImGuiTabBar@@PEBDPEA_NH@Z
pdata	ENDS
;	COMDAT pdata
pdata	SEGMENT
$pdata$8$?TabItemEx@ImGui@@YA_NPEAUImGuiTabBar@@PEBDPEA_NH@Z DD imagerel $LN146+1879
	DD	imagerel $LN146+1887
	DD	imagerel $chain$8$?TabItemEx@ImGui@@YA_NPEAUImGuiTabBar@@PEBDPEA_NH@Z
pdata	ENDS
;	COMDAT pdata
pdata	SEGMENT
$pdata$9$?TabItemEx@ImGui@@YA_NPEAUImGuiTabBar@@PEBDPEA_NH@Z DD imagerel $LN146+1887
	DD	imagerel $LN146+1906
	DD	imagerel $chain$9$?TabItemEx@ImGui@@YA_NPEAUImGuiTabBar@@PEBDPEA_NH@Z
pdata	ENDS
;	COMDAT pdata
pdata	SEGMENT
$pdata$?TabItemCalcSize@ImGui@@YA?AUImVec2@@PEBD_N@Z DD imagerel $LN16
	DD	imagerel $LN16+187
	DD	imagerel $unwind$?TabItemCalcSize@ImGui@@YA?AUImVec2@@PEBD_N@Z
pdata	ENDS
;	COMDAT pdata
pdata	SEGMENT
$pdata$?TabItemBackground@ImGui@@YAXPEAUImDrawList@@AEBUImRect@@HI@Z DD imagerel $LN36
	DD	imagerel $LN36+684
	DD	imagerel $unwind$?TabItemBackground@ImGui@@YAXPEAUImDrawList@@AEBUImRect@@HI@Z
pdata	ENDS
;	COMDAT pdata
pdata	SEGMENT
$pdata$?TabItemLabelAndCloseButton@ImGui@@YA_NPEAUImDrawList@@AEBUImRect@@HUImVec2@@PEBDII_N@Z DD imagerel $LN69
	DD	imagerel $LN69+168
	DD	imagerel $unwind$?TabItemLabelAndCloseButton@ImGui@@YA_NPEAUImDrawList@@AEBUImRect@@HUImVec2@@PEBDII_N@Z
pdata	ENDS
;	COMDAT pdata
pdata	SEGMENT
$pdata$2$?TabItemLabelAndCloseButton@ImGui@@YA_NPEAUImDrawList@@AEBUImRect@@HUImVec2@@PEBDII_N@Z DD imagerel $LN69+168
	DD	imagerel $LN69+201
	DD	imagerel $chain$2$?TabItemLabelAndCloseButton@ImGui@@YA_NPEAUImDrawList@@AEBUImRect@@HUImVec2@@PEBDII_N@Z
pdata	ENDS
;	COMDAT pdata
pdata	SEGMENT
$pdata$3$?TabItemLabelAndCloseButton@ImGui@@YA_NPEAUImDrawList@@AEBUImRect@@HUImVec2@@PEBDII_N@Z DD imagerel $LN69+201
	DD	imagerel $LN69+489
	DD	imagerel $chain$3$?TabItemLabelAndCloseButton@ImGui@@YA_NPEAUImDrawList@@AEBUImRect@@HUImVec2@@PEBDII_N@Z
pdata	ENDS
;	COMDAT pdata
pdata	SEGMENT
$pdata$4$?TabItemLabelAndCloseButton@ImGui@@YA_NPEAUImDrawList@@AEBUImRect@@HUImVec2@@PEBDII_N@Z DD imagerel $LN69+489
	DD	imagerel $LN69+858
	DD	imagerel $chain$4$?TabItemLabelAndCloseButton@ImGui@@YA_NPEAUImDrawList@@AEBUImRect@@HUImVec2@@PEBDII_N@Z
pdata	ENDS
;	COMDAT pdata
pdata	SEGMENT
$pdata$5$?TabItemLabelAndCloseButton@ImGui@@YA_NPEAUImDrawList@@AEBUImRect@@HUImVec2@@PEBDII_N@Z DD imagerel $LN69+858
	DD	imagerel $LN69+898
	DD	imagerel $chain$5$?TabItemLabelAndCloseButton@ImGui@@YA_NPEAUImDrawList@@AEBUImRect@@HUImVec2@@PEBDII_N@Z
pdata	ENDS
;	COMDAT pdata
pdata	SEGMENT
$pdata$?TextEx@ImGui@@YAXPEBD0H@Z DD imagerel $LN92
	DD	imagerel $LN92+70
	DD	imagerel $unwind$?TextEx@ImGui@@YAXPEBD0H@Z
pdata	ENDS
;	COMDAT pdata
pdata	SEGMENT
$pdata$4$?TextEx@ImGui@@YAXPEBD0H@Z DD imagerel $LN92+70
	DD	imagerel $LN92+236
	DD	imagerel $chain$4$?TextEx@ImGui@@YAXPEBD0H@Z
pdata	ENDS
;	COMDAT pdata
pdata	SEGMENT
$pdata$7$?TextEx@ImGui@@YAXPEBD0H@Z DD imagerel $LN92+236
	DD	imagerel $LN92+329
	DD	imagerel $chain$7$?TextEx@ImGui@@YAXPEBD0H@Z
pdata	ENDS
;	COMDAT pdata
pdata	SEGMENT
$pdata$8$?TextEx@ImGui@@YAXPEBD0H@Z DD imagerel $LN92+329
	DD	imagerel $LN92+494
	DD	imagerel $chain$8$?TextEx@ImGui@@YAXPEBD0H@Z
pdata	ENDS
;	COMDAT pdata
pdata	SEGMENT
$pdata$9$?TextEx@ImGui@@YAXPEBD0H@Z DD imagerel $LN92+494
	DD	imagerel $LN92+932
	DD	imagerel $chain$9$?TextEx@ImGui@@YAXPEBD0H@Z
pdata	ENDS
;	COMDAT pdata
pdata	SEGMENT
$pdata$10$?TextEx@ImGui@@YAXPEBD0H@Z DD imagerel $LN92+932
	DD	imagerel $LN92+1108
	DD	imagerel $chain$10$?TextEx@ImGui@@YAXPEBD0H@Z
pdata	ENDS
;	COMDAT pdata
pdata	SEGMENT
$pdata$11$?TextEx@ImGui@@YAXPEBD0H@Z DD imagerel $LN92+1108
	DD	imagerel $LN92+1122
	DD	imagerel $chain$11$?TextEx@ImGui@@YAXPEBD0H@Z
pdata	ENDS
;	COMDAT pdata
pdata	SEGMENT
$pdata$?ButtonEx@ImGui@@YA_NPEBDAEBUImVec2@@H@Z DD imagerel $LN30
	DD	imagerel $LN30+93
	DD	imagerel $unwind$?ButtonEx@ImGui@@YA_NPEBDAEBUImVec2@@H@Z
pdata	ENDS
;	COMDAT pdata
pdata	SEGMENT
$pdata$1$?ButtonEx@ImGui@@YA_NPEBDAEBUImVec2@@H@Z DD imagerel $LN30+93
	DD	imagerel $LN30+336
	DD	imagerel $chain$1$?ButtonEx@ImGui@@YA_NPEBDAEBUImVec2@@H@Z
pdata	ENDS
;	COMDAT pdata
pdata	SEGMENT
$pdata$2$?ButtonEx@ImGui@@YA_NPEBDAEBUImVec2@@H@Z DD imagerel $LN30+336
	DD	imagerel $LN30+628
	DD	imagerel $chain$2$?ButtonEx@ImGui@@YA_NPEBDAEBUImVec2@@H@Z
pdata	ENDS
;	COMDAT pdata
pdata	SEGMENT
$pdata$?CloseButton@ImGui@@YA_NIAEBUImVec2@@@Z DD imagerel $LN58
	DD	imagerel $LN58+166
	DD	imagerel $unwind$?CloseButton@ImGui@@YA_NIAEBUImVec2@@@Z
pdata	ENDS
;	COMDAT pdata
pdata	SEGMENT
$pdata$2$?CloseButton@ImGui@@YA_NIAEBUImVec2@@@Z DD imagerel $LN58+166
	DD	imagerel $LN58+567
	DD	imagerel $chain$2$?CloseButton@ImGui@@YA_NIAEBUImVec2@@@Z
pdata	ENDS
;	COMDAT pdata
pdata	SEGMENT
$pdata$3$?CloseButton@ImGui@@YA_NIAEBUImVec2@@@Z DD imagerel $LN58+567
	DD	imagerel $LN58+587
	DD	imagerel $chain$3$?CloseButton@ImGui@@YA_NIAEBUImVec2@@@Z
pdata	ENDS
;	COMDAT pdata
pdata	SEGMENT
$pdata$?CollapseButton@ImGui@@YA_NIAEBUImVec2@@@Z DD imagerel $LN36
	DD	imagerel $LN36+511
	DD	imagerel $unwind$?CollapseButton@ImGui@@YA_NIAEBUImVec2@@@Z
pdata	ENDS
;	COMDAT pdata
pdata	SEGMENT
$pdata$?ArrowButtonEx@ImGui@@YA_NPEBDHUImVec2@@H@Z DD imagerel $LN34
	DD	imagerel $LN34+231
	DD	imagerel $unwind$?ArrowButtonEx@ImGui@@YA_NPEBDHUImVec2@@H@Z
pdata	ENDS
;	COMDAT pdata
pdata	SEGMENT
$pdata$2$?ArrowButtonEx@ImGui@@YA_NPEBDHUImVec2@@H@Z DD imagerel $LN34+231
	DD	imagerel $LN34+545
	DD	imagerel $chain$2$?ArrowButtonEx@ImGui@@YA_NPEBDHUImVec2@@H@Z
pdata	ENDS
;	COMDAT pdata
pdata	SEGMENT
$pdata$3$?ArrowButtonEx@ImGui@@YA_NPEBDHUImVec2@@H@Z DD imagerel $LN34+545
	DD	imagerel $LN34+559
	DD	imagerel $chain$3$?ArrowButtonEx@ImGui@@YA_NPEBDHUImVec2@@H@Z
pdata	ENDS
;	COMDAT pdata
pdata	SEGMENT
$pdata$?Scrollbar@ImGui@@YAXW4ImGuiAxis@@@Z DD imagerel $LN65
	DD	imagerel $LN65+701
	DD	imagerel $unwind$?Scrollbar@ImGui@@YAXW4ImGuiAxis@@@Z
pdata	ENDS
;	COMDAT pdata
pdata	SEGMENT
$pdata$?ScrollbarEx@ImGui@@YA_NAEBUImRect@@IW4ImGuiAxis@@PEAMMMH@Z DD imagerel $LN131
	DD	imagerel $LN131+215
	DD	imagerel $unwind$?ScrollbarEx@ImGui@@YA_NAEBUImRect@@IW4ImGuiAxis@@PEAMMMH@Z
pdata	ENDS
;	COMDAT pdata
pdata	SEGMENT
$pdata$1$?ScrollbarEx@ImGui@@YA_NAEBUImRect@@IW4ImGuiAxis@@PEAMMMH@Z DD imagerel $LN131+215
	DD	imagerel $LN131+251
	DD	imagerel $chain$1$?ScrollbarEx@ImGui@@YA_NAEBUImRect@@IW4ImGuiAxis@@PEAMMMH@Z
pdata	ENDS
;	COMDAT pdata
pdata	SEGMENT
$pdata$8$?ScrollbarEx@ImGui@@YA_NAEBUImRect@@IW4ImGuiAxis@@PEAMMMH@Z DD imagerel $LN131+251
	DD	imagerel $LN131+1116
	DD	imagerel $chain$8$?ScrollbarEx@ImGui@@YA_NAEBUImRect@@IW4ImGuiAxis@@PEAMMMH@Z
pdata	ENDS
;	COMDAT pdata
pdata	SEGMENT
$pdata$9$?ScrollbarEx@ImGui@@YA_NAEBUImRect@@IW4ImGuiAxis@@PEAMMMH@Z DD imagerel $LN131+1116
	DD	imagerel $LN131+1209
	DD	imagerel $chain$9$?ScrollbarEx@ImGui@@YA_NAEBUImRect@@IW4ImGuiAxis@@PEAMMMH@Z
pdata	ENDS
;	COMDAT pdata
pdata	SEGMENT
$pdata$10$?ScrollbarEx@ImGui@@YA_NAEBUImRect@@IW4ImGuiAxis@@PEAMMMH@Z DD imagerel $LN131+1209
	DD	imagerel $LN131+1426
	DD	imagerel $chain$10$?ScrollbarEx@ImGui@@YA_NAEBUImRect@@IW4ImGuiAxis@@PEAMMMH@Z
pdata	ENDS
;	COMDAT pdata
pdata	SEGMENT
$pdata$11$?ScrollbarEx@ImGui@@YA_NAEBUImRect@@IW4ImGuiAxis@@PEAMMMH@Z DD imagerel $LN131+1426
	DD	imagerel $LN131+1468
	DD	imagerel $chain$11$?ScrollbarEx@ImGui@@YA_NAEBUImRect@@IW4ImGuiAxis@@PEAMMMH@Z
pdata	ENDS
;	COMDAT pdata
pdata	SEGMENT
$pdata$?GetWindowScrollbarRect@ImGui@@YA?AUImRect@@PEAUImGuiWindow@@W4ImGuiAxis@@@Z DD imagerel $LN38
	DD	imagerel $LN38+351
	DD	imagerel $unwind$?GetWindowScrollbarRect@ImGui@@YA?AUImRect@@PEAUImGuiWindow@@W4ImGuiAxis@@@Z
pdata	ENDS
;	COMDAT pdata
pdata	SEGMENT
$pdata$?SeparatorEx@ImGui@@YAXH@Z DD imagerel $LN51
	DD	imagerel $LN51+56
	DD	imagerel $unwind$?SeparatorEx@ImGui@@YAXH@Z
pdata	ENDS
;	COMDAT pdata
pdata	SEGMENT
$pdata$1$?SeparatorEx@ImGui@@YAXH@Z DD imagerel $LN51+56
	DD	imagerel $LN51+362
	DD	imagerel $chain$1$?SeparatorEx@ImGui@@YAXH@Z
pdata	ENDS
;	COMDAT pdata
pdata	SEGMENT
$pdata$3$?SeparatorEx@ImGui@@YAXH@Z DD imagerel $LN51+362
	DD	imagerel $LN51+511
	DD	imagerel $chain$3$?SeparatorEx@ImGui@@YAXH@Z
pdata	ENDS
;	COMDAT pdata
pdata	SEGMENT
$pdata$4$?SeparatorEx@ImGui@@YAXH@Z DD imagerel $LN51+511
	DD	imagerel $LN51+614
	DD	imagerel $chain$4$?SeparatorEx@ImGui@@YAXH@Z
pdata	ENDS
;	COMDAT pdata
pdata	SEGMENT
$pdata$5$?SeparatorEx@ImGui@@YAXH@Z DD imagerel $LN51+614
	DD	imagerel $LN51+641
	DD	imagerel $chain$5$?SeparatorEx@ImGui@@YAXH@Z
pdata	ENDS
;	COMDAT pdata
pdata	SEGMENT
$pdata$6$?SeparatorEx@ImGui@@YAXH@Z DD imagerel $LN51+641
	DD	imagerel $LN51+649
	DD	imagerel $chain$6$?SeparatorEx@ImGui@@YAXH@Z
pdata	ENDS
;	COMDAT pdata
pdata	SEGMENT
$pdata$?ButtonBehavior@ImGui@@YA_NAEBUImRect@@IPEA_N1H@Z DD imagerel $LN92
	DD	imagerel $LN92+118
	DD	imagerel $unwind$?ButtonBehavior@ImGui@@YA_NAEBUImRect@@IPEA_N1H@Z
pdata	ENDS
;	COMDAT pdata
pdata	SEGMENT
$pdata$2$?ButtonBehavior@ImGui@@YA_NAEBUImRect@@IPEA_N1H@Z DD imagerel $LN92+118
	DD	imagerel $LN92+139
	DD	imagerel $chain$2$?ButtonBehavior@ImGui@@YA_NAEBUImRect@@IPEA_N1H@Z
pdata	ENDS
;	COMDAT pdata
pdata	SEGMENT
$pdata$5$?ButtonBehavior@ImGui@@YA_NAEBUImRect@@IPEA_N1H@Z DD imagerel $LN92+139
	DD	imagerel $LN92+1028
	DD	imagerel $chain$5$?ButtonBehavior@ImGui@@YA_NAEBUImRect@@IPEA_N1H@Z
pdata	ENDS
;	COMDAT pdata
pdata	SEGMENT
$pdata$6$?ButtonBehavior@ImGui@@YA_NAEBUImRect@@IPEA_N1H@Z DD imagerel $LN92+1028
	DD	imagerel $LN92+1319
	DD	imagerel $chain$6$?ButtonBehavior@ImGui@@YA_NAEBUImRect@@IPEA_N1H@Z
pdata	ENDS
;	COMDAT pdata
pdata	SEGMENT
$pdata$7$?ButtonBehavior@ImGui@@YA_NAEBUImRect@@IPEA_N1H@Z DD imagerel $LN92+1319
	DD	imagerel $LN92+1340
	DD	imagerel $chain$7$?ButtonBehavior@ImGui@@YA_NAEBUImRect@@IPEA_N1H@Z
pdata	ENDS
;	COMDAT pdata
pdata	SEGMENT
$pdata$8$?ButtonBehavior@ImGui@@YA_NAEBUImRect@@IPEA_N1H@Z DD imagerel $LN92+1340
	DD	imagerel $LN92+1366
	DD	imagerel $chain$8$?ButtonBehavior@ImGui@@YA_NAEBUImRect@@IPEA_N1H@Z
pdata	ENDS
;	COMDAT pdata
pdata	SEGMENT
$pdata$?DragBehavior@ImGui@@YA_NIHPEAXMPEBX1PEBDMH@Z DD imagerel $LN71
	DD	imagerel $LN71+1456
	DD	imagerel $unwind$?DragBehavior@ImGui@@YA_NIHPEAXMPEBX1PEBDMH@Z
pdata	ENDS
;	COMDAT pdata
pdata	SEGMENT
$pdata$?SliderBehavior@ImGui@@YA_NAEBUImRect@@IHPEAXPEBX2PEBDMHPEAU2@@Z DD imagerel $LN41
	DD	imagerel $LN41+1672
	DD	imagerel $unwind$?SliderBehavior@ImGui@@YA_NAEBUImRect@@IHPEAXPEBX2PEBDMHPEAU2@@Z
pdata	ENDS
;	COMDAT pdata
pdata	SEGMENT
$pdata$?SplitterBehavior@ImGui@@YA_NAEBUImRect@@IW4ImGuiAxis@@PEAM2MMMM@Z DD imagerel $LN55
	DD	imagerel $LN55+111
	DD	imagerel $unwind$?SplitterBehavior@ImGui@@YA_NAEBUImRect@@IW4ImGuiAxis@@PEAM2MMMM@Z
pdata	ENDS
;	COMDAT pdata
pdata	SEGMENT
$pdata$1$?SplitterBehavior@ImGui@@YA_NAEBUImRect@@IW4ImGuiAxis@@PEAM2MMMM@Z DD imagerel $LN55+111
	DD	imagerel $LN55+817
	DD	imagerel $chain$1$?SplitterBehavior@ImGui@@YA_NAEBUImRect@@IW4ImGuiAxis@@PEAM2MMMM@Z
pdata	ENDS
;	COMDAT pdata
pdata	SEGMENT
$pdata$2$?SplitterBehavior@ImGui@@YA_NAEBUImRect@@IW4ImGuiAxis@@PEAM2MMMM@Z DD imagerel $LN55+817
	DD	imagerel $LN55+850
	DD	imagerel $chain$2$?SplitterBehavior@ImGui@@YA_NAEBUImRect@@IW4ImGuiAxis@@PEAM2MMMM@Z
pdata	ENDS
;	COMDAT pdata
pdata	SEGMENT
$pdata$?TreeNodeBehavior@ImGui@@YA_NIHPEBD0@Z DD imagerel $LN143
	DD	imagerel $LN143+124
	DD	imagerel $unwind$?TreeNodeBehavior@ImGui@@YA_NIHPEBD0@Z
pdata	ENDS
;	COMDAT pdata
pdata	SEGMENT
$pdata$2$?TreeNodeBehavior@ImGui@@YA_NIHPEBD0@Z DD imagerel $LN143+124
	DD	imagerel $LN143+132
	DD	imagerel $chain$2$?TreeNodeBehavior@ImGui@@YA_NIHPEBD0@Z
pdata	ENDS
;	COMDAT pdata
pdata	SEGMENT
$pdata$8$?TreeNodeBehavior@ImGui@@YA_NIHPEBD0@Z DD imagerel $LN143+132
	DD	imagerel $LN143+473
	DD	imagerel $chain$8$?TreeNodeBehavior@ImGui@@YA_NIHPEBD0@Z
pdata	ENDS
;	COMDAT pdata
pdata	SEGMENT
$pdata$9$?TreeNodeBehavior@ImGui@@YA_NIHPEBD0@Z DD imagerel $LN143+473
	DD	imagerel $LN143+775
	DD	imagerel $chain$9$?TreeNodeBehavior@ImGui@@YA_NIHPEBD0@Z
pdata	ENDS
;	COMDAT pdata
pdata	SEGMENT
$pdata$11$?TreeNodeBehavior@ImGui@@YA_NIHPEBD0@Z DD imagerel $LN143+775
	DD	imagerel $LN143+849
	DD	imagerel $chain$11$?TreeNodeBehavior@ImGui@@YA_NIHPEBD0@Z
pdata	ENDS
;	COMDAT pdata
pdata	SEGMENT
$pdata$12$?TreeNodeBehavior@ImGui@@YA_NIHPEBD0@Z DD imagerel $LN143+849
	DD	imagerel $LN143+2583
	DD	imagerel $chain$12$?TreeNodeBehavior@ImGui@@YA_NIHPEBD0@Z
pdata	ENDS
;	COMDAT pdata
pdata	SEGMENT
$pdata$?TreeNodeBehaviorIsOpen@ImGui@@YA_NIH@Z DD imagerel $LN12
	DD	imagerel $LN12+36
	DD	imagerel $unwind$?TreeNodeBehaviorIsOpen@ImGui@@YA_NIH@Z
pdata	ENDS
;	COMDAT pdata
pdata	SEGMENT
$pdata$3$?TreeNodeBehaviorIsOpen@ImGui@@YA_NIH@Z DD imagerel $LN12+36
	DD	imagerel $LN12+183
	DD	imagerel $chain$3$?TreeNodeBehaviorIsOpen@ImGui@@YA_NIH@Z
pdata	ENDS
;	COMDAT pdata
pdata	SEGMENT
$pdata$4$?TreeNodeBehaviorIsOpen@ImGui@@YA_NIH@Z DD imagerel $LN12+183
	DD	imagerel $LN12+245
	DD	imagerel $chain$4$?TreeNodeBehaviorIsOpen@ImGui@@YA_NIH@Z
pdata	ENDS
;	COMDAT pdata
pdata	SEGMENT
$pdata$?TreePushOverrideID@ImGui@@YAXI@Z DD imagerel $LN11
	DD	imagerel $LN11+124
	DD	imagerel $unwind$?TreePushOverrideID@ImGui@@YAXI@Z
pdata	ENDS
;	COMDAT pdata
pdata	SEGMENT
$pdata$?DataTypeGetInfo@ImGui@@YAPEBUImGuiDataTypeInfo@@H@Z DD imagerel $LN7
	DD	imagerel $LN7+61
	DD	imagerel $unwind$?DataTypeGetInfo@ImGui@@YAPEBUImGuiDataTypeInfo@@H@Z
pdata	ENDS
;	COMDAT pdata
pdata	SEGMENT
$pdata$?DataTypeFormatString@ImGui@@YAHPEADHHPEBXPEBD@Z DD imagerel $LN18
	DD	imagerel $LN18+279
	DD	imagerel $unwind$?DataTypeFormatString@ImGui@@YAHPEADHHPEBXPEBD@Z
pdata	ENDS
;	COMDAT pdata
pdata	SEGMENT
$pdata$?DataTypeApplyOp@ImGui@@YAXHHPEAX0PEBX@Z DD imagerel $LN119
	DD	imagerel $LN119+1284
	DD	imagerel $unwind$?DataTypeApplyOp@ImGui@@YAXHHPEAX0PEBX@Z
pdata	ENDS
;	COMDAT pdata
pdata	SEGMENT
$pdata$?DataTypeApplyOpFromText@ImGui@@YA_NPEBD0HPEAX0@Z DD imagerel $LN107
	DD	imagerel $LN107+1134
	DD	imagerel $unwind$?DataTypeApplyOpFromText@ImGui@@YA_NPEBD0HPEAX0@Z
pdata	ENDS
;	COMDAT pdata
pdata	SEGMENT
$pdata$?DataTypeClamp@ImGui@@YA_NHPEAXPEBX1@Z DD imagerel $LN63
	DD	imagerel $LN63+520
	DD	imagerel $unwind$?DataTypeClamp@ImGui@@YA_NHPEAXPEBX1@Z
pdata	ENDS
;	COMDAT pdata
pdata	SEGMENT
$pdata$?InputTextEx@ImGui@@YA_NPEBD0PEADHAEBUImVec2@@HP6AHPEAUImGuiInputTextCallbackData@@@ZPEAX@Z DD imagerel $LN1068
	DD	imagerel $LN1068+10648
	DD	imagerel $unwind$?InputTextEx@ImGui@@YA_NPEBD0PEADHAEBUImVec2@@HP6AHPEAUImGuiInputTextCallbackData@@@ZPEAX@Z
pdata	ENDS
;	COMDAT pdata
pdata	SEGMENT
$pdata$?TempInputText@ImGui@@YA_NAEBUImRect@@IPEBDPEADHH@Z DD imagerel $LN12
	DD	imagerel $LN12+245
	DD	imagerel $unwind$?TempInputText@ImGui@@YA_NAEBUImRect@@IPEBDPEADHH@Z
pdata	ENDS
;	COMDAT pdata
pdata	SEGMENT
$pdata$?TempInputScalar@ImGui@@YA_NAEBUImRect@@IPEBDHPEAX1PEBX3@Z DD imagerel $LN47
	DD	imagerel $LN47+651
	DD	imagerel $unwind$?TempInputScalar@ImGui@@YA_NAEBUImRect@@IPEBDHPEAX1PEBX3@Z
pdata	ENDS
;	COMDAT pdata
pdata	SEGMENT
$pdata$?ColorTooltip@ImGui@@YAXPEBDPEBMH@Z DD imagerel $LN102
	DD	imagerel $LN102+780
	DD	imagerel $unwind$?ColorTooltip@ImGui@@YAXPEBDPEBMH@Z
pdata	ENDS
;	COMDAT pdata
pdata	SEGMENT
$pdata$?ColorEditOptionsPopup@ImGui@@YAXPEBMH@Z DD imagerel $LN72
	DD	imagerel $LN72+95
	DD	imagerel $unwind$?ColorEditOptionsPopup@ImGui@@YAXPEBMH@Z
pdata	ENDS
;	COMDAT pdata
pdata	SEGMENT
$pdata$1$?ColorEditOptionsPopup@ImGui@@YAXPEBMH@Z DD imagerel $LN72+95
	DD	imagerel $LN72+477
	DD	imagerel $chain$1$?ColorEditOptionsPopup@ImGui@@YAXPEBMH@Z
pdata	ENDS
;	COMDAT pdata
pdata	SEGMENT
$pdata$3$?ColorEditOptionsPopup@ImGui@@YAXPEBMH@Z DD imagerel $LN72+477
	DD	imagerel $LN72+501
	DD	imagerel $chain$3$?ColorEditOptionsPopup@ImGui@@YAXPEBMH@Z
pdata	ENDS
;	COMDAT pdata
pdata	SEGMENT
$pdata$4$?ColorEditOptionsPopup@ImGui@@YAXPEBMH@Z DD imagerel $LN72+501
	DD	imagerel $LN72+763
	DD	imagerel $chain$4$?ColorEditOptionsPopup@ImGui@@YAXPEBMH@Z
pdata	ENDS
;	COMDAT pdata
pdata	SEGMENT
$pdata$5$?ColorEditOptionsPopup@ImGui@@YAXPEBMH@Z DD imagerel $LN72+763
	DD	imagerel $LN72+1021
	DD	imagerel $chain$5$?ColorEditOptionsPopup@ImGui@@YAXPEBMH@Z
pdata	ENDS
;	COMDAT pdata
pdata	SEGMENT
$pdata$6$?ColorEditOptionsPopup@ImGui@@YAXPEBMH@Z DD imagerel $LN72+1021
	DD	imagerel $LN72+1052
	DD	imagerel $chain$6$?ColorEditOptionsPopup@ImGui@@YAXPEBMH@Z
pdata	ENDS
;	COMDAT pdata
pdata	SEGMENT
$pdata$7$?ColorEditOptionsPopup@ImGui@@YAXPEBMH@Z DD imagerel $LN72+1052
	DD	imagerel $LN72+1079
	DD	imagerel $chain$7$?ColorEditOptionsPopup@ImGui@@YAXPEBMH@Z
pdata	ENDS
;	COMDAT pdata
pdata	SEGMENT
$pdata$?ColorPickerOptionsPopup@ImGui@@YAXPEBMH@Z DD imagerel $LN45
	DD	imagerel $LN45+76
	DD	imagerel $unwind$?ColorPickerOptionsPopup@ImGui@@YAXPEBMH@Z
pdata	ENDS
;	COMDAT pdata
pdata	SEGMENT
$pdata$0$?ColorPickerOptionsPopup@ImGui@@YAXPEBMH@Z DD imagerel $LN45+76
	DD	imagerel $LN45+92
	DD	imagerel $chain$0$?ColorPickerOptionsPopup@ImGui@@YAXPEBMH@Z
pdata	ENDS
;	COMDAT pdata
pdata	SEGMENT
$pdata$3$?ColorPickerOptionsPopup@ImGui@@YAXPEBMH@Z DD imagerel $LN45+92
	DD	imagerel $LN45+110
	DD	imagerel $chain$3$?ColorPickerOptionsPopup@ImGui@@YAXPEBMH@Z
pdata	ENDS
;	COMDAT pdata
pdata	SEGMENT
$pdata$4$?ColorPickerOptionsPopup@ImGui@@YAXPEBMH@Z DD imagerel $LN45+110
	DD	imagerel $LN45+212
	DD	imagerel $chain$4$?ColorPickerOptionsPopup@ImGui@@YAXPEBMH@Z
pdata	ENDS
;	COMDAT pdata
pdata	SEGMENT
$pdata$5$?ColorPickerOptionsPopup@ImGui@@YAXPEBMH@Z DD imagerel $LN45+212
	DD	imagerel $LN45+483
	DD	imagerel $chain$5$?ColorPickerOptionsPopup@ImGui@@YAXPEBMH@Z
pdata	ENDS
;	COMDAT pdata
pdata	SEGMENT
$pdata$6$?ColorPickerOptionsPopup@ImGui@@YAXPEBMH@Z DD imagerel $LN45+483
	DD	imagerel $LN45+608
	DD	imagerel $chain$6$?ColorPickerOptionsPopup@ImGui@@YAXPEBMH@Z
pdata	ENDS
;	COMDAT pdata
pdata	SEGMENT
$pdata$7$?ColorPickerOptionsPopup@ImGui@@YAXPEBMH@Z DD imagerel $LN45+608
	DD	imagerel $LN45+620
	DD	imagerel $chain$7$?ColorPickerOptionsPopup@ImGui@@YAXPEBMH@Z
pdata	ENDS
;	COMDAT pdata
pdata	SEGMENT
$pdata$?PlotEx@ImGui@@YAHW4ImGuiPlotType@@PEBDP6AMPEAXH@Z2HH1MMUImVec2@@@Z DD imagerel $LN145
	DD	imagerel $LN145+472
	DD	imagerel $unwind$?PlotEx@ImGui@@YAHW4ImGuiPlotType@@PEBDP6AMPEAXH@Z2HH1MMUImVec2@@@Z
pdata	ENDS
;	COMDAT pdata
pdata	SEGMENT
$pdata$3$?PlotEx@ImGui@@YAHW4ImGuiPlotType@@PEBDP6AMPEAXH@Z2HH1MMUImVec2@@@Z DD imagerel $LN145+472
	DD	imagerel $LN145+754
	DD	imagerel $chain$3$?PlotEx@ImGui@@YAHW4ImGuiPlotType@@PEBDP6AMPEAXH@Z2HH1MMUImVec2@@@Z
pdata	ENDS
;	COMDAT pdata
pdata	SEGMENT
$pdata$4$?PlotEx@ImGui@@YAHW4ImGuiPlotType@@PEBDP6AMPEAXH@Z2HH1MMUImVec2@@@Z DD imagerel $LN145+754
	DD	imagerel $LN145+1867
	DD	imagerel $chain$4$?PlotEx@ImGui@@YAHW4ImGuiPlotType@@PEBDP6AMPEAXH@Z2HH1MMUImVec2@@@Z
pdata	ENDS
;	COMDAT pdata
pdata	SEGMENT
$pdata$5$?PlotEx@ImGui@@YAHW4ImGuiPlotType@@PEBDP6AMPEAXH@Z2HH1MMUImVec2@@@Z DD imagerel $LN145+1867
	DD	imagerel $LN145+1914
	DD	imagerel $chain$5$?PlotEx@ImGui@@YAHW4ImGuiPlotType@@PEBDP6AMPEAXH@Z2HH1MMUImVec2@@@Z
pdata	ENDS
;	COMDAT pdata
pdata	SEGMENT
$pdata$6$?PlotEx@ImGui@@YAHW4ImGuiPlotType@@PEBDP6AMPEAXH@Z2HH1MMUImVec2@@@Z DD imagerel $LN145+1914
	DD	imagerel $LN145+2113
	DD	imagerel $chain$6$?PlotEx@ImGui@@YAHW4ImGuiPlotType@@PEBDP6AMPEAXH@Z2HH1MMUImVec2@@@Z
pdata	ENDS
;	COMDAT pdata
pdata	SEGMENT
$pdata$?InputTextFilterCharacter@@YA_NPEAIHP6AHPEAUImGuiInputTextCallbackData@@@ZPEAX@Z DD imagerel ?InputTextFilterCharacter@@YA_NPEAIHP6AHPEAUImGuiInputTextCallbackData@@@ZPEAX@Z
	DD	imagerel ?InputTextFilterCharacter@@YA_NPEAIHP6AHPEAUImGuiInputTextCallbackData@@@ZPEAX@Z+359
	DD	imagerel $unwind$?InputTextFilterCharacter@@YA_NPEAIHP6AHPEAUImGuiInputTextCallbackData@@@ZPEAX@Z
pdata	ENDS
;	COMDAT pdata
pdata	SEGMENT
$pdata$?InputTextCalcTextSizeW@@YA?AUImVec2@@PEBG0PEAPEBGPEAU1@_N@Z DD imagerel ?InputTextCalcTextSizeW@@YA?AUImVec2@@PEBG0PEAPEBGPEAU1@_N@Z
	DD	imagerel ?InputTextCalcTextSizeW@@YA?AUImVec2@@PEBG0PEAPEBGPEAU1@_N@Z+249
	DD	imagerel $unwind$?InputTextCalcTextSizeW@@YA?AUImVec2@@PEBG0PEAPEBGPEAU1@_N@Z
pdata	ENDS
;	COMDAT pdata
pdata	SEGMENT
$pdata$?PatchFormatStringFloatToInt@@YAPEBDPEBD@Z DD imagerel ?PatchFormatStringFloatToInt@@YAPEBDPEBD@Z
	DD	imagerel ?PatchFormatStringFloatToInt@@YAPEBDPEBD@Z+234
	DD	imagerel $unwind$?PatchFormatStringFloatToInt@@YAPEBDPEBD@Z
pdata	ENDS
;	COMDAT pdata
pdata	SEGMENT
$pdata$0$?PatchFormatStringFloatToInt@@YAPEBDPEBD@Z DD imagerel ?PatchFormatStringFloatToInt@@YAPEBDPEBD@Z+234
	DD	imagerel ?PatchFormatStringFloatToInt@@YAPEBDPEBD@Z+292
	DD	imagerel $chain$0$?PatchFormatStringFloatToInt@@YAPEBDPEBD@Z
pdata	ENDS
;	COMDAT pdata
pdata	SEGMENT
$pdata$1$?PatchFormatStringFloatToInt@@YAPEBDPEBD@Z DD imagerel ?PatchFormatStringFloatToInt@@YAPEBDPEBD@Z+292
	DD	imagerel ?PatchFormatStringFloatToInt@@YAPEBDPEBD@Z+300
	DD	imagerel $chain$1$?PatchFormatStringFloatToInt@@YAPEBDPEBD@Z
pdata	ENDS
;	COMDAT pdata
pdata	SEGMENT
$pdata$??$DragBehaviorT@HHM@ImGui@@YA_NHPEAHMHHPEBDMH@Z DD imagerel $LN79
	DD	imagerel $LN79+741
	DD	imagerel $unwind$??$DragBehaviorT@HHM@ImGui@@YA_NHPEAHMHHPEBDMH@Z
pdata	ENDS
;	COMDAT pdata
pdata	SEGMENT
$pdata$4$??$DragBehaviorT@HHM@ImGui@@YA_NHPEAHMHHPEBDMH@Z DD imagerel $LN79+741
	DD	imagerel $LN79+966
	DD	imagerel $chain$4$??$DragBehaviorT@HHM@ImGui@@YA_NHPEAHMHHPEBDMH@Z
pdata	ENDS
;	COMDAT pdata
pdata	SEGMENT
$pdata$5$??$DragBehaviorT@HHM@ImGui@@YA_NHPEAHMHHPEBDMH@Z DD imagerel $LN79+966
	DD	imagerel $LN79+1098
	DD	imagerel $chain$5$??$DragBehaviorT@HHM@ImGui@@YA_NHPEAHMHHPEBDMH@Z
pdata	ENDS
;	COMDAT pdata
pdata	SEGMENT
$pdata$??$DragBehaviorT@IHM@ImGui@@YA_NHPEAIMIIPEBDMH@Z DD imagerel $LN79
	DD	imagerel $LN79+740
	DD	imagerel $unwind$??$DragBehaviorT@IHM@ImGui@@YA_NHPEAIMIIPEBDMH@Z
pdata	ENDS
;	COMDAT pdata
pdata	SEGMENT
$pdata$4$??$DragBehaviorT@IHM@ImGui@@YA_NHPEAIMIIPEBDMH@Z DD imagerel $LN79+740
	DD	imagerel $LN79+986
	DD	imagerel $chain$4$??$DragBehaviorT@IHM@ImGui@@YA_NHPEAIMIIPEBDMH@Z
pdata	ENDS
;	COMDAT pdata
pdata	SEGMENT
$pdata$5$??$DragBehaviorT@IHM@ImGui@@YA_NHPEAIMIIPEBDMH@Z DD imagerel $LN79+986
	DD	imagerel $LN79+1118
	DD	imagerel $chain$5$??$DragBehaviorT@IHM@ImGui@@YA_NHPEAIMIIPEBDMH@Z
pdata	ENDS
;	COMDAT pdata
pdata	SEGMENT
$pdata$??$DragBehaviorT@_J_JN@ImGui@@YA_NHPEA_JM_J1PEBDMH@Z DD imagerel $LN78
	DD	imagerel $LN78+758
	DD	imagerel $unwind$??$DragBehaviorT@_J_JN@ImGui@@YA_NHPEA_JM_J1PEBDMH@Z
pdata	ENDS
;	COMDAT pdata
pdata	SEGMENT
$pdata$6$??$DragBehaviorT@_J_JN@ImGui@@YA_NHPEA_JM_J1PEBDMH@Z DD imagerel $LN78+758
	DD	imagerel $LN78+1061
	DD	imagerel $chain$6$??$DragBehaviorT@_J_JN@ImGui@@YA_NHPEA_JM_J1PEBDMH@Z
pdata	ENDS
;	COMDAT pdata
pdata	SEGMENT
$pdata$7$??$DragBehaviorT@_J_JN@ImGui@@YA_NHPEA_JM_J1PEBDMH@Z DD imagerel $LN78+1061
	DD	imagerel $LN78+1205
	DD	imagerel $chain$7$??$DragBehaviorT@_J_JN@ImGui@@YA_NHPEA_JM_J1PEBDMH@Z
pdata	ENDS
;	COMDAT pdata
pdata	SEGMENT
$pdata$??$DragBehaviorT@_K_JN@ImGui@@YA_NHPEA_KM_K1PEBDMH@Z DD imagerel $LN97
	DD	imagerel $LN97+247
	DD	imagerel $unwind$??$DragBehaviorT@_K_JN@ImGui@@YA_NHPEA_KM_K1PEBDMH@Z
pdata	ENDS
;	COMDAT pdata
pdata	SEGMENT
$pdata$4$??$DragBehaviorT@_K_JN@ImGui@@YA_NHPEA_KM_K1PEBDMH@Z DD imagerel $LN97+247
	DD	imagerel $LN97+809
	DD	imagerel $chain$4$??$DragBehaviorT@_K_JN@ImGui@@YA_NHPEA_KM_K1PEBDMH@Z
pdata	ENDS
;	COMDAT pdata
pdata	SEGMENT
$pdata$7$??$DragBehaviorT@_K_JN@ImGui@@YA_NHPEA_KM_K1PEBDMH@Z DD imagerel $LN97+809
	DD	imagerel $LN97+1267
	DD	imagerel $chain$7$??$DragBehaviorT@_K_JN@ImGui@@YA_NHPEA_KM_K1PEBDMH@Z
pdata	ENDS
;	COMDAT pdata
pdata	SEGMENT
$pdata$8$??$DragBehaviorT@_K_JN@ImGui@@YA_NHPEA_KM_K1PEBDMH@Z DD imagerel $LN97+1267
	DD	imagerel $LN97+1424
	DD	imagerel $chain$8$??$DragBehaviorT@_K_JN@ImGui@@YA_NHPEA_KM_K1PEBDMH@Z
pdata	ENDS
;	COMDAT pdata
pdata	SEGMENT
$pdata$??$DragBehaviorT@MMM@ImGui@@YA_NHPEAMMMMPEBDMH@Z DD imagerel $LN79
	DD	imagerel $LN79+1116
	DD	imagerel $unwind$??$DragBehaviorT@MMM@ImGui@@YA_NHPEAMMMMPEBDMH@Z
pdata	ENDS
;	COMDAT pdata
pdata	SEGMENT
$pdata$??$DragBehaviorT@NNN@ImGui@@YA_NHPEANMNNPEBDMH@Z DD imagerel $LN80
	DD	imagerel $LN80+745
	DD	imagerel $unwind$??$DragBehaviorT@NNN@ImGui@@YA_NHPEANMNNPEBDMH@Z
pdata	ENDS
;	COMDAT pdata
pdata	SEGMENT
$pdata$4$??$DragBehaviorT@NNN@ImGui@@YA_NHPEANMNNPEBDMH@Z DD imagerel $LN80+745
	DD	imagerel $LN80+993
	DD	imagerel $chain$4$??$DragBehaviorT@NNN@ImGui@@YA_NHPEANMNNPEBDMH@Z
pdata	ENDS
;	COMDAT pdata
pdata	SEGMENT
$pdata$5$??$DragBehaviorT@NNN@ImGui@@YA_NHPEANMNNPEBDMH@Z DD imagerel $LN80+993
	DD	imagerel $LN80+1176
	DD	imagerel $chain$5$??$DragBehaviorT@NNN@ImGui@@YA_NHPEANMNNPEBDMH@Z
pdata	ENDS
;	COMDAT pdata
pdata	SEGMENT
$pdata$??$SliderBehaviorT@HHM@ImGui@@YA_NAEBUImRect@@IHPEAHHHPEBDMHPEAU1@@Z DD imagerel $LN155
	DD	imagerel $LN155+118
	DD	imagerel $unwind$??$SliderBehaviorT@HHM@ImGui@@YA_NAEBUImRect@@IHPEAHHHPEBDMHPEAU1@@Z
pdata	ENDS
;	COMDAT pdata
pdata	SEGMENT
$pdata$5$??$SliderBehaviorT@HHM@ImGui@@YA_NAEBUImRect@@IHPEAHHHPEBDMHPEAU1@@Z DD imagerel $LN155+118
	DD	imagerel $LN155+371
	DD	imagerel $chain$5$??$SliderBehaviorT@HHM@ImGui@@YA_NAEBUImRect@@IHPEAHHHPEBDMHPEAU1@@Z
pdata	ENDS
;	COMDAT pdata
pdata	SEGMENT
$pdata$6$??$SliderBehaviorT@HHM@ImGui@@YA_NAEBUImRect@@IHPEAHHHPEBDMHPEAU1@@Z DD imagerel $LN155+371
	DD	imagerel $LN155+665
	DD	imagerel $chain$6$??$SliderBehaviorT@HHM@ImGui@@YA_NAEBUImRect@@IHPEAHHHPEBDMHPEAU1@@Z
pdata	ENDS
;	COMDAT pdata
pdata	SEGMENT
$pdata$7$??$SliderBehaviorT@HHM@ImGui@@YA_NAEBUImRect@@IHPEAHHHPEBDMHPEAU1@@Z DD imagerel $LN155+665
	DD	imagerel $LN155+686
	DD	imagerel $chain$7$??$SliderBehaviorT@HHM@ImGui@@YA_NAEBUImRect@@IHPEAHHHPEBDMHPEAU1@@Z
pdata	ENDS
;	COMDAT pdata
pdata	SEGMENT
$pdata$8$??$SliderBehaviorT@HHM@ImGui@@YA_NAEBUImRect@@IHPEAHHHPEBDMHPEAU1@@Z DD imagerel $LN155+686
	DD	imagerel $LN155+1501
	DD	imagerel $chain$8$??$SliderBehaviorT@HHM@ImGui@@YA_NAEBUImRect@@IHPEAHHHPEBDMHPEAU1@@Z
pdata	ENDS
;	COMDAT pdata
pdata	SEGMENT
$pdata$9$??$SliderBehaviorT@HHM@ImGui@@YA_NAEBUImRect@@IHPEAHHHPEBDMHPEAU1@@Z DD imagerel $LN155+1501
	DD	imagerel $LN155+1740
	DD	imagerel $chain$9$??$SliderBehaviorT@HHM@ImGui@@YA_NAEBUImRect@@IHPEAHHHPEBDMHPEAU1@@Z
pdata	ENDS
;	COMDAT pdata
pdata	SEGMENT
$pdata$??$SliderBehaviorT@IHM@ImGui@@YA_NAEBUImRect@@IHPEAIIIPEBDMHPEAU1@@Z DD imagerel $LN155
	DD	imagerel $LN155+96
	DD	imagerel $unwind$??$SliderBehaviorT@IHM@ImGui@@YA_NAEBUImRect@@IHPEAIIIPEBDMHPEAU1@@Z
pdata	ENDS
;	COMDAT pdata
pdata	SEGMENT
$pdata$5$??$SliderBehaviorT@IHM@ImGui@@YA_NAEBUImRect@@IHPEAIIIPEBDMHPEAU1@@Z DD imagerel $LN155+96
	DD	imagerel $LN155+350
	DD	imagerel $chain$5$??$SliderBehaviorT@IHM@ImGui@@YA_NAEBUImRect@@IHPEAIIIPEBDMHPEAU1@@Z
pdata	ENDS
;	COMDAT pdata
pdata	SEGMENT
$pdata$6$??$SliderBehaviorT@IHM@ImGui@@YA_NAEBUImRect@@IHPEAIIIPEBDMHPEAU1@@Z DD imagerel $LN155+350
	DD	imagerel $LN155+631
	DD	imagerel $chain$6$??$SliderBehaviorT@IHM@ImGui@@YA_NAEBUImRect@@IHPEAIIIPEBDMHPEAU1@@Z
pdata	ENDS
;	COMDAT pdata
pdata	SEGMENT
$pdata$7$??$SliderBehaviorT@IHM@ImGui@@YA_NAEBUImRect@@IHPEAIIIPEBDMHPEAU1@@Z DD imagerel $LN155+631
	DD	imagerel $LN155+651
	DD	imagerel $chain$7$??$SliderBehaviorT@IHM@ImGui@@YA_NAEBUImRect@@IHPEAIIIPEBDMHPEAU1@@Z
pdata	ENDS
;	COMDAT pdata
pdata	SEGMENT
$pdata$8$??$SliderBehaviorT@IHM@ImGui@@YA_NAEBUImRect@@IHPEAIIIPEBDMHPEAU1@@Z DD imagerel $LN155+651
	DD	imagerel $LN155+1445
	DD	imagerel $chain$8$??$SliderBehaviorT@IHM@ImGui@@YA_NAEBUImRect@@IHPEAIIIPEBDMHPEAU1@@Z
pdata	ENDS
;	COMDAT pdata
pdata	SEGMENT
$pdata$9$??$SliderBehaviorT@IHM@ImGui@@YA_NAEBUImRect@@IHPEAIIIPEBDMHPEAU1@@Z DD imagerel $LN155+1445
	DD	imagerel $LN155+1679
	DD	imagerel $chain$9$??$SliderBehaviorT@IHM@ImGui@@YA_NAEBUImRect@@IHPEAIIIPEBDMHPEAU1@@Z
pdata	ENDS
;	COMDAT pdata
pdata	SEGMENT
$pdata$??$SliderBehaviorT@_J_JN@ImGui@@YA_NAEBUImRect@@IHPEA_J_J2PEBDMHPEAU1@@Z DD imagerel $LN157
	DD	imagerel $LN157+114
	DD	imagerel $unwind$??$SliderBehaviorT@_J_JN@ImGui@@YA_NAEBUImRect@@IHPEA_J_J2PEBDMHPEAU1@@Z
pdata	ENDS
;	COMDAT pdata
pdata	SEGMENT
$pdata$5$??$SliderBehaviorT@_J_JN@ImGui@@YA_NAEBUImRect@@IHPEA_J_J2PEBDMHPEAU1@@Z DD imagerel $LN157+114
	DD	imagerel $LN157+692
	DD	imagerel $chain$5$??$SliderBehaviorT@_J_JN@ImGui@@YA_NAEBUImRect@@IHPEA_J_J2PEBDMHPEAU1@@Z
pdata	ENDS
;	COMDAT pdata
pdata	SEGMENT
$pdata$6$??$SliderBehaviorT@_J_JN@ImGui@@YA_NAEBUImRect@@IHPEA_J_J2PEBDMHPEAU1@@Z DD imagerel $LN157+692
	DD	imagerel $LN157+713
	DD	imagerel $chain$6$??$SliderBehaviorT@_J_JN@ImGui@@YA_NAEBUImRect@@IHPEA_J_J2PEBDMHPEAU1@@Z
pdata	ENDS
;	COMDAT pdata
pdata	SEGMENT
$pdata$7$??$SliderBehaviorT@_J_JN@ImGui@@YA_NAEBUImRect@@IHPEA_J_J2PEBDMHPEAU1@@Z DD imagerel $LN157+713
	DD	imagerel $LN157+1569
	DD	imagerel $chain$7$??$SliderBehaviorT@_J_JN@ImGui@@YA_NAEBUImRect@@IHPEA_J_J2PEBDMHPEAU1@@Z
pdata	ENDS
;	COMDAT pdata
pdata	SEGMENT
$pdata$8$??$SliderBehaviorT@_J_JN@ImGui@@YA_NAEBUImRect@@IHPEA_J_J2PEBDMHPEAU1@@Z DD imagerel $LN157+1569
	DD	imagerel $LN157+1805
	DD	imagerel $chain$8$??$SliderBehaviorT@_J_JN@ImGui@@YA_NAEBUImRect@@IHPEA_J_J2PEBDMHPEAU1@@Z
pdata	ENDS
;	COMDAT pdata
pdata	SEGMENT
$pdata$??$SliderBehaviorT@_K_JN@ImGui@@YA_NAEBUImRect@@IHPEA_K_K2PEBDMHPEAU1@@Z DD imagerel $LN164
	DD	imagerel $LN164+112
	DD	imagerel $unwind$??$SliderBehaviorT@_K_JN@ImGui@@YA_NAEBUImRect@@IHPEA_K_K2PEBDMHPEAU1@@Z
pdata	ENDS
;	COMDAT pdata
pdata	SEGMENT
$pdata$6$??$SliderBehaviorT@_K_JN@ImGui@@YA_NAEBUImRect@@IHPEA_K_K2PEBDMHPEAU1@@Z DD imagerel $LN164+112
	DD	imagerel $LN164+789
	DD	imagerel $chain$6$??$SliderBehaviorT@_K_JN@ImGui@@YA_NAEBUImRect@@IHPEA_K_K2PEBDMHPEAU1@@Z
pdata	ENDS
;	COMDAT pdata
pdata	SEGMENT
$pdata$7$??$SliderBehaviorT@_K_JN@ImGui@@YA_NAEBUImRect@@IHPEA_K_K2PEBDMHPEAU1@@Z DD imagerel $LN164+789
	DD	imagerel $LN164+816
	DD	imagerel $chain$7$??$SliderBehaviorT@_K_JN@ImGui@@YA_NAEBUImRect@@IHPEA_K_K2PEBDMHPEAU1@@Z
pdata	ENDS
;	COMDAT pdata
pdata	SEGMENT
$pdata$8$??$SliderBehaviorT@_K_JN@ImGui@@YA_NAEBUImRect@@IHPEA_K_K2PEBDMHPEAU1@@Z DD imagerel $LN164+816
	DD	imagerel $LN164+1698
	DD	imagerel $chain$8$??$SliderBehaviorT@_K_JN@ImGui@@YA_NAEBUImRect@@IHPEA_K_K2PEBDMHPEAU1@@Z
pdata	ENDS
;	COMDAT pdata
pdata	SEGMENT
$pdata$9$??$SliderBehaviorT@_K_JN@ImGui@@YA_NAEBUImRect@@IHPEA_K_K2PEBDMHPEAU1@@Z DD imagerel $LN164+1698
	DD	imagerel $LN164+1932
	DD	imagerel $chain$9$??$SliderBehaviorT@_K_JN@ImGui@@YA_NAEBUImRect@@IHPEA_K_K2PEBDMHPEAU1@@Z
pdata	ENDS
;	COMDAT pdata
pdata	SEGMENT
$pdata$??$SliderBehaviorT@MMM@ImGui@@YA_NAEBUImRect@@IHPEAMMMPEBDMHPEAU1@@Z DD imagerel $LN157
	DD	imagerel $LN157+94
	DD	imagerel $unwind$??$SliderBehaviorT@MMM@ImGui@@YA_NAEBUImRect@@IHPEAMMMPEBDMHPEAU1@@Z
pdata	ENDS
;	COMDAT pdata
pdata	SEGMENT
$pdata$7$??$SliderBehaviorT@MMM@ImGui@@YA_NAEBUImRect@@IHPEAMMMPEBDMHPEAU1@@Z DD imagerel $LN157+94
	DD	imagerel $LN157+1348
	DD	imagerel $chain$7$??$SliderBehaviorT@MMM@ImGui@@YA_NAEBUImRect@@IHPEAMMMPEBDMHPEAU1@@Z
pdata	ENDS
;	COMDAT pdata
pdata	SEGMENT
$pdata$8$??$SliderBehaviorT@MMM@ImGui@@YA_NAEBUImRect@@IHPEAMMMPEBDMHPEAU1@@Z DD imagerel $LN157+1348
	DD	imagerel $LN157+1623
	DD	imagerel $chain$8$??$SliderBehaviorT@MMM@ImGui@@YA_NAEBUImRect@@IHPEAMMMPEBDMHPEAU1@@Z
pdata	ENDS
;	COMDAT pdata
pdata	SEGMENT
$pdata$??$SliderBehaviorT@NNN@ImGui@@YA_NAEBUImRect@@IHPEANNNPEBDMHPEAU1@@Z DD imagerel $LN159
	DD	imagerel $LN159+114
	DD	imagerel $unwind$??$SliderBehaviorT@NNN@ImGui@@YA_NAEBUImRect@@IHPEANNNPEBDMHPEAU1@@Z
pdata	ENDS
;	COMDAT pdata
pdata	SEGMENT
$pdata$5$??$SliderBehaviorT@NNN@ImGui@@YA_NAEBUImRect@@IHPEANNNPEBDMHPEAU1@@Z DD imagerel $LN159+114
	DD	imagerel $LN159+1440
	DD	imagerel $chain$5$??$SliderBehaviorT@NNN@ImGui@@YA_NAEBUImRect@@IHPEANNNPEBDMHPEAU1@@Z
pdata	ENDS
;	COMDAT pdata
pdata	SEGMENT
$pdata$6$??$SliderBehaviorT@NNN@ImGui@@YA_NAEBUImRect@@IHPEANNNPEBDMHPEAU1@@Z DD imagerel $LN159+1440
	DD	imagerel $LN159+1710
	DD	imagerel $chain$6$??$SliderBehaviorT@NNN@ImGui@@YA_NAEBUImRect@@IHPEANNNPEBDMHPEAU1@@Z
pdata	ENDS
;	COMDAT pdata
pdata	SEGMENT
$pdata$??$ImAtoi@H@@YAPEBDPEBDPEAH@Z DD imagerel ??$ImAtoi@H@@YAPEBDPEBDPEAH@Z
	DD	imagerel ??$ImAtoi@H@@YAPEBDPEBDPEAH@Z+122
	DD	imagerel $unwind$??$ImAtoi@H@@YAPEBDPEBDPEAH@Z
pdata	ENDS
;	COMDAT pdata
pdata	SEGMENT
$pdata$?STB_TEXTEDIT_GETCHAR@ImStb@@YAGPEBUImGuiInputTextState@@H@Z DD imagerel ?STB_TEXTEDIT_GETCHAR@ImStb@@YAGPEBUImGuiInputTextState@@H@Z
	DD	imagerel ?STB_TEXTEDIT_GETCHAR@ImStb@@YAGPEBUImGuiInputTextState@@H@Z+66
	DD	imagerel $unwind$?STB_TEXTEDIT_GETCHAR@ImStb@@YAGPEBUImGuiInputTextState@@H@Z
pdata	ENDS
;	COMDAT pdata
pdata	SEGMENT
$pdata$?STB_TEXTEDIT_GETWIDTH@ImStb@@YAMPEAUImGuiInputTextState@@HH@Z DD imagerel ?STB_TEXTEDIT_GETWIDTH@ImStb@@YAMPEAUImGuiInputTextState@@HH@Z
	DD	imagerel ?STB_TEXTEDIT_GETWIDTH@ImStb@@YAMPEAUImGuiInputTextState@@HH@Z+146
	DD	imagerel $unwind$?STB_TEXTEDIT_GETWIDTH@ImStb@@YAMPEAUImGuiInputTextState@@HH@Z
pdata	ENDS
;	COMDAT pdata
pdata	SEGMENT
$pdata$?STB_TEXTEDIT_LAYOUTROW@ImStb@@YAXPEAUStbTexteditRow@1@PEAUImGuiInputTextState@@H@Z DD imagerel ?STB_TEXTEDIT_LAYOUTROW@ImStb@@YAXPEAUStbTexteditRow@1@PEAUImGuiInputTextState@@H@Z
	DD	imagerel ?STB_TEXTEDIT_LAYOUTROW@ImStb@@YAXPEAUStbTexteditRow@1@PEAUImGuiInputTextState@@H@Z+230
	DD	imagerel $unwind$?STB_TEXTEDIT_LAYOUTROW@ImStb@@YAXPEAUStbTexteditRow@1@PEAUImGuiInputTextState@@H@Z
pdata	ENDS
;	COMDAT pdata
pdata	SEGMENT
$pdata$?is_word_boundary_from_right@ImStb@@YAHPEAUImGuiInputTextState@@H@Z DD imagerel ?is_word_boundary_from_right@ImStb@@YAHPEAUImGuiInputTextState@@H@Z
	DD	imagerel ?is_word_boundary_from_right@ImStb@@YAHPEAUImGuiInputTextState@@H@Z+24
	DD	imagerel $unwind$?is_word_boundary_from_right@ImStb@@YAHPEAUImGuiInputTextState@@H@Z
pdata	ENDS
;	COMDAT pdata
pdata	SEGMENT
$pdata$2$?is_word_boundary_from_right@ImStb@@YAHPEAUImGuiInputTextState@@H@Z DD imagerel ?is_word_boundary_from_right@ImStb@@YAHPEAUImGuiInputTextState@@H@Z+24
	DD	imagerel ?is_word_boundary_from_right@ImStb@@YAHPEAUImGuiInputTextState@@H@Z+248
	DD	imagerel $chain$2$?is_word_boundary_from_right@ImStb@@YAHPEAUImGuiInputTextState@@H@Z
pdata	ENDS
;	COMDAT pdata
pdata	SEGMENT
$pdata$4$?is_word_boundary_from_right@ImStb@@YAHPEAUImGuiInputTextState@@H@Z DD imagerel ?is_word_boundary_from_right@ImStb@@YAHPEAUImGuiInputTextState@@H@Z+248
	DD	imagerel ?is_word_boundary_from_right@ImStb@@YAHPEAUImGuiInputTextState@@H@Z+252
	DD	imagerel $chain$4$?is_word_boundary_from_right@ImStb@@YAHPEAUImGuiInputTextState@@H@Z
pdata	ENDS
;	COMDAT pdata
pdata	SEGMENT
$pdata$5$?is_word_boundary_from_right@ImStb@@YAHPEAUImGuiInputTextState@@H@Z DD imagerel ?is_word_boundary_from_right@ImStb@@YAHPEAUImGuiInputTextState@@H@Z+252
	DD	imagerel ?is_word_boundary_from_right@ImStb@@YAHPEAUImGuiInputTextState@@H@Z+268
	DD	imagerel $chain$5$?is_word_boundary_from_right@ImStb@@YAHPEAUImGuiInputTextState@@H@Z
pdata	ENDS
;	COMDAT pdata
pdata	SEGMENT
$pdata$?STB_TEXTEDIT_MOVEWORDLEFT_IMPL@ImStb@@YAHPEAUImGuiInputTextState@@H@Z DD imagerel ?STB_TEXTEDIT_MOVEWORDLEFT_IMPL@ImStb@@YAHPEAUImGuiInputTextState@@H@Z
	DD	imagerel ?STB_TEXTEDIT_MOVEWORDLEFT_IMPL@ImStb@@YAHPEAUImGuiInputTextState@@H@Z+32
	DD	imagerel $unwind$?STB_TEXTEDIT_MOVEWORDLEFT_IMPL@ImStb@@YAHPEAUImGuiInputTextState@@H@Z
pdata	ENDS
;	COMDAT pdata
pdata	SEGMENT
$pdata$1$?STB_TEXTEDIT_MOVEWORDLEFT_IMPL@ImStb@@YAHPEAUImGuiInputTextState@@H@Z DD imagerel ?STB_TEXTEDIT_MOVEWORDLEFT_IMPL@ImStb@@YAHPEAUImGuiInputTextState@@H@Z+32
	DD	imagerel ?STB_TEXTEDIT_MOVEWORDLEFT_IMPL@ImStb@@YAHPEAUImGuiInputTextState@@H@Z+252
	DD	imagerel $chain$1$?STB_TEXTEDIT_MOVEWORDLEFT_IMPL@ImStb@@YAHPEAUImGuiInputTextState@@H@Z
pdata	ENDS
;	COMDAT pdata
pdata	SEGMENT
$pdata$2$?STB_TEXTEDIT_MOVEWORDLEFT_IMPL@ImStb@@YAHPEAUImGuiInputTextState@@H@Z DD imagerel ?STB_TEXTEDIT_MOVEWORDLEFT_IMPL@ImStb@@YAHPEAUImGuiInputTextState@@H@Z+252
	DD	imagerel ?STB_TEXTEDIT_MOVEWORDLEFT_IMPL@ImStb@@YAHPEAUImGuiInputTextState@@H@Z+277
	DD	imagerel $chain$2$?STB_TEXTEDIT_MOVEWORDLEFT_IMPL@ImStb@@YAHPEAUImGuiInputTextState@@H@Z
pdata	ENDS
;	COMDAT pdata
pdata	SEGMENT
$pdata$?STB_TEXTEDIT_MOVEWORDRIGHT_IMPL@ImStb@@YAHPEAUImGuiInputTextState@@H@Z DD imagerel ?STB_TEXTEDIT_MOVEWORDRIGHT_IMPL@ImStb@@YAHPEAUImGuiInputTextState@@H@Z
	DD	imagerel ?STB_TEXTEDIT_MOVEWORDRIGHT_IMPL@ImStb@@YAHPEAUImGuiInputTextState@@H@Z+40
	DD	imagerel $unwind$?STB_TEXTEDIT_MOVEWORDRIGHT_IMPL@ImStb@@YAHPEAUImGuiInputTextState@@H@Z
pdata	ENDS
;	COMDAT pdata
pdata	SEGMENT
$pdata$1$?STB_TEXTEDIT_MOVEWORDRIGHT_IMPL@ImStb@@YAHPEAUImGuiInputTextState@@H@Z DD imagerel ?STB_TEXTEDIT_MOVEWORDRIGHT_IMPL@ImStb@@YAHPEAUImGuiInputTextState@@H@Z+40
	DD	imagerel ?STB_TEXTEDIT_MOVEWORDRIGHT_IMPL@ImStb@@YAHPEAUImGuiInputTextState@@H@Z+258
	DD	imagerel $chain$1$?STB_TEXTEDIT_MOVEWORDRIGHT_IMPL@ImStb@@YAHPEAUImGuiInputTextState@@H@Z
pdata	ENDS
;	COMDAT pdata
pdata	SEGMENT
$pdata$2$?STB_TEXTEDIT_MOVEWORDRIGHT_IMPL@ImStb@@YAHPEAUImGuiInputTextState@@H@Z DD imagerel ?STB_TEXTEDIT_MOVEWORDRIGHT_IMPL@ImStb@@YAHPEAUImGuiInputTextState@@H@Z+258
	DD	imagerel ?STB_TEXTEDIT_MOVEWORDRIGHT_IMPL@ImStb@@YAHPEAUImGuiInputTextState@@H@Z+286
	DD	imagerel $chain$2$?STB_TEXTEDIT_MOVEWORDRIGHT_IMPL@ImStb@@YAHPEAUImGuiInputTextState@@H@Z
pdata	ENDS
;	COMDAT pdata
pdata	SEGMENT
$pdata$?STB_TEXTEDIT_DELETECHARS@ImStb@@YAXPEAUImGuiInputTextState@@HH@Z DD imagerel ?STB_TEXTEDIT_DELETECHARS@ImStb@@YAXPEAUImGuiInputTextState@@HH@Z
	DD	imagerel ?STB_TEXTEDIT_DELETECHARS@ImStb@@YAXPEAUImGuiInputTextState@@HH@Z+147
	DD	imagerel $unwind$?STB_TEXTEDIT_DELETECHARS@ImStb@@YAXPEAUImGuiInputTextState@@HH@Z
pdata	ENDS
;	COMDAT pdata
pdata	SEGMENT
$pdata$?STB_TEXTEDIT_INSERTCHARS@ImStb@@YA_NPEAUImGuiInputTextState@@HPEBGH@Z DD imagerel ?STB_TEXTEDIT_INSERTCHARS@ImStb@@YA_NPEAUImGuiInputTextState@@HPEBGH@Z
	DD	imagerel ?STB_TEXTEDIT_INSERTCHARS@ImStb@@YA_NPEAUImGuiInputTextState@@HPEBGH@Z+229
	DD	imagerel $unwind$?STB_TEXTEDIT_INSERTCHARS@ImStb@@YA_NPEAUImGuiInputTextState@@HPEBGH@Z
pdata	ENDS
;	COMDAT pdata
pdata	SEGMENT
$pdata$1$?STB_TEXTEDIT_INSERTCHARS@ImStb@@YA_NPEAUImGuiInputTextState@@HPEBGH@Z DD imagerel ?STB_TEXTEDIT_INSERTCHARS@ImStb@@YA_NPEAUImGuiInputTextState@@HPEBGH@Z+229
	DD	imagerel ?STB_TEXTEDIT_INSERTCHARS@ImStb@@YA_NPEAUImGuiInputTextState@@HPEBGH@Z+306
	DD	imagerel $chain$1$?STB_TEXTEDIT_INSERTCHARS@ImStb@@YA_NPEAUImGuiInputTextState@@HPEBGH@Z
pdata	ENDS
;	COMDAT pdata
pdata	SEGMENT
$pdata$2$?STB_TEXTEDIT_INSERTCHARS@ImStb@@YA_NPEAUImGuiInputTextState@@HPEBGH@Z DD imagerel ?STB_TEXTEDIT_INSERTCHARS@ImStb@@YA_NPEAUImGuiInputTextState@@HPEBGH@Z+306
	DD	imagerel ?STB_TEXTEDIT_INSERTCHARS@ImStb@@YA_NPEAUImGuiInputTextState@@HPEBGH@Z+362
	DD	imagerel $chain$2$?STB_TEXTEDIT_INSERTCHARS@ImStb@@YA_NPEAUImGuiInputTextState@@HPEBGH@Z
pdata	ENDS
;	COMDAT pdata
pdata	SEGMENT
$pdata$?stb_text_locate_coord@ImStb@@YAHPEAUImGuiInputTextState@@MM@Z DD imagerel ?stb_text_locate_coord@ImStb@@YAHPEAUImGuiInputTextState@@MM@Z
	DD	imagerel ?stb_text_locate_coord@ImStb@@YAHPEAUImGuiInputTextState@@MM@Z+370
	DD	imagerel $unwind$?stb_text_locate_coord@ImStb@@YAHPEAUImGuiInputTextState@@MM@Z
pdata	ENDS
;	COMDAT pdata
pdata	SEGMENT
$pdata$?stb_textedit_click@ImStb@@YAXPEAUImGuiInputTextState@@PEAUSTB_TexteditState@1@MM@Z DD imagerel ?stb_textedit_click@ImStb@@YAXPEAUImGuiInputTextState@@PEAUSTB_TexteditState@1@MM@Z
	DD	imagerel ?stb_textedit_click@ImStb@@YAXPEAUImGuiInputTextState@@PEAUSTB_TexteditState@1@MM@Z+94
	DD	imagerel $unwind$?stb_textedit_click@ImStb@@YAXPEAUImGuiInputTextState@@PEAUSTB_TexteditState@1@MM@Z
pdata	ENDS
;	COMDAT pdata
pdata	SEGMENT
$pdata$?stb_textedit_drag@ImStb@@YAXPEAUImGuiInputTextState@@PEAUSTB_TexteditState@1@MM@Z DD imagerel ?stb_textedit_drag@ImStb@@YAXPEAUImGuiInputTextState@@PEAUSTB_TexteditState@1@MM@Z
	DD	imagerel ?stb_textedit_drag@ImStb@@YAXPEAUImGuiInputTextState@@PEAUSTB_TexteditState@1@MM@Z+100
	DD	imagerel $unwind$?stb_textedit_drag@ImStb@@YAXPEAUImGuiInputTextState@@PEAUSTB_TexteditState@1@MM@Z
pdata	ENDS
;	COMDAT pdata
pdata	SEGMENT
$pdata$?stb_text_undo@ImStb@@YAXPEAUImGuiInputTextState@@PEAUSTB_TexteditState@1@@Z DD imagerel ?stb_text_undo@ImStb@@YAXPEAUImGuiInputTextState@@PEAUSTB_TexteditState@1@@Z
	DD	imagerel ?stb_text_undo@ImStb@@YAXPEAUImGuiInputTextState@@PEAUSTB_TexteditState@1@@Z+48
	DD	imagerel $unwind$?stb_text_undo@ImStb@@YAXPEAUImGuiInputTextState@@PEAUSTB_TexteditState@1@@Z
pdata	ENDS
;	COMDAT pdata
pdata	SEGMENT
$pdata$3$?stb_text_undo@ImStb@@YAXPEAUImGuiInputTextState@@PEAUSTB_TexteditState@1@@Z DD imagerel ?stb_text_undo@ImStb@@YAXPEAUImGuiInputTextState@@PEAUSTB_TexteditState@1@@Z+48
	DD	imagerel ?stb_text_undo@ImStb@@YAXPEAUImGuiInputTextState@@PEAUSTB_TexteditState@1@@Z+564
	DD	imagerel $chain$3$?stb_text_undo@ImStb@@YAXPEAUImGuiInputTextState@@PEAUSTB_TexteditState@1@@Z
pdata	ENDS
;	COMDAT pdata
pdata	SEGMENT
$pdata$4$?stb_text_undo@ImStb@@YAXPEAUImGuiInputTextState@@PEAUSTB_TexteditState@1@@Z DD imagerel ?stb_text_undo@ImStb@@YAXPEAUImGuiInputTextState@@PEAUSTB_TexteditState@1@@Z+564
	DD	imagerel ?stb_text_undo@ImStb@@YAXPEAUImGuiInputTextState@@PEAUSTB_TexteditState@1@@Z+686
	DD	imagerel $chain$4$?stb_text_undo@ImStb@@YAXPEAUImGuiInputTextState@@PEAUSTB_TexteditState@1@@Z
pdata	ENDS
;	COMDAT pdata
pdata	SEGMENT
$pdata$5$?stb_text_undo@ImStb@@YAXPEAUImGuiInputTextState@@PEAUSTB_TexteditState@1@@Z DD imagerel ?stb_text_undo@ImStb@@YAXPEAUImGuiInputTextState@@PEAUSTB_TexteditState@1@@Z+686
	DD	imagerel ?stb_text_undo@ImStb@@YAXPEAUImGuiInputTextState@@PEAUSTB_TexteditState@1@@Z+784
	DD	imagerel $chain$5$?stb_text_undo@ImStb@@YAXPEAUImGuiInputTextState@@PEAUSTB_TexteditState@1@@Z
pdata	ENDS
;	COMDAT pdata
pdata	SEGMENT
$pdata$6$?stb_text_undo@ImStb@@YAXPEAUImGuiInputTextState@@PEAUSTB_TexteditState@1@@Z DD imagerel ?stb_text_undo@ImStb@@YAXPEAUImGuiInputTextState@@PEAUSTB_TexteditState@1@@Z+784
	DD	imagerel ?stb_text_undo@ImStb@@YAXPEAUImGuiInputTextState@@PEAUSTB_TexteditState@1@@Z+794
	DD	imagerel $chain$6$?stb_text_undo@ImStb@@YAXPEAUImGuiInputTextState@@PEAUSTB_TexteditState@1@@Z
pdata	ENDS
;	COMDAT pdata
pdata	SEGMENT
$pdata$?stb_text_redo@ImStb@@YAXPEAUImGuiInputTextState@@PEAUSTB_TexteditState@1@@Z DD imagerel ?stb_text_redo@ImStb@@YAXPEAUImGuiInputTextState@@PEAUSTB_TexteditState@1@@Z
	DD	imagerel ?stb_text_redo@ImStb@@YAXPEAUImGuiInputTextState@@PEAUSTB_TexteditState@1@@Z+36
	DD	imagerel $unwind$?stb_text_redo@ImStb@@YAXPEAUImGuiInputTextState@@PEAUSTB_TexteditState@1@@Z
pdata	ENDS
;	COMDAT pdata
pdata	SEGMENT
$pdata$3$?stb_text_redo@ImStb@@YAXPEAUImGuiInputTextState@@PEAUSTB_TexteditState@1@@Z DD imagerel ?stb_text_redo@ImStb@@YAXPEAUImGuiInputTextState@@PEAUSTB_TexteditState@1@@Z+36
	DD	imagerel ?stb_text_redo@ImStb@@YAXPEAUImGuiInputTextState@@PEAUSTB_TexteditState@1@@Z+172
	DD	imagerel $chain$3$?stb_text_redo@ImStb@@YAXPEAUImGuiInputTextState@@PEAUSTB_TexteditState@1@@Z
pdata	ENDS
;	COMDAT pdata
pdata	SEGMENT
$pdata$4$?stb_text_redo@ImStb@@YAXPEAUImGuiInputTextState@@PEAUSTB_TexteditState@1@@Z DD imagerel ?stb_text_redo@ImStb@@YAXPEAUImGuiInputTextState@@PEAUSTB_TexteditState@1@@Z+172
	DD	imagerel ?stb_text_redo@ImStb@@YAXPEAUImGuiInputTextState@@PEAUSTB_TexteditState@1@@Z+255
	DD	imagerel $chain$4$?stb_text_redo@ImStb@@YAXPEAUImGuiInputTextState@@PEAUSTB_TexteditState@1@@Z
pdata	ENDS
;	COMDAT pdata
pdata	SEGMENT
$pdata$5$?stb_text_redo@ImStb@@YAXPEAUImGuiInputTextState@@PEAUSTB_TexteditState@1@@Z DD imagerel ?stb_text_redo@ImStb@@YAXPEAUImGuiInputTextState@@PEAUSTB_TexteditState@1@@Z+255
	DD	imagerel ?stb_text_redo@ImStb@@YAXPEAUImGuiInputTextState@@PEAUSTB_TexteditState@1@@Z+287
	DD	imagerel $chain$5$?stb_text_redo@ImStb@@YAXPEAUImGuiInputTextState@@PEAUSTB_TexteditState@1@@Z
pdata	ENDS
;	COMDAT pdata
pdata	SEGMENT
$pdata$6$?stb_text_redo@ImStb@@YAXPEAUImGuiInputTextState@@PEAUSTB_TexteditState@1@@Z DD imagerel ?stb_text_redo@ImStb@@YAXPEAUImGuiInputTextState@@PEAUSTB_TexteditState@1@@Z+287
	DD	imagerel ?stb_text_redo@ImStb@@YAXPEAUImGuiInputTextState@@PEAUSTB_TexteditState@1@@Z+354
	DD	imagerel $chain$6$?stb_text_redo@ImStb@@YAXPEAUImGuiInputTextState@@PEAUSTB_TexteditState@1@@Z
pdata	ENDS
;	COMDAT pdata
pdata	SEGMENT
$pdata$7$?stb_text_redo@ImStb@@YAXPEAUImGuiInputTextState@@PEAUSTB_TexteditState@1@@Z DD imagerel ?stb_text_redo@ImStb@@YAXPEAUImGuiInputTextState@@PEAUSTB_TexteditState@1@@Z+354
	DD	imagerel ?stb_text_redo@ImStb@@YAXPEAUImGuiInputTextState@@PEAUSTB_TexteditState@1@@Z+363
	DD	imagerel $chain$7$?stb_text_redo@ImStb@@YAXPEAUImGuiInputTextState@@PEAUSTB_TexteditState@1@@Z
pdata	ENDS
;	COMDAT pdata
pdata	SEGMENT
$pdata$?stb_text_makeundo_delete@ImStb@@YAXPEAUImGuiInputTextState@@PEAUSTB_TexteditState@1@HH@Z DD imagerel ?stb_text_makeundo_delete@ImStb@@YAXPEAUImGuiInputTextState@@PEAUSTB_TexteditState@1@HH@Z
	DD	imagerel ?stb_text_makeundo_delete@ImStb@@YAXPEAUImGuiInputTextState@@PEAUSTB_TexteditState@1@HH@Z+59
	DD	imagerel $unwind$?stb_text_makeundo_delete@ImStb@@YAXPEAUImGuiInputTextState@@PEAUSTB_TexteditState@1@HH@Z
pdata	ENDS
;	COMDAT pdata
pdata	SEGMENT
$pdata$0$?stb_text_makeundo_delete@ImStb@@YAXPEAUImGuiInputTextState@@PEAUSTB_TexteditState@1@HH@Z DD imagerel ?stb_text_makeundo_delete@ImStb@@YAXPEAUImGuiInputTextState@@PEAUSTB_TexteditState@1@HH@Z+59
	DD	imagerel ?stb_text_makeundo_delete@ImStb@@YAXPEAUImGuiInputTextState@@PEAUSTB_TexteditState@1@HH@Z+133
	DD	imagerel $chain$0$?stb_text_makeundo_delete@ImStb@@YAXPEAUImGuiInputTextState@@PEAUSTB_TexteditState@1@HH@Z
pdata	ENDS
;	COMDAT pdata
pdata	SEGMENT
$pdata$1$?stb_text_makeundo_delete@ImStb@@YAXPEAUImGuiInputTextState@@PEAUSTB_TexteditState@1@HH@Z DD imagerel ?stb_text_makeundo_delete@ImStb@@YAXPEAUImGuiInputTextState@@PEAUSTB_TexteditState@1@HH@Z+133
	DD	imagerel ?stb_text_makeundo_delete@ImStb@@YAXPEAUImGuiInputTextState@@PEAUSTB_TexteditState@1@HH@Z+154
	DD	imagerel $chain$1$?stb_text_makeundo_delete@ImStb@@YAXPEAUImGuiInputTextState@@PEAUSTB_TexteditState@1@HH@Z
pdata	ENDS
;	COMDAT pdata
pdata	SEGMENT
$pdata$?stb_text_makeundo_insert@ImStb@@YAXPEAUSTB_TexteditState@1@HH@Z DD imagerel ?stb_text_makeundo_insert@ImStb@@YAXPEAUSTB_TexteditState@1@HH@Z
	DD	imagerel ?stb_text_makeundo_insert@ImStb@@YAXPEAUSTB_TexteditState@1@HH@Z+173
	DD	imagerel $unwind$?stb_text_makeundo_insert@ImStb@@YAXPEAUSTB_TexteditState@1@HH@Z
pdata	ENDS
;	COMDAT pdata
pdata	SEGMENT
$pdata$?stb_text_makeundo_replace@ImStb@@YAXPEAUImGuiInputTextState@@PEAUSTB_TexteditState@1@HHH@Z DD imagerel ?stb_text_makeundo_replace@ImStb@@YAXPEAUImGuiInputTextState@@PEAUSTB_TexteditState@1@HHH@Z
	DD	imagerel ?stb_text_makeundo_replace@ImStb@@YAXPEAUImGuiInputTextState@@PEAUSTB_TexteditState@1@HHH@Z+61
	DD	imagerel $unwind$?stb_text_makeundo_replace@ImStb@@YAXPEAUImGuiInputTextState@@PEAUSTB_TexteditState@1@HHH@Z
pdata	ENDS
;	COMDAT pdata
pdata	SEGMENT
$pdata$0$?stb_text_makeundo_replace@ImStb@@YAXPEAUImGuiInputTextState@@PEAUSTB_TexteditState@1@HHH@Z DD imagerel ?stb_text_makeundo_replace@ImStb@@YAXPEAUImGuiInputTextState@@PEAUSTB_TexteditState@1@HHH@Z+61
	DD	imagerel ?stb_text_makeundo_replace@ImStb@@YAXPEAUImGuiInputTextState@@PEAUSTB_TexteditState@1@HHH@Z+142
	DD	imagerel $chain$0$?stb_text_makeundo_replace@ImStb@@YAXPEAUImGuiInputTextState@@PEAUSTB_TexteditState@1@HHH@Z
pdata	ENDS
;	COMDAT pdata
pdata	SEGMENT
$pdata$1$?stb_text_makeundo_replace@ImStb@@YAXPEAUImGuiInputTextState@@PEAUSTB_TexteditState@1@HHH@Z DD imagerel ?stb_text_makeundo_replace@ImStb@@YAXPEAUImGuiInputTextState@@PEAUSTB_TexteditState@1@HHH@Z+142
	DD	imagerel ?stb_text_makeundo_replace@ImStb@@YAXPEAUImGuiInputTextState@@PEAUSTB_TexteditState@1@HHH@Z+163
	DD	imagerel $chain$1$?stb_text_makeundo_replace@ImStb@@YAXPEAUImGuiInputTextState@@PEAUSTB_TexteditState@1@HHH@Z
pdata	ENDS
;	COMDAT pdata
pdata	SEGMENT
$pdata$?stb_textedit_find_charpos@ImStb@@YAXPEAUStbFindState@1@PEAUImGuiInputTextState@@HH@Z DD imagerel ?stb_textedit_find_charpos@ImStb@@YAXPEAUStbFindState@1@PEAUImGuiInputTextState@@HH@Z
	DD	imagerel ?stb_textedit_find_charpos@ImStb@@YAXPEAUStbFindState@1@PEAUImGuiInputTextState@@HH@Z+320
	DD	imagerel $unwind$?stb_textedit_find_charpos@ImStb@@YAXPEAUStbFindState@1@PEAUImGuiInputTextState@@HH@Z
pdata	ENDS
;	COMDAT pdata
pdata	SEGMENT
$pdata$0$?stb_textedit_find_charpos@ImStb@@YAXPEAUStbFindState@1@PEAUImGuiInputTextState@@HH@Z DD imagerel ?stb_textedit_find_charpos@ImStb@@YAXPEAUStbFindState@1@PEAUImGuiInputTextState@@HH@Z+320
	DD	imagerel ?stb_textedit_find_charpos@ImStb@@YAXPEAUStbFindState@1@PEAUImGuiInputTextState@@HH@Z+463
	DD	imagerel $chain$0$?stb_textedit_find_charpos@ImStb@@YAXPEAUStbFindState@1@PEAUImGuiInputTextState@@HH@Z
pdata	ENDS
;	COMDAT pdata
pdata	SEGMENT
$pdata$1$?stb_textedit_find_charpos@ImStb@@YAXPEAUStbFindState@1@PEAUImGuiInputTextState@@HH@Z DD imagerel ?stb_textedit_find_charpos@ImStb@@YAXPEAUStbFindState@1@PEAUImGuiInputTextState@@HH@Z+463
	DD	imagerel ?stb_textedit_find_charpos@ImStb@@YAXPEAUStbFindState@1@PEAUImGuiInputTextState@@HH@Z+494
	DD	imagerel $chain$1$?stb_textedit_find_charpos@ImStb@@YAXPEAUStbFindState@1@PEAUImGuiInputTextState@@HH@Z
pdata	ENDS
;	COMDAT pdata
pdata	SEGMENT
$pdata$?stb_textedit_delete@ImStb@@YAXPEAUImGuiInputTextState@@PEAUSTB_TexteditState@1@HH@Z DD imagerel ?stb_textedit_delete@ImStb@@YAXPEAUImGuiInputTextState@@PEAUSTB_TexteditState@1@HH@Z
	DD	imagerel ?stb_textedit_delete@ImStb@@YAXPEAUImGuiInputTextState@@PEAUSTB_TexteditState@1@HH@Z+51
	DD	imagerel $unwind$?stb_textedit_delete@ImStb@@YAXPEAUImGuiInputTextState@@PEAUSTB_TexteditState@1@HH@Z
pdata	ENDS
;	COMDAT pdata
pdata	SEGMENT
$pdata$0$?stb_textedit_delete@ImStb@@YAXPEAUImGuiInputTextState@@PEAUSTB_TexteditState@1@HH@Z DD imagerel ?stb_textedit_delete@ImStb@@YAXPEAUImGuiInputTextState@@PEAUSTB_TexteditState@1@HH@Z+51
	DD	imagerel ?stb_textedit_delete@ImStb@@YAXPEAUImGuiInputTextState@@PEAUSTB_TexteditState@1@HH@Z+64
	DD	imagerel $chain$0$?stb_textedit_delete@ImStb@@YAXPEAUImGuiInputTextState@@PEAUSTB_TexteditState@1@HH@Z
pdata	ENDS
;	COMDAT pdata
pdata	SEGMENT
$pdata$2$?stb_textedit_delete@ImStb@@YAXPEAUImGuiInputTextState@@PEAUSTB_TexteditState@1@HH@Z DD imagerel ?stb_textedit_delete@ImStb@@YAXPEAUImGuiInputTextState@@PEAUSTB_TexteditState@1@HH@Z+64
	DD	imagerel ?stb_textedit_delete@ImStb@@YAXPEAUImGuiInputTextState@@PEAUSTB_TexteditState@1@HH@Z+151
	DD	imagerel $chain$2$?stb_textedit_delete@ImStb@@YAXPEAUImGuiInputTextState@@PEAUSTB_TexteditState@1@HH@Z
pdata	ENDS
;	COMDAT pdata
pdata	SEGMENT
$pdata$3$?stb_textedit_delete@ImStb@@YAXPEAUImGuiInputTextState@@PEAUSTB_TexteditState@1@HH@Z DD imagerel ?stb_textedit_delete@ImStb@@YAXPEAUImGuiInputTextState@@PEAUSTB_TexteditState@1@HH@Z+151
	DD	imagerel ?stb_textedit_delete@ImStb@@YAXPEAUImGuiInputTextState@@PEAUSTB_TexteditState@1@HH@Z+156
	DD	imagerel $chain$3$?stb_textedit_delete@ImStb@@YAXPEAUImGuiInputTextState@@PEAUSTB_TexteditState@1@HH@Z
pdata	ENDS
;	COMDAT pdata
pdata	SEGMENT
$pdata$4$?stb_textedit_delete@ImStb@@YAXPEAUImGuiInputTextState@@PEAUSTB_TexteditState@1@HH@Z DD imagerel ?stb_textedit_delete@ImStb@@YAXPEAUImGuiInputTextState@@PEAUSTB_TexteditState@1@HH@Z+156
	DD	imagerel ?stb_textedit_delete@ImStb@@YAXPEAUImGuiInputTextState@@PEAUSTB_TexteditState@1@HH@Z+188
	DD	imagerel $chain$4$?stb_textedit_delete@ImStb@@YAXPEAUImGuiInputTextState@@PEAUSTB_TexteditState@1@HH@Z
pdata	ENDS
;	COMDAT pdata
pdata	SEGMENT
$pdata$?stb_textedit_delete_selection@ImStb@@YAXPEAUImGuiInputTextState@@PEAUSTB_TexteditState@1@@Z DD imagerel ?stb_textedit_delete_selection@ImStb@@YAXPEAUImGuiInputTextState@@PEAUSTB_TexteditState@1@@Z
	DD	imagerel ?stb_textedit_delete_selection@ImStb@@YAXPEAUImGuiInputTextState@@PEAUSTB_TexteditState@1@@Z+147
	DD	imagerel $unwind$?stb_textedit_delete_selection@ImStb@@YAXPEAUImGuiInputTextState@@PEAUSTB_TexteditState@1@@Z
pdata	ENDS
;	COMDAT pdata
pdata	SEGMENT
$pdata$?stb_textedit_cut@ImStb@@YAHPEAUImGuiInputTextState@@PEAUSTB_TexteditState@1@@Z DD imagerel ?stb_textedit_cut@ImStb@@YAHPEAUImGuiInputTextState@@PEAUSTB_TexteditState@1@@Z
	DD	imagerel ?stb_textedit_cut@ImStb@@YAHPEAUImGuiInputTextState@@PEAUSTB_TexteditState@1@@Z+45
	DD	imagerel $unwind$?stb_textedit_cut@ImStb@@YAHPEAUImGuiInputTextState@@PEAUSTB_TexteditState@1@@Z
pdata	ENDS
;	COMDAT pdata
pdata	SEGMENT
$pdata$?stb_textedit_paste_internal@ImStb@@YAHPEAUImGuiInputTextState@@PEAUSTB_TexteditState@1@PEAGH@Z DD imagerel ?stb_textedit_paste_internal@ImStb@@YAHPEAUImGuiInputTextState@@PEAUSTB_TexteditState@1@PEAGH@Z
	DD	imagerel ?stb_textedit_paste_internal@ImStb@@YAHPEAUImGuiInputTextState@@PEAUSTB_TexteditState@1@PEAGH@Z+179
	DD	imagerel $unwind$?stb_textedit_paste_internal@ImStb@@YAHPEAUImGuiInputTextState@@PEAUSTB_TexteditState@1@PEAGH@Z
pdata	ENDS
;	COMDAT pdata
pdata	SEGMENT
$pdata$?stb_textedit_key@ImStb@@YAXPEAUImGuiInputTextState@@PEAUSTB_TexteditState@1@H@Z DD imagerel ?stb_textedit_key@ImStb@@YAXPEAUImGuiInputTextState@@PEAUSTB_TexteditState@1@H@Z
	DD	imagerel ?stb_textedit_key@ImStb@@YAXPEAUImGuiInputTextState@@PEAUSTB_TexteditState@1@H@Z+248
	DD	imagerel $unwind$?stb_textedit_key@ImStb@@YAXPEAUImGuiInputTextState@@PEAUSTB_TexteditState@1@H@Z
pdata	ENDS
;	COMDAT pdata
pdata	SEGMENT
$pdata$6$?stb_textedit_key@ImStb@@YAXPEAUImGuiInputTextState@@PEAUSTB_TexteditState@1@H@Z DD imagerel ?stb_textedit_key@ImStb@@YAXPEAUImGuiInputTextState@@PEAUSTB_TexteditState@1@H@Z+248
	DD	imagerel ?stb_textedit_key@ImStb@@YAXPEAUImGuiInputTextState@@PEAUSTB_TexteditState@1@H@Z+542
	DD	imagerel $chain$6$?stb_textedit_key@ImStb@@YAXPEAUImGuiInputTextState@@PEAUSTB_TexteditState@1@H@Z
pdata	ENDS
;	COMDAT pdata
pdata	SEGMENT
$pdata$7$?stb_textedit_key@ImStb@@YAXPEAUImGuiInputTextState@@PEAUSTB_TexteditState@1@H@Z DD imagerel ?stb_textedit_key@ImStb@@YAXPEAUImGuiInputTextState@@PEAUSTB_TexteditState@1@H@Z+542
	DD	imagerel ?stb_textedit_key@ImStb@@YAXPEAUImGuiInputTextState@@PEAUSTB_TexteditState@1@H@Z+2800
	DD	imagerel $chain$7$?stb_textedit_key@ImStb@@YAXPEAUImGuiInputTextState@@PEAUSTB_TexteditState@1@H@Z
pdata	ENDS
;	COMDAT pdata
pdata	SEGMENT
$pdata$?stb_textedit_discard_undo@ImStb@@YAXPEAUStbUndoState@1@@Z DD imagerel ?stb_textedit_discard_undo@ImStb@@YAXPEAUStbUndoState@1@@Z
	DD	imagerel ?stb_textedit_discard_undo@ImStb@@YAXPEAUStbUndoState@1@@Z+29
	DD	imagerel $unwind$?stb_textedit_discard_undo@ImStb@@YAXPEAUStbUndoState@1@@Z
pdata	ENDS
;	COMDAT pdata
pdata	SEGMENT
$pdata$0$?stb_textedit_discard_undo@ImStb@@YAXPEAUStbUndoState@1@@Z DD imagerel ?stb_textedit_discard_undo@ImStb@@YAXPEAUStbUndoState@1@@Z+29
	DD	imagerel ?stb_textedit_discard_undo@ImStb@@YAXPEAUStbUndoState@1@@Z+47
	DD	imagerel $chain$0$?stb_textedit_discard_undo@ImStb@@YAXPEAUStbUndoState@1@@Z
pdata	ENDS
;	COMDAT pdata
pdata	SEGMENT
$pdata$1$?stb_textedit_discard_undo@ImStb@@YAXPEAUStbUndoState@1@@Z DD imagerel ?stb_textedit_discard_undo@ImStb@@YAXPEAUStbUndoState@1@@Z+47
	DD	imagerel ?stb_textedit_discard_undo@ImStb@@YAXPEAUStbUndoState@1@@Z+134
	DD	imagerel $chain$1$?stb_textedit_discard_undo@ImStb@@YAXPEAUStbUndoState@1@@Z
pdata	ENDS
;	COMDAT pdata
pdata	SEGMENT
$pdata$2$?stb_textedit_discard_undo@ImStb@@YAXPEAUStbUndoState@1@@Z DD imagerel ?stb_textedit_discard_undo@ImStb@@YAXPEAUStbUndoState@1@@Z+134
	DD	imagerel ?stb_textedit_discard_undo@ImStb@@YAXPEAUStbUndoState@1@@Z+169
	DD	imagerel $chain$2$?stb_textedit_discard_undo@ImStb@@YAXPEAUStbUndoState@1@@Z
pdata	ENDS
;	COMDAT pdata
pdata	SEGMENT
$pdata$3$?stb_textedit_discard_undo@ImStb@@YAXPEAUStbUndoState@1@@Z DD imagerel ?stb_textedit_discard_undo@ImStb@@YAXPEAUStbUndoState@1@@Z+169
	DD	imagerel ?stb_textedit_discard_undo@ImStb@@YAXPEAUStbUndoState@1@@Z+175
	DD	imagerel $chain$3$?stb_textedit_discard_undo@ImStb@@YAXPEAUStbUndoState@1@@Z
pdata	ENDS
;	COMDAT pdata
pdata	SEGMENT
$pdata$?stb_textedit_discard_redo@ImStb@@YAXPEAUStbUndoState@1@@Z DD imagerel ?stb_textedit_discard_redo@ImStb@@YAXPEAUStbUndoState@1@@Z
	DD	imagerel ?stb_textedit_discard_redo@ImStb@@YAXPEAUStbUndoState@1@@Z+33
	DD	imagerel $unwind$?stb_textedit_discard_redo@ImStb@@YAXPEAUStbUndoState@1@@Z
pdata	ENDS
;	COMDAT pdata
pdata	SEGMENT
$pdata$1$?stb_textedit_discard_redo@ImStb@@YAXPEAUStbUndoState@1@@Z DD imagerel ?stb_textedit_discard_redo@ImStb@@YAXPEAUStbUndoState@1@@Z+33
	DD	imagerel ?stb_textedit_discard_redo@ImStb@@YAXPEAUStbUndoState@1@@Z+270
	DD	imagerel $chain$1$?stb_textedit_discard_redo@ImStb@@YAXPEAUStbUndoState@1@@Z
pdata	ENDS
;	COMDAT pdata
pdata	SEGMENT
$pdata$2$?stb_textedit_discard_redo@ImStb@@YAXPEAUStbUndoState@1@@Z DD imagerel ?stb_textedit_discard_redo@ImStb@@YAXPEAUStbUndoState@1@@Z+270
	DD	imagerel ?stb_textedit_discard_redo@ImStb@@YAXPEAUStbUndoState@1@@Z+338
	DD	imagerel $chain$2$?stb_textedit_discard_redo@ImStb@@YAXPEAUStbUndoState@1@@Z
pdata	ENDS
;	COMDAT pdata
pdata	SEGMENT
$pdata$3$?stb_textedit_discard_redo@ImStb@@YAXPEAUStbUndoState@1@@Z DD imagerel ?stb_textedit_discard_redo@ImStb@@YAXPEAUStbUndoState@1@@Z+338
	DD	imagerel ?stb_textedit_discard_redo@ImStb@@YAXPEAUStbUndoState@1@@Z+344
	DD	imagerel $chain$3$?stb_textedit_discard_redo@ImStb@@YAXPEAUStbUndoState@1@@Z
pdata	ENDS
;	COMDAT pdata
pdata	SEGMENT
$pdata$?stb_text_create_undo_record@ImStb@@YAPEAUStbUndoRecord@1@PEAUStbUndoState@1@H@Z DD imagerel ?stb_text_create_undo_record@ImStb@@YAPEAUStbUndoRecord@1@PEAUStbUndoState@1@H@Z
	DD	imagerel ?stb_text_create_undo_record@ImStb@@YAPEAUStbUndoRecord@1@PEAUStbUndoState@1@H@Z+122
	DD	imagerel $unwind$?stb_text_create_undo_record@ImStb@@YAPEAUStbUndoRecord@1@PEAUStbUndoState@1@H@Z
pdata	ENDS
;	COMDAT pdata
pdata	SEGMENT
$pdata$2$?stb_text_create_undo_record@ImStb@@YAPEAUStbUndoRecord@1@PEAUStbUndoState@1@H@Z DD imagerel ?stb_text_create_undo_record@ImStb@@YAPEAUStbUndoRecord@1@PEAUStbUndoState@1@H@Z+122
	DD	imagerel ?stb_text_create_undo_record@ImStb@@YAPEAUStbUndoRecord@1@PEAUStbUndoState@1@H@Z+315
	DD	imagerel $chain$2$?stb_text_create_undo_record@ImStb@@YAPEAUStbUndoRecord@1@PEAUStbUndoState@1@H@Z
pdata	ENDS
;	COMDAT pdata
pdata	SEGMENT
$pdata$3$?stb_text_create_undo_record@ImStb@@YAPEAUStbUndoRecord@1@PEAUStbUndoState@1@H@Z DD imagerel ?stb_text_create_undo_record@ImStb@@YAPEAUStbUndoRecord@1@PEAUStbUndoState@1@H@Z+315
	DD	imagerel ?stb_text_create_undo_record@ImStb@@YAPEAUStbUndoRecord@1@PEAUStbUndoState@1@H@Z+360
	DD	imagerel $chain$3$?stb_text_create_undo_record@ImStb@@YAPEAUStbUndoRecord@1@PEAUStbUndoState@1@H@Z
pdata	ENDS
;	COMDAT pdata
pdata	SEGMENT
$pdata$?stb_text_createundo@ImStb@@YAPEAGPEAUStbUndoState@1@HHH@Z DD imagerel ?stb_text_createundo@ImStb@@YAPEAGPEAUStbUndoState@1@HHH@Z
	DD	imagerel ?stb_text_createundo@ImStb@@YAPEAGPEAUStbUndoState@1@HHH@Z+239
	DD	imagerel $unwind$?stb_text_createundo@ImStb@@YAPEAGPEAUStbUndoState@1@HHH@Z
pdata	ENDS
;	COMDAT pdata
pdata	SEGMENT
$pdata$?stb_textedit_paste@ImStb@@YAHPEAUImGuiInputTextState@@PEAUSTB_TexteditState@1@PEBGH@Z DD imagerel ?stb_textedit_paste@ImStb@@YAHPEAUImGuiInputTextState@@PEAUSTB_TexteditState@1@PEBGH@Z
	DD	imagerel ?stb_textedit_paste@ImStb@@YAHPEAUImGuiInputTextState@@PEAUSTB_TexteditState@1@PEBGH@Z+179
	DD	imagerel $unwind$?stb_textedit_paste@ImStb@@YAHPEAUImGuiInputTextState@@PEAUSTB_TexteditState@1@PEBGH@Z
pdata	ENDS
;	COMDAT pdata
pdata	SEGMENT
$pdata$?stb_textedit_replace@ImStb@@YAXPEAUImGuiInputTextState@@PEAUSTB_TexteditState@1@PEBGH@Z DD imagerel ?stb_textedit_replace@ImStb@@YAXPEAUImGuiInputTextState@@PEAUSTB_TexteditState@1@PEBGH@Z
	DD	imagerel ?stb_textedit_replace@ImStb@@YAXPEAUImGuiInputTextState@@PEAUSTB_TexteditState@1@PEBGH@Z+142
	DD	imagerel $unwind$?stb_textedit_replace@ImStb@@YAXPEAUImGuiInputTextState@@PEAUSTB_TexteditState@1@PEBGH@Z
pdata	ENDS
;	COMDAT pdata
pdata	SEGMENT
$pdata$?RenderArrowsForVerticalBar@@YAXPEAUImDrawList@@UImVec2@@1MM@Z DD imagerel ?RenderArrowsForVerticalBar@@YAXPEAUImDrawList@@UImVec2@@1MM@Z
	DD	imagerel ?RenderArrowsForVerticalBar@@YAXPEAUImDrawList@@UImVec2@@1MM@Z+434
	DD	imagerel $unwind$?RenderArrowsForVerticalBar@@YAXPEAUImDrawList@@UImVec2@@1MM@Z
pdata	ENDS
;	COMDAT pdata
pdata	SEGMENT
$pdata$?TabBarLayout@ImGui@@YAXPEAUImGuiTabBar@@@Z DD imagerel ?TabBarLayout@ImGui@@YAXPEAUImGuiTabBar@@@Z
	DD	imagerel ?TabBarLayout@ImGui@@YAXPEAUImGuiTabBar@@@Z+11
	DD	imagerel $unwind$?TabBarLayout@ImGui@@YAXPEAUImGuiTabBar@@@Z
pdata	ENDS
;	COMDAT pdata
pdata	SEGMENT
$pdata$1$?TabBarLayout@ImGui@@YAXPEAUImGuiTabBar@@@Z DD imagerel ?TabBarLayout@ImGui@@YAXPEAUImGuiTabBar@@@Z+11
	DD	imagerel ?TabBarLayout@ImGui@@YAXPEAUImGuiTabBar@@@Z+24
	DD	imagerel $chain$1$?TabBarLayout@ImGui@@YAXPEAUImGuiTabBar@@@Z
pdata	ENDS
;	COMDAT pdata
pdata	SEGMENT
$pdata$2$?TabBarLayout@ImGui@@YAXPEAUImGuiTabBar@@@Z DD imagerel ?TabBarLayout@ImGui@@YAXPEAUImGuiTabBar@@@Z+24
	DD	imagerel ?TabBarLayout@ImGui@@YAXPEAUImGuiTabBar@@@Z+30
	DD	imagerel $chain$2$?TabBarLayout@ImGui@@YAXPEAUImGuiTabBar@@@Z
pdata	ENDS
;	COMDAT pdata
pdata	SEGMENT
$pdata$10$?TabBarLayout@ImGui@@YAXPEAUImGuiTabBar@@@Z DD imagerel ?TabBarLayout@ImGui@@YAXPEAUImGuiTabBar@@@Z+30
	DD	imagerel ?TabBarLayout@ImGui@@YAXPEAUImGuiTabBar@@@Z+1281
	DD	imagerel $chain$10$?TabBarLayout@ImGui@@YAXPEAUImGuiTabBar@@@Z
pdata	ENDS
;	COMDAT pdata
pdata	SEGMENT
$pdata$11$?TabBarLayout@ImGui@@YAXPEAUImGuiTabBar@@@Z DD imagerel ?TabBarLayout@ImGui@@YAXPEAUImGuiTabBar@@@Z+1281
	DD	imagerel ?TabBarLayout@ImGui@@YAXPEAUImGuiTabBar@@@Z+1796
	DD	imagerel $chain$11$?TabBarLayout@ImGui@@YAXPEAUImGuiTabBar@@@Z
pdata	ENDS
;	COMDAT pdata
pdata	SEGMENT
$pdata$12$?TabBarLayout@ImGui@@YAXPEAUImGuiTabBar@@@Z DD imagerel ?TabBarLayout@ImGui@@YAXPEAUImGuiTabBar@@@Z+1796
	DD	imagerel ?TabBarLayout@ImGui@@YAXPEAUImGuiTabBar@@@Z+2217
	DD	imagerel $chain$12$?TabBarLayout@ImGui@@YAXPEAUImGuiTabBar@@@Z
pdata	ENDS
;	COMDAT pdata
pdata	SEGMENT
$pdata$13$?TabBarLayout@ImGui@@YAXPEAUImGuiTabBar@@@Z DD imagerel ?TabBarLayout@ImGui@@YAXPEAUImGuiTabBar@@@Z+2217
	DD	imagerel ?TabBarLayout@ImGui@@YAXPEAUImGuiTabBar@@@Z+2401
	DD	imagerel $chain$13$?TabBarLayout@ImGui@@YAXPEAUImGuiTabBar@@@Z
pdata	ENDS
;	COMDAT pdata
pdata	SEGMENT
$pdata$14$?TabBarLayout@ImGui@@YAXPEAUImGuiTabBar@@@Z DD imagerel ?TabBarLayout@ImGui@@YAXPEAUImGuiTabBar@@@Z+2401
	DD	imagerel ?TabBarLayout@ImGui@@YAXPEAUImGuiTabBar@@@Z+2450
	DD	imagerel $chain$14$?TabBarLayout@ImGui@@YAXPEAUImGuiTabBar@@@Z
pdata	ENDS
;	COMDAT pdata
pdata	SEGMENT
$pdata$15$?TabBarLayout@ImGui@@YAXPEAUImGuiTabBar@@@Z DD imagerel ?TabBarLayout@ImGui@@YAXPEAUImGuiTabBar@@@Z+2450
	DD	imagerel ?TabBarLayout@ImGui@@YAXPEAUImGuiTabBar@@@Z+2890
	DD	imagerel $chain$15$?TabBarLayout@ImGui@@YAXPEAUImGuiTabBar@@@Z
pdata	ENDS
;	COMDAT pdata
pdata	SEGMENT
$pdata$16$?TabBarLayout@ImGui@@YAXPEAUImGuiTabBar@@@Z DD imagerel ?TabBarLayout@ImGui@@YAXPEAUImGuiTabBar@@@Z+2890
	DD	imagerel ?TabBarLayout@ImGui@@YAXPEAUImGuiTabBar@@@Z+3067
	DD	imagerel $chain$16$?TabBarLayout@ImGui@@YAXPEAUImGuiTabBar@@@Z
pdata	ENDS
;	COMDAT pdata
pdata	SEGMENT
$pdata$17$?TabBarLayout@ImGui@@YAXPEAUImGuiTabBar@@@Z DD imagerel ?TabBarLayout@ImGui@@YAXPEAUImGuiTabBar@@@Z+3067
	DD	imagerel ?TabBarLayout@ImGui@@YAXPEAUImGuiTabBar@@@Z+3087
	DD	imagerel $chain$17$?TabBarLayout@ImGui@@YAXPEAUImGuiTabBar@@@Z
pdata	ENDS
;	COMDAT pdata
pdata	SEGMENT
$pdata$?TabBarCalcTabID@ImGui@@YAIPEAUImGuiTabBar@@PEBD@Z DD imagerel ?TabBarCalcTabID@ImGui@@YAIPEAUImGuiTabBar@@PEBD@Z
	DD	imagerel ?TabBarCalcTabID@ImGui@@YAIPEAUImGuiTabBar@@PEBD@Z+19
	DD	imagerel $unwind$?TabBarCalcTabID@ImGui@@YAIPEAUImGuiTabBar@@PEBD@Z
pdata	ENDS
;	COMDAT pdata
pdata	SEGMENT
$pdata$0$?TabBarCalcTabID@ImGui@@YAIPEAUImGuiTabBar@@PEBD@Z DD imagerel ?TabBarCalcTabID@ImGui@@YAIPEAUImGuiTabBar@@PEBD@Z+19
	DD	imagerel ?TabBarCalcTabID@ImGui@@YAIPEAUImGuiTabBar@@PEBD@Z+55
	DD	imagerel $chain$0$?TabBarCalcTabID@ImGui@@YAIPEAUImGuiTabBar@@PEBD@Z
pdata	ENDS
;	COMDAT pdata
pdata	SEGMENT
$pdata$1$?TabBarCalcTabID@ImGui@@YAIPEAUImGuiTabBar@@PEBD@Z DD imagerel ?TabBarCalcTabID@ImGui@@YAIPEAUImGuiTabBar@@PEBD@Z+55
	DD	imagerel ?TabBarCalcTabID@ImGui@@YAIPEAUImGuiTabBar@@PEBD@Z+81
	DD	imagerel $chain$1$?TabBarCalcTabID@ImGui@@YAIPEAUImGuiTabBar@@PEBD@Z
pdata	ENDS
;	COMDAT pdata
pdata	SEGMENT
$pdata$?TabBarScrollToTab@ImGui@@YAXPEAUImGuiTabBar@@PEAUImGuiTabItem@@@Z DD imagerel ?TabBarScrollToTab@ImGui@@YAXPEAUImGuiTabBar@@PEAUImGuiTabItem@@@Z
	DD	imagerel ?TabBarScrollToTab@ImGui@@YAXPEAUImGuiTabBar@@PEAUImGuiTabItem@@@Z+303
	DD	imagerel $unwind$?TabBarScrollToTab@ImGui@@YAXPEAUImGuiTabBar@@PEAUImGuiTabItem@@@Z
pdata	ENDS
;	COMDAT pdata
pdata	SEGMENT
$pdata$?TabBarScrollingButtons@ImGui@@YAPEAUImGuiTabItem@@PEAUImGuiTabBar@@@Z DD imagerel ?TabBarScrollingButtons@ImGui@@YAPEAUImGuiTabItem@@PEAUImGuiTabBar@@@Z
	DD	imagerel ?TabBarScrollingButtons@ImGui@@YAPEAUImGuiTabItem@@PEAUImGuiTabBar@@@Z+769
	DD	imagerel $unwind$?TabBarScrollingButtons@ImGui@@YAPEAUImGuiTabItem@@PEAUImGuiTabBar@@@Z
pdata	ENDS
;	COMDAT pdata
pdata	SEGMENT
$pdata$?TabBarTabListPopupButton@ImGui@@YAPEAUImGuiTabItem@@PEAUImGuiTabBar@@@Z DD imagerel ?TabBarTabListPopupButton@ImGui@@YAPEAUImGuiTabItem@@PEAUImGuiTabBar@@@Z
	DD	imagerel ?TabBarTabListPopupButton@ImGui@@YAPEAUImGuiTabItem@@PEAUImGuiTabBar@@@Z+227
	DD	imagerel $unwind$?TabBarTabListPopupButton@ImGui@@YAPEAUImGuiTabItem@@PEAUImGuiTabBar@@@Z
pdata	ENDS
;	COMDAT pdata
pdata	SEGMENT
$pdata$0$?TabBarTabListPopupButton@ImGui@@YAPEAUImGuiTabItem@@PEAUImGuiTabBar@@@Z DD imagerel ?TabBarTabListPopupButton@ImGui@@YAPEAUImGuiTabItem@@PEAUImGuiTabBar@@@Z+227
	DD	imagerel ?TabBarTabListPopupButton@ImGui@@YAPEAUImGuiTabItem@@PEAUImGuiTabBar@@@Z+245
	DD	imagerel $chain$0$?TabBarTabListPopupButton@ImGui@@YAPEAUImGuiTabItem@@PEAUImGuiTabBar@@@Z
pdata	ENDS
;	COMDAT pdata
pdata	SEGMENT
$pdata$1$?TabBarTabListPopupButton@ImGui@@YAPEAUImGuiTabItem@@PEAUImGuiTabBar@@@Z DD imagerel ?TabBarTabListPopupButton@ImGui@@YAPEAUImGuiTabItem@@PEAUImGuiTabBar@@@Z+245
	DD	imagerel ?TabBarTabListPopupButton@ImGui@@YAPEAUImGuiTabItem@@PEAUImGuiTabBar@@@Z+400
	DD	imagerel $chain$1$?TabBarTabListPopupButton@ImGui@@YAPEAUImGuiTabItem@@PEAUImGuiTabBar@@@Z
pdata	ENDS
;	COMDAT pdata
pdata	SEGMENT
$pdata$2$?TabBarTabListPopupButton@ImGui@@YAPEAUImGuiTabItem@@PEAUImGuiTabBar@@@Z DD imagerel ?TabBarTabListPopupButton@ImGui@@YAPEAUImGuiTabItem@@PEAUImGuiTabBar@@@Z+400
	DD	imagerel ?TabBarTabListPopupButton@ImGui@@YAPEAUImGuiTabItem@@PEAUImGuiTabBar@@@Z+413
	DD	imagerel $chain$2$?TabBarTabListPopupButton@ImGui@@YAPEAUImGuiTabItem@@PEAUImGuiTabBar@@@Z
pdata	ENDS
;	COMDAT pdata
pdata	SEGMENT
$pdata$3$?TabBarTabListPopupButton@ImGui@@YAPEAUImGuiTabItem@@PEAUImGuiTabBar@@@Z DD imagerel ?TabBarTabListPopupButton@ImGui@@YAPEAUImGuiTabItem@@PEAUImGuiTabBar@@@Z+413
	DD	imagerel ?TabBarTabListPopupButton@ImGui@@YAPEAUImGuiTabItem@@PEAUImGuiTabBar@@@Z+461
	DD	imagerel $chain$3$?TabBarTabListPopupButton@ImGui@@YAPEAUImGuiTabItem@@PEAUImGuiTabBar@@@Z
pdata	ENDS
;	COMDAT pdata
pdata	SEGMENT
$pdata$?GetTabBarFromTabBarRef@@YAPEAUImGuiTabBar@@AEBUImGuiPtrOrIndex@@@Z DD imagerel ?GetTabBarFromTabBarRef@@YAPEAUImGuiTabBar@@AEBUImGuiPtrOrIndex@@@Z
	DD	imagerel ?GetTabBarFromTabBarRef@@YAPEAUImGuiTabBar@@AEBUImGuiPtrOrIndex@@@Z+12
	DD	imagerel $unwind$?GetTabBarFromTabBarRef@@YAPEAUImGuiTabBar@@AEBUImGuiPtrOrIndex@@@Z
pdata	ENDS
;	COMDAT pdata
pdata	SEGMENT
$pdata$1$?GetTabBarFromTabBarRef@@YAPEAUImGuiTabBar@@AEBUImGuiPtrOrIndex@@@Z DD imagerel ?GetTabBarFromTabBarRef@@YAPEAUImGuiTabBar@@AEBUImGuiPtrOrIndex@@@Z+12
	DD	imagerel ?GetTabBarFromTabBarRef@@YAPEAUImGuiTabBar@@AEBUImGuiPtrOrIndex@@@Z+91
	DD	imagerel $chain$1$?GetTabBarFromTabBarRef@@YAPEAUImGuiTabBar@@AEBUImGuiPtrOrIndex@@@Z
pdata	ENDS
;	COMDAT pdata
pdata	SEGMENT
$pdata$2$?GetTabBarFromTabBarRef@@YAPEAUImGuiTabBar@@AEBUImGuiPtrOrIndex@@@Z DD imagerel ?GetTabBarFromTabBarRef@@YAPEAUImGuiTabBar@@AEBUImGuiPtrOrIndex@@@Z+91
	DD	imagerel ?GetTabBarFromTabBarRef@@YAPEAUImGuiTabBar@@AEBUImGuiPtrOrIndex@@@Z+96
	DD	imagerel $chain$2$?GetTabBarFromTabBarRef@@YAPEAUImGuiTabBar@@AEBUImGuiPtrOrIndex@@@Z
pdata	ENDS
;	COMDAT pdata
pdata	SEGMENT
$pdata$?GetDraggedColumnOffset@@YAMPEAUImGuiColumns@@H@Z DD imagerel ?GetDraggedColumnOffset@@YAMPEAUImGuiColumns@@H@Z
	DD	imagerel ?GetDraggedColumnOffset@@YAMPEAUImGuiColumns@@H@Z+221
	DD	imagerel $unwind$?GetDraggedColumnOffset@@YAMPEAUImGuiColumns@@H@Z
pdata	ENDS
;	COMDAT pdata
pdata	SEGMENT
$pdata$?GetColumnWidthEx@@YAMPEAUImGuiColumns@@H_N@Z DD imagerel ?GetColumnWidthEx@@YAMPEAUImGuiColumns@@H_N@Z
	DD	imagerel ?GetColumnWidthEx@@YAMPEAUImGuiColumns@@H_N@Z+278
	DD	imagerel $unwind$?GetColumnWidthEx@@YAMPEAUImGuiColumns@@H_N@Z
pdata	ENDS
;	COMDAT pdata
pdata	SEGMENT
$pdata$??$RoundScalarWithFormatT@HH@ImGui@@YAHPEBDHH@Z DD imagerel $LN33
	DD	imagerel $LN33+184
	DD	imagerel $unwind$??$RoundScalarWithFormatT@HH@ImGui@@YAHPEBDHH@Z
pdata	ENDS
;	COMDAT pdata
pdata	SEGMENT
$pdata$??$RoundScalarWithFormatT@IH@ImGui@@YAIPEBDHI@Z DD imagerel $LN33
	DD	imagerel $LN33+185
	DD	imagerel $unwind$??$RoundScalarWithFormatT@IH@ImGui@@YAIPEBDHI@Z
pdata	ENDS
;	COMDAT pdata
pdata	SEGMENT
$pdata$??$RoundScalarWithFormatT@_J_J@ImGui@@YA_JPEBDH_J@Z DD imagerel $LN33
	DD	imagerel $LN33+186
	DD	imagerel $unwind$??$RoundScalarWithFormatT@_J_J@ImGui@@YA_JPEBDH_J@Z
pdata	ENDS
;	COMDAT pdata
pdata	SEGMENT
$pdata$??$RoundScalarWithFormatT@_K_J@ImGui@@YA_KPEBDH_K@Z DD imagerel $LN34
	DD	imagerel $LN34+228
	DD	imagerel $unwind$??$RoundScalarWithFormatT@_K_J@ImGui@@YA_KPEBDH_K@Z
pdata	ENDS
;	COMDAT pdata
pdata	SEGMENT
$pdata$??$RoundScalarWithFormatT@MM@ImGui@@YAMPEBDHM@Z DD imagerel $LN44
	DD	imagerel $LN44+342
	DD	imagerel $unwind$??$RoundScalarWithFormatT@MM@ImGui@@YAMPEBDHM@Z
pdata	ENDS
;	COMDAT pdata
pdata	SEGMENT
$pdata$??$RoundScalarWithFormatT@NN@ImGui@@YANPEBDHN@Z DD imagerel $LN44
	DD	imagerel $LN44+339
	DD	imagerel $unwind$??$RoundScalarWithFormatT@NN@ImGui@@YANPEBDHN@Z
pdata	ENDS
;	COMDAT pdata
pdata	SEGMENT
$pdata$??$SliderCalcRatioFromValueT@HM@ImGui@@YAMHHHHMM@Z DD imagerel $LN34
	DD	imagerel $LN34+23
	DD	imagerel $unwind$??$SliderCalcRatioFromValueT@HM@ImGui@@YAMHHHHMM@Z
pdata	ENDS
;	COMDAT pdata
pdata	SEGMENT
$pdata$0$??$SliderCalcRatioFromValueT@HM@ImGui@@YAMHHHHMM@Z DD imagerel $LN34+23
	DD	imagerel $LN34+194
	DD	imagerel $chain$0$??$SliderCalcRatioFromValueT@HM@ImGui@@YAMHHHHMM@Z
pdata	ENDS
;	COMDAT pdata
pdata	SEGMENT
$pdata$2$??$SliderCalcRatioFromValueT@HM@ImGui@@YAMHHHHMM@Z DD imagerel $LN34+194
	DD	imagerel $LN34+251
	DD	imagerel $chain$2$??$SliderCalcRatioFromValueT@HM@ImGui@@YAMHHHHMM@Z
pdata	ENDS
;	COMDAT pdata
pdata	SEGMENT
$pdata$4$??$SliderCalcRatioFromValueT@HM@ImGui@@YAMHHHHMM@Z DD imagerel $LN34+251
	DD	imagerel $LN34+286
	DD	imagerel $chain$4$??$SliderCalcRatioFromValueT@HM@ImGui@@YAMHHHHMM@Z
pdata	ENDS
;	COMDAT pdata
pdata	SEGMENT
$pdata$??$SliderCalcRatioFromValueT@IM@ImGui@@YAMHIIIMM@Z DD imagerel $LN34
	DD	imagerel $LN34+26
	DD	imagerel $unwind$??$SliderCalcRatioFromValueT@IM@ImGui@@YAMHIIIMM@Z
pdata	ENDS
;	COMDAT pdata
pdata	SEGMENT
$pdata$0$??$SliderCalcRatioFromValueT@IM@ImGui@@YAMHIIIMM@Z DD imagerel $LN34+26
	DD	imagerel $LN34+206
	DD	imagerel $chain$0$??$SliderCalcRatioFromValueT@IM@ImGui@@YAMHIIIMM@Z
pdata	ENDS
;	COMDAT pdata
pdata	SEGMENT
$pdata$2$??$SliderCalcRatioFromValueT@IM@ImGui@@YAMHIIIMM@Z DD imagerel $LN34+206
	DD	imagerel $LN34+268
	DD	imagerel $chain$2$??$SliderCalcRatioFromValueT@IM@ImGui@@YAMHIIIMM@Z
pdata	ENDS
;	COMDAT pdata
pdata	SEGMENT
$pdata$4$??$SliderCalcRatioFromValueT@IM@ImGui@@YAMHIIIMM@Z DD imagerel $LN34+268
	DD	imagerel $LN34+307
	DD	imagerel $chain$4$??$SliderCalcRatioFromValueT@IM@ImGui@@YAMHIIIMM@Z
pdata	ENDS
;	COMDAT pdata
pdata	SEGMENT
$pdata$??$SliderCalcRatioFromValueT@_JN@ImGui@@YAMH_J00MM@Z DD imagerel $LN34
	DD	imagerel $LN34+23
	DD	imagerel $unwind$??$SliderCalcRatioFromValueT@_JN@ImGui@@YAMH_J00MM@Z
pdata	ENDS
;	COMDAT pdata
pdata	SEGMENT
$pdata$0$??$SliderCalcRatioFromValueT@_JN@ImGui@@YAMH_J00MM@Z DD imagerel $LN34+23
	DD	imagerel $LN34+198
	DD	imagerel $chain$0$??$SliderCalcRatioFromValueT@_JN@ImGui@@YAMH_J00MM@Z
pdata	ENDS
;	COMDAT pdata
pdata	SEGMENT
$pdata$2$??$SliderCalcRatioFromValueT@_JN@ImGui@@YAMH_J00MM@Z DD imagerel $LN34+198
	DD	imagerel $LN34+258
	DD	imagerel $chain$2$??$SliderCalcRatioFromValueT@_JN@ImGui@@YAMH_J00MM@Z
pdata	ENDS
;	COMDAT pdata
pdata	SEGMENT
$pdata$4$??$SliderCalcRatioFromValueT@_JN@ImGui@@YAMH_J00MM@Z DD imagerel $LN34+258
	DD	imagerel $LN34+295
	DD	imagerel $chain$4$??$SliderCalcRatioFromValueT@_JN@ImGui@@YAMH_J00MM@Z
pdata	ENDS
;	COMDAT pdata
pdata	SEGMENT
$pdata$??$SliderCalcRatioFromValueT@_KN@ImGui@@YAMH_K00MM@Z DD imagerel $LN44
	DD	imagerel $LN44+26
	DD	imagerel $unwind$??$SliderCalcRatioFromValueT@_KN@ImGui@@YAMH_K00MM@Z
pdata	ENDS
;	COMDAT pdata
pdata	SEGMENT
$pdata$0$??$SliderCalcRatioFromValueT@_KN@ImGui@@YAMH_K00MM@Z DD imagerel $LN44+26
	DD	imagerel $LN44+260
	DD	imagerel $chain$0$??$SliderCalcRatioFromValueT@_KN@ImGui@@YAMH_K00MM@Z
pdata	ENDS
;	COMDAT pdata
pdata	SEGMENT
$pdata$2$??$SliderCalcRatioFromValueT@_KN@ImGui@@YAMH_K00MM@Z DD imagerel $LN44+260
	DD	imagerel $LN44+351
	DD	imagerel $chain$2$??$SliderCalcRatioFromValueT@_KN@ImGui@@YAMH_K00MM@Z
pdata	ENDS
;	COMDAT pdata
pdata	SEGMENT
$pdata$4$??$SliderCalcRatioFromValueT@_KN@ImGui@@YAMH_K00MM@Z DD imagerel $LN44+351
	DD	imagerel $LN44+419
	DD	imagerel $chain$4$??$SliderCalcRatioFromValueT@_KN@ImGui@@YAMH_K00MM@Z
pdata	ENDS
;	COMDAT pdata
pdata	SEGMENT
$pdata$6$??$SliderCalcRatioFromValueT@_KN@ImGui@@YAMH_K00MM@Z DD imagerel $LN44+419
	DD	imagerel $LN44+459
	DD	imagerel $chain$6$??$SliderCalcRatioFromValueT@_KN@ImGui@@YAMH_K00MM@Z
pdata	ENDS
;	COMDAT pdata
pdata	SEGMENT
$pdata$??$SliderCalcRatioFromValueT@MM@ImGui@@YAMHMMMMM@Z DD imagerel $LN44
	DD	imagerel $LN44+28
	DD	imagerel $unwind$??$SliderCalcRatioFromValueT@MM@ImGui@@YAMHMMMMM@Z
pdata	ENDS
;	COMDAT pdata
pdata	SEGMENT
$pdata$0$??$SliderCalcRatioFromValueT@MM@ImGui@@YAMHMMMMM@Z DD imagerel $LN44+28
	DD	imagerel $LN44+149
	DD	imagerel $chain$0$??$SliderCalcRatioFromValueT@MM@ImGui@@YAMHMMMMM@Z
pdata	ENDS
;	COMDAT pdata
pdata	SEGMENT
$pdata$2$??$SliderCalcRatioFromValueT@MM@ImGui@@YAMHMMMMM@Z DD imagerel $LN44+149
	DD	imagerel $LN44+209
	DD	imagerel $chain$2$??$SliderCalcRatioFromValueT@MM@ImGui@@YAMHMMMMM@Z
pdata	ENDS
;	COMDAT pdata
pdata	SEGMENT
$pdata$4$??$SliderCalcRatioFromValueT@MM@ImGui@@YAMHMMMMM@Z DD imagerel $LN44+209
	DD	imagerel $LN44+234
	DD	imagerel $chain$4$??$SliderCalcRatioFromValueT@MM@ImGui@@YAMHMMMMM@Z
pdata	ENDS
;	COMDAT pdata
pdata	SEGMENT
$pdata$??$SliderCalcRatioFromValueT@NN@ImGui@@YAMHNNNMM@Z DD imagerel $LN45
	DD	imagerel $LN45+26
	DD	imagerel $unwind$??$SliderCalcRatioFromValueT@NN@ImGui@@YAMHNNNMM@Z
pdata	ENDS
;	COMDAT pdata
pdata	SEGMENT
$pdata$0$??$SliderCalcRatioFromValueT@NN@ImGui@@YAMHNNNMM@Z DD imagerel $LN45+26
	DD	imagerel $LN45+178
	DD	imagerel $chain$0$??$SliderCalcRatioFromValueT@NN@ImGui@@YAMHNNNMM@Z
pdata	ENDS
;	COMDAT pdata
pdata	SEGMENT
$pdata$2$??$SliderCalcRatioFromValueT@NN@ImGui@@YAMHNNNMM@Z DD imagerel $LN45+178
	DD	imagerel $LN45+229
	DD	imagerel $chain$2$??$SliderCalcRatioFromValueT@NN@ImGui@@YAMHNNNMM@Z
pdata	ENDS
;	COMDAT pdata
pdata	SEGMENT
$pdata$4$??$SliderCalcRatioFromValueT@NN@ImGui@@YAMHNNNMM@Z DD imagerel $LN45+229
	DD	imagerel $LN45+255
	DD	imagerel $chain$4$??$SliderCalcRatioFromValueT@NN@ImGui@@YAMHNNNMM@Z
pdata	ENDS
;	COMDAT pdata
pdata	SEGMENT
$pdata$??$ImAtoi@_J@@YAPEBDPEBDPEA_J@Z DD imagerel ??$ImAtoi@_J@@YAPEBDPEBDPEA_J@Z
	DD	imagerel ??$ImAtoi@_J@@YAPEBDPEBDPEA_J@Z+126
	DD	imagerel $unwind$??$ImAtoi@_J@@YAPEBDPEBDPEA_J@Z
pdata	ENDS
;	COMDAT __xmm@80000000800000008000000080000000
CONST	SEGMENT
__xmm@80000000800000008000000080000000 DB 00H, 00H, 00H, 080H, 00H, 00H, 00H
	DB	080H, 00H, 00H, 00H, 080H, 00H, 00H, 00H, 080H
CONST	ENDS
;	COMDAT __xmm@80000000000000008000000000000000
CONST	SEGMENT
__xmm@80000000000000008000000000000000 DB 00H, 00H, 00H, 00H, 00H, 00H, 00H
	DB	080H, 00H, 00H, 00H, 00H, 00H, 00H, 00H, 080H
CONST	ENDS
;	COMDAT __xmm@7fffffffffffffff7fffffffffffffff
CONST	SEGMENT
__xmm@7fffffffffffffff7fffffffffffffff DB 0ffH, 0ffH, 0ffH, 0ffH, 0ffH, 0ffH
	DB	0ffH, 07fH, 0ffH, 0ffH, 0ffH, 0ffH, 0ffH, 0ffH, 0ffH, 07fH
CONST	ENDS
;	COMDAT __xmm@7fffffff7fffffff7fffffff7fffffff
CONST	SEGMENT
__xmm@7fffffff7fffffff7fffffff7fffffff DB 0ffH, 0ffH, 0ffH, 07fH, 0ffH, 0ffH
	DB	0ffH, 07fH, 0ffH, 0ffH, 0ffH, 07fH, 0ffH, 0ffH, 0ffH, 07fH
CONST	ENDS
;	COMDAT __xmm@437f0000437f0000437f0000437f0000
CONST	SEGMENT
__xmm@437f0000437f0000437f0000437f0000 DB 00H, 00H, 07fH, 'C', 00H, 00H, 07fH
	DB	'C', 00H, 00H, 07fH, 'C', 00H, 00H, 07fH, 'C'
CONST	ENDS
;	COMDAT __real@ffefffffffffffff
CONST	SEGMENT
__real@ffefffffffffffff DQ 0ffefffffffffffffr	; -1.79769e+308
CONST	ENDS
;	COMDAT __real@ffdfffffffffffff
CONST	SEGMENT
__real@ffdfffffffffffff DQ 0ffdfffffffffffffr	; -8.98847e+307
CONST	ENDS
;	COMDAT __real@ff7fffff
CONST	SEGMENT
__real@ff7fffff DD 0ff7fffffr			; -3.40282e+38
CONST	ENDS
;	COMDAT __real@feffffff
CONST	SEGMENT
__real@feffffff DD 0feffffffr			; -1.70141e+38
CONST	ENDS
;	COMDAT __real@c2c80000
CONST	SEGMENT
__real@c2c80000 DD 0c2c80000r			; -100
CONST	ENDS
;	COMDAT __real@c059000000000000
CONST	SEGMENT
__real@c059000000000000 DQ 0c059000000000000r	; -100
CONST	ENDS
;	COMDAT __real@c0000000
CONST	SEGMENT
__real@c0000000 DD 0c0000000r			; -2
CONST	ENDS
;	COMDAT __real@bf800000
CONST	SEGMENT
__real@bf800000 DD 0bf800000r			; -1
CONST	ENDS
;	COMDAT __real@bf5db3d0
CONST	SEGMENT
__real@bf5db3d0 DD 0bf5db3d0r			; -0.866025
CONST	ENDS
;	COMDAT __real@bf400000
CONST	SEGMENT
__real@bf400000 DD 0bf400000r			; -0.75
CONST	ENDS
;	COMDAT __real@bf000000
CONST	SEGMENT
__real@bf000000 DD 0bf000000r			; -0.5
CONST	ENDS
;	COMDAT __real@7fefffffffffffff
CONST	SEGMENT
__real@7fefffffffffffff DQ 07fefffffffffffffr	; 1.79769e+308
CONST	ENDS
;	COMDAT __real@7fdfffffffffffff
CONST	SEGMENT
__real@7fdfffffffffffff DQ 07fdfffffffffffffr	; 8.98847e+307
CONST	ENDS
;	COMDAT __real@7f7fffff
CONST	SEGMENT
__real@7f7fffff DD 07f7fffffr			; 3.40282e+38
CONST	ENDS
;	COMDAT __real@7effffff
CONST	SEGMENT
__real@7effffff DD 07effffffr			; 1.70141e+38
CONST	ENDS
;	COMDAT __real@5f000000
CONST	SEGMENT
__real@5f000000 DD 05f000000r			; 9.22337e+18
CONST	ENDS
;	COMDAT __real@47efffffe0000000
CONST	SEGMENT
__real@47efffffe0000000 DQ 047efffffe0000000r	; 3.40282e+38
CONST	ENDS
;	COMDAT __real@43e0000000000000
CONST	SEGMENT
__real@43e0000000000000 DQ 043e0000000000000r	; 9.22337e+18
CONST	ENDS
;	COMDAT __real@43b40000
CONST	SEGMENT
__real@43b40000 DD 043b40000r			; 360
CONST	ENDS
;	COMDAT __real@437f0000
CONST	SEGMENT
__real@437f0000 DD 0437f0000r			; 255
CONST	ENDS
;	COMDAT __real@42c80000
CONST	SEGMENT
__real@42c80000 DD 042c80000r			; 100
CONST	ENDS
;	COMDAT __real@428c0000
CONST	SEGMENT
__real@428c0000 DD 0428c0000r			; 70
CONST	ENDS
;	COMDAT __real@41f00000
CONST	SEGMENT
__real@41f00000 DD 041f00000r			; 30
CONST	ENDS
;	COMDAT __real@41a00000
CONST	SEGMENT
__real@41a00000 DD 041a00000r			; 20
CONST	ENDS
;	COMDAT __real@41400000
CONST	SEGMENT
__real@41400000 DD 041400000r			; 12
CONST	ENDS
;	COMDAT __real@41200000
CONST	SEGMENT
__real@41200000 DD 041200000r			; 10
CONST	ENDS
;	COMDAT __real@41000000
CONST	SEGMENT
__real@41000000 DD 041000000r			; 8
CONST	ENDS
;	COMDAT __real@40eccccd
CONST	SEGMENT
__real@40eccccd DD 040eccccdr			; 7.4
CONST	ENDS
;	COMDAT __real@40c90fdb
CONST	SEGMENT
__real@40c90fdb DD 040c90fdbr			; 6.28319
CONST	ENDS
;	COMDAT __real@40c00000
CONST	SEGMENT
__real@40c00000 DD 040c00000r			; 6
CONST	ENDS
;	COMDAT __real@40a00000
CONST	SEGMENT
__real@40a00000 DD 040a00000r			; 5
CONST	ENDS
;	COMDAT __real@40800000
CONST	SEGMENT
__real@40800000 DD 040800000r			; 4
CONST	ENDS
;	COMDAT __real@40666666
CONST	SEGMENT
__real@40666666 DD 040666666r			; 3.6
CONST	ENDS
;	COMDAT __real@4059000000000000
CONST	SEGMENT
__real@4059000000000000 DQ 04059000000000000r	; 100
CONST	ENDS
;	COMDAT __real@40490fdb
CONST	SEGMENT
__real@40490fdb DD 040490fdbr			; 3.14159
CONST	ENDS
;	COMDAT __real@40400000
CONST	SEGMENT
__real@40400000 DD 040400000r			; 3
CONST	ENDS
;	COMDAT __real@403f5c29
CONST	SEGMENT
__real@403f5c29 DD 0403f5c29r			; 2.99
CONST	ENDS
;	COMDAT __real@4024000000000000
CONST	SEGMENT
__real@4024000000000000 DQ 04024000000000000r	; 10
CONST	ENDS
;	COMDAT __real@40000000
CONST	SEGMENT
__real@40000000 DD 040000000r			; 2
CONST	ENDS
;	COMDAT __real@3ff0000000000000
CONST	SEGMENT
__real@3ff0000000000000 DQ 03ff0000000000000r	; 1
CONST	ENDS
;	COMDAT __real@3fe0000000000000
CONST	SEGMENT
__real@3fe0000000000000 DQ 03fe0000000000000r	; 0.5
CONST	ENDS
;	COMDAT __real@3fc00000
CONST	SEGMENT
__real@3fc00000 DD 03fc00000r			; 1.5
CONST	ENDS
;	COMDAT __real@3fb33333
CONST	SEGMENT
__real@3fb33333 DD 03fb33333r			; 1.4
CONST	ENDS
;	COMDAT __real@3f99999a
CONST	SEGMENT
__real@3f99999a DD 03f99999ar			; 1.2
CONST	ENDS
;	COMDAT __real@3f800000
CONST	SEGMENT
__real@3f800000 DD 03f800000r			; 1
CONST	ENDS
;	COMDAT __real@3f7ff972
CONST	SEGMENT
__real@3f7ff972 DD 03f7ff972r			; 0.9999
CONST	ENDS
;	COMDAT __real@3f5db3d0
CONST	SEGMENT
__real@3f5db3d0 DD 03f5db3d0r			; 0.866025
CONST	ENDS
;	COMDAT __real@3f5db22d
CONST	SEGMENT
__real@3f5db22d DD 03f5db22dr			; 0.866
CONST	ENDS
;	COMDAT __real@3f4ccccd
CONST	SEGMENT
__real@3f4ccccd DD 03f4ccccdr			; 0.8
CONST	ENDS
;	COMDAT __real@3f400000
CONST	SEGMENT
__real@3f400000 DD 03f400000r			; 0.75
CONST	ENDS
;	COMDAT __real@3f350481
CONST	SEGMENT
__real@3f350481 DD 03f350481r			; 0.7071
CONST	ENDS
;	COMDAT __real@3f333333
CONST	SEGMENT
__real@3f333333 DD 03f333333r			; 0.7
CONST	ENDS
;	COMDAT __real@3f266666
CONST	SEGMENT
__real@3f266666 DD 03f266666r			; 0.65
CONST	ENDS
;	COMDAT __real@3f19999a
CONST	SEGMENT
__real@3f19999a DD 03f19999ar			; 0.6
CONST	ENDS
;	COMDAT __real@3f0ccccd
CONST	SEGMENT
__real@3f0ccccd DD 03f0ccccdr			; 0.55
CONST	ENDS
;	COMDAT __real@3f000000
CONST	SEGMENT
__real@3f000000 DD 03f000000r			; 0.5
CONST	ENDS
;	COMDAT __real@3ecccccd
CONST	SEGMENT
__real@3ecccccd DD 03ecccccdr			; 0.4
CONST	ENDS
;	COMDAT __real@3e99999a
CONST	SEGMENT
__real@3e99999a DD 03e99999ar			; 0.3
CONST	ENDS
;	COMDAT __real@3e800000
CONST	SEGMENT
__real@3e800000 DD 03e800000r			; 0.25
CONST	ENDS
;	COMDAT __real@3e4ccccd
CONST	SEGMENT
__real@3e4ccccd DD 03e4ccccdr			; 0.2
CONST	ENDS
;	COMDAT __real@3e19999a
CONST	SEGMENT
__real@3e19999a DD 03e19999ar			; 0.15
CONST	ENDS
;	COMDAT __real@3e09374c
CONST	SEGMENT
__real@3e09374c DD 03e09374cr			; 0.134
CONST	ENDS
;	COMDAT __real@3dcccccd
CONST	SEGMENT
__real@3dcccccd DD 03dcccccdr			; 0.1
CONST	ENDS
;	COMDAT __real@3da3d70a
CONST	SEGMENT
__real@3da3d70a DD 03da3d70ar			; 0.08
CONST	ENDS
;	COMDAT __real@3cdd2f1b
CONST	SEGMENT
__real@3cdd2f1b DD 03cdd2f1br			; 0.027
CONST	ENDS
;	COMDAT __real@3c23d70a
CONST	SEGMENT
__real@3c23d70a DD 03c23d70ar			; 0.01
CONST	ENDS
;	COMDAT __real@3b808081
CONST	SEGMENT
__real@3b808081 DD 03b808081r			; 0.00392157
CONST	ENDS
;	COMDAT __real@38d1b717
CONST	SEGMENT
__real@38d1b717 DD 038d1b717r			; 0.0001
CONST	ENDS
;	COMDAT __real@3727c5ac
CONST	SEGMENT
__real@3727c5ac DD 03727c5acr			; 1e-05
CONST	ENDS
;	COMDAT __real@358637bd
CONST	SEGMENT
__real@358637bd DD 0358637bdr			; 1e-06
CONST	ENDS
;	COMDAT __real@00800000
CONST	SEGMENT
__real@00800000 DD 000800000r			; 1.17549e-38
CONST	ENDS
;	COMDAT __real@0000000000000000
CONST	SEGMENT
__real@0000000000000000 DQ 00000000000000000r	; 0
CONST	ENDS
;	COMDAT __real@00000000
CONST	SEGMENT
__real@00000000 DD 000000000r			; 0
CONST	ENDS
;	COMDAT ??_C@_1FC@BIEMKEOL@?$AAp?$AA?5?$AA?$DO?$AA?$DN?$AA?5?$AAB?$AAu?$AAf?$AA?4?$AAD?$AAa?$AAt?$AAa?$AA?5?$AA?$CG@
CONST	SEGMENT
??_C@_1FC@BIEMKEOL@?$AAp?$AA?5?$AA?$DO?$AA?$DN?$AA?5?$AAB?$AAu?$AAf?$AA?4?$AAD?$AAa?$AAt?$AAa?$AA?5?$AA?$CG@ DB 'p'
	DB	00H, ' ', 00H, '>', 00H, '=', 00H, ' ', 00H, 'B', 00H, 'u', 00H
	DB	'f', 00H, '.', 00H, 'D', 00H, 'a', 00H, 't', 00H, 'a', 00H, ' '
	DB	00H, '&', 00H, '&', 00H, ' ', 00H, 'p', 00H, ' ', 00H, '<', 00H
	DB	' ', 00H, 'B', 00H, 'u', 00H, 'f', 00H, '.', 00H, 'D', 00H, 'a'
	DB	00H, 't', 00H, 'a', 00H, ' ', 00H, '+', 00H, ' ', 00H, 'B', 00H
	DB	'u', 00H, 'f', 00H, '.', 00H, 'S', 00H, 'i', 00H, 'z', 00H, 'e'
	DB	00H, 00H, 00H				; `string'
CONST	ENDS
;	COMDAT ??_C@_1BC@DCMHDKFO@?$AAi?$AA?5?$AA?$DM?$AA?5?$AAS?$AAi?$AAz?$AAe@
CONST	SEGMENT
??_C@_1BC@DCMHDKFO@?$AAi?$AA?5?$AA?$DM?$AA?5?$AAS?$AAi?$AAz?$AAe@ DB 'i', 00H
	DB	' ', 00H, '<', 00H, ' ', 00H, 'S', 00H, 'i', 00H, 'z', 00H, 'e'
	DB	00H, 00H, 00H				; `string'
CONST	ENDS
;	COMDAT ??_C@_1BC@KCECIPDP@?$AAS?$AAi?$AAz?$AAe?$AA?5?$AA?$DO?$AA?5?$AA0@
CONST	SEGMENT
??_C@_1BC@KCECIPDP@?$AAS?$AAi?$AAz?$AAe?$AA?5?$AA?$DO?$AA?5?$AA0@ DB 'S', 00H
	DB	'i', 00H, 'z', 00H, 'e', 00H, ' ', 00H, '>', 00H, ' ', 00H, '0'
	DB	00H, 00H, 00H				; `string'
CONST	ENDS
;	COMDAT ??_C@_1DK@JJGEFOJO@?$AAi?$AAt?$AA?5?$AA?$DO?$AA?$DN?$AA?5?$AAD?$AAa?$AAt?$AAa?$AA?5?$AA?$CG?$AA?$CG?$AA?5?$AAi@
CONST	SEGMENT
??_C@_1DK@JJGEFOJO@?$AAi?$AAt?$AA?5?$AA?$DO?$AA?$DN?$AA?5?$AAD?$AAa?$AAt?$AAa?$AA?5?$AA?$CG?$AA?$CG?$AA?5?$AAi@ DB 'i'
	DB	00H, 't', 00H, ' ', 00H, '>', 00H, '=', 00H, ' ', 00H, 'D', 00H
	DB	'a', 00H, 't', 00H, 'a', 00H, ' ', 00H, '&', 00H, '&', 00H, ' '
	DB	00H, 'i', 00H, 't', 00H, ' ', 00H, '<', 00H, ' ', 00H, 'D', 00H
	DB	'a', 00H, 't', 00H, 'a', 00H, '+', 00H, 'S', 00H, 'i', 00H, 'z'
	DB	00H, 'e', 00H, 00H, 00H			; `string'
CONST	ENDS
;	COMDAT ??_C@_1DO@NPHOAPAC@?$AAi?$AAt?$AA?5?$AA?$DO?$AA?$DN?$AA?5?$AAD?$AAa?$AAt?$AAa?$AA?5?$AA?$CG?$AA?$CG?$AA?5?$AAi@
CONST	SEGMENT
??_C@_1DO@NPHOAPAC@?$AAi?$AAt?$AA?5?$AA?$DO?$AA?$DN?$AA?5?$AAD?$AAa?$AAt?$AAa?$AA?5?$AA?$CG?$AA?$CG?$AA?5?$AAi@ DB 'i'
	DB	00H, 't', 00H, ' ', 00H, '>', 00H, '=', 00H, ' ', 00H, 'D', 00H
	DB	'a', 00H, 't', 00H, 'a', 00H, ' ', 00H, '&', 00H, '&', 00H, ' '
	DB	00H, 'i', 00H, 't', 00H, ' ', 00H, '<', 00H, ' ', 00H, 'D', 00H
	DB	'a', 00H, 't', 00H, 'a', 00H, ' ', 00H, '+', 00H, ' ', 00H, 'S'
	DB	00H, 'i', 00H, 'z', 00H, 'e', 00H, 00H, 00H	; `string'
CONST	ENDS
;	COMDAT ??_C@_1CM@HCFAHNAF@?$AAc?$AAo?$AAl?$AAu?$AAm?$AAn?$AAs?$AA?9?$AA?$DO?$AAC?$AAu?$AAr?$AAr?$AAe?$AAn@
CONST	SEGMENT
??_C@_1CM@HCFAHNAF@?$AAc?$AAo?$AAl?$AAu?$AAm?$AAn?$AAs?$AA?9?$AA?$DO?$AAC?$AAu?$AAr?$AAr?$AAe?$AAn@ DB 'c'
	DB	00H, 'o', 00H, 'l', 00H, 'u', 00H, 'm', 00H, 'n', 00H, 's', 00H
	DB	'-', 00H, '>', 00H, 'C', 00H, 'u', 00H, 'r', 00H, 'r', 00H, 'e'
	DB	00H, 'n', 00H, 't', 00H, ' ', 00H, '=', 00H, '=', 00H, ' ', 00H
	DB	'0', 00H, 00H, 00H				; `string'
CONST	ENDS
;	COMDAT ??_C@_1CE@IJEAECLN@?$AAc?$AAo?$AAl?$AAu?$AAm?$AAn?$AAs?$AA?9?$AA?$DO?$AAI?$AAD?$AA?5?$AA?$DN?$AA?$DN?$AA?5@
CONST	SEGMENT
??_C@_1CE@IJEAECLN@?$AAc?$AAo?$AAl?$AAu?$AAm?$AAn?$AAs?$AA?9?$AA?$DO?$AAI?$AAD?$AA?5?$AA?$DN?$AA?$DN?$AA?5@ DB 'c'
	DB	00H, 'o', 00H, 'l', 00H, 'u', 00H, 'm', 00H, 'n', 00H, 's', 00H
	DB	'-', 00H, '>', 00H, 'I', 00H, 'D', 00H, ' ', 00H, '=', 00H, '='
	DB	00H, ' ', 00H, 'i', 00H, 'd', 00H, 00H, 00H	; `string'
CONST	ENDS
;	COMDAT ??_C@_1DO@BPFJENMI@?$AAw?$AAi?$AAn?$AAd?$AAo?$AAw?$AA?9?$AA?$DO?$AAD?$AAC?$AA?4?$AAC?$AAu?$AAr?$AAr@
CONST	SEGMENT
??_C@_1DO@BPFJENMI@?$AAw?$AAi?$AAn?$AAd?$AAo?$AAw?$AA?9?$AA?$DO?$AAD?$AAC?$AA?4?$AAC?$AAu?$AAr?$AAr@ DB 'w'
	DB	00H, 'i', 00H, 'n', 00H, 'd', 00H, 'o', 00H, 'w', 00H, '-', 00H
	DB	'>', 00H, 'D', 00H, 'C', 00H, '.', 00H, 'C', 00H, 'u', 00H, 'r'
	DB	00H, 'r', 00H, 'e', 00H, 'n', 00H, 't', 00H, 'C', 00H, 'o', 00H
	DB	'l', 00H, 'u', 00H, 'm', 00H, 'n', 00H, 's', 00H, ' ', 00H, '='
	DB	00H, '=', 00H, ' ', 00H, '0', 00H, 00H, 00H	; `string'
CONST	ENDS
;	COMDAT ??_C@_1CG@GDAJJGIO@?$AAc?$AAo?$AAl?$AAu?$AAm?$AAn?$AAs?$AA_?$AAc?$AAo?$AAu?$AAn?$AAt?$AA?5?$AA?$DO@
CONST	SEGMENT
??_C@_1CG@GDAJJGIO@?$AAc?$AAo?$AAl?$AAu?$AAm?$AAn?$AAs?$AA_?$AAc?$AAo?$AAu?$AAn?$AAt?$AA?5?$AA?$DO@ DB 'c'
	DB	00H, 'o', 00H, 'l', 00H, 'u', 00H, 'm', 00H, 'n', 00H, 's', 00H
	DB	'_', 00H, 'c', 00H, 'o', 00H, 'u', 00H, 'n', 00H, 't', 00H, ' '
	DB	00H, '>', 00H, '=', 00H, ' ', 00H, '1', 00H, 00H, 00H ; `string'
CONST	ENDS
;	COMDAT ??_C@_07HIFEPIJN@columns@
CONST	SEGMENT
??_C@_07HIFEPIJN@columns@ DB 'columns', 00H		; `string'
CONST	ENDS
;	COMDAT ??_C@_1FK@BKCOEDF@?$AAc?$AAm?$AAd?$AA_?$AAs?$AAi?$AAz?$AAe?$AA?5?$AA?$DN?$AA?$DN?$AA?5?$AAw?$AAi?$AAn@
CONST	SEGMENT
??_C@_1FK@BKCOEDF@?$AAc?$AAm?$AAd?$AA_?$AAs?$AAi?$AAz?$AAe?$AA?5?$AA?$DN?$AA?$DN?$AA?5?$AAw?$AAi?$AAn@ DB 'c'
	DB	00H, 'm', 00H, 'd', 00H, '_', 00H, 's', 00H, 'i', 00H, 'z', 00H
	DB	'e', 00H, ' ', 00H, '=', 00H, '=', 00H, ' ', 00H, 'w', 00H, 'i'
	DB	00H, 'n', 00H, 'd', 00H, 'o', 00H, 'w', 00H, '-', 00H, '>', 00H
	DB	'D', 00H, 'r', 00H, 'a', 00H, 'w', 00H, 'L', 00H, 'i', 00H, 's'
	DB	00H, 't', 00H, '-', 00H, '>', 00H, 'C', 00H, 'm', 00H, 'd', 00H
	DB	'B', 00H, 'u', 00H, 'f', 00H, 'f', 00H, 'e', 00H, 'r', 00H, '.'
	DB	00H, 'S', 00H, 'i', 00H, 'z', 00H, 'e', 00H, 00H, 00H ; `string'
CONST	ENDS
;	COMDAT ??_C@_1BK@FLGDBJKG@?$AAc?$AAo?$AAl?$AAu?$AAm?$AAn?$AAs?$AA?5?$AA?$CB?$AA?$DN?$AA?5?$AA0@
CONST	SEGMENT
??_C@_1BK@FLGDBJKG@?$AAc?$AAo?$AAl?$AAu?$AAm?$AAn?$AAs?$AA?5?$AA?$CB?$AA?$DN?$AA?5?$AA0@ DB 'c'
	DB	00H, 'o', 00H, 'l', 00H, 'u', 00H, 'm', 00H, 'n', 00H, 's', 00H
	DB	' ', 00H, '!', 00H, '=', 00H, ' ', 00H, '0', 00H, 00H, 00H ; `string'
CONST	ENDS
;	COMDAT ??_C@_1EK@FCGFMMCK@?$AAc?$AAo?$AAl?$AAu?$AAm?$AAn?$AA_?$AAi?$AAn?$AAd?$AAe?$AAx?$AA?5?$AA?$DM?$AA?5@
CONST	SEGMENT
??_C@_1EK@FCGFMMCK@?$AAc?$AAo?$AAl?$AAu?$AAm?$AAn?$AA_?$AAi?$AAn?$AAd?$AAe?$AAx?$AA?5?$AA?$DM?$AA?5@ DB 'c'
	DB	00H, 'o', 00H, 'l', 00H, 'u', 00H, 'm', 00H, 'n', 00H, '_', 00H
	DB	'i', 00H, 'n', 00H, 'd', 00H, 'e', 00H, 'x', 00H, ' ', 00H, '<'
	DB	00H, ' ', 00H, 'c', 00H, 'o', 00H, 'l', 00H, 'u', 00H, 'm', 00H
	DB	'n', 00H, 's', 00H, '-', 00H, '>', 00H, 'C', 00H, 'o', 00H, 'l'
	DB	00H, 'u', 00H, 'm', 00H, 'n', 00H, 's', 00H, '.', 00H, 'S', 00H
	DB	'i', 00H, 'z', 00H, 'e', 00H, 00H, 00H	; `string'
CONST	ENDS
;	COMDAT ??_C@_1GE@CFLLPKGA@?$AAg?$AA?4?$AAA?$AAc?$AAt?$AAi?$AAv?$AAe?$AAI?$AAd?$AA?5?$AA?$DN?$AA?$DN?$AA?5?$AAc@
CONST	SEGMENT
??_C@_1GE@CFLLPKGA@?$AAg?$AA?4?$AAA?$AAc?$AAt?$AAi?$AAv?$AAe?$AAI?$AAd?$AA?5?$AA?$DN?$AA?$DN?$AA?5?$AAc@ DB 'g'
	DB	00H, '.', 00H, 'A', 00H, 'c', 00H, 't', 00H, 'i', 00H, 'v', 00H
	DB	'e', 00H, 'I', 00H, 'd', 00H, ' ', 00H, '=', 00H, '=', 00H, ' '
	DB	00H, 'c', 00H, 'o', 00H, 'l', 00H, 'u', 00H, 'm', 00H, 'n', 00H
	DB	's', 00H, '-', 00H, '>', 00H, 'I', 00H, 'D', 00H, ' ', 00H, '+'
	DB	00H, ' ', 00H, 'I', 00H, 'm', 00H, 'G', 00H, 'u', 00H, 'i', 00H
	DB	'I', 00H, 'D', 00H, '(', 00H, 'c', 00H, 'o', 00H, 'l', 00H, 'u'
	DB	00H, 'm', 00H, 'n', 00H, '_', 00H, 'i', 00H, 'n', 00H, 'd', 00H
	DB	'e', 00H, 'x', 00H, ')', 00H, 00H, 00H	; `string'
CONST	ENDS
;	COMDAT ??_C@_1CC@HNMGCLDB@?$AAc?$AAo?$AAl?$AAu?$AAm?$AAn?$AA_?$AAi?$AAn?$AAd?$AAe?$AAx?$AA?5?$AA?$DO?$AA?5@
CONST	SEGMENT
??_C@_1CC@HNMGCLDB@?$AAc?$AAo?$AAl?$AAu?$AAm?$AAn?$AA_?$AAi?$AAn?$AAd?$AAe?$AAx?$AA?5?$AA?$DO?$AA?5@ DB 'c'
	DB	00H, 'o', 00H, 'l', 00H, 'u', 00H, 'm', 00H, 'n', 00H, '_', 00H
	DB	'i', 00H, 'n', 00H, 'd', 00H, 'e', 00H, 'x', 00H, ' ', 00H, '>'
	DB	00H, ' ', 00H, '0', 00H, 00H, 00H		; `string'
CONST	ENDS
;	COMDAT ??_C@_01NBENCBCI@?$CK@
CONST	SEGMENT
??_C@_01NBENCBCI@?$CK@ DB '*', 00H			; `string'
CONST	ENDS
;	COMDAT ??_C@_1BK@HMBBPDPB@?$AAw?$AAi?$AAd?$AAt?$AAh?$AA?5?$AA?$DO?$AA?5?$AA0?$AA?4?$AA0?$AAf@
CONST	SEGMENT
??_C@_1BK@HMBBPDPB@?$AAw?$AAi?$AAd?$AAt?$AAh?$AA?5?$AA?$DO?$AA?5?$AA0?$AA?4?$AA0?$AAf@ DB 'w'
	DB	00H, 'i', 00H, 'd', 00H, 't', 00H, 'h', 00H, ' ', 00H, '>', 00H
	DB	' ', 00H, '0', 00H, '.', 00H, '0', 00H, 'f', 00H, 00H, 00H ; `string'
CONST	ENDS
;	COMDAT ??_C@_1CI@FDDNDGMG@?$AAt?$AAa?$AAb?$AA_?$AAb?$AAa?$AAr?$AA?9?$AA?$DO?$AAW?$AAa?$AAn?$AAt?$AAL?$AAa@
CONST	SEGMENT
??_C@_1CI@FDDNDGMG@?$AAt?$AAa?$AAb?$AA_?$AAb?$AAa?$AAr?$AA?9?$AA?$DO?$AAW?$AAa?$AAn?$AAt?$AAL?$AAa@ DB 't'
	DB	00H, 'a', 00H, 'b', 00H, '_', 00H, 'b', 00H, 'a', 00H, 'r', 00H
	DB	'-', 00H, '>', 00H, 'W', 00H, 'a', 00H, 'n', 00H, 't', 00H, 'L'
	DB	00H, 'a', 00H, 'y', 00H, 'o', 00H, 'u', 00H, 't', 00H, 00H, 00H ; `string'
CONST	ENDS
;	COMDAT ??_C@_04EBNJJJJI@?$CF?4?$CKs@
CONST	SEGMENT
??_C@_04EBNJJJJI@?$CF?4?$CKs@ DB '%.*s', 00H		; `string'
CONST	ENDS
;	COMDAT ??_C@_1DK@HGEILAOB@?$AAt?$AAa?$AAb?$AA_?$AAb?$AAa?$AAr?$AA?9?$AA?$DO?$AAL?$AAa?$AAs?$AAt?$AAT?$AAa@
CONST	SEGMENT
??_C@_1DK@HGEILAOB@?$AAt?$AAa?$AAb?$AA_?$AAb?$AAa?$AAr?$AA?9?$AA?$DO?$AAL?$AAa?$AAs?$AAt?$AAT?$AAa@ DB 't'
	DB	00H, 'a', 00H, 'b', 00H, '_', 00H, 'b', 00H, 'a', 00H, 'r', 00H
	DB	'-', 00H, '>', 00H, 'L', 00H, 'a', 00H, 's', 00H, 't', 00H, 'T'
	DB	00H, 'a', 00H, 'b', 00H, 'I', 00H, 't', 00H, 'e', 00H, 'm', 00H
	DB	'I', 00H, 'd', 00H, 'x', 00H, ' ', 00H, '>', 00H, '=', 00H, ' '
	DB	00H, '0', 00H, 00H, 00H			; `string'
CONST	ENDS
;	COMDAT ??_C@_1JI@HFPIFMIP@?$AAt?$AAa?$AAb?$AA_?$AAb?$AAa?$AAr?$AA?5?$AA?$CB?$AA?$DN?$AA?5?$AA0?$AA?5?$AA?$CG?$AA?$CG@
CONST	SEGMENT
??_C@_1JI@HFPIFMIP@?$AAt?$AAa?$AAb?$AA_?$AAb?$AAa?$AAr?$AA?5?$AA?$CB?$AA?$DN?$AA?5?$AA0?$AA?5?$AA?$CG?$AA?$CG@ DB 't'
	DB	00H, 'a', 00H, 'b', 00H, '_', 00H, 'b', 00H, 'a', 00H, 'r', 00H
	DB	' ', 00H, '!', 00H, '=', 00H, ' ', 00H, '0', 00H, ' ', 00H, '&'
	DB	00H, '&', 00H, ' ', 00H, '"', 00H, 'N', 00H, 'e', 00H, 'e', 00H
	DB	'd', 00H, 's', 00H, ' ', 00H, 't', 00H, 'o', 00H, ' ', 00H, 'b'
	DB	00H, 'e', 00H, ' ', 00H, 'c', 00H, 'a', 00H, 'l', 00H, 'l', 00H
	DB	'e', 00H, 'd', 00H, ' ', 00H, 'b', 00H, 'e', 00H, 't', 00H, 'w'
	DB	00H, 'e', 00H, 'e', 00H, 'n', 00H, ' ', 00H, 'B', 00H, 'e', 00H
	DB	'g', 00H, 'i', 00H, 'n', 00H, 'T', 00H, 'a', 00H, 'b', 00H, 'B'
	DB	00H, 'a', 00H, 'r', 00H, '(', 00H, ')', 00H, ' ', 00H, 'a', 00H
	DB	'n', 00H, 'd', 00H, ' ', 00H, 'E', 00H, 'n', 00H, 'd', 00H, 'T'
	DB	00H, 'a', 00H, 'b', 00H, 'B', 00H, 'a', 00H, 'r', 00H, '(', 00H
	DB	')', 00H, '!', 00H, '"', 00H, 00H, 00H	; `string'
CONST	ENDS
;	COMDAT ??_C@_1LA@GNEGANEK@?$AA?$CI?$AAt?$AAa?$AAb?$AA_?$AAb?$AAa?$AAr?$AA?$CJ?$AA?5?$AA?$CG?$AA?$CG?$AA?5?$AA?$CC?$AAB@
CONST	SEGMENT
??_C@_1LA@GNEGANEK@?$AA?$CI?$AAt?$AAa?$AAb?$AA_?$AAb?$AAa?$AAr?$AA?$CJ?$AA?5?$AA?$CG?$AA?$CG?$AA?5?$AA?$CC?$AAB@ DB '('
	DB	00H, 't', 00H, 'a', 00H, 'b', 00H, '_', 00H, 'b', 00H, 'a', 00H
	DB	'r', 00H, ')', 00H, ' ', 00H, '&', 00H, '&', 00H, ' ', 00H, '"'
	DB	00H, 'B', 00H, 'e', 00H, 'g', 00H, 'i', 00H, 'n', 00H, 'T', 00H
	DB	'a', 00H, 'b', 00H, 'I', 00H, 't', 00H, 'e', 00H, 'm', 00H, '('
	DB	00H, ')', 00H, ' ', 00H, 'N', 00H, 'e', 00H, 'e', 00H, 'd', 00H
	DB	's', 00H, ' ', 00H, 't', 00H, 'o', 00H, ' ', 00H, 'b', 00H, 'e'
	DB	00H, ' ', 00H, 'c', 00H, 'a', 00H, 'l', 00H, 'l', 00H, 'e', 00H
	DB	'd', 00H, ' ', 00H, 'b', 00H, 'e', 00H, 't', 00H, 'w', 00H, 'e'
	DB	00H, 'e', 00H, 'n', 00H, ' ', 00H, 'B', 00H, 'e', 00H, 'g', 00H
	DB	'i', 00H, 'n', 00H, 'T', 00H, 'a', 00H, 'b', 00H, 'B', 00H, 'a'
	DB	00H, 'r', 00H, '(', 00H, ')', 00H, ' ', 00H, 'a', 00H, 'n', 00H
	DB	'd', 00H, ' ', 00H, 'E', 00H, 'n', 00H, 'd', 00H, 'T', 00H, 'a'
	DB	00H, 'b', 00H, 'B', 00H, 'a', 00H, 'r', 00H, '(', 00H, ')', 00H
	DB	'!', 00H, '"', 00H, 00H, 00H			; `string'
CONST	ENDS
;	COMDAT ??_C@_03CPFCAGPK@?$CD?$CDv@
CONST	SEGMENT
??_C@_03CPFCAGPK@?$CD?$CDv@ DB '##v', 00H		; `string'
CONST	ENDS
;	COMDAT ??_C@_03BHPCMDPH@?$CD?$CD?$DO@
CONST	SEGMENT
??_C@_03BHPCMDPH@?$CD?$CD?$DO@ DB '##>', 00H		; `string'
CONST	ENDS
;	COMDAT ??_C@_03CFMEKBHF@?$CD?$CD?$DM@
CONST	SEGMENT
??_C@_03CFMEKBHF@?$CD?$CD?$DM@ DB '##<', 00H		; `string'
CONST	ENDS
;	COMDAT ??_C@_1EE@NGAACFPK@?$AAt?$AAa?$AAb?$AA_?$AAb?$AAa?$AAr?$AA?9?$AA?$DO?$AAR?$AAe?$AAo?$AAr?$AAd?$AAe@
CONST	SEGMENT
??_C@_1EE@NGAACFPK@?$AAt?$AAa?$AAb?$AA_?$AAb?$AAa?$AAr?$AA?9?$AA?$DO?$AAR?$AAe?$AAo?$AAr?$AAd?$AAe@ DB 't'
	DB	00H, 'a', 00H, 'b', 00H, '_', 00H, 'b', 00H, 'a', 00H, 'r', 00H
	DB	'-', 00H, '>', 00H, 'R', 00H, 'e', 00H, 'o', 00H, 'r', 00H, 'd'
	DB	00H, 'e', 00H, 'r', 00H, 'R', 00H, 'e', 00H, 'q', 00H, 'u', 00H
	DB	'e', 00H, 's', 00H, 't', 00H, 'T', 00H, 'a', 00H, 'b', 00H, 'I'
	DB	00H, 'd', 00H, ' ', 00H, '=', 00H, '=', 00H, ' ', 00H, '0', 00H
	DB	00H, 00H					; `string'
CONST	ENDS
;	COMDAT ??_C@_1CO@FGAFEEBL@?$AAd?$AAi?$AAr?$AA?5?$AA?$DN?$AA?$DN?$AA?5?$AA?9?$AA1?$AA?5?$AA?$HM?$AA?$HM?$AA?5?$AAd?$AAi@
CONST	SEGMENT
??_C@_1CO@FGAFEEBL@?$AAd?$AAi?$AAr?$AA?5?$AA?$DN?$AA?$DN?$AA?5?$AA?9?$AA1?$AA?5?$AA?$HM?$AA?$HM?$AA?5?$AAd?$AAi@ DB 'd'
	DB	00H, 'i', 00H, 'r', 00H, ' ', 00H, '=', 00H, '=', 00H, ' ', 00H
	DB	'-', 00H, '1', 00H, ' ', 00H, '|', 00H, '|', 00H, ' ', 00H, 'd'
	DB	00H, 'i', 00H, 'r', 00H, ' ', 00H, '=', 00H, '=', 00H, ' ', 00H
	DB	'+', 00H, '1', 00H, 00H, 00H			; `string'
CONST	ENDS
;	COMDAT ??_C@_1CE@HKABMAAD@?$AAt?$AAa?$AAb?$AA?9?$AA?$DO?$AAW?$AAi?$AAd?$AAt?$AAh?$AA?5?$AA?$DO?$AA?5?$AA0?$AA?4@
CONST	SEGMENT
??_C@_1CE@HKABMAAD@?$AAt?$AAa?$AAb?$AA?9?$AA?$DO?$AAW?$AAi?$AAd?$AAt?$AAh?$AA?5?$AA?$DO?$AA?5?$AA0?$AA?4@ DB 't'
	DB	00H, 'a', 00H, 'b', 00H, '-', 00H, '>', 00H, 'W', 00H, 'i', 00H
	DB	'd', 00H, 't', 00H, 'h', 00H, ' ', 00H, '>', 00H, ' ', 00H, '0'
	DB	00H, '.', 00H, '0', 00H, 'f', 00H, 00H, 00H	; `string'
CONST	ENDS
;	COMDAT ??_C@_1GG@ODBMJKON@?$AAt?$AAa?$AAb?$AA?9?$AA?$DO?$AAL?$AAa?$AAs?$AAt?$AAF?$AAr?$AAa?$AAm?$AAe?$AAV@
CONST	SEGMENT
??_C@_1GG@ODBMJKON@?$AAt?$AAa?$AAb?$AA?9?$AA?$DO?$AAL?$AAa?$AAs?$AAt?$AAF?$AAr?$AAa?$AAm?$AAe?$AAV@ DB 't'
	DB	00H, 'a', 00H, 'b', 00H, '-', 00H, '>', 00H, 'L', 00H, 'a', 00H
	DB	's', 00H, 't', 00H, 'F', 00H, 'r', 00H, 'a', 00H, 'm', 00H, 'e'
	DB	00H, 'V', 00H, 'i', 00H, 's', 00H, 'i', 00H, 'b', 00H, 'l', 00H
	DB	'e', 00H, ' ', 00H, '>', 00H, '=', 00H, ' ', 00H, 't', 00H, 'a'
	DB	00H, 'b', 00H, '_', 00H, 'b', 00H, 'a', 00H, 'r', 00H, '-', 00H
	DB	'>', 00H, 'P', 00H, 'r', 00H, 'e', 00H, 'v', 00H, 'F', 00H, 'r'
	DB	00H, 'a', 00H, 'm', 00H, 'e', 00H, 'V', 00H, 'i', 00H, 's', 00H
	DB	'i', 00H, 'b', 00H, 'l', 00H, 'e', 00H, 00H, 00H ; `string'
CONST	ENDS
;	COMDAT ??_C@_1HE@HMPOLDED@?$AA?$CI?$AAt?$AAa?$AAb?$AA_?$AAb?$AAa?$AAr?$AA?5?$AA?$CB?$AA?$DN?$AA?5?$AA0?$AA?$CJ?$AA?5@
CONST	SEGMENT
??_C@_1HE@HMPOLDED@?$AA?$CI?$AAt?$AAa?$AAb?$AA_?$AAb?$AAa?$AAr?$AA?5?$AA?$CB?$AA?$DN?$AA?5?$AA0?$AA?$CJ?$AA?5@ DB '('
	DB	00H, 't', 00H, 'a', 00H, 'b', 00H, '_', 00H, 'b', 00H, 'a', 00H
	DB	'r', 00H, ' ', 00H, '!', 00H, '=', 00H, ' ', 00H, '0', 00H, ')'
	DB	00H, ' ', 00H, '&', 00H, '&', 00H, ' ', 00H, '"', 00H, 'M', 00H
	DB	'i', 00H, 's', 00H, 'm', 00H, 'a', 00H, 't', 00H, 'c', 00H, 'h'
	DB	00H, 'e', 00H, 'd', 00H, ' ', 00H, 'B', 00H, 'e', 00H, 'g', 00H
	DB	'i', 00H, 'n', 00H, 'T', 00H, 'a', 00H, 'b', 00H, 'B', 00H, 'a'
	DB	00H, 'r', 00H, '(', 00H, ')', 00H, '/', 00H, 'E', 00H, 'n', 00H
	DB	'd', 00H, 'T', 00H, 'a', 00H, 'b', 00H, 'B', 00H, 'a', 00H, 'r'
	DB	00H, '(', 00H, ')', 00H, '!', 00H, '"', 00H, 00H, 00H ; `string'
CONST	ENDS
;	COMDAT ??_C@_0O@BKOLOJFE@?$CD?$CDMainMenuBar@
CONST	SEGMENT
??_C@_0O@BKOLOJFE@?$CD?$CDMainMenuBar@ DB '##MainMenuBar', 00H ; `string'
CONST	ENDS
;	COMDAT ??_C@_1DI@HJHPMKIH@?$AAw?$AAi?$AAn?$AAd?$AAo?$AAw?$AA?9?$AA?$DO?$AAD?$AAC?$AA?4?$AAM?$AAe?$AAn?$AAu@
CONST	SEGMENT
??_C@_1DI@HJHPMKIH@?$AAw?$AAi?$AAn?$AAd?$AAo?$AAw?$AA?9?$AA?$DO?$AAD?$AAC?$AA?4?$AAM?$AAe?$AAn?$AAu@ DB 'w'
	DB	00H, 'i', 00H, 'n', 00H, 'd', 00H, 'o', 00H, 'w', 00H, '-', 00H
	DB	'>', 00H, 'D', 00H, 'C', 00H, '.', 00H, 'M', 00H, 'e', 00H, 'n'
	DB	00H, 'u', 00H, 'B', 00H, 'a', 00H, 'r', 00H, 'A', 00H, 'p', 00H
	DB	'p', 00H, 'e', 00H, 'n', 00H, 'd', 00H, 'i', 00H, 'n', 00H, 'g'
	DB	00H, 00H, 00H				; `string'
CONST	ENDS
;	COMDAT ??_C@_1FC@MMAFNJJP@?$AAw?$AAi?$AAn?$AAd?$AAo?$AAw?$AA?9?$AA?$DO?$AAF?$AAl?$AAa?$AAg?$AAs?$AA?5?$AA?$CG@
CONST	SEGMENT
??_C@_1FC@MMAFNJJP@?$AAw?$AAi?$AAn?$AAd?$AAo?$AAw?$AA?9?$AA?$DO?$AAF?$AAl?$AAa?$AAg?$AAs?$AA?5?$AA?$CG@ DB 'w'
	DB	00H, 'i', 00H, 'n', 00H, 'd', 00H, 'o', 00H, 'w', 00H, '-', 00H
	DB	'>', 00H, 'F', 00H, 'l', 00H, 'a', 00H, 'g', 00H, 's', 00H, ' '
	DB	00H, '&', 00H, ' ', 00H, 'I', 00H, 'm', 00H, 'G', 00H, 'u', 00H
	DB	'i', 00H, 'W', 00H, 'i', 00H, 'n', 00H, 'd', 00H, 'o', 00H, 'w'
	DB	00H, 'F', 00H, 'l', 00H, 'a', 00H, 'g', 00H, 's', 00H, '_', 00H
	DB	'M', 00H, 'e', 00H, 'n', 00H, 'u', 00H, 'B', 00H, 'a', 00H, 'r'
	DB	00H, 00H, 00H				; `string'
CONST	ENDS
;	COMDAT ??_C@_1GC@NKCHGHAD@?$AAw?$AAi?$AAn?$AAd?$AAo?$AAw?$AA?9?$AA?$DO?$AAD?$AAC?$AA?4?$AAN?$AAa?$AAv?$AAL@
CONST	SEGMENT
??_C@_1GC@NKCHGHAD@?$AAw?$AAi?$AAn?$AAd?$AAo?$AAw?$AA?9?$AA?$DO?$AAD?$AAC?$AA?4?$AAN?$AAa?$AAv?$AAL@ DB 'w'
	DB	00H, 'i', 00H, 'n', 00H, 'd', 00H, 'o', 00H, 'w', 00H, '-', 00H
	DB	'>', 00H, 'D', 00H, 'C', 00H, '.', 00H, 'N', 00H, 'a', 00H, 'v'
	DB	00H, 'L', 00H, 'a', 00H, 'y', 00H, 'e', 00H, 'r', 00H, 'A', 00H
	DB	'c', 00H, 't', 00H, 'i', 00H, 'v', 00H, 'e', 00H, 'M', 00H, 'a'
	DB	00H, 's', 00H, 'k', 00H, 'N', 00H, 'e', 00H, 'x', 00H, 't', 00H
	DB	' ', 00H, '&', 00H, ' ', 00H, '(', 00H, '1', 00H, ' ', 00H, '<'
	DB	00H, '<', 00H, ' ', 00H, 'l', 00H, 'a', 00H, 'y', 00H, 'e', 00H
	DB	'r', 00H, ')', 00H, 00H, 00H			; `string'
CONST	ENDS
;	COMDAT ??_C@_09FHPMMDGK@?$CD?$CDmenubar@
CONST	SEGMENT
??_C@_09FHPMMDGK@?$CD?$CDmenubar@ DB '##menubar', 00H	; `string'
CONST	ENDS
;	COMDAT ??_C@_1DK@MIADNLCN@?$AA?$CB?$AAw?$AAi?$AAn?$AAd?$AAo?$AAw?$AA?9?$AA?$DO?$AAD?$AAC?$AA?4?$AAM?$AAe?$AAn@
CONST	SEGMENT
??_C@_1DK@MIADNLCN@?$AA?$CB?$AAw?$AAi?$AAn?$AAd?$AAo?$AAw?$AA?9?$AA?$DO?$AAD?$AAC?$AA?4?$AAM?$AAe?$AAn@ DB '!'
	DB	00H, 'w', 00H, 'i', 00H, 'n', 00H, 'd', 00H, 'o', 00H, 'w', 00H
	DB	'-', 00H, '>', 00H, 'D', 00H, 'C', 00H, '.', 00H, 'M', 00H, 'e'
	DB	00H, 'n', 00H, 'u', 00H, 'B', 00H, 'a', 00H, 'r', 00H, 'A', 00H
	DB	'p', 00H, 'p', 00H, 'e', 00H, 'n', 00H, 'd', 00H, 'i', 00H, 'n'
	DB	00H, 'g', 00H, 00H, 00H			; `string'
CONST	ENDS
;	COMDAT ??_C@_1FK@BNPKANMO@?$AAc?$AAo?$AAu?$AAn?$AAt?$AA?5?$AA?$DN?$AA?$DN?$AA?5?$AA?$CI?$AA?$CI?$AAi?$AAn?$AAt?$AA?$CJ@
CONST	SEGMENT
??_C@_1FK@BNPKANMO@?$AAc?$AAo?$AAu?$AAn?$AAt?$AA?5?$AA?$DN?$AA?$DN?$AA?5?$AA?$CI?$AA?$CI?$AAi?$AAn?$AAt?$AA?$CJ@ DB 'c'
	DB	00H, 'o', 00H, 'u', 00H, 'n', 00H, 't', 00H, ' ', 00H, '=', 00H
	DB	'=', 00H, ' ', 00H, '(', 00H, '(', 00H, 'i', 00H, 'n', 00H, 't'
	DB	00H, ')', 00H, '(', 00H, 's', 00H, 'i', 00H, 'z', 00H, 'e', 00H
	DB	'o', 00H, 'f', 00H, '(', 00H, 'P', 00H, 'o', 00H, 's', 00H, ')'
	DB	00H, ' ', 00H, '/', 00H, ' ', 00H, 's', 00H, 'i', 00H, 'z', 00H
	DB	'e', 00H, 'o', 00H, 'f', 00H, '(', 00H, '*', 00H, 'P', 00H, 'o'
	DB	00H, 's', 00H, ')', 00H, ')', 00H, ')', 00H, 00H, 00H ; `string'
CONST	ENDS
;	COMDAT ??_C@_08KELGKKHF@?$CFs?3?5?$CF?43f@
CONST	SEGMENT
??_C@_08KELGKKHF@?$CFs?3?5?$CF?43f@ DB '%s: %.3f', 00H	; `string'
CONST	ENDS
;	COMDAT ??_C@_07EKEPIENH@?$CF?$CFs?3?5?$CFs@
CONST	SEGMENT
??_C@_07EKEPIENH@?$CF?$CFs?3?5?$CFs@ DB '%%s: %s', 00H	; `string'
CONST	ENDS
;	COMDAT ??_C@_06GBEGMGE@?$CFs?3?5?$CFd@
CONST	SEGMENT
??_C@_06GBEGMGE@?$CFs?3?5?$CFd@ DB '%s: %d', 00H	; `string'
CONST	ENDS
;	COMDAT ??_C@_06DJHOIPC@?$CFs?3?5?$CFs@
CONST	SEGMENT
??_C@_06DJHOIPC@?$CFs?3?5?$CFs@ DB '%s: %s', 00H	; `string'
CONST	ENDS
;	COMDAT ??_C@_05LAPONLG@false@
CONST	SEGMENT
??_C@_05LAPONLG@false@ DB 'false', 00H			; `string'
CONST	ENDS
;	COMDAT ??_C@_04LOAJBDKD@true@
CONST	SEGMENT
??_C@_04LOAJBDKD@true@ DB 'true', 00H			; `string'
CONST	ENDS
;	COMDAT ??_C@_1EK@JIGPMMPH@?$AAv?$AA1?$AA_?$AAi?$AAd?$AAx?$AA?5?$AA?$DO?$AA?$DN?$AA?5?$AA0?$AA?5?$AA?$CG?$AA?$CG?$AA?5@
CONST	SEGMENT
??_C@_1EK@JIGPMMPH@?$AAv?$AA1?$AA_?$AAi?$AAd?$AAx?$AA?5?$AA?$DO?$AA?$DN?$AA?5?$AA0?$AA?5?$AA?$CG?$AA?$CG?$AA?5@ DB 'v'
	DB	00H, '1', 00H, '_', 00H, 'i', 00H, 'd', 00H, 'x', 00H, ' ', 00H
	DB	'>', 00H, '=', 00H, ' ', 00H, '0', 00H, ' ', 00H, '&', 00H, '&'
	DB	00H, ' ', 00H, 'v', 00H, '1', 00H, '_', 00H, 'i', 00H, 'd', 00H
	DB	'x', 00H, ' ', 00H, '<', 00H, ' ', 00H, 'v', 00H, 'a', 00H, 'l'
	DB	00H, 'u', 00H, 'e', 00H, 's', 00H, '_', 00H, 'c', 00H, 'o', 00H
	DB	'u', 00H, 'n', 00H, 't', 00H, 00H, 00H	; `string'
CONST	ENDS
;	COMDAT ??_C@_09OADNPGHP@?$CFd?3?5?$CF8?44g@
CONST	SEGMENT
??_C@_09OADNPGHP@?$CFd?3?5?$CF8?44g@ DB '%d: %8.4g', 00H ; `string'
CONST	ENDS
;	COMDAT ??_C@_0BE@OBCBLNMM@?$CFd?3?5?$CF8?44g?6?$CFd?3?5?$CF8?44g@
CONST	SEGMENT
??_C@_0BE@OBCBLNMM@?$CFd?3?5?$CF8?44g?6?$CFd?3?5?$CF8?44g@ DB '%d: %8.4g', 0aH
	DB	'%d: %8.4g', 00H				; `string'
CONST	ENDS
;	COMDAT ??_C@_1EG@HCGMCBDC@?$AAv?$AA_?$AAi?$AAd?$AAx?$AA?5?$AA?$DO?$AA?$DN?$AA?5?$AA0?$AA?5?$AA?$CG?$AA?$CG?$AA?5?$AAv@
CONST	SEGMENT
??_C@_1EG@HCGMCBDC@?$AAv?$AA_?$AAi?$AAd?$AAx?$AA?5?$AA?$DO?$AA?$DN?$AA?5?$AA0?$AA?5?$AA?$CG?$AA?$CG?$AA?5?$AAv@ DB 'v'
	DB	00H, '_', 00H, 'i', 00H, 'd', 00H, 'x', 00H, ' ', 00H, '>', 00H
	DB	'=', 00H, ' ', 00H, '0', 00H, ' ', 00H, '&', 00H, '&', 00H, ' '
	DB	00H, 'v', 00H, '_', 00H, 'i', 00H, 'd', 00H, 'x', 00H, ' ', 00H
	DB	'<', 00H, ' ', 00H, 'v', 00H, 'a', 00H, 'l', 00H, 'u', 00H, 'e'
	DB	00H, 's', 00H, '_', 00H, 'c', 00H, 'o', 00H, 'u', 00H, 'n', 00H
	DB	't', 00H, 00H, 00H				; `string'
CONST	ENDS
;	COMDAT ??_C@_1DC@KOOPJPAL@?$AAw?$AAi?$AAn?$AAd?$AAo?$AAw?$AA?9?$AA?$DO?$AAI?$AAD?$AAS?$AAt?$AAa?$AAc?$AAk@
CONST	SEGMENT
??_C@_1DC@KOOPJPAL@?$AAw?$AAi?$AAn?$AAd?$AAo?$AAw?$AA?9?$AA?$DO?$AAI?$AAD?$AAS?$AAt?$AAa?$AAc?$AAk@ DB 'w'
	DB	00H, 'i', 00H, 'n', 00H, 'd', 00H, 'o', 00H, 'w', 00H, '-', 00H
	DB	'>', 00H, 'I', 00H, 'D', 00H, 'S', 00H, 't', 00H, 'a', 00H, 'c'
	DB	00H, 'k', 00H, '.', 00H, 'S', 00H, 'i', 00H, 'z', 00H, 'e', 00H
	DB	' ', 00H, '>', 00H, ' ', 00H, '1', 00H, 00H, 00H ; `string'
CONST	ENDS
;	COMDAT ??_C@_09GHACPMKF@?$CDTreePush@
CONST	SEGMENT
??_C@_09GHACPMKF@?$CDTreePush@ DB '#TreePush', 00H	; `string'
CONST	ENDS
;	COMDAT ??_C@_01PPODPGHN@?$DO@
CONST	SEGMENT
??_C@_01PPODPGHN@?$DO@ DB '>', 00H			; `string'
CONST	ENDS
;	COMDAT ??_C@_02IEBMKJDF@?$CD?$CD@
CONST	SEGMENT
??_C@_02IEBMKJDF@?$CD?$CD@ DB '##', 00H			; `string'
CONST	ENDS
;	COMDAT ??_C@_1GM@OMMPBCGC@?$AAb?$AAu?$AAt?$AAt?$AAo?$AAn?$AA_?$AAf?$AAl?$AAa?$AAg?$AAs?$AA?5?$AA?$CG?$AA?5@
CONST	SEGMENT
??_C@_1GM@OMMPBCGC@?$AAb?$AAu?$AAt?$AAt?$AAo?$AAn?$AA_?$AAf?$AAl?$AAa?$AAg?$AAs?$AA?5?$AA?$CG?$AA?5@ DB 'b'
	DB	00H, 'u', 00H, 't', 00H, 't', 00H, 'o', 00H, 'n', 00H, '_', 00H
	DB	'f', 00H, 'l', 00H, 'a', 00H, 'g', 00H, 's', 00H, ' ', 00H, '&'
	DB	00H, ' ', 00H, 'I', 00H, 'm', 00H, 'G', 00H, 'u', 00H, 'i', 00H
	DB	'B', 00H, 'u', 00H, 't', 00H, 't', 00H, 'o', 00H, 'n', 00H, 'F'
	DB	00H, 'l', 00H, 'a', 00H, 'g', 00H, 's', 00H, '_', 00H, 'P', 00H
	DB	'r', 00H, 'e', 00H, 's', 00H, 's', 00H, 'e', 00H, 'd', 00H, 'O'
	DB	00H, 'n', 00H, 'D', 00H, 'r', 00H, 'a', 00H, 'g', 00H, 'D', 00H
	DB	'r', 00H, 'o', 00H, 'p', 00H, 'H', 00H, 'o', 00H, 'l', 00H, 'd'
	DB	00H, 00H, 00H				; `string'
CONST	ENDS
;	COMDAT ??_C@_09KEDLMDJL@Alpha?5Bar@
CONST	SEGMENT
??_C@_09KEDLMDJL@Alpha?5Bar@ DB 'Alpha Bar', 00H	; `string'
CONST	ENDS
;	COMDAT ??_C@_0O@KNMNNHNH@?$CD?$CDdummypicker@
CONST	SEGMENT
??_C@_0O@KNMNNHNH@?$CD?$CDdummypicker@ DB '##dummypicker', 00H ; `string'
CONST	ENDS
;	COMDAT ??_C@_0N@KFBFGFJL@?$CD?$CDselectable@
CONST	SEGMENT
??_C@_0N@KFBFGFJL@?$CD?$CDselectable@ DB '##selectable', 00H ; `string'
CONST	ENDS
;	COMDAT ??_C@_0O@EJHNAHBL@?$CI?$CFd?0?$CFd?0?$CFd?0?$CFd?$CJ@
CONST	SEGMENT
??_C@_0O@EJHNAHBL@?$CI?$CFd?0?$CFd?0?$CFd?0?$CFd?$CJ@ DB '(%d,%d,%d,%d)', 00H ; `string'
CONST	ENDS
;	COMDAT ??_C@_0BN@GKCJMPCH@?$CI?$CF?43ff?0?5?$CF?43ff?0?5?$CF?43ff?0?5?$CF?43ff?$CJ@
CONST	SEGMENT
??_C@_0BN@GKCJMPCH@?$CI?$CF?43ff?0?5?$CF?43ff?0?5?$CF?43ff?0?5?$CF?43ff?$CJ@ DB '('
	DB	'%.3ff, %.3ff, %.3ff, %.3ff)', 00H		; `string'
CONST	ENDS
;	COMDAT ??_C@_04OPMHGHMB@Copy@
CONST	SEGMENT
??_C@_04OPMHGHMB@Copy@ DB 'Copy', 00H			; `string'
CONST	ENDS
;	COMDAT ??_C@_09NMCCFHEI@Copy?5as?4?4@
CONST	SEGMENT
