; Listing generated by Microsoft (R) Optimizing Compiler Version 19.23.28106.4 

include listing.inc

INCLUDELIB MSVCRT
INCLUDELIB OLDNAMES

PUBLIC	?GImGui@@3PEAUImGuiContext@@EA			; GImGui
PUBLIC	?EmptyString@ImGuiTextBuffer@@2PADA		; ImGuiTextBuffer::EmptyString
_BSS	SEGMENT
?GImGui@@3PEAUImGuiContext@@EA DQ 01H DUP (?)		; GImGui
?EmptyString@ImGuiTextBuffer@@2PADA DB 01H DUP (?)	; ImGuiTextBuffer::EmptyString
_BSS	ENDS
CONST	SEGMENT
?GCrc32LookupTable@@3QBIB DD 00H			; GCrc32LookupTable
	DD	077073096H
	DD	0ee0e612cH
	DD	0990951baH
	DD	076dc419H
	DD	0706af48fH
	DD	0e963a535H
	DD	09e6495a3H
	DD	0edb8832H
	DD	079dcb8a4H
	DD	0e0d5e91eH
	DD	097d2d988H
	DD	09b64c2bH
	DD	07eb17cbdH
	DD	0e7b82d07H
	DD	090bf1d91H
	DD	01db71064H
	DD	06ab020f2H
	DD	0f3b97148H
	DD	084be41deH
	DD	01adad47dH
	DD	06ddde4ebH
	DD	0f4d4b551H
	DD	083d385c7H
	DD	0136c9856H
	DD	0646ba8c0H
	DD	0fd62f97aH
	DD	08a65c9ecH
	DD	014015c4fH
	DD	063066cd9H
	DD	0fa0f3d63H
	DD	08d080df5H
	DD	03b6e20c8H
	DD	04c69105eH
	DD	0d56041e4H
	DD	0a2677172H
	DD	03c03e4d1H
	DD	04b04d447H
	DD	0d20d85fdH
	DD	0a50ab56bH
	DD	035b5a8faH
	DD	042b2986cH
	DD	0dbbbc9d6H
	DD	0acbcf940H
	DD	032d86ce3H
	DD	045df5c75H
	DD	0dcd60dcfH
	DD	0abd13d59H
	DD	026d930acH
	DD	051de003aH
	DD	0c8d75180H
	DD	0bfd06116H
	DD	021b4f4b5H
	DD	056b3c423H
	DD	0cfba9599H
	DD	0b8bda50fH
	DD	02802b89eH
	DD	05f058808H
	DD	0c60cd9b2H
	DD	0b10be924H
	DD	02f6f7c87H
	DD	058684c11H
	DD	0c1611dabH
	DD	0b6662d3dH
	DD	076dc4190H
	DD	01db7106H
	DD	098d220bcH
	DD	0efd5102aH
	DD	071b18589H
	DD	06b6b51fH
	DD	09fbfe4a5H
	DD	0e8b8d433H
	DD	07807c9a2H
	DD	0f00f934H
	DD	09609a88eH
	DD	0e10e9818H
	DD	07f6a0dbbH
	DD	086d3d2dH
	DD	091646c97H
	DD	0e6635c01H
	DD	06b6b51f4H
	DD	01c6c6162H
	DD	0856530d8H
	DD	0f262004eH
	DD	06c0695edH
	DD	01b01a57bH
	DD	08208f4c1H
	DD	0f50fc457H
	DD	065b0d9c6H
	DD	012b7e950H
	DD	08bbeb8eaH
	DD	0fcb9887cH
	DD	062dd1ddfH
	DD	015da2d49H
	DD	08cd37cf3H
	DD	0fbd44c65H
	DD	04db26158H
	DD	03ab551ceH
	DD	0a3bc0074H
	DD	0d4bb30e2H
	DD	04adfa541H
	DD	03dd895d7H
	DD	0a4d1c46dH
	DD	0d3d6f4fbH
	DD	04369e96aH
	DD	0346ed9fcH
	DD	0ad678846H
	DD	0da60b8d0H
	DD	044042d73H
	DD	033031de5H
	DD	0aa0a4c5fH
	DD	0dd0d7cc9H
	DD	05005713cH
	DD	0270241aaH
	DD	0be0b1010H
	DD	0c90c2086H
	DD	05768b525H
	DD	0206f85b3H
	DD	0b966d409H
	DD	0ce61e49fH
	DD	05edef90eH
	DD	029d9c998H
	DD	0b0d09822H
	DD	0c7d7a8b4H
	DD	059b33d17H
	DD	02eb40d81H
	DD	0b7bd5c3bH
	DD	0c0ba6cadH
	DD	0edb88320H
	DD	09abfb3b6H
	DD	03b6e20cH
	DD	074b1d29aH
	DD	0ead54739H
	DD	09dd277afH
	DD	04db2615H
	DD	073dc1683H
	DD	0e3630b12H
	DD	094643b84H
	DD	0d6d6a3eH
	DD	07a6a5aa8H
	DD	0e40ecf0bH
	DD	09309ff9dH
	DD	0a00ae27H
	DD	07d079eb1H
	DD	0f00f9344H
	DD	08708a3d2H
	DD	01e01f268H
	DD	06906c2feH
	DD	0f762575dH
	DD	0806567cbH
	DD	0196c3671H
	DD	06e6b06e7H
	DD	0fed41b76H
	DD	089d32be0H
	DD	010da7a5aH
	DD	067dd4accH
	DD	0f9b9df6fH
	DD	08ebeeff9H
	DD	017b7be43H
	DD	060b08ed5H
	DD	0d6d6a3e8H
	DD	0a1d1937eH
	DD	038d8c2c4H
	DD	04fdff252H
	DD	0d1bb67f1H
	DD	0a6bc5767H
	DD	03fb506ddH
	DD	048b2364bH
	DD	0d80d2bdaH
	DD	0af0a1b4cH
	DD	036034af6H
	DD	041047a60H
	DD	0df60efc3H
	DD	0a867df55H
	DD	0316e8eefH
	DD	04669be79H
	DD	0cb61b38cH
	DD	0bc66831aH
	DD	0256fd2a0H
	DD	05268e236H
	DD	0cc0c7795H
	DD	0bb0b4703H
	DD	0220216b9H
	DD	05505262fH
	DD	0c5ba3bbeH
	DD	0b2bd0b28H
	DD	02bb45a92H
	DD	05cb36a04H
	DD	0c2d7ffa7H
	DD	0b5d0cf31H
	DD	02cd99e8bH
	DD	05bdeae1dH
	DD	09b64c2b0H
	DD	0ec63f226H
	DD	0756aa39cH
	DD	026d930aH
	DD	09c0906a9H
	DD	0eb0e363fH
	DD	072076785H
	DD	05005713H
	DD	095bf4a82H
	DD	0e2b87a14H
	DD	07bb12baeH
	DD	0cb61b38H
	DD	092d28e9bH
	DD	0e5d5be0dH
	DD	07cdcefb7H
	DD	0bdbdf21H
	DD	086d3d2d4H
	DD	0f1d4e242H
	DD	068ddb3f8H
	DD	01fda836eH
	DD	081be16cdH
	DD	0f6b9265bH
	DD	06fb077e1H
	DD	018b74777H
	DD	088085ae6H
	DD	0ff0f6a70H
	DD	066063bcaH
	DD	011010b5cH
	DD	08f659effH
	DD	0f862ae69H
	DD	0616bffd3H
	DD	0166ccf45H
	DD	0a00ae278H
	DD	0d70dd2eeH
	DD	04e048354H
	DD	03903b3c2H
	DD	0a7672661H
	DD	0d06016f7H
	DD	04969474dH
	DD	03e6e77dbH
	DD	0aed16a4aH
	DD	0d9d65adcH
	DD	040df0b66H
	DD	037d83bf0H
	DD	0a9bcae53H
	DD	0debb9ec5H
	DD	047b2cf7fH
	DD	030b5ffe9H
	DD	0bdbdf21cH
	DD	0cabac28aH
	DD	053b39330H
	DD	024b4a3a6H
	DD	0bad03605H
	DD	0cdd70693H
	DD	054de5729H
	DD	023d967bfH
	DD	0b3667a2eH
	DD	0c4614ab8H
	DD	05d681b02H
	DD	02a6f2b94H
	DD	0b40bbe37H
	DD	0c30c8ea1H
	DD	05a05df1bH
	DD	02d02ef8dH
?GStyleVarInfo@@3QBUImGuiStyleVarInfo@@B DD 08H		; GStyleVarInfo
	DD	01H
	DD	00H
	DD	08H
	DD	02H
	DD	04H
	DD	08H
	DD	01H
	DD	0cH
	DD	08H
	DD	01H
	DD	010H
	DD	08H
	DD	02H
	DD	014H
	DD	08H
	DD	02H
	DD	01cH
	DD	08H
	DD	01H
	DD	028H
	DD	08H
	DD	01H
	DD	02cH
	DD	08H
	DD	01H
	DD	030H
	DD	08H
	DD	01H
	DD	034H
	DD	08H
	DD	02H
	DD	038H
	DD	08H
	DD	01H
	DD	040H
	DD	08H
	DD	01H
	DD	044H
	DD	08H
	DD	02H
	DD	048H
	DD	08H
	DD	02H
	DD	050H
	DD	08H
	DD	01H
	DD	060H
	DD	08H
	DD	01H
	DD	068H
	DD	08H
	DD	01H
	DD	06cH
	DD	08H
	DD	01H
	DD	070H
	DD	08H
	DD	01H
	DD	074H
	DD	08H
	DD	01H
	DD	078H
	DD	08H
	DD	02H
	DD	088H
	DD	08H
	DD	02H
	DD	090H
CONST	ENDS
PUBLIC	??_H@YAXPEAX_K1P6APEAX0@Z@Z			; `vector constructor iterator'
PUBLIC	??0ImVec2@@QEAA@XZ				; ImVec2::ImVec2
PUBLIC	??0ImVec2@@QEAA@MM@Z				; ImVec2::ImVec2
PUBLIC	??0ImVec4@@QEAA@XZ				; ImVec4::ImVec4
PUBLIC	??0ImVec4@@QEAA@MMMM@Z				; ImVec4::ImVec4
PUBLIC	?CreateContext@ImGui@@YAPEAUImGuiContext@@PEAUImFontAtlas@@@Z ; ImGui::CreateContext
PUBLIC	?DestroyContext@ImGui@@YAXPEAUImGuiContext@@@Z	; ImGui::DestroyContext
PUBLIC	?GetCurrentContext@ImGui@@YAPEAUImGuiContext@@XZ ; ImGui::GetCurrentContext
PUBLIC	?SetCurrentContext@ImGui@@YAXPEAUImGuiContext@@@Z ; ImGui::SetCurrentContext
PUBLIC	?GetIO@ImGui@@YAAEAUImGuiIO@@XZ			; ImGui::GetIO
PUBLIC	?GetStyle@ImGui@@YAAEAUImGuiStyle@@XZ		; ImGui::GetStyle
PUBLIC	?NewFrame@ImGui@@YAXXZ				; ImGui::NewFrame
PUBLIC	?EndFrame@ImGui@@YAXXZ				; ImGui::EndFrame
PUBLIC	?Render@ImGui@@YAXXZ				; ImGui::Render
PUBLIC	?GetDrawData@ImGui@@YAPEAUImDrawData@@XZ	; ImGui::GetDrawData
PUBLIC	?ShowMetricsWindow@ImGui@@YAXPEA_N@Z		; ImGui::ShowMetricsWindow
PUBLIC	?GetVersion@ImGui@@YAPEBDXZ			; ImGui::GetVersion
PUBLIC	?Begin@ImGui@@YA_NPEBDPEA_NH@Z			; ImGui::Begin
PUBLIC	?End@ImGui@@YAXXZ				; ImGui::End
PUBLIC	?BeginChild@ImGui@@YA_NPEBDAEBUImVec2@@_NH@Z	; ImGui::BeginChild
PUBLIC	?BeginChild@ImGui@@YA_NIAEBUImVec2@@_NH@Z	; ImGui::BeginChild
PUBLIC	?EndChild@ImGui@@YAXXZ				; ImGui::EndChild
PUBLIC	?IsWindowAppearing@ImGui@@YA_NXZ		; ImGui::IsWindowAppearing
PUBLIC	?IsWindowCollapsed@ImGui@@YA_NXZ		; ImGui::IsWindowCollapsed
PUBLIC	?IsWindowFocused@ImGui@@YA_NH@Z			; ImGui::IsWindowFocused
PUBLIC	?IsWindowHovered@ImGui@@YA_NH@Z			; ImGui::IsWindowHovered
PUBLIC	?GetWindowDrawList@ImGui@@YAPEAUImDrawList@@XZ	; ImGui::GetWindowDrawList
PUBLIC	?GetWindowPos@ImGui@@YA?AUImVec2@@XZ		; ImGui::GetWindowPos
PUBLIC	?GetWindowSize@ImGui@@YA?AUImVec2@@XZ		; ImGui::GetWindowSize
PUBLIC	?GetWindowWidth@ImGui@@YAMXZ			; ImGui::GetWindowWidth
PUBLIC	?GetWindowHeight@ImGui@@YAMXZ			; ImGui::GetWindowHeight
PUBLIC	?SetNextWindowPos@ImGui@@YAXAEBUImVec2@@H0@Z	; ImGui::SetNextWindowPos
PUBLIC	?SetNextWindowSize@ImGui@@YAXAEBUImVec2@@H@Z	; ImGui::SetNextWindowSize
PUBLIC	?SetNextWindowSizeConstraints@ImGui@@YAXAEBUImVec2@@0P6AXPEAUImGuiSizeCallbackData@@@ZPEAX@Z ; ImGui::SetNextWindowSizeConstraints
PUBLIC	?SetNextWindowContentSize@ImGui@@YAXAEBUImVec2@@@Z ; ImGui::SetNextWindowContentSize
PUBLIC	?SetNextWindowCollapsed@ImGui@@YAX_NH@Z		; ImGui::SetNextWindowCollapsed
PUBLIC	?SetNextWindowFocus@ImGui@@YAXXZ		; ImGui::SetNextWindowFocus
PUBLIC	?SetNextWindowBgAlpha@ImGui@@YAXM@Z		; ImGui::SetNextWindowBgAlpha
PUBLIC	?SetWindowPos@ImGui@@YAXAEBUImVec2@@H@Z		; ImGui::SetWindowPos
PUBLIC	?SetWindowSize@ImGui@@YAXAEBUImVec2@@H@Z	; ImGui::SetWindowSize
PUBLIC	?SetWindowCollapsed@ImGui@@YAX_NH@Z		; ImGui::SetWindowCollapsed
PUBLIC	?SetWindowFocus@ImGui@@YAXXZ			; ImGui::SetWindowFocus
PUBLIC	?SetWindowFontScale@ImGui@@YAXM@Z		; ImGui::SetWindowFontScale
PUBLIC	?SetWindowPos@ImGui@@YAXPEBDAEBUImVec2@@H@Z	; ImGui::SetWindowPos
PUBLIC	?SetWindowSize@ImGui@@YAXPEBDAEBUImVec2@@H@Z	; ImGui::SetWindowSize
PUBLIC	?SetWindowCollapsed@ImGui@@YAXPEBD_NH@Z		; ImGui::SetWindowCollapsed
PUBLIC	?SetWindowFocus@ImGui@@YAXPEBD@Z		; ImGui::SetWindowFocus
PUBLIC	?GetContentRegionMax@ImGui@@YA?AUImVec2@@XZ	; ImGui::GetContentRegionMax
PUBLIC	?GetContentRegionAvail@ImGui@@YA?AUImVec2@@XZ	; ImGui::GetContentRegionAvail
PUBLIC	?GetWindowContentRegionMin@ImGui@@YA?AUImVec2@@XZ ; ImGui::GetWindowContentRegionMin
PUBLIC	?GetWindowContentRegionMax@ImGui@@YA?AUImVec2@@XZ ; ImGui::GetWindowContentRegionMax
PUBLIC	?GetWindowContentRegionWidth@ImGui@@YAMXZ	; ImGui::GetWindowContentRegionWidth
PUBLIC	?GetScrollX@ImGui@@YAMXZ			; ImGui::GetScrollX
PUBLIC	?GetScrollY@ImGui@@YAMXZ			; ImGui::GetScrollY
PUBLIC	?GetScrollMaxX@ImGui@@YAMXZ			; ImGui::GetScrollMaxX
PUBLIC	?GetScrollMaxY@ImGui@@YAMXZ			; ImGui::GetScrollMaxY
PUBLIC	?SetScrollX@ImGui@@YAXM@Z			; ImGui::SetScrollX
PUBLIC	?SetScrollY@ImGui@@YAXM@Z			; ImGui::SetScrollY
PUBLIC	?SetScrollHereX@ImGui@@YAXM@Z			; ImGui::SetScrollHereX
PUBLIC	?SetScrollHereY@ImGui@@YAXM@Z			; ImGui::SetScrollHereY
PUBLIC	?SetScrollFromPosX@ImGui@@YAXMM@Z		; ImGui::SetScrollFromPosX
PUBLIC	?SetScrollFromPosY@ImGui@@YAXMM@Z		; ImGui::SetScrollFromPosY
PUBLIC	?PushFont@ImGui@@YAXPEAUImFont@@@Z		; ImGui::PushFont
PUBLIC	?PopFont@ImGui@@YAXXZ				; ImGui::PopFont
PUBLIC	?PushStyleColor@ImGui@@YAXHI@Z			; ImGui::PushStyleColor
PUBLIC	?PushStyleColor@ImGui@@YAXHAEBUImVec4@@@Z	; ImGui::PushStyleColor
PUBLIC	?PopStyleColor@ImGui@@YAXH@Z			; ImGui::PopStyleColor
PUBLIC	?PushStyleVar@ImGui@@YAXHM@Z			; ImGui::PushStyleVar
PUBLIC	?PushStyleVar@ImGui@@YAXHAEBUImVec2@@@Z		; ImGui::PushStyleVar
PUBLIC	?PopStyleVar@ImGui@@YAXH@Z			; ImGui::PopStyleVar
PUBLIC	?GetStyleColorVec4@ImGui@@YAAEBUImVec4@@H@Z	; ImGui::GetStyleColorVec4
PUBLIC	?GetFont@ImGui@@YAPEAUImFont@@XZ		; ImGui::GetFont
PUBLIC	?GetFontSize@ImGui@@YAMXZ			; ImGui::GetFontSize
PUBLIC	?GetFontTexUvWhitePixel@ImGui@@YA?AUImVec2@@XZ	; ImGui::GetFontTexUvWhitePixel
PUBLIC	?GetColorU32@ImGui@@YAIHM@Z			; ImGui::GetColorU32
PUBLIC	?GetColorU32@ImGui@@YAIAEBUImVec4@@@Z		; ImGui::GetColorU32
PUBLIC	?GetColorU32@ImGui@@YAII@Z			; ImGui::GetColorU32
PUBLIC	?PushItemWidth@ImGui@@YAXM@Z			; ImGui::PushItemWidth
PUBLIC	?PopItemWidth@ImGui@@YAXXZ			; ImGui::PopItemWidth
PUBLIC	?SetNextItemWidth@ImGui@@YAXM@Z			; ImGui::SetNextItemWidth
PUBLIC	?CalcItemWidth@ImGui@@YAMXZ			; ImGui::CalcItemWidth
PUBLIC	?PushTextWrapPos@ImGui@@YAXM@Z			; ImGui::PushTextWrapPos
PUBLIC	?PopTextWrapPos@ImGui@@YAXXZ			; ImGui::PopTextWrapPos
PUBLIC	?PushAllowKeyboardFocus@ImGui@@YAX_N@Z		; ImGui::PushAllowKeyboardFocus
PUBLIC	?PopAllowKeyboardFocus@ImGui@@YAXXZ		; ImGui::PopAllowKeyboardFocus
PUBLIC	?PushButtonRepeat@ImGui@@YAX_N@Z		; ImGui::PushButtonRepeat
PUBLIC	?PopButtonRepeat@ImGui@@YAXXZ			; ImGui::PopButtonRepeat
PUBLIC	?SameLine@ImGui@@YAXMM@Z			; ImGui::SameLine
PUBLIC	?Indent@ImGui@@YAXM@Z				; ImGui::Indent
PUBLIC	?Unindent@ImGui@@YAXM@Z				; ImGui::Unindent
PUBLIC	?BeginGroup@ImGui@@YAXXZ			; ImGui::BeginGroup
PUBLIC	?EndGroup@ImGui@@YAXXZ				; ImGui::EndGroup
PUBLIC	?GetCursorPos@ImGui@@YA?AUImVec2@@XZ		; ImGui::GetCursorPos
PUBLIC	?GetCursorPosX@ImGui@@YAMXZ			; ImGui::GetCursorPosX
PUBLIC	?GetCursorPosY@ImGui@@YAMXZ			; ImGui::GetCursorPosY
PUBLIC	?SetCursorPos@ImGui@@YAXAEBUImVec2@@@Z		; ImGui::SetCursorPos
PUBLIC	?SetCursorPosX@ImGui@@YAXM@Z			; ImGui::SetCursorPosX
PUBLIC	?SetCursorPosY@ImGui@@YAXM@Z			; ImGui::SetCursorPosY
PUBLIC	?GetCursorStartPos@ImGui@@YA?AUImVec2@@XZ	; ImGui::GetCursorStartPos
PUBLIC	?GetCursorScreenPos@ImGui@@YA?AUImVec2@@XZ	; ImGui::GetCursorScreenPos
PUBLIC	?SetCursorScreenPos@ImGui@@YAXAEBUImVec2@@@Z	; ImGui::SetCursorScreenPos
PUBLIC	?GetTextLineHeight@ImGui@@YAMXZ			; ImGui::GetTextLineHeight
PUBLIC	?GetTextLineHeightWithSpacing@ImGui@@YAMXZ	; ImGui::GetTextLineHeightWithSpacing
PUBLIC	?GetFrameHeight@ImGui@@YAMXZ			; ImGui::GetFrameHeight
PUBLIC	?GetFrameHeightWithSpacing@ImGui@@YAMXZ		; ImGui::GetFrameHeightWithSpacing
PUBLIC	?PushID@ImGui@@YAXPEBD@Z			; ImGui::PushID
PUBLIC	?PushID@ImGui@@YAXPEBD0@Z			; ImGui::PushID
PUBLIC	?PushID@ImGui@@YAXPEBX@Z			; ImGui::PushID
PUBLIC	?PushID@ImGui@@YAXH@Z				; ImGui::PushID
PUBLIC	?PopID@ImGui@@YAXXZ				; ImGui::PopID
PUBLIC	?GetID@ImGui@@YAIPEBD@Z				; ImGui::GetID
PUBLIC	?GetID@ImGui@@YAIPEBD0@Z			; ImGui::GetID
PUBLIC	?GetID@ImGui@@YAIPEBX@Z				; ImGui::GetID
PUBLIC	?BeginTooltip@ImGui@@YAXXZ			; ImGui::BeginTooltip
PUBLIC	?EndTooltip@ImGui@@YAXXZ			; ImGui::EndTooltip
PUBLIC	?SetTooltip@ImGui@@YAXPEBDZZ			; ImGui::SetTooltip
PUBLIC	?SetTooltipV@ImGui@@YAXPEBDPEAD@Z		; ImGui::SetTooltipV
PUBLIC	?OpenPopup@ImGui@@YAXPEBD@Z			; ImGui::OpenPopup
PUBLIC	?BeginPopup@ImGui@@YA_NPEBDH@Z			; ImGui::BeginPopup
PUBLIC	?BeginPopupContextItem@ImGui@@YA_NPEBDH@Z	; ImGui::BeginPopupContextItem
PUBLIC	?BeginPopupContextWindow@ImGui@@YA_NPEBDH_N@Z	; ImGui::BeginPopupContextWindow
PUBLIC	?BeginPopupContextVoid@ImGui@@YA_NPEBDH@Z	; ImGui::BeginPopupContextVoid
PUBLIC	?BeginPopupModal@ImGui@@YA_NPEBDPEA_NH@Z	; ImGui::BeginPopupModal
PUBLIC	?EndPopup@ImGui@@YAXXZ				; ImGui::EndPopup
PUBLIC	?OpenPopupOnItemClick@ImGui@@YA_NPEBDH@Z	; ImGui::OpenPopupOnItemClick
PUBLIC	?IsPopupOpen@ImGui@@YA_NPEBD@Z			; ImGui::IsPopupOpen
PUBLIC	?CloseCurrentPopup@ImGui@@YAXXZ			; ImGui::CloseCurrentPopup
PUBLIC	?LogToTTY@ImGui@@YAXH@Z				; ImGui::LogToTTY
PUBLIC	?LogToFile@ImGui@@YAXHPEBD@Z			; ImGui::LogToFile
PUBLIC	?LogToClipboard@ImGui@@YAXH@Z			; ImGui::LogToClipboard
PUBLIC	?LogFinish@ImGui@@YAXXZ				; ImGui::LogFinish
PUBLIC	?LogButtons@ImGui@@YAXXZ			; ImGui::LogButtons
PUBLIC	?LogText@ImGui@@YAXPEBDZZ			; ImGui::LogText
PUBLIC	?BeginDragDropSource@ImGui@@YA_NH@Z		; ImGui::BeginDragDropSource
PUBLIC	?SetDragDropPayload@ImGui@@YA_NPEBDPEBX_KH@Z	; ImGui::SetDragDropPayload
PUBLIC	?EndDragDropSource@ImGui@@YAXXZ			; ImGui::EndDragDropSource
PUBLIC	?BeginDragDropTarget@ImGui@@YA_NXZ		; ImGui::BeginDragDropTarget
PUBLIC	?AcceptDragDropPayload@ImGui@@YAPEBUImGuiPayload@@PEBDH@Z ; ImGui::AcceptDragDropPayload
PUBLIC	?EndDragDropTarget@ImGui@@YAXXZ			; ImGui::EndDragDropTarget
PUBLIC	?GetDragDropPayload@ImGui@@YAPEBUImGuiPayload@@XZ ; ImGui::GetDragDropPayload
PUBLIC	?PushClipRect@ImGui@@YAXAEBUImVec2@@0_N@Z	; ImGui::PushClipRect
PUBLIC	?PopClipRect@ImGui@@YAXXZ			; ImGui::PopClipRect
PUBLIC	?SetItemDefaultFocus@ImGui@@YAXXZ		; ImGui::SetItemDefaultFocus
PUBLIC	?SetKeyboardFocusHere@ImGui@@YAXH@Z		; ImGui::SetKeyboardFocusHere
PUBLIC	?IsItemHovered@ImGui@@YA_NH@Z			; ImGui::IsItemHovered
PUBLIC	?IsItemActive@ImGui@@YA_NXZ			; ImGui::IsItemActive
PUBLIC	?IsItemFocused@ImGui@@YA_NXZ			; ImGui::IsItemFocused
PUBLIC	?IsItemClicked@ImGui@@YA_NH@Z			; ImGui::IsItemClicked
PUBLIC	?IsItemVisible@ImGui@@YA_NXZ			; ImGui::IsItemVisible
PUBLIC	?IsItemEdited@ImGui@@YA_NXZ			; ImGui::IsItemEdited
PUBLIC	?IsItemActivated@ImGui@@YA_NXZ			; ImGui::IsItemActivated
PUBLIC	?IsItemDeactivated@ImGui@@YA_NXZ		; ImGui::IsItemDeactivated
PUBLIC	?IsItemDeactivatedAfterEdit@ImGui@@YA_NXZ	; ImGui::IsItemDeactivatedAfterEdit
PUBLIC	?IsItemToggledOpen@ImGui@@YA_NXZ		; ImGui::IsItemToggledOpen
PUBLIC	?IsAnyItemHovered@ImGui@@YA_NXZ			; ImGui::IsAnyItemHovered
PUBLIC	?IsAnyItemActive@ImGui@@YA_NXZ			; ImGui::IsAnyItemActive
PUBLIC	?IsAnyItemFocused@ImGui@@YA_NXZ			; ImGui::IsAnyItemFocused
PUBLIC	?GetItemRectMin@ImGui@@YA?AUImVec2@@XZ		; ImGui::GetItemRectMin
PUBLIC	?GetItemRectMax@ImGui@@YA?AUImVec2@@XZ		; ImGui::GetItemRectMax
PUBLIC	?GetItemRectSize@ImGui@@YA?AUImVec2@@XZ		; ImGui::GetItemRectSize
PUBLIC	?SetItemAllowOverlap@ImGui@@YAXXZ		; ImGui::SetItemAllowOverlap
PUBLIC	?IsRectVisible@ImGui@@YA_NAEBUImVec2@@@Z	; ImGui::IsRectVisible
PUBLIC	?IsRectVisible@ImGui@@YA_NAEBUImVec2@@0@Z	; ImGui::IsRectVisible
PUBLIC	?GetTime@ImGui@@YANXZ				; ImGui::GetTime
PUBLIC	?GetFrameCount@ImGui@@YAHXZ			; ImGui::GetFrameCount
PUBLIC	?GetBackgroundDrawList@ImGui@@YAPEAUImDrawList@@XZ ; ImGui::GetBackgroundDrawList
PUBLIC	?GetForegroundDrawList@ImGui@@YAPEAUImDrawList@@XZ ; ImGui::GetForegroundDrawList
PUBLIC	?GetDrawListSharedData@ImGui@@YAPEAUImDrawListSharedData@@XZ ; ImGui::GetDrawListSharedData
PUBLIC	?GetStyleColorName@ImGui@@YAPEBDH@Z		; ImGui::GetStyleColorName
PUBLIC	?SetStateStorage@ImGui@@YAXPEAUImGuiStorage@@@Z	; ImGui::SetStateStorage
PUBLIC	?GetStateStorage@ImGui@@YAPEAUImGuiStorage@@XZ	; ImGui::GetStateStorage
PUBLIC	?CalcListClipping@ImGui@@YAXHMPEAH0@Z		; ImGui::CalcListClipping
PUBLIC	?BeginChildFrame@ImGui@@YA_NIAEBUImVec2@@H@Z	; ImGui::BeginChildFrame
PUBLIC	?EndChildFrame@ImGui@@YAXXZ			; ImGui::EndChildFrame
PUBLIC	?CalcTextSize@ImGui@@YA?AUImVec2@@PEBD0_NM@Z	; ImGui::CalcTextSize
PUBLIC	?ColorConvertU32ToFloat4@ImGui@@YA?AUImVec4@@I@Z ; ImGui::ColorConvertU32ToFloat4
PUBLIC	?ColorConvertFloat4ToU32@ImGui@@YAIAEBUImVec4@@@Z ; ImGui::ColorConvertFloat4ToU32
PUBLIC	?ColorConvertRGBtoHSV@ImGui@@YAXMMMAEAM00@Z	; ImGui::ColorConvertRGBtoHSV
PUBLIC	?ColorConvertHSVtoRGB@ImGui@@YAXMMMAEAM00@Z	; ImGui::ColorConvertHSVtoRGB
PUBLIC	?GetKeyIndex@ImGui@@YAHH@Z			; ImGui::GetKeyIndex
PUBLIC	?IsKeyDown@ImGui@@YA_NH@Z			; ImGui::IsKeyDown
PUBLIC	?IsKeyPressed@ImGui@@YA_NH_N@Z			; ImGui::IsKeyPressed
PUBLIC	?IsKeyReleased@ImGui@@YA_NH@Z			; ImGui::IsKeyReleased
PUBLIC	?GetKeyPressedAmount@ImGui@@YAHHMM@Z		; ImGui::GetKeyPressedAmount
PUBLIC	?CaptureKeyboardFromApp@ImGui@@YAX_N@Z		; ImGui::CaptureKeyboardFromApp
PUBLIC	?IsMouseDown@ImGui@@YA_NH@Z			; ImGui::IsMouseDown
PUBLIC	?IsMouseClicked@ImGui@@YA_NH_N@Z		; ImGui::IsMouseClicked
PUBLIC	?IsMouseReleased@ImGui@@YA_NH@Z			; ImGui::IsMouseReleased
PUBLIC	?IsMouseDoubleClicked@ImGui@@YA_NH@Z		; ImGui::IsMouseDoubleClicked
PUBLIC	?IsMouseHoveringRect@ImGui@@YA_NAEBUImVec2@@0_N@Z ; ImGui::IsMouseHoveringRect
PUBLIC	?IsMousePosValid@ImGui@@YA_NPEBUImVec2@@@Z	; ImGui::IsMousePosValid
PUBLIC	?IsAnyMouseDown@ImGui@@YA_NXZ			; ImGui::IsAnyMouseDown
PUBLIC	?GetMousePos@ImGui@@YA?AUImVec2@@XZ		; ImGui::GetMousePos
PUBLIC	?GetMousePosOnOpeningCurrentPopup@ImGui@@YA?AUImVec2@@XZ ; ImGui::GetMousePosOnOpeningCurrentPopup
PUBLIC	?IsMouseDragging@ImGui@@YA_NHM@Z		; ImGui::IsMouseDragging
PUBLIC	?GetMouseDragDelta@ImGui@@YA?AUImVec2@@HM@Z	; ImGui::GetMouseDragDelta
PUBLIC	?ResetMouseDragDelta@ImGui@@YAXH@Z		; ImGui::ResetMouseDragDelta
PUBLIC	?GetMouseCursor@ImGui@@YAHXZ			; ImGui::GetMouseCursor
PUBLIC	?SetMouseCursor@ImGui@@YAXH@Z			; ImGui::SetMouseCursor
PUBLIC	?CaptureMouseFromApp@ImGui@@YAX_N@Z		; ImGui::CaptureMouseFromApp
PUBLIC	?GetClipboardText@ImGui@@YAPEBDXZ		; ImGui::GetClipboardText
PUBLIC	?SetClipboardText@ImGui@@YAXPEBD@Z		; ImGui::SetClipboardText
PUBLIC	?LoadIniSettingsFromDisk@ImGui@@YAXPEBD@Z	; ImGui::LoadIniSettingsFromDisk
PUBLIC	?LoadIniSettingsFromMemory@ImGui@@YAXPEBD_K@Z	; ImGui::LoadIniSettingsFromMemory
PUBLIC	?SaveIniSettingsToDisk@ImGui@@YAXPEBD@Z		; ImGui::SaveIniSettingsToDisk
PUBLIC	?SaveIniSettingsToMemory@ImGui@@YAPEBDPEA_K@Z	; ImGui::SaveIniSettingsToMemory
PUBLIC	?DebugCheckVersionAndDataLayout@ImGui@@YA_NPEBD_K11111@Z ; ImGui::DebugCheckVersionAndDataLayout
PUBLIC	?SetAllocatorFunctions@ImGui@@YAXP6APEAX_KPEAX@ZP6AX11@Z1@Z ; ImGui::SetAllocatorFunctions
PUBLIC	?MemAlloc@ImGui@@YAPEAX_K@Z			; ImGui::MemAlloc
PUBLIC	?MemFree@ImGui@@YAXPEAX@Z			; ImGui::MemFree
PUBLIC	??2@YAPEAX_KUImNewDummy@@PEAX@Z			; operator new
PUBLIC	??3@YAXPEAXUImNewDummy@@0@Z			; operator delete
PUBLIC	??0ImGuiStyle@@QEAA@XZ				; ImGuiStyle::ImGuiStyle
PUBLIC	?ScaleAllSizes@ImGuiStyle@@QEAAXM@Z		; ImGuiStyle::ScaleAllSizes
PUBLIC	?AddInputCharacter@ImGuiIO@@QEAAXI@Z		; ImGuiIO::AddInputCharacter
PUBLIC	?AddInputCharacterUTF16@ImGuiIO@@QEAAXG@Z	; ImGuiIO::AddInputCharacterUTF16
PUBLIC	?AddInputCharactersUTF8@ImGuiIO@@QEAAXPEBD@Z	; ImGuiIO::AddInputCharactersUTF8
PUBLIC	?ClearInputCharacters@ImGuiIO@@QEAAXXZ		; ImGuiIO::ClearInputCharacters
PUBLIC	??0?$ImVector@G@@QEAA@XZ			; ImVector<unsigned short>::ImVector<unsigned short>
PUBLIC	??1?$ImVector@G@@QEAA@XZ			; ImVector<unsigned short>::~ImVector<unsigned short>
PUBLIC	??A?$ImVector@G@@QEAAAEAGH@Z			; ImVector<unsigned short>::operator[]
PUBLIC	?clear@?$ImVector@G@@QEAAXXZ			; ImVector<unsigned short>::clear
PUBLIC	?_grow_capacity@?$ImVector@G@@QEBAHH@Z		; ImVector<unsigned short>::_grow_capacity
PUBLIC	?resize@?$ImVector@G@@QEAAXH@Z			; ImVector<unsigned short>::resize
PUBLIC	?reserve@?$ImVector@G@@QEAAXH@Z			; ImVector<unsigned short>::reserve
PUBLIC	?push_back@?$ImVector@G@@QEAAXAEBG@Z		; ImVector<unsigned short>::push_back
PUBLIC	??0ImGuiIO@@QEAA@XZ				; ImGuiIO::ImGuiIO
PUBLIC	??1ImGuiIO@@QEAA@XZ				; ImGuiIO::~ImGuiIO
PUBLIC	??0ImGuiSizeCallbackData@@QEAA@XZ		; ImGuiSizeCallbackData::ImGuiSizeCallbackData
PUBLIC	??0ImGuiPayload@@QEAA@XZ			; ImGuiPayload::ImGuiPayload
PUBLIC	?Clear@ImGuiPayload@@QEAAXXZ			; ImGuiPayload::Clear
PUBLIC	?IsDataType@ImGuiPayload@@QEBA_NPEBD@Z		; ImGuiPayload::IsDataType
PUBLIC	??0ImGuiTextFilter@@QEAA@PEBD@Z			; ImGuiTextFilter::ImGuiTextFilter
PUBLIC	?Draw@ImGuiTextFilter@@QEAA_NPEBDM@Z		; ImGuiTextFilter::Draw
PUBLIC	?PassFilter@ImGuiTextFilter@@QEBA_NPEBD0@Z	; ImGuiTextFilter::PassFilter
PUBLIC	?Build@ImGuiTextFilter@@QEAAXXZ			; ImGuiTextFilter::Build
PUBLIC	??0ImGuiTextRange@ImGuiTextFilter@@QEAA@PEBD0@Z	; ImGuiTextFilter::ImGuiTextRange::ImGuiTextRange
PUBLIC	?empty@ImGuiTextRange@ImGuiTextFilter@@QEBA_NXZ	; ImGuiTextFilter::ImGuiTextRange::empty
PUBLIC	?split@ImGuiTextRange@ImGuiTextFilter@@QEBAXDPEAU?$ImVector@UImGuiTextRange@ImGuiTextFilter@@@@@Z ; ImGuiTextFilter::ImGuiTextRange::split
PUBLIC	??0?$ImVector@UImGuiTextRange@ImGuiTextFilter@@@@QEAA@XZ ; ImVector<ImGuiTextFilter::ImGuiTextRange>::ImVector<ImGuiTextFilter::ImGuiTextRange>
PUBLIC	??1?$ImVector@UImGuiTextRange@ImGuiTextFilter@@@@QEAA@XZ ; ImVector<ImGuiTextFilter::ImGuiTextRange>::~ImVector<ImGuiTextFilter::ImGuiTextRange>
PUBLIC	?empty@?$ImVector@UImGuiTextRange@ImGuiTextFilter@@@@QEBA_NXZ ; ImVector<ImGuiTextFilter::ImGuiTextRange>::empty
PUBLIC	??A?$ImVector@UImGuiTextRange@ImGuiTextFilter@@@@QEAAAEAUImGuiTextRange@ImGuiTextFilter@@H@Z ; ImVector<ImGuiTextFilter::ImGuiTextRange>::operator[]
PUBLIC	??A?$ImVector@UImGuiTextRange@ImGuiTextFilter@@@@QEBAAEBUImGuiTextRange@ImGuiTextFilter@@H@Z ; ImVector<ImGuiTextFilter::ImGuiTextRange>::operator[]
PUBLIC	?_grow_capacity@?$ImVector@UImGuiTextRange@ImGuiTextFilter@@@@QEBAHH@Z ; ImVector<ImGuiTextFilter::ImGuiTextRange>::_grow_capacity
PUBLIC	?resize@?$ImVector@UImGuiTextRange@ImGuiTextFilter@@@@QEAAXH@Z ; ImVector<ImGuiTextFilter::ImGuiTextRange>::resize
PUBLIC	?reserve@?$ImVector@UImGuiTextRange@ImGuiTextFilter@@@@QEAAXH@Z ; ImVector<ImGuiTextFilter::ImGuiTextRange>::reserve
PUBLIC	?push_back@?$ImVector@UImGuiTextRange@ImGuiTextFilter@@@@QEAAXAEBUImGuiTextRange@ImGuiTextFilter@@@Z ; ImVector<ImGuiTextFilter::ImGuiTextRange>::push_back
PUBLIC	??0?$ImVector@D@@QEAA@XZ			; ImVector<char>::ImVector<char>
PUBLIC	??1?$ImVector@D@@QEAA@XZ			; ImVector<char>::~ImVector<char>
PUBLIC	??A?$ImVector@D@@QEAAAEADH@Z			; ImVector<char>::operator[]
PUBLIC	?clear@?$ImVector@D@@QEAAXXZ			; ImVector<char>::clear
PUBLIC	?front@?$ImVector@D@@QEBAAEBDXZ			; ImVector<char>::front
PUBLIC	?_grow_capacity@?$ImVector@D@@QEBAHH@Z		; ImVector<char>::_grow_capacity
PUBLIC	?resize@?$ImVector@D@@QEAAXH@Z			; ImVector<char>::resize
PUBLIC	?reserve@?$ImVector@D@@QEAAXH@Z			; ImVector<char>::reserve
PUBLIC	?push_back@?$ImVector@D@@QEAAXAEBD@Z		; ImVector<char>::push_back
PUBLIC	??0ImGuiTextBuffer@@QEAA@XZ			; ImGuiTextBuffer::ImGuiTextBuffer
PUBLIC	?begin@ImGuiTextBuffer@@QEBAPEBDXZ		; ImGuiTextBuffer::begin
PUBLIC	?size@ImGuiTextBuffer@@QEBAHXZ			; ImGuiTextBuffer::size
PUBLIC	?empty@ImGuiTextBuffer@@QEBA_NXZ		; ImGuiTextBuffer::empty
PUBLIC	?clear@ImGuiTextBuffer@@QEAAXXZ			; ImGuiTextBuffer::clear
PUBLIC	?reserve@ImGuiTextBuffer@@QEAAXH@Z		; ImGuiTextBuffer::reserve
PUBLIC	?c_str@ImGuiTextBuffer@@QEBAPEBDXZ		; ImGuiTextBuffer::c_str
PUBLIC	?append@ImGuiTextBuffer@@QEAAXPEBD0@Z		; ImGuiTextBuffer::append
PUBLIC	?appendf@ImGuiTextBuffer@@QEAAXPEBDZZ		; ImGuiTextBuffer::appendf
PUBLIC	?appendfv@ImGuiTextBuffer@@QEAAXPEBDPEAD@Z	; ImGuiTextBuffer::appendfv
PUBLIC	??1ImGuiTextBuffer@@QEAA@XZ			; ImGuiTextBuffer::~ImGuiTextBuffer
PUBLIC	??0ImGuiStoragePair@ImGuiStorage@@QEAA@IH@Z	; ImGuiStorage::ImGuiStoragePair::ImGuiStoragePair
PUBLIC	??0ImGuiStoragePair@ImGuiStorage@@QEAA@IM@Z	; ImGuiStorage::ImGuiStoragePair::ImGuiStoragePair
PUBLIC	??0ImGuiStoragePair@ImGuiStorage@@QEAA@IPEAX@Z	; ImGuiStorage::ImGuiStoragePair::ImGuiStoragePair
PUBLIC	??0?$ImVector@UImGuiStoragePair@ImGuiStorage@@@@QEAA@XZ ; ImVector<ImGuiStorage::ImGuiStoragePair>::ImVector<ImGuiStorage::ImGuiStoragePair>
PUBLIC	??1?$ImVector@UImGuiStoragePair@ImGuiStorage@@@@QEAA@XZ ; ImVector<ImGuiStorage::ImGuiStoragePair>::~ImVector<ImGuiStorage::ImGuiStoragePair>
PUBLIC	?size_in_bytes@?$ImVector@UImGuiStoragePair@ImGuiStorage@@@@QEBAHXZ ; ImVector<ImGuiStorage::ImGuiStoragePair>::size_in_bytes
PUBLIC	??A?$ImVector@UImGuiStoragePair@ImGuiStorage@@@@QEAAAEAUImGuiStoragePair@ImGuiStorage@@H@Z ; ImVector<ImGuiStorage::ImGuiStoragePair>::operator[]
PUBLIC	?clear@?$ImVector@UImGuiStoragePair@ImGuiStorage@@@@QEAAXXZ ; ImVector<ImGuiStorage::ImGuiStoragePair>::clear
PUBLIC	?end@?$ImVector@UImGuiStoragePair@ImGuiStorage@@@@QEAAPEAUImGuiStoragePair@ImGuiStorage@@XZ ; ImVector<ImGuiStorage::ImGuiStoragePair>::end
PUBLIC	?end@?$ImVector@UImGuiStoragePair@ImGuiStorage@@@@QEBAPEBUImGuiStoragePair@ImGuiStorage@@XZ ; ImVector<ImGuiStorage::ImGuiStoragePair>::end
PUBLIC	?_grow_capacity@?$ImVector@UImGuiStoragePair@ImGuiStorage@@@@QEBAHH@Z ; ImVector<ImGuiStorage::ImGuiStoragePair>::_grow_capacity
PUBLIC	?reserve@?$ImVector@UImGuiStoragePair@ImGuiStorage@@@@QEAAXH@Z ; ImVector<ImGuiStorage::ImGuiStoragePair>::reserve
PUBLIC	?insert@?$ImVector@UImGuiStoragePair@ImGuiStorage@@@@QEAAPEAUImGuiStoragePair@ImGuiStorage@@PEBU23@AEBU23@@Z ; ImVector<ImGuiStorage::ImGuiStoragePair>::insert
PUBLIC	?Clear@ImGuiStorage@@QEAAXXZ			; ImGuiStorage::Clear
PUBLIC	?GetInt@ImGuiStorage@@QEBAHIH@Z			; ImGuiStorage::GetInt
PUBLIC	?SetInt@ImGuiStorage@@QEAAXIH@Z			; ImGuiStorage::SetInt
PUBLIC	?GetBool@ImGuiStorage@@QEBA_NI_N@Z		; ImGuiStorage::GetBool
PUBLIC	?SetBool@ImGuiStorage@@QEAAXI_N@Z		; ImGuiStorage::SetBool
PUBLIC	?GetFloat@ImGuiStorage@@QEBAMIM@Z		; ImGuiStorage::GetFloat
PUBLIC	?SetFloat@ImGuiStorage@@QEAAXIM@Z		; ImGuiStorage::SetFloat
PUBLIC	?GetVoidPtr@ImGuiStorage@@QEBAPEAXI@Z		; ImGuiStorage::GetVoidPtr
PUBLIC	?SetVoidPtr@ImGuiStorage@@QEAAXIPEAX@Z		; ImGuiStorage::SetVoidPtr
PUBLIC	?GetIntRef@ImGuiStorage@@QEAAPEAHIH@Z		; ImGuiStorage::GetIntRef
PUBLIC	?GetBoolRef@ImGuiStorage@@QEAAPEA_NI_N@Z	; ImGuiStorage::GetBoolRef
PUBLIC	?GetFloatRef@ImGuiStorage@@QEAAPEAMIM@Z		; ImGuiStorage::GetFloatRef
PUBLIC	?GetVoidPtrRef@ImGuiStorage@@QEAAPEAPEAXIPEAX@Z	; ImGuiStorage::GetVoidPtrRef
PUBLIC	?SetAllInt@ImGuiStorage@@QEAAXH@Z		; ImGuiStorage::SetAllInt
PUBLIC	?BuildSortByKey@ImGuiStorage@@QEAAXXZ		; ImGuiStorage::BuildSortByKey
PUBLIC	??0ImGuiStorage@@QEAA@XZ			; ImGuiStorage::ImGuiStorage
PUBLIC	??1ImGuiStorage@@QEAA@XZ			; ImGuiStorage::~ImGuiStorage
PUBLIC	??0ImGuiListClipper@@QEAA@HM@Z			; ImGuiListClipper::ImGuiListClipper
PUBLIC	??1ImGuiListClipper@@QEAA@XZ			; ImGuiListClipper::~ImGuiListClipper
PUBLIC	?Step@ImGuiListClipper@@QEAA_NXZ		; ImGuiListClipper::Step
PUBLIC	?Begin@ImGuiListClipper@@QEAAXHM@Z		; ImGuiListClipper::Begin
PUBLIC	?End@ImGuiListClipper@@QEAAXXZ			; ImGuiListClipper::End
PUBLIC	??0?$ImVector@UImDrawCmd@@@@QEAA@XZ		; ImVector<ImDrawCmd>::ImVector<ImDrawCmd>
PUBLIC	??1?$ImVector@UImDrawCmd@@@@QEAA@XZ		; ImVector<ImDrawCmd>::~ImVector<ImDrawCmd>
PUBLIC	?empty@?$ImVector@UImDrawCmd@@@@QEBA_NXZ	; ImVector<ImDrawCmd>::empty
PUBLIC	?begin@?$ImVector@UImDrawCmd@@@@QEAAPEAUImDrawCmd@@XZ ; ImVector<ImDrawCmd>::begin
PUBLIC	?end@?$ImVector@UImDrawCmd@@@@QEAAPEAUImDrawCmd@@XZ ; ImVector<ImDrawCmd>::end
PUBLIC	?back@?$ImVector@UImDrawCmd@@@@QEAAAEAUImDrawCmd@@XZ ; ImVector<ImDrawCmd>::back
PUBLIC	?pop_back@?$ImVector@UImDrawCmd@@@@QEAAXXZ	; ImVector<ImDrawCmd>::pop_back
PUBLIC	??0?$ImVector@UImDrawChannel@@@@QEAA@XZ		; ImVector<ImDrawChannel>::ImVector<ImDrawChannel>
PUBLIC	??1?$ImVector@UImDrawChannel@@@@QEAA@XZ		; ImVector<ImDrawChannel>::~ImVector<ImDrawChannel>
PUBLIC	??0ImDrawListSplitter@@QEAA@XZ			; ImDrawListSplitter::ImDrawListSplitter
PUBLIC	??1ImDrawListSplitter@@QEAA@XZ			; ImDrawListSplitter::~ImDrawListSplitter
PUBLIC	?Clear@ImDrawListSplitter@@QEAAXXZ		; ImDrawListSplitter::Clear
PUBLIC	??0?$ImVector@UImDrawVert@@@@QEAA@XZ		; ImVector<ImDrawVert>::ImVector<ImDrawVert>
PUBLIC	??1?$ImVector@UImDrawVert@@@@QEAA@XZ		; ImVector<ImDrawVert>::~ImVector<ImDrawVert>
PUBLIC	?empty@?$ImVector@UImDrawVert@@@@QEBA_NXZ	; ImVector<ImDrawVert>::empty
PUBLIC	??A?$ImVector@UImDrawVert@@@@QEAAAEAUImDrawVert@@H@Z ; ImVector<ImDrawVert>::operator[]
PUBLIC	??A?$ImVector@UImDrawVert@@@@QEBAAEBUImDrawVert@@H@Z ; ImVector<ImDrawVert>::operator[]
PUBLIC	?reserve@?$ImVector@UImDrawVert@@@@QEAAXH@Z	; ImVector<ImDrawVert>::reserve
PUBLIC	??0?$ImVector@UImVec4@@@@QEAA@XZ		; ImVector<ImVec4>::ImVector<ImVec4>
PUBLIC	??1?$ImVector@UImVec4@@@@QEAA@XZ		; ImVector<ImVec4>::~ImVector<ImVec4>
PUBLIC	?back@?$ImVector@UImVec4@@@@QEAAAEAUImVec4@@XZ	; ImVector<ImVec4>::back
PUBLIC	??0?$ImVector@PEAX@@QEAA@XZ			; ImVector<void *>::ImVector<void *>
PUBLIC	??1?$ImVector@PEAX@@QEAA@XZ			; ImVector<void *>::~ImVector<void *>
PUBLIC	??0?$ImVector@UImVec2@@@@QEAA@XZ		; ImVector<ImVec2>::ImVector<ImVec2>
PUBLIC	??1?$ImVector@UImVec2@@@@QEAA@XZ		; ImVector<ImVec2>::~ImVector<ImVec2>
PUBLIC	?_grow_capacity@?$ImVector@UImVec2@@@@QEBAHH@Z	; ImVector<ImVec2>::_grow_capacity
PUBLIC	?reserve@?$ImVector@UImVec2@@@@QEAAXH@Z		; ImVector<ImVec2>::reserve
PUBLIC	?push_back@?$ImVector@UImVec2@@@@QEAAXAEBUImVec2@@@Z ; ImVector<ImVec2>::push_back
PUBLIC	??0ImDrawList@@QEAA@PEBUImDrawListSharedData@@@Z ; ImDrawList::ImDrawList
PUBLIC	??1ImDrawList@@QEAA@XZ				; ImDrawList::~ImDrawList
PUBLIC	?PathLineTo@ImDrawList@@QEAAXAEBUImVec2@@@Z	; ImDrawList::PathLineTo
PUBLIC	?PathFillConvex@ImDrawList@@QEAAXI@Z		; ImDrawList::PathFillConvex
PUBLIC	?PathStroke@ImDrawList@@QEAAXI_NM@Z		; ImDrawList::PathStroke
PUBLIC	??0ImDrawData@@QEAA@XZ				; ImDrawData::ImDrawData
PUBLIC	??1ImDrawData@@QEAA@XZ				; ImDrawData::~ImDrawData
PUBLIC	?Clear@ImDrawData@@QEAAXXZ			; ImDrawData::Clear
PUBLIC	??0?$ImVector@I@@QEAA@XZ			; ImVector<unsigned int>::ImVector<unsigned int>
PUBLIC	??1?$ImVector@I@@QEAA@XZ			; ImVector<unsigned int>::~ImVector<unsigned int>
PUBLIC	?clear@?$ImVector@I@@QEAAXXZ			; ImVector<unsigned int>::clear
PUBLIC	?back@?$ImVector@I@@QEAAAEAIXZ			; ImVector<unsigned int>::back
PUBLIC	?_grow_capacity@?$ImVector@I@@QEBAHH@Z		; ImVector<unsigned int>::_grow_capacity
PUBLIC	?resize@?$ImVector@I@@QEAAXH@Z			; ImVector<unsigned int>::resize
PUBLIC	?reserve@?$ImVector@I@@QEAAXH@Z			; ImVector<unsigned int>::reserve
PUBLIC	?push_back@?$ImVector@I@@QEAAXAEBI@Z		; ImVector<unsigned int>::push_back
PUBLIC	?pop_back@?$ImVector@I@@QEAAXXZ			; ImVector<unsigned int>::pop_back
PUBLIC	??0?$ImVector@PEAUImFont@@@@QEAA@XZ		; ImVector<ImFont *>::ImVector<ImFont *>
PUBLIC	??1?$ImVector@PEAUImFont@@@@QEAA@XZ		; ImVector<ImFont *>::~ImVector<ImFont *>
PUBLIC	?empty@?$ImVector@PEAUImFont@@@@QEBA_NXZ	; ImVector<ImFont *>::empty
PUBLIC	??A?$ImVector@PEAUImFont@@@@QEAAAEAPEAUImFont@@H@Z ; ImVector<ImFont *>::operator[]
PUBLIC	?clear@?$ImVector@PEAUImFont@@@@QEAAXXZ		; ImVector<ImFont *>::clear
PUBLIC	?back@?$ImVector@PEAUImFont@@@@QEAAAEAPEAUImFont@@XZ ; ImVector<ImFont *>::back
PUBLIC	?_grow_capacity@?$ImVector@PEAUImFont@@@@QEBAHH@Z ; ImVector<ImFont *>::_grow_capacity
PUBLIC	?reserve@?$ImVector@PEAUImFont@@@@QEAAXH@Z	; ImVector<ImFont *>::reserve
PUBLIC	?push_back@?$ImVector@PEAUImFont@@@@QEAAXAEBQEAUImFont@@@Z ; ImVector<ImFont *>::push_back
PUBLIC	?pop_back@?$ImVector@PEAUImFont@@@@QEAAXXZ	; ImVector<ImFont *>::pop_back
PUBLIC	??_GImFontAtlas@@QEAAPEAXI@Z			; ImFontAtlas::`scalar deleting destructor'
PUBLIC	??0?$ImVector@M@@QEAA@XZ			; ImVector<float>::ImVector<float>
PUBLIC	??1?$ImVector@M@@QEAA@XZ			; ImVector<float>::~ImVector<float>
PUBLIC	?empty@?$ImVector@M@@QEBA_NXZ			; ImVector<float>::empty
PUBLIC	?clear@?$ImVector@M@@QEAAXXZ			; ImVector<float>::clear
PUBLIC	?back@?$ImVector@M@@QEAAAEAMXZ			; ImVector<float>::back
PUBLIC	?_grow_capacity@?$ImVector@M@@QEBAHH@Z		; ImVector<float>::_grow_capacity
PUBLIC	?resize@?$ImVector@M@@QEAAXH@Z			; ImVector<float>::resize
PUBLIC	?reserve@?$ImVector@M@@QEAAXH@Z			; ImVector<float>::reserve
PUBLIC	?push_back@?$ImVector@M@@QEAAXAEBM@Z		; ImVector<float>::push_back
PUBLIC	?pop_back@?$ImVector@M@@QEAAXXZ			; ImVector<float>::pop_back
PUBLIC	?IsLoaded@ImFont@@QEBA_NXZ			; ImFont::IsLoaded
PUBLIC	__local_stdio_printf_options
PUBLIC	__local_stdio_scanf_options
PUBLIC	_vsnprintf_l
PUBLIC	_vsnprintf
PUBLIC	_vsscanf_l
PUBLIC	sscanf
PUBLIC	fabsf
PUBLIC	?ImHashData@@YAIPEBX_KI@Z			; ImHashData
PUBLIC	?ImHashStr@@YAIPEBD_KI@Z			; ImHashStr
PUBLIC	?ImAlphaBlendColors@@YAIII@Z			; ImAlphaBlendColors
PUBLIC	?ImStricmp@@YAHPEBD0@Z				; ImStricmp
PUBLIC	?ImStrnicmp@@YAHPEBD0_K@Z			; ImStrnicmp
PUBLIC	?ImStrncpy@@YAXPEADPEBD_K@Z			; ImStrncpy
PUBLIC	?ImStrdup@@YAPEADPEBD@Z				; ImStrdup
PUBLIC	?ImStrdupcpy@@YAPEADPEADPEA_KPEBD@Z		; ImStrdupcpy
PUBLIC	?ImStrchrRange@@YAPEBDPEBD0D@Z			; ImStrchrRange
PUBLIC	?ImStrlenW@@YAHPEBG@Z				; ImStrlenW
PUBLIC	?ImStreolRange@@YAPEBDPEBD0@Z			; ImStreolRange
PUBLIC	?ImStrbolW@@YAPEBGPEBG0@Z			; ImStrbolW
PUBLIC	?ImStristr@@YAPEBDPEBD000@Z			; ImStristr
PUBLIC	?ImStrTrimBlanks@@YAXPEAD@Z			; ImStrTrimBlanks
PUBLIC	?ImStrSkipBlank@@YAPEBDPEBD@Z			; ImStrSkipBlank
PUBLIC	?ImFormatString@@YAHPEAD_KPEBDZZ		; ImFormatString
PUBLIC	?ImFormatStringV@@YAHPEAD_KPEBD0@Z		; ImFormatStringV
PUBLIC	?ImTextStrToUtf8@@YAHPEADHPEBG1@Z		; ImTextStrToUtf8
PUBLIC	?ImTextCharFromUtf8@@YAHPEAIPEBD1@Z		; ImTextCharFromUtf8
PUBLIC	?ImTextStrFromUtf8@@YAHPEAGHPEBD1PEAPEBD@Z	; ImTextStrFromUtf8
PUBLIC	?ImTextCountCharsFromUtf8@@YAHPEBD0@Z		; ImTextCountCharsFromUtf8
PUBLIC	?ImTextCountUtf8BytesFromChar@@YAHPEBD0@Z	; ImTextCountUtf8BytesFromChar
PUBLIC	?ImTextCountUtf8BytesFromStr@@YAHPEBG0@Z	; ImTextCountUtf8BytesFromStr
PUBLIC	?ImFileOpen@@YAPEAU_iobuf@@PEBD0@Z		; ImFileOpen
PUBLIC	?ImFileClose@@YA_NPEAU_iobuf@@@Z		; ImFileClose
PUBLIC	?ImFileGetSize@@YA_KPEAU_iobuf@@@Z		; ImFileGetSize
PUBLIC	?ImFileRead@@YA_KPEAX_K1PEAU_iobuf@@@Z		; ImFileRead
PUBLIC	?ImFileWrite@@YA_KPEBX_K1PEAU_iobuf@@@Z		; ImFileWrite
PUBLIC	?ImFileLoadToMemory@@YAPEAXPEBD0PEA_KH@Z	; ImFileLoadToMemory
PUBLIC	?ImBezierClosestPoint@@YA?AUImVec2@@AEBU1@0000H@Z ; ImBezierClosestPoint
PUBLIC	?ImBezierClosestPointCasteljau@@YA?AUImVec2@@AEBU1@0000M@Z ; ImBezierClosestPointCasteljau
PUBLIC	?ImLineClosestPoint@@YA?AUImVec2@@AEBU1@00@Z	; ImLineClosestPoint
PUBLIC	?ImTriangleContainsPoint@@YA_NAEBUImVec2@@000@Z	; ImTriangleContainsPoint
PUBLIC	?ImTriangleClosestPoint@@YA?AUImVec2@@AEBU1@000@Z ; ImTriangleClosestPoint
PUBLIC	?ImTriangleBarycentricCoords@@YAXAEBUImVec2@@000AEAM11@Z ; ImTriangleBarycentricCoords
PUBLIC	?ImTriangleArea@@YAMAEBUImVec2@@00@Z		; ImTriangleArea
PUBLIC	?ImGetDirQuadrantFromDelta@@YAHMM@Z		; ImGetDirQuadrantFromDelta
PUBLIC	??0ImVec1@@QEAA@XZ				; ImVec1::ImVec1
PUBLIC	??0ImVec1@@QEAA@M@Z				; ImVec1::ImVec1
PUBLIC	??0ImVec2ih@@QEAA@XZ				; ImVec2ih::ImVec2ih
PUBLIC	??0ImVec2ih@@QEAA@FF@Z				; ImVec2ih::ImVec2ih
PUBLIC	??0ImRect@@QEAA@XZ				; ImRect::ImRect
PUBLIC	??0ImRect@@QEAA@AEBUImVec2@@0@Z			; ImRect::ImRect
PUBLIC	??0ImRect@@QEAA@AEBUImVec4@@@Z			; ImRect::ImRect
PUBLIC	??0ImRect@@QEAA@MMMM@Z				; ImRect::ImRect
PUBLIC	?GetSize@ImRect@@QEBA?AUImVec2@@XZ		; ImRect::GetSize
PUBLIC	?GetWidth@ImRect@@QEBAMXZ			; ImRect::GetWidth
PUBLIC	?GetHeight@ImRect@@QEBAMXZ			; ImRect::GetHeight
PUBLIC	?GetBL@ImRect@@QEBA?AUImVec2@@XZ		; ImRect::GetBL
PUBLIC	?GetBR@ImRect@@QEBA?AUImVec2@@XZ		; ImRect::GetBR
PUBLIC	?Contains@ImRect@@QEBA_NAEBUImVec2@@@Z		; ImRect::Contains
PUBLIC	?Contains@ImRect@@QEBA_NAEBU1@@Z		; ImRect::Contains
PUBLIC	?Overlaps@ImRect@@QEBA_NAEBU1@@Z		; ImRect::Overlaps
PUBLIC	?Add@ImRect@@QEAAXAEBUImVec2@@@Z		; ImRect::Add
PUBLIC	?Add@ImRect@@QEAAXAEBU1@@Z			; ImRect::Add
PUBLIC	?Expand@ImRect@@QEAAXM@Z			; ImRect::Expand
PUBLIC	?Expand@ImRect@@QEAAXAEBUImVec2@@@Z		; ImRect::Expand
PUBLIC	?TranslateX@ImRect@@QEAAXM@Z			; ImRect::TranslateX
PUBLIC	?TranslateY@ImRect@@QEAAXM@Z			; ImRect::TranslateY
PUBLIC	?ClipWith@ImRect@@QEAAXAEBU1@@Z			; ImRect::ClipWith
PUBLIC	?ClipWithFull@ImRect@@QEAAXAEBU1@@Z		; ImRect::ClipWithFull
PUBLIC	?IsInverted@ImRect@@QEBA_NXZ			; ImRect::IsInverted
PUBLIC	??0?$ImVector@PEAUImDrawList@@@@QEAA@XZ		; ImVector<ImDrawList *>::ImVector<ImDrawList *>
PUBLIC	??1?$ImVector@PEAUImDrawList@@@@QEAA@XZ		; ImVector<ImDrawList *>::~ImVector<ImDrawList *>
PUBLIC	?empty@?$ImVector@PEAUImDrawList@@@@QEBA_NXZ	; ImVector<ImDrawList *>::empty
PUBLIC	??A?$ImVector@PEAUImDrawList@@@@QEAAAEAPEAUImDrawList@@H@Z ; ImVector<ImDrawList *>::operator[]
PUBLIC	?clear@?$ImVector@PEAUImDrawList@@@@QEAAXXZ	; ImVector<ImDrawList *>::clear
PUBLIC	?_grow_capacity@?$ImVector@PEAUImDrawList@@@@QEBAHH@Z ; ImVector<ImDrawList *>::_grow_capacity
PUBLIC	?resize@?$ImVector@PEAUImDrawList@@@@QEAAXH@Z	; ImVector<ImDrawList *>::resize
PUBLIC	?reserve@?$ImVector@PEAUImDrawList@@@@QEAAXH@Z	; ImVector<ImDrawList *>::reserve
PUBLIC	?push_back@?$ImVector@PEAUImDrawList@@@@QEAAXAEBQEAUImDrawList@@@Z ; ImVector<ImDrawList *>::push_back
PUBLIC	?Clear@ImDrawDataBuilder@@QEAAXXZ		; ImDrawDataBuilder::Clear
PUBLIC	?ClearFreeMemory@ImDrawDataBuilder@@QEAAXXZ	; ImDrawDataBuilder::ClearFreeMemory
PUBLIC	?FlattenIntoSingleLayer@ImDrawDataBuilder@@QEAAXXZ ; ImDrawDataBuilder::FlattenIntoSingleLayer
PUBLIC	??0ImDrawDataBuilder@@QEAA@XZ			; ImDrawDataBuilder::ImDrawDataBuilder
PUBLIC	??1ImDrawDataBuilder@@QEAA@XZ			; ImDrawDataBuilder::~ImDrawDataBuilder
PUBLIC	??0ImGuiColorMod@@QEAA@XZ			; ImGuiColorMod::ImGuiColorMod
PUBLIC	??0ImGuiStyleMod@@QEAA@HM@Z			; ImGuiStyleMod::ImGuiStyleMod
PUBLIC	??0ImGuiStyleMod@@QEAA@HUImVec2@@@Z		; ImGuiStyleMod::ImGuiStyleMod
PUBLIC	??0ImGuiInputTextState@@QEAA@XZ			; ImGuiInputTextState::ImGuiInputTextState
PUBLIC	?ClearFreeMemory@ImGuiInputTextState@@QEAAXXZ	; ImGuiInputTextState::ClearFreeMemory
PUBLIC	??1ImGuiInputTextState@@QEAA@XZ			; ImGuiInputTextState::~ImGuiInputTextState
PUBLIC	??0ImGuiPopupData@@QEAA@XZ			; ImGuiPopupData::ImGuiPopupData
PUBLIC	??0ImGuiNavMoveResult@@QEAA@XZ			; ImGuiNavMoveResult::ImGuiNavMoveResult
PUBLIC	?Clear@ImGuiNavMoveResult@@QEAAXXZ		; ImGuiNavMoveResult::Clear
PUBLIC	??0ImGuiNextWindowData@@QEAA@XZ			; ImGuiNextWindowData::ImGuiNextWindowData
PUBLIC	?ClearFlags@ImGuiNextWindowData@@QEAAXXZ	; ImGuiNextWindowData::ClearFlags
PUBLIC	??0ImGuiNextItemData@@QEAA@XZ			; ImGuiNextItemData::ImGuiNextItemData
PUBLIC	??1?$ImVector@UImGuiColumnData@@@@QEAA@XZ	; ImVector<ImGuiColumnData>::~ImVector<ImGuiColumnData>
PUBLIC	??A?$ImVector@UImGuiColumnData@@@@QEBAAEBUImGuiColumnData@@H@Z ; ImVector<ImGuiColumnData>::operator[]
PUBLIC	??1ImGuiColumns@@QEAA@XZ			; ImGuiColumns::~ImGuiColumns
PUBLIC	??_GImGuiColumns@@QEAAPEAXI@Z			; ImGuiColumns::`scalar deleting destructor'
PUBLIC	??0ImGuiWindowSettings@@QEAA@XZ			; ImGuiWindowSettings::ImGuiWindowSettings
PUBLIC	?GetName@ImGuiWindowSettings@@QEAAPEADXZ	; ImGuiWindowSettings::GetName
PUBLIC	??0ImGuiSettingsHandler@@QEAA@XZ		; ImGuiSettingsHandler::ImGuiSettingsHandler
PUBLIC	??0?$ImVector@PEAUImGuiWindow@@@@QEAA@XZ	; ImVector<ImGuiWindow *>::ImVector<ImGuiWindow *>
PUBLIC	??1?$ImVector@PEAUImGuiWindow@@@@QEAA@XZ	; ImVector<ImGuiWindow *>::~ImVector<ImGuiWindow *>
PUBLIC	?empty@?$ImVector@PEAUImGuiWindow@@@@QEBA_NXZ	; ImVector<ImGuiWindow *>::empty
PUBLIC	??A?$ImVector@PEAUImGuiWindow@@@@QEAAAEAPEAUImGuiWindow@@H@Z ; ImVector<ImGuiWindow *>::operator[]
PUBLIC	?clear@?$ImVector@PEAUImGuiWindow@@@@QEAAXXZ	; ImVector<ImGuiWindow *>::clear
PUBLIC	?back@?$ImVector@PEAUImGuiWindow@@@@QEAAAEAPEAUImGuiWindow@@XZ ; ImVector<ImGuiWindow *>::back
PUBLIC	?swap@?$ImVector@PEAUImGuiWindow@@@@QEAAXAEAU1@@Z ; ImVector<ImGuiWindow *>::swap
PUBLIC	?_grow_capacity@?$ImVector@PEAUImGuiWindow@@@@QEBAHH@Z ; ImVector<ImGuiWindow *>::_grow_capacity
PUBLIC	?resize@?$ImVector@PEAUImGuiWindow@@@@QEAAXH@Z	; ImVector<ImGuiWindow *>::resize
PUBLIC	?reserve@?$ImVector@PEAUImGuiWindow@@@@QEAAXH@Z	; ImVector<ImGuiWindow *>::reserve
PUBLIC	?push_back@?$ImVector@PEAUImGuiWindow@@@@QEAAXAEBQEAUImGuiWindow@@@Z ; ImVector<ImGuiWindow *>::push_back
PUBLIC	?pop_back@?$ImVector@PEAUImGuiWindow@@@@QEAAXXZ	; ImVector<ImGuiWindow *>::pop_back
PUBLIC	?push_front@?$ImVector@PEAUImGuiWindow@@@@QEAAXAEBQEAUImGuiWindow@@@Z ; ImVector<ImGuiWindow *>::push_front
PUBLIC	?insert@?$ImVector@PEAUImGuiWindow@@@@QEAAPEAPEAUImGuiWindow@@PEBQEAU2@AEBQEAU2@@Z ; ImVector<ImGuiWindow *>::insert
PUBLIC	??0?$ImVector@UImGuiColorMod@@@@QEAA@XZ		; ImVector<ImGuiColorMod>::ImVector<ImGuiColorMod>
PUBLIC	??1?$ImVector@UImGuiColorMod@@@@QEAA@XZ		; ImVector<ImGuiColorMod>::~ImVector<ImGuiColorMod>
PUBLIC	?clear@?$ImVector@UImGuiColorMod@@@@QEAAXXZ	; ImVector<ImGuiColorMod>::clear
PUBLIC	?back@?$ImVector@UImGuiColorMod@@@@QEAAAEAUImGuiColorMod@@XZ ; ImVector<ImGuiColorMod>::back
PUBLIC	?_grow_capacity@?$ImVector@UImGuiColorMod@@@@QEBAHH@Z ; ImVector<ImGuiColorMod>::_grow_capacity
PUBLIC	?reserve@?$ImVector@UImGuiColorMod@@@@QEAAXH@Z	; ImVector<ImGuiColorMod>::reserve
PUBLIC	?push_back@?$ImVector@UImGuiColorMod@@@@QEAAXAEBUImGuiColorMod@@@Z ; ImVector<ImGuiColorMod>::push_back
PUBLIC	?pop_back@?$ImVector@UImGuiColorMod@@@@QEAAXXZ	; ImVector<ImGuiColorMod>::pop_back
PUBLIC	??0?$ImVector@UImGuiStyleMod@@@@QEAA@XZ		; ImVector<ImGuiStyleMod>::ImVector<ImGuiStyleMod>
PUBLIC	??1?$ImVector@UImGuiStyleMod@@@@QEAA@XZ		; ImVector<ImGuiStyleMod>::~ImVector<ImGuiStyleMod>
PUBLIC	?clear@?$ImVector@UImGuiStyleMod@@@@QEAAXXZ	; ImVector<ImGuiStyleMod>::clear
PUBLIC	?back@?$ImVector@UImGuiStyleMod@@@@QEAAAEAUImGuiStyleMod@@XZ ; ImVector<ImGuiStyleMod>::back
PUBLIC	?_grow_capacity@?$ImVector@UImGuiStyleMod@@@@QEBAHH@Z ; ImVector<ImGuiStyleMod>::_grow_capacity
PUBLIC	?reserve@?$ImVector@UImGuiStyleMod@@@@QEAAXH@Z	; ImVector<ImGuiStyleMod>::reserve
PUBLIC	?push_back@?$ImVector@UImGuiStyleMod@@@@QEAAXAEBUImGuiStyleMod@@@Z ; ImVector<ImGuiStyleMod>::push_back
PUBLIC	?pop_back@?$ImVector@UImGuiStyleMod@@@@QEAAXXZ	; ImVector<ImGuiStyleMod>::pop_back
PUBLIC	??0?$ImVector@UImGuiPopupData@@@@QEAA@XZ	; ImVector<ImGuiPopupData>::ImVector<ImGuiPopupData>
PUBLIC	??1?$ImVector@UImGuiPopupData@@@@QEAA@XZ	; ImVector<ImGuiPopupData>::~ImVector<ImGuiPopupData>
PUBLIC	?empty@?$ImVector@UImGuiPopupData@@@@QEBA_NXZ	; ImVector<ImGuiPopupData>::empty
PUBLIC	??A?$ImVector@UImGuiPopupData@@@@QEAAAEAUImGuiPopupData@@H@Z ; ImVector<ImGuiPopupData>::operator[]
PUBLIC	?clear@?$ImVector@UImGuiPopupData@@@@QEAAXXZ	; ImVector<ImGuiPopupData>::clear
PUBLIC	?back@?$ImVector@UImGuiPopupData@@@@QEAAAEAUImGuiPopupData@@XZ ; ImVector<ImGuiPopupData>::back
PUBLIC	?_grow_capacity@?$ImVector@UImGuiPopupData@@@@QEBAHH@Z ; ImVector<ImGuiPopupData>::_grow_capacity
PUBLIC	?resize@?$ImVector@UImGuiPopupData@@@@QEAAXH@Z	; ImVector<ImGuiPopupData>::resize
PUBLIC	?reserve@?$ImVector@UImGuiPopupData@@@@QEAAXH@Z	; ImVector<ImGuiPopupData>::reserve
PUBLIC	?push_back@?$ImVector@UImGuiPopupData@@@@QEAAXAEBUImGuiPopupData@@@Z ; ImVector<ImGuiPopupData>::push_back
PUBLIC	?pop_back@?$ImVector@UImGuiPopupData@@@@QEAAXXZ	; ImVector<ImGuiPopupData>::pop_back
PUBLIC	??0?$ImVector@E@@QEAA@XZ			; ImVector<unsigned char>::ImVector<unsigned char>
PUBLIC	??1?$ImVector@E@@QEAA@XZ			; ImVector<unsigned char>::~ImVector<unsigned char>
PUBLIC	?clear@?$ImVector@E@@QEAAXXZ			; ImVector<unsigned char>::clear
PUBLIC	?_grow_capacity@?$ImVector@E@@QEBAHH@Z		; ImVector<unsigned char>::_grow_capacity
PUBLIC	?resize@?$ImVector@E@@QEAAXH@Z			; ImVector<unsigned char>::resize
PUBLIC	?reserve@?$ImVector@E@@QEAAXH@Z			; ImVector<unsigned char>::reserve
PUBLIC	??0?$ImVector@UImGuiTabBar@@@@QEAA@XZ		; ImVector<ImGuiTabBar>::ImVector<ImGuiTabBar>
PUBLIC	??1?$ImVector@UImGuiTabBar@@@@QEAA@XZ		; ImVector<ImGuiTabBar>::~ImVector<ImGuiTabBar>
PUBLIC	??A?$ImVector@UImGuiTabBar@@@@QEAAAEAUImGuiTabBar@@H@Z ; ImVector<ImGuiTabBar>::operator[]
PUBLIC	?clear@?$ImVector@UImGuiTabBar@@@@QEAAXXZ	; ImVector<ImGuiTabBar>::clear
PUBLIC	??0?$ImPool@UImGuiTabBar@@@@QEAA@XZ		; ImPool<ImGuiTabBar>::ImPool<ImGuiTabBar>
PUBLIC	??1?$ImPool@UImGuiTabBar@@@@QEAA@XZ		; ImPool<ImGuiTabBar>::~ImPool<ImGuiTabBar>
PUBLIC	?GetByIndex@?$ImPool@UImGuiTabBar@@@@QEAAPEAUImGuiTabBar@@H@Z ; ImPool<ImGuiTabBar>::GetByIndex
PUBLIC	?Clear@?$ImPool@UImGuiTabBar@@@@QEAAXXZ		; ImPool<ImGuiTabBar>::Clear
PUBLIC	?GetSize@?$ImPool@UImGuiTabBar@@@@QEBAHXZ	; ImPool<ImGuiTabBar>::GetSize
PUBLIC	??0?$ImVector@UImGuiPtrOrIndex@@@@QEAA@XZ	; ImVector<ImGuiPtrOrIndex>::ImVector<ImGuiPtrOrIndex>
PUBLIC	??1?$ImVector@UImGuiPtrOrIndex@@@@QEAA@XZ	; ImVector<ImGuiPtrOrIndex>::~ImVector<ImGuiPtrOrIndex>
PUBLIC	?clear@?$ImVector@UImGuiPtrOrIndex@@@@QEAAXXZ	; ImVector<ImGuiPtrOrIndex>::clear
PUBLIC	??0?$ImVector@UImGuiShrinkWidthItem@@@@QEAA@XZ	; ImVector<ImGuiShrinkWidthItem>::ImVector<ImGuiShrinkWidthItem>
PUBLIC	??1?$ImVector@UImGuiShrinkWidthItem@@@@QEAA@XZ	; ImVector<ImGuiShrinkWidthItem>::~ImVector<ImGuiShrinkWidthItem>
PUBLIC	?clear@?$ImVector@UImGuiShrinkWidthItem@@@@QEAAXXZ ; ImVector<ImGuiShrinkWidthItem>::clear
PUBLIC	??0?$ImVector@UImGuiSettingsHandler@@@@QEAA@XZ	; ImVector<ImGuiSettingsHandler>::ImVector<ImGuiSettingsHandler>
PUBLIC	??1?$ImVector@UImGuiSettingsHandler@@@@QEAA@XZ	; ImVector<ImGuiSettingsHandler>::~ImVector<ImGuiSettingsHandler>
PUBLIC	??A?$ImVector@UImGuiSettingsHandler@@@@QEAAAEAUImGuiSettingsHandler@@H@Z ; ImVector<ImGuiSettingsHandler>::operator[]
PUBLIC	?clear@?$ImVector@UImGuiSettingsHandler@@@@QEAAXXZ ; ImVector<ImGuiSettingsHandler>::clear
PUBLIC	?_grow_capacity@?$ImVector@UImGuiSettingsHandler@@@@QEBAHH@Z ; ImVector<ImGuiSettingsHandler>::_grow_capacity
PUBLIC	?reserve@?$ImVector@UImGuiSettingsHandler@@@@QEAAXH@Z ; ImVector<ImGuiSettingsHandler>::reserve
PUBLIC	?push_back@?$ImVector@UImGuiSettingsHandler@@@@QEAAXAEBUImGuiSettingsHandler@@@Z ; ImVector<ImGuiSettingsHandler>::push_back
PUBLIC	?clear@?$ImChunkStream@UImGuiWindowSettings@@@@QEAAXXZ ; ImChunkStream<ImGuiWindowSettings>::clear
PUBLIC	?empty@?$ImChunkStream@UImGuiWindowSettings@@@@QEBA_NXZ ; ImChunkStream<ImGuiWindowSettings>::empty
PUBLIC	?size@?$ImChunkStream@UImGuiWindowSettings@@@@QEBAHXZ ; ImChunkStream<ImGuiWindowSettings>::size
PUBLIC	?alloc_chunk@?$ImChunkStream@UImGuiWindowSettings@@@@QEAAPEAUImGuiWindowSettings@@_K@Z ; ImChunkStream<ImGuiWindowSettings>::alloc_chunk
PUBLIC	?begin@?$ImChunkStream@UImGuiWindowSettings@@@@QEAAPEAUImGuiWindowSettings@@XZ ; ImChunkStream<ImGuiWindowSettings>::begin
PUBLIC	?next_chunk@?$ImChunkStream@UImGuiWindowSettings@@@@QEAAPEAUImGuiWindowSettings@@PEAU2@@Z ; ImChunkStream<ImGuiWindowSettings>::next_chunk
PUBLIC	?chunk_size@?$ImChunkStream@UImGuiWindowSettings@@@@QEAAHPEBUImGuiWindowSettings@@@Z ; ImChunkStream<ImGuiWindowSettings>::chunk_size
PUBLIC	?end@?$ImChunkStream@UImGuiWindowSettings@@@@QEAAPEAUImGuiWindowSettings@@XZ ; ImChunkStream<ImGuiWindowSettings>::end
PUBLIC	?offset_from_ptr@?$ImChunkStream@UImGuiWindowSettings@@@@QEAAHPEBUImGuiWindowSettings@@@Z ; ImChunkStream<ImGuiWindowSettings>::offset_from_ptr
PUBLIC	?ptr_from_offset@?$ImChunkStream@UImGuiWindowSettings@@@@QEAAPEAUImGuiWindowSettings@@H@Z ; ImChunkStream<ImGuiWindowSettings>::ptr_from_offset
PUBLIC	??0?$ImChunkStream@UImGuiWindowSettings@@@@QEAA@XZ ; ImChunkStream<ImGuiWindowSettings>::ImChunkStream<ImGuiWindowSettings>
PUBLIC	??1?$ImChunkStream@UImGuiWindowSettings@@@@QEAA@XZ ; ImChunkStream<ImGuiWindowSettings>::~ImChunkStream<ImGuiWindowSettings>
PUBLIC	??0ImGuiContext@@QEAA@PEAUImFontAtlas@@@Z	; ImGuiContext::ImGuiContext
PUBLIC	??1ImGuiContext@@QEAA@XZ			; ImGuiContext::~ImGuiContext
PUBLIC	??_GImGuiContext@@QEAAPEAXI@Z			; ImGuiContext::`scalar deleting destructor'
PUBLIC	??0?$ImVector@H@@QEAA@XZ			; ImVector<int>::ImVector<int>
PUBLIC	??1?$ImVector@H@@QEAA@XZ			; ImVector<int>::~ImVector<int>
PUBLIC	?empty@?$ImVector@H@@QEBA_NXZ			; ImVector<int>::empty
PUBLIC	?clear@?$ImVector@H@@QEAAXXZ			; ImVector<int>::clear
PUBLIC	?back@?$ImVector@H@@QEAAAEAHXZ			; ImVector<int>::back
PUBLIC	?_grow_capacity@?$ImVector@H@@QEBAHH@Z		; ImVector<int>::_grow_capacity
PUBLIC	?resize@?$ImVector@H@@QEAAXH@Z			; ImVector<int>::resize
PUBLIC	?reserve@?$ImVector@H@@QEAAXH@Z			; ImVector<int>::reserve
PUBLIC	?push_back@?$ImVector@H@@QEAAXAEBH@Z		; ImVector<int>::push_back
PUBLIC	?pop_back@?$ImVector@H@@QEAAXXZ			; ImVector<int>::pop_back
PUBLIC	??0?$ImVector@UImGuiGroupData@@@@QEAA@XZ	; ImVector<ImGuiGroupData>::ImVector<ImGuiGroupData>
PUBLIC	??1?$ImVector@UImGuiGroupData@@@@QEAA@XZ	; ImVector<ImGuiGroupData>::~ImVector<ImGuiGroupData>
PUBLIC	?empty@?$ImVector@UImGuiGroupData@@@@QEBA_NXZ	; ImVector<ImGuiGroupData>::empty
PUBLIC	?clear@?$ImVector@UImGuiGroupData@@@@QEAAXXZ	; ImVector<ImGuiGroupData>::clear
PUBLIC	?back@?$ImVector@UImGuiGroupData@@@@QEAAAEAUImGuiGroupData@@XZ ; ImVector<ImGuiGroupData>::back
PUBLIC	?_grow_capacity@?$ImVector@UImGuiGroupData@@@@QEBAHH@Z ; ImVector<ImGuiGroupData>::_grow_capacity
PUBLIC	?resize@?$ImVector@UImGuiGroupData@@@@QEAAXH@Z	; ImVector<ImGuiGroupData>::resize
PUBLIC	?reserve@?$ImVector@UImGuiGroupData@@@@QEAAXH@Z	; ImVector<ImGuiGroupData>::reserve
PUBLIC	?pop_back@?$ImVector@UImGuiGroupData@@@@QEAAXXZ	; ImVector<ImGuiGroupData>::pop_back
PUBLIC	??0ImGuiWindowTempData@@QEAA@XZ			; ImGuiWindowTempData::ImGuiWindowTempData
PUBLIC	??1ImGuiWindowTempData@@QEAA@XZ			; ImGuiWindowTempData::~ImGuiWindowTempData
PUBLIC	??0?$ImVector@UImGuiColumns@@@@QEAA@XZ		; ImVector<ImGuiColumns>::ImVector<ImGuiColumns>
PUBLIC	??1?$ImVector@UImGuiColumns@@@@QEAA@XZ		; ImVector<ImGuiColumns>::~ImVector<ImGuiColumns>
PUBLIC	??A?$ImVector@UImGuiColumns@@@@QEAAAEAUImGuiColumns@@H@Z ; ImVector<ImGuiColumns>::operator[]
PUBLIC	??0ImGuiWindow@@QEAA@PEAUImGuiContext@@PEBD@Z	; ImGuiWindow::ImGuiWindow
PUBLIC	??1ImGuiWindow@@QEAA@XZ				; ImGuiWindow::~ImGuiWindow
PUBLIC	?GetID@ImGuiWindow@@QEAAIPEBD0@Z		; ImGuiWindow::GetID
PUBLIC	?GetID@ImGuiWindow@@QEAAIPEBX@Z			; ImGuiWindow::GetID
PUBLIC	?GetID@ImGuiWindow@@QEAAIH@Z			; ImGuiWindow::GetID
PUBLIC	?GetIDNoKeepAlive@ImGuiWindow@@QEAAIPEBD0@Z	; ImGuiWindow::GetIDNoKeepAlive
PUBLIC	?GetIDNoKeepAlive@ImGuiWindow@@QEAAIPEBX@Z	; ImGuiWindow::GetIDNoKeepAlive
PUBLIC	?GetIDNoKeepAlive@ImGuiWindow@@QEAAIH@Z		; ImGuiWindow::GetIDNoKeepAlive
PUBLIC	?GetIDFromRectangle@ImGuiWindow@@QEAAIAEBUImRect@@@Z ; ImGuiWindow::GetIDFromRectangle
PUBLIC	?Rect@ImGuiWindow@@QEBA?AUImRect@@XZ		; ImGuiWindow::Rect
PUBLIC	?CalcFontSize@ImGuiWindow@@QEBAMXZ		; ImGuiWindow::CalcFontSize
PUBLIC	?TitleBarHeight@ImGuiWindow@@QEBAMXZ		; ImGuiWindow::TitleBarHeight
PUBLIC	?TitleBarRect@ImGuiWindow@@QEBA?AUImRect@@XZ	; ImGuiWindow::TitleBarRect
PUBLIC	?MenuBarHeight@ImGuiWindow@@QEBAMXZ		; ImGuiWindow::MenuBarHeight
PUBLIC	?MenuBarRect@ImGuiWindow@@QEBA?AUImRect@@XZ	; ImGuiWindow::MenuBarRect
PUBLIC	??_GImGuiWindow@@QEAAPEAXI@Z			; ImGuiWindow::`scalar deleting destructor'
PUBLIC	??1?$ImVector@UImGuiTabItem@@@@QEAA@XZ		; ImVector<ImGuiTabItem>::~ImVector<ImGuiTabItem>
PUBLIC	??A?$ImVector@UImGuiTabItem@@@@QEAAAEAUImGuiTabItem@@H@Z ; ImVector<ImGuiTabItem>::operator[]
PUBLIC	?GetTabName@ImGuiTabBar@@QEBAPEBDPEBUImGuiTabItem@@@Z ; ImGuiTabBar::GetTabName
PUBLIC	??1ImGuiTabBar@@QEAA@XZ				; ImGuiTabBar::~ImGuiTabBar
PUBLIC	??_GImGuiTabBar@@QEAAPEAXI@Z			; ImGuiTabBar::`scalar deleting destructor'
PUBLIC	?GetCurrentWindowRead@ImGui@@YAPEAUImGuiWindow@@XZ ; ImGui::GetCurrentWindowRead
PUBLIC	?GetCurrentWindow@ImGui@@YAPEAUImGuiWindow@@XZ	; ImGui::GetCurrentWindow
PUBLIC	?FindWindowByID@ImGui@@YAPEAUImGuiWindow@@I@Z	; ImGui::FindWindowByID
PUBLIC	?FindWindowByName@ImGui@@YAPEAUImGuiWindow@@PEBD@Z ; ImGui::FindWindowByName
PUBLIC	?UpdateWindowParentAndRootLinks@ImGui@@YAXPEAUImGuiWindow@@H0@Z ; ImGui::UpdateWindowParentAndRootLinks
PUBLIC	?CalcWindowExpectedSize@ImGui@@YA?AUImVec2@@PEAUImGuiWindow@@@Z ; ImGui::CalcWindowExpectedSize
PUBLIC	?IsWindowChildOf@ImGui@@YA_NPEAUImGuiWindow@@0@Z ; ImGui::IsWindowChildOf
PUBLIC	?IsWindowNavFocusable@ImGui@@YA_NPEAUImGuiWindow@@@Z ; ImGui::IsWindowNavFocusable
PUBLIC	?GetWindowAllowedExtentRect@ImGui@@YA?AUImRect@@PEAUImGuiWindow@@@Z ; ImGui::GetWindowAllowedExtentRect
PUBLIC	?SetWindowPos@ImGui@@YAXPEAUImGuiWindow@@AEBUImVec2@@H@Z ; ImGui::SetWindowPos
PUBLIC	?SetWindowSize@ImGui@@YAXPEAUImGuiWindow@@AEBUImVec2@@H@Z ; ImGui::SetWindowSize
PUBLIC	?SetWindowCollapsed@ImGui@@YAXPEAUImGuiWindow@@_NH@Z ; ImGui::SetWindowCollapsed
PUBLIC	?FocusWindow@ImGui@@YAXPEAUImGuiWindow@@@Z	; ImGui::FocusWindow
PUBLIC	?FocusTopMostWindowUnderOne@ImGui@@YAXPEAUImGuiWindow@@0@Z ; ImGui::FocusTopMostWindowUnderOne
PUBLIC	?BringWindowToFocusFront@ImGui@@YAXPEAUImGuiWindow@@@Z ; ImGui::BringWindowToFocusFront
PUBLIC	?BringWindowToDisplayFront@ImGui@@YAXPEAUImGuiWindow@@@Z ; ImGui::BringWindowToDisplayFront
PUBLIC	?BringWindowToDisplayBack@ImGui@@YAXPEAUImGuiWindow@@@Z ; ImGui::BringWindowToDisplayBack
PUBLIC	?SetCurrentFont@ImGui@@YAXPEAUImFont@@@Z	; ImGui::SetCurrentFont
PUBLIC	?GetDefaultFont@ImGui@@YAPEAUImFont@@XZ		; ImGui::GetDefaultFont
PUBLIC	?GetForegroundDrawList@ImGui@@YAPEAUImDrawList@@PEAUImGuiWindow@@@Z ; ImGui::GetForegroundDrawList
PUBLIC	?Initialize@ImGui@@YAXPEAUImGuiContext@@@Z	; ImGui::Initialize
PUBLIC	?Shutdown@ImGui@@YAXPEAUImGuiContext@@@Z	; ImGui::Shutdown
PUBLIC	?UpdateHoveredWindowAndCaptureFlags@ImGui@@YAXXZ ; ImGui::UpdateHoveredWindowAndCaptureFlags
PUBLIC	?StartMouseMovingWindow@ImGui@@YAXPEAUImGuiWindow@@@Z ; ImGui::StartMouseMovingWindow
PUBLIC	?UpdateMouseMovingWindowNewFrame@ImGui@@YAXXZ	; ImGui::UpdateMouseMovingWindowNewFrame
PUBLIC	?UpdateMouseMovingWindowEndFrame@ImGui@@YAXXZ	; ImGui::UpdateMouseMovingWindowEndFrame
PUBLIC	?MarkIniSettingsDirty@ImGui@@YAXXZ		; ImGui::MarkIniSettingsDirty
PUBLIC	?MarkIniSettingsDirty@ImGui@@YAXPEAUImGuiWindow@@@Z ; ImGui::MarkIniSettingsDirty
PUBLIC	?ClearIniSettings@ImGui@@YAXXZ			; ImGui::ClearIniSettings
PUBLIC	?CreateNewWindowSettings@ImGui@@YAPEAUImGuiWindowSettings@@PEBD@Z ; ImGui::CreateNewWindowSettings
PUBLIC	?FindWindowSettings@ImGui@@YAPEAUImGuiWindowSettings@@I@Z ; ImGui::FindWindowSettings
PUBLIC	?FindOrCreateWindowSettings@ImGui@@YAPEAUImGuiWindowSettings@@PEBD@Z ; ImGui::FindOrCreateWindowSettings
PUBLIC	?FindSettingsHandler@ImGui@@YAPEAUImGuiSettingsHandler@@PEBD@Z ; ImGui::FindSettingsHandler
PUBLIC	?SetNextWindowScroll@ImGui@@YAXAEBUImVec2@@@Z	; ImGui::SetNextWindowScroll
PUBLIC	?SetScrollX@ImGui@@YAXPEAUImGuiWindow@@M@Z	; ImGui::SetScrollX
PUBLIC	?SetScrollY@ImGui@@YAXPEAUImGuiWindow@@M@Z	; ImGui::SetScrollY
PUBLIC	?SetScrollFromPosX@ImGui@@YAXPEAUImGuiWindow@@MM@Z ; ImGui::SetScrollFromPosX
PUBLIC	?SetScrollFromPosY@ImGui@@YAXPEAUImGuiWindow@@MM@Z ; ImGui::SetScrollFromPosY
PUBLIC	?ScrollToBringRectIntoView@ImGui@@YA?AUImVec2@@PEAUImGuiWindow@@AEBUImRect@@@Z ; ImGui::ScrollToBringRectIntoView
PUBLIC	?SetActiveID@ImGui@@YAXIPEAUImGuiWindow@@@Z	; ImGui::SetActiveID
PUBLIC	?SetFocusID@ImGui@@YAXIPEAUImGuiWindow@@@Z	; ImGui::SetFocusID
PUBLIC	?ClearActiveID@ImGui@@YAXXZ			; ImGui::ClearActiveID
PUBLIC	?GetHoveredID@ImGui@@YAIXZ			; ImGui::GetHoveredID
PUBLIC	?SetHoveredID@ImGui@@YAXI@Z			; ImGui::SetHoveredID
PUBLIC	?KeepAliveID@ImGui@@YAXI@Z			; ImGui::KeepAliveID
PUBLIC	?MarkItemEdited@ImGui@@YAXI@Z			; ImGui::MarkItemEdited
PUBLIC	?PushOverrideID@ImGui@@YAXI@Z			; ImGui::PushOverrideID
PUBLIC	?ItemSize@ImGui@@YAXAEBUImVec2@@M@Z		; ImGui::ItemSize
PUBLIC	?ItemSize@ImGui@@YAXAEBUImRect@@M@Z		; ImGui::ItemSize
PUBLIC	?ItemAdd@ImGui@@YA_NAEBUImRect@@IPEBU2@@Z	; ImGui::ItemAdd
PUBLIC	?ItemHoverable@ImGui@@YA_NAEBUImRect@@I@Z	; ImGui::ItemHoverable
PUBLIC	?IsClippedEx@ImGui@@YA_NAEBUImRect@@I_N@Z	; ImGui::IsClippedEx
PUBLIC	?FocusableItemRegister@ImGui@@YA_NPEAUImGuiWindow@@I@Z ; ImGui::FocusableItemRegister
PUBLIC	?FocusableItemUnregister@ImGui@@YAXPEAUImGuiWindow@@@Z ; ImGui::FocusableItemUnregister
PUBLIC	?CalcItemSize@ImGui@@YA?AUImVec2@@U2@MM@Z	; ImGui::CalcItemSize
PUBLIC	?CalcWrapWidthForPos@ImGui@@YAMAEBUImVec2@@M@Z	; ImGui::CalcWrapWidthForPos
PUBLIC	?PushMultiItemsWidths@ImGui@@YAXHM@Z		; ImGui::PushMultiItemsWidths
PUBLIC	?PushItemFlag@ImGui@@YAXH_N@Z			; ImGui::PushItemFlag
PUBLIC	?PopItemFlag@ImGui@@YAXXZ			; ImGui::PopItemFlag
PUBLIC	?IsItemToggledSelection@ImGui@@YA_NXZ		; ImGui::IsItemToggledSelection
PUBLIC	?GetContentRegionMaxAbs@ImGui@@YA?AUImVec2@@XZ	; ImGui::GetContentRegionMaxAbs
PUBLIC	?LogBegin@ImGui@@YAXW4ImGuiLogType@@H@Z		; ImGui::LogBegin
PUBLIC	?LogToBuffer@ImGui@@YAXH@Z			; ImGui::LogToBuffer
PUBLIC	?BeginChildEx@ImGui@@YA_NPEBDIAEBUImVec2@@_NH@Z	; ImGui::BeginChildEx
PUBLIC	?OpenPopupEx@ImGui@@YAXI@Z			; ImGui::OpenPopupEx
PUBLIC	?ClosePopupToLevel@ImGui@@YAXH_N@Z		; ImGui::ClosePopupToLevel
PUBLIC	?ClosePopupsOverWindow@ImGui@@YAXPEAUImGuiWindow@@_N@Z ; ImGui::ClosePopupsOverWindow
PUBLIC	?IsPopupOpen@ImGui@@YA_NI@Z			; ImGui::IsPopupOpen
PUBLIC	?BeginPopupEx@ImGui@@YA_NIH@Z			; ImGui::BeginPopupEx
PUBLIC	?BeginTooltipEx@ImGui@@YAXHH@Z			; ImGui::BeginTooltipEx
PUBLIC	?GetTopMostPopupModal@ImGui@@YAPEAUImGuiWindow@@XZ ; ImGui::GetTopMostPopupModal
PUBLIC	?FindBestWindowPosForPopup@ImGui@@YA?AUImVec2@@PEAUImGuiWindow@@@Z ; ImGui::FindBestWindowPosForPopup
PUBLIC	?FindBestWindowPosForPopupEx@ImGui@@YA?AUImVec2@@AEBU2@0PEAHAEBUImRect@@2W4ImGuiPopupPositionPolicy@@@Z ; ImGui::FindBestWindowPosForPopupEx
PUBLIC	?NavInitWindow@ImGui@@YAXPEAUImGuiWindow@@_N@Z	; ImGui::NavInitWindow
PUBLIC	?NavMoveRequestButNoResultYet@ImGui@@YA_NXZ	; ImGui::NavMoveRequestButNoResultYet
PUBLIC	?NavMoveRequestCancel@ImGui@@YAXXZ		; ImGui::NavMoveRequestCancel
PUBLIC	?NavMoveRequestForward@ImGui@@YAXHHAEBUImRect@@H@Z ; ImGui::NavMoveRequestForward
PUBLIC	?NavMoveRequestTryWrapping@ImGui@@YAXPEAUImGuiWindow@@H@Z ; ImGui::NavMoveRequestTryWrapping
PUBLIC	?GetNavInputAmount@ImGui@@YAMHW4ImGuiInputReadMode@@@Z ; ImGui::GetNavInputAmount
PUBLIC	?GetNavInputAmount2d@ImGui@@YA?AUImVec2@@HW4ImGuiInputReadMode@@MM@Z ; ImGui::GetNavInputAmount2d
PUBLIC	?CalcTypematicRepeatAmount@ImGui@@YAHMMMM@Z	; ImGui::CalcTypematicRepeatAmount
PUBLIC	?ActivateItem@ImGui@@YAXI@Z			; ImGui::ActivateItem
PUBLIC	?SetNavID@ImGui@@YAXIHI@Z			; ImGui::SetNavID
PUBLIC	?SetNavIDWithRectRel@ImGui@@YAXIHIAEBUImRect@@@Z ; ImGui::SetNavIDWithRectRel
PUBLIC	?PushFocusScope@ImGui@@YAXI@Z			; ImGui::PushFocusScope
PUBLIC	?PopFocusScope@ImGui@@YAXXZ			; ImGui::PopFocusScope
PUBLIC	?IsActiveIdUsingNavDir@ImGui@@YA_NH@Z		; ImGui::IsActiveIdUsingNavDir
PUBLIC	?IsActiveIdUsingNavInput@ImGui@@YA_NH@Z		; ImGui::IsActiveIdUsingNavInput
PUBLIC	?IsActiveIdUsingKey@ImGui@@YA_NH@Z		; ImGui::IsActiveIdUsingKey
PUBLIC	?IsMouseDragPastThreshold@ImGui@@YA_NHM@Z	; ImGui::IsMouseDragPastThreshold
PUBLIC	?IsKeyPressedMap@ImGui@@YA_NH_N@Z		; ImGui::IsKeyPressedMap
PUBLIC	?IsNavInputDown@ImGui@@YA_NH@Z			; ImGui::IsNavInputDown
PUBLIC	?IsNavInputTest@ImGui@@YA_NHW4ImGuiInputReadMode@@@Z ; ImGui::IsNavInputTest
PUBLIC	?GetMergedKeyModFlags@ImGui@@YAHXZ		; ImGui::GetMergedKeyModFlags
PUBLIC	?BeginDragDropTargetCustom@ImGui@@YA_NAEBUImRect@@I@Z ; ImGui::BeginDragDropTargetCustom
PUBLIC	?ClearDragDrop@ImGui@@YAXXZ			; ImGui::ClearDragDrop
PUBLIC	?IsDragDropPayloadBeingAccepted@ImGui@@YA_NXZ	; ImGui::IsDragDropPayloadBeingAccepted
PUBLIC	?RenderText@ImGui@@YAXUImVec2@@PEBD1_N@Z	; ImGui::RenderText
PUBLIC	?RenderTextWrapped@ImGui@@YAXUImVec2@@PEBD1M@Z	; ImGui::RenderTextWrapped
PUBLIC	?RenderTextClipped@ImGui@@YAXAEBUImVec2@@0PEBD1PEBU2@0PEBUImRect@@@Z ; ImGui::RenderTextClipped
PUBLIC	?RenderTextClippedEx@ImGui@@YAXPEAUImDrawList@@AEBUImVec2@@1PEBD2PEBU3@1PEBUImRect@@@Z ; ImGui::RenderTextClippedEx
PUBLIC	?RenderTextEllipsis@ImGui@@YAXPEAUImDrawList@@AEBUImVec2@@1MMPEBD2PEBU3@@Z ; ImGui::RenderTextEllipsis
PUBLIC	?RenderFrame@ImGui@@YAXUImVec2@@0I_NM@Z		; ImGui::RenderFrame
PUBLIC	?RenderFrameBorder@ImGui@@YAXUImVec2@@0M@Z	; ImGui::RenderFrameBorder
PUBLIC	?RenderNavHighlight@ImGui@@YAXAEBUImRect@@IH@Z	; ImGui::RenderNavHighlight
PUBLIC	?FindRenderedTextEnd@ImGui@@YAPEBDPEBD0@Z	; ImGui::FindRenderedTextEnd
PUBLIC	?LogRenderedText@ImGui@@YAXPEBUImVec2@@PEBD1@Z	; ImGui::LogRenderedText
PUBLIC	?GetWindowResizeID@ImGui@@YAIPEAUImGuiWindow@@H@Z ; ImGui::GetWindowResizeID
PUBLIC	?GcCompactTransientWindowBuffers@ImGui@@YAXPEAUImGuiWindow@@@Z ; ImGui::GcCompactTransientWindowBuffers
PUBLIC	?GcAwakeTransientWindowBuffers@ImGui@@YAXPEAUImGuiWindow@@@Z ; ImGui::GcAwakeTransientWindowBuffers
PUBLIC	?DebugStartItemPicker@ImGui@@YAXXZ		; ImGui::DebugStartItemPicker
PUBLIC	?GetVarPtr@ImGuiStyleVarInfo@@QEBAPEAXPEAUImGuiStyle@@@Z ; ImGuiStyleVarInfo::GetVarPtr
PUBLIC	??$IM_DELETE@D@@YAXPEAD@Z			; IM_DELETE<char>
PUBLIC	??$IM_DELETE@UImGuiContext@@@@YAXPEAUImGuiContext@@@Z ; IM_DELETE<ImGuiContext>
PUBLIC	??$IM_DELETE@UImFontAtlas@@@@YAXPEAUImFontAtlas@@@Z ; IM_DELETE<ImFontAtlas>
PUBLIC	??$IM_DELETE@UImGuiWindow@@@@YAXPEAUImGuiWindow@@@Z ; IM_DELETE<ImGuiWindow>
PUBLIC	??_C@_1DM@HCDEHEAL@?$AAE?$AA?3?$AA?2?$AAr?$AAe?$AAp?$AAs?$AA?2?$AAo?$AAc?$AAo?$AAr?$AAn?$AAu?$AAt@ ; `string'
PUBLIC	??_C@_13COJANIEC@?$AA0@				; `string'
PUBLIC	??_C@_1CC@IHACEFEE@?$AAI?$AAt?$AAe?$AAm?$AAs?$AAC?$AAo?$AAu?$AAn?$AAt?$AA?5?$AA?$DN?$AA?$DN?$AA?5?$AA?9@ ; `string'
PUBLIC	?_OptionsStorage@?1??__local_stdio_printf_options@@9@4_KA ; `__local_stdio_printf_options'::`2'::_OptionsStorage
PUBLIC	?_OptionsStorage@?1??__local_stdio_scanf_options@@9@4_KA ; `__local_stdio_scanf_options'::`2'::_OptionsStorage
PUBLIC	??_C@_1EO@FHOHIDNF@?$AAE?$AA?3?$AA?2?$AAr?$AAe?$AAp?$AAs?$AA?2?$AAo?$AAc?$AAo?$AAr?$AAn?$AAu?$AAt@ ; `string'
PUBLIC	??_C@_0N@MFFOHPLI@?$CD?$CDBackground@		; `string'
PUBLIC	??_C@_0N@MFHPHIIJ@?$CD?$CDForeground@		; `string'
PUBLIC	??_C@_1HM@PJKJLKEH@?$AAt?$AAa?$AAb?$AA?9?$AA?$DO?$AAN?$AAa?$AAm?$AAe?$AAO?$AAf?$AAf?$AAs?$AAe?$AAt@ ; `string'
PUBLIC	??_C@_1BC@LLDLMHEG@?$AAk?$AAe?$AAy?$AA?5?$AA?$DM?$AA?5?$AA6?$AA4@ ; `string'
PUBLIC	??_C@_09BJIHMJFE@imgui?4ini@			; `string'
PUBLIC	??_C@_0O@HCOAADPE@imgui_log?4txt@		; `string'
PUBLIC	??_C@_1EA@KDHOGKOH@?$AAE?$AA?3?$AA?1?$AAr?$AAe?$AAp?$AAs?$AA?1?$AAo?$AAc?$AAo?$AAr?$AAn?$AAu?$AAt@ ; `string'
PUBLIC	??_C@_1CC@OJIGCPJC@?$AAn?$AAu?$AAm?$AA_?$AAs?$AAe?$AAg?$AAm?$AAe?$AAn?$AAt?$AAs?$AA?5?$AA?$DO?$AA?5@ ; `string'
PUBLIC	??_C@_1CA@PELHDBHK@?$AAt?$AAe?$AAs?$AAs?$AA_?$AAt?$AAo?$AAl?$AA?5?$AA?$DO?$AA?5?$AA0?$AA?4?$AA0?$AAf@ ; `string'
PUBLIC	??_C@_1CC@MDBCLFOC@?$AAf?$AAi?$AAl?$AAe?$AAn?$AAa?$AAm?$AAe?$AA?5?$AA?$CG?$AA?$CG?$AA?5?$AAm?$AAo?$AAd@ ; `string'
PUBLIC	??_C@_00CNPNBAHC@@				; `string'
PUBLIC	??_C@_1CI@OBIMDDMK@?$AAi?$AAt?$AAe?$AAm?$AAs?$AA_?$AAh?$AAe?$AAi?$AAg?$AAh?$AAt?$AA?5?$AA?$DO?$AA?5@ ; `string'
PUBLIC	??_C@_1EK@MNNNOCAB@?$AAD?$AAi?$AAs?$AAp?$AAl?$AAa?$AAy?$AAS?$AAt?$AAa?$AAr?$AAt?$AA?5?$AA?$DO?$AA?$DN@ ; `string'
PUBLIC	??_C@_1NE@MGLAEJCB@?$AAG?$AAI?$AAm?$AAG?$AAu?$AAi?$AA?5?$AA?$CB?$AA?$DN?$AA?5?$AA0?$AA?5?$AA?$CG?$AA?$CG?$AA?5@ ; `string'
PUBLIC	??_C@_1EM@KGOACLAI@?$AAi?$AAd?$AAx?$AA?5?$AA?$DO?$AA?$DN?$AA?5?$AA0?$AA?5?$AA?$CG?$AA?$CG?$AA?5?$AAi?$AAd?$AAx@ ; `string'
PUBLIC	??_C@_1JA@BICGEIG@?$AA0?$AA?5?$AA?$CG?$AA?$CG?$AA?5?$AA?$CC?$AAC?$AAa?$AAl?$AAl?$AAe?$AAd?$AA?5?$AAP?$AAu@ ; `string'
PUBLIC	??_C@_1JE@EECEMJDC@?$AA0?$AA?5?$AA?$CG?$AA?$CG?$AA?5?$AA?$CC?$AAC?$AAa?$AAl?$AAl?$AAe?$AAd?$AA?5?$AAP?$AAu@ ; `string'
PUBLIC	??_C@_04OJAHODMC@Text@				; `string'
PUBLIC	??_C@_0N@LNHHFNPK@TextDisabled@			; `string'
PUBLIC	??_C@_08DMKFNKPN@WindowBg@			; `string'
PUBLIC	??_C@_07BLEJOHFO@ChildBg@			; `string'
PUBLIC	??_C@_07LKIIIJHA@PopupBg@			; `string'
PUBLIC	??_C@_06CMOGDIBK@Border@			; `string'
PUBLIC	??_C@_0N@DECGFAEC@BorderShadow@			; `string'
PUBLIC	??_C@_07PJIIOGAC@FrameBg@			; `string'
PUBLIC	??_C@_0P@KIOOHHAC@FrameBgHovered@		; `string'
PUBLIC	??_C@_0O@BGDCDDEA@FrameBgActive@		; `string'
PUBLIC	??_C@_07MMLEKCPI@TitleBg@			; `string'
PUBLIC	??_C@_0O@JHBFJHNE@TitleBgActive@		; `string'
PUBLIC	??_C@_0BB@EGCOMBJG@TitleBgCollapsed@		; `string'
PUBLIC	??_C@_09GEKCKLDE@MenuBarBg@			; `string'
PUBLIC	??_C@_0M@MFDHPFJF@ScrollbarBg@			; `string'
PUBLIC	??_C@_0O@HABIDNBE@ScrollbarGrab@		; `string'
PUBLIC	??_C@_0BF@JFEOOMLL@ScrollbarGrabHovered@	; `string'
PUBLIC	??_C@_0BE@GODMFNCF@ScrollbarGrabActive@		; `string'
PUBLIC	??_C@_09DMKAANGE@CheckMark@			; `string'
PUBLIC	??_C@_0L@LAMBADIC@SliderGrab@			; `string'
PUBLIC	??_C@_0BB@HBOBMOMP@SliderGrabActive@		; `string'
PUBLIC	??_C@_06LKBCGDFD@Button@			; `string'
PUBLIC	??_C@_0O@HBCGNIAI@ButtonHovered@		; `string'
PUBLIC	??_C@_0N@IMHOFKJ@ButtonActive@			; `string'
PUBLIC	??_C@_06OENKJGA@Header@				; `string'
PUBLIC	??_C@_0O@HAINNLMC@HeaderHovered@		; `string'
PUBLIC	??_C@_0N@HILFCJOI@HeaderActive@			; `string'
PUBLIC	??_C@_09IBFEOKHN@Separator@			; `string'
PUBLIC	??_C@_0BB@CHICANJA@SeparatorHovered@		; `string'
PUBLIC	??_C@_0BA@BPNGFOJM@SeparatorActive@		; `string'
PUBLIC	??_C@_0L@NGBDNFNJ@ResizeGrip@			; `string'
PUBLIC	??_C@_0BC@NNEDPMNH@ResizeGripHovered@		; `string'
PUBLIC	??_C@_0BB@NBBKHKIC@ResizeGripActive@		; `string'
PUBLIC	??_C@_03IEAKBACE@Tab@				; `string'
PUBLIC	??_C@_0L@JFDLBKBD@TabHovered@			; `string'
PUBLIC	??_C@_09BLMKPFCF@TabActive@			; `string'
PUBLIC	??_C@_0N@KLEENDFP@TabUnfocused@			; `string'
PUBLIC	??_C@_0BD@JMEALEPP@TabUnfocusedActive@		; `string'
PUBLIC	??_C@_09HDJFFJLL@PlotLines@			; `string'
PUBLIC	??_C@_0BB@OMALNJLN@PlotLinesHovered@		; `string'
PUBLIC	??_C@_0O@EEKOCENA@PlotHistogram@		; `string'
PUBLIC	??_C@_0BF@GJALJGDC@PlotHistogramHovered@	; `string'
PUBLIC	??_C@_0P@IBBLAEBJ@TextSelectedBg@		; `string'
PUBLIC	??_C@_0P@GDDMCLOI@DragDropTarget@		; `string'
PUBLIC	??_C@_0N@ENCIHEPH@NavHighlight@			; `string'
PUBLIC	??_C@_0BG@MCGDEFOI@NavWindowingHighlight@	; `string'
PUBLIC	??_C@_0BC@JHKONDGH@NavWindowingDimBg@		; `string'
PUBLIC	??_C@_0BB@JOEAHKNC@ModalWindowDimBg@		; `string'
PUBLIC	??_C@_07NBCGADJA@Unknown@			; `string'
PUBLIC	??_C@_05EJCOBEBF@?$CDMOVE@			; `string'
PUBLIC	??_C@_1DE@OJBIPCGA@?$AAD?$AAr?$AAa?$AAw?$AAL?$AAi?$AAs?$AAt?$AA?5?$AA?$DN?$AA?$DN?$AA?5?$AA?$CG?$AAD?$AAr@ ; `string'
PUBLIC	??_C@_1HA@DMBDPHAC@?$AAg?$AA?4?$AAA?$AAc?$AAt?$AAi?$AAv?$AAe?$AAI?$AAd?$AA?5?$AA?$DN?$AA?$DN?$AA?5?$AAi@ ; `string'
PUBLIC	??_C@_1JO@PPIAHLHG@?$AA?$CI?$AAf?$AAl?$AAa?$AAg?$AAs?$AA?5?$AA?$CG?$AA?5?$AA?$CI?$AAI?$AAm?$AAG?$AAu?$AAi@ ; `string'
PUBLIC	??_C@_08OKBABAGJ@1?477?5WIP@			; `string'
PUBLIC	??_C@_1FK@PIJFGHBG@?$AAg?$AA?4?$AAM?$AAo?$AAv?$AAi?$AAn?$AAg?$AAW?$AAi?$AAn?$AAd?$AAo?$AAw?$AA?5@ ; `string'
PUBLIC	??_C@_1CG@DCCAIGN@?$AAg?$AA?4?$AAF?$AAo?$AAn?$AAt?$AA?9?$AA?$DO?$AAI?$AAs?$AAL?$AAo?$AAa?$AAd?$AAe@ ; `string'
PUBLIC	??_C@_1FG@GBBMCDKF@?$AAg?$AA?4?$AAW?$AAi?$AAn?$AAd?$AAo?$AAw?$AAs?$AAF?$AAo?$AAc?$AAu?$AAs?$AAO@ ; `string'
PUBLIC	??_C@_0P@IMLDNMEK@Debug?$CD?$CDDefault@		; `string'
PUBLIC	??_C@_1FE@JJEPGBAD@?$AAg?$AA?4?$AAC?$AAu?$AAr?$AAr?$AAe?$AAn?$AAt?$AAW?$AAi?$AAn?$AAd?$AAo?$AAw@ ; `string'
PUBLIC	??_C@_0BC@JHPKFIGH@HoveredId?3?50x?$CF08X@	; `string'
PUBLIC	??_C@_0BM@IIPBLKLJ@Press?5ESC?5to?5abort?5picking?4@ ; `string'
PUBLIC	??_C@_0BM@OPIPEIJO@Click?5to?5break?5in?5debugger?$CB@ ; `string'
PUBLIC	??_C@_1EI@IBBBPCIN@?$AA?$CB?$AAg?$AA?4?$AAI?$AAn?$AAi?$AAt?$AAi?$AAa?$AAl?$AAi?$AAz?$AAe?$AAd?$AA?5@ ; `string'
PUBLIC	??_C@_06BKKJGDHO@Window@			; `string'
PUBLIC	??_C@_1OG@INBPPELJ@?$AAd?$AAr?$AAa?$AAw?$AA_?$AAl?$AAi?$AAs?$AAt?$AA?9?$AA?$DO?$AAV?$AAt?$AAx?$AAB@ ; `string'
PUBLIC	??_C@_1OG@ICPLNDEC@?$AAd?$AAr?$AAa?$AAw?$AA_?$AAl?$AAi?$AAs?$AAt?$AA?9?$AA?$DO?$AAI?$AAd?$AAx?$AAB@ ; `string'
PUBLIC	??_C@_1HI@ENCAIJO@?$AA?$CI?$AAi?$AAn?$AAt?$AA?$CJ?$AAd?$AAr?$AAa?$AAw?$AA_?$AAl?$AAi?$AAs?$AAt?$AA?9@ ; `string'
PUBLIC	??_C@_1OI@BGNIEPFI@?$AAd?$AAr?$AAa?$AAw?$AA_?$AAl?$AAi?$AAs?$AAt?$AA?9?$AA?$DO?$AA_?$AAV?$AAt?$AAx@ ; `string'
PUBLIC	??_C@_1BM@ICEHPMG@?$AAg?$AA?4?$AAI?$AAn?$AAi?$AAt?$AAi?$AAa?$AAl?$AAi?$AAz?$AAe?$AAd@ ; `string'
PUBLIC	??_C@_1HE@BFIFNNBB@?$AAg?$AA?4?$AAW?$AAi?$AAt?$AAh?$AAi?$AAn?$AAF?$AAr?$AAa?$AAm?$AAe?$AAS?$AAc@ ; `string'
PUBLIC	??_C@_03KHICJKCI@?4?4?4@			; `string'
PUBLIC	??_C@_1FO@HCCAMJFH@?$AAg?$AA?4?$AAW?$AAi?$AAn?$AAd?$AAo?$AAw?$AAs?$AA?4?$AAS?$AAi?$AAz?$AAe?$AA?5@ ; `string'
PUBLIC	??_C@_1FK@NOIPPDJE@?$AAi?$AAm?$AAg?$AAu?$AAi?$AA_?$AAk?$AAe?$AAy?$AA?5?$AA?$DO?$AA?$DN?$AA?5?$AA0?$AA?5@ ; `string'
PUBLIC	??_C@_1MA@GLKOIJOK@?$AAu?$AAs?$AAe?$AAr?$AA_?$AAk?$AAe?$AAy?$AA_?$AAi?$AAn?$AAd?$AAe?$AAx?$AA?5@ ; `string'
PUBLIC	??_C@_1KM@DBCALINN@?$AAk?$AAe?$AAy?$AA_?$AAi?$AAn?$AAd?$AAe?$AAx?$AA?5?$AA?$DO?$AA?$DN?$AA?5?$AA0?$AA?5@ ; `string'
PUBLIC	??_C@_1KE@HGNMHPHK@?$AAb?$AAu?$AAt?$AAt?$AAo?$AAn?$AA?5?$AA?$DO?$AA?$DN?$AA?5?$AA0?$AA?5?$AA?$CG?$AA?$CG?$AA?5@ ; `string'
PUBLIC	??_C@_1BI@DLHMADOF@?$AAG?$AAI?$AAm?$AAG?$AAu?$AAi?$AA?5?$AA?$CB?$AA?$DN?$AA?5?$AA0@ ; `string'
PUBLIC	??_C@_0L@BDFLDJGI@?$CFs?1?$CFs_?$CF08X@		; `string'
PUBLIC	??_C@_07KBCBAKFA@?$CFs?1?$CF08X@		; `string'
PUBLIC	??_C@_1BA@DDOODPOM@?$AAi?$AAd?$AA?5?$AA?$CB?$AA?$DN?$AA?5?$AA0@ ; `string'
PUBLIC	??_C@_1DE@LOOJAFFK@?$AAg?$AA?4?$AAW?$AAi?$AAt?$AAh?$AAi?$AAn?$AAE?$AAn?$AAd?$AAC?$AAh?$AAi?$AAl@ ; `string'
PUBLIC	??_C@_1FK@ONDIMCKL@?$AAw?$AAi?$AAn?$AAd?$AAo?$AAw?$AA?9?$AA?$DO?$AAF?$AAl?$AAa?$AAg?$AAs?$AA?5?$AA?$CG@ ; `string'
PUBLIC	??_C@_1CC@HPMGAAAI@?$AAn?$AA?5?$AA?$DO?$AA?$DN?$AA?5?$AA0?$AA?5?$AA?$CG?$AA?$CG?$AA?5?$AAn?$AA?5?$AA?$DM?$AA?$DN?$AA?5@ ; `string'
PUBLIC	??_C@_07HDHBJEOI@?$CDRESIZE@			; `string'
PUBLIC	??_C@_09BJOGEADB@?$CDCOLLAPSE@			; `string'
PUBLIC	??_C@_06KIIKKNMI@?$CDCLOSE@			; `string'
PUBLIC	??_C@_01NBENCBCI@?$CK@				; `string'
PUBLIC	??_C@_1FI@JBDNHGBD@?$AAw?$AAi?$AAn?$AAd?$AAo?$AAw?$AA?9?$AA?$DO?$AAR?$AAo?$AAo?$AAt?$AAW?$AAi?$AAn@ ; `string'
PUBLIC	??_C@_1DK@CDEKKEL@?$AAn?$AAa?$AAm?$AAe?$AA?5?$AA?$CB?$AA?$DN?$AA?5?$AA0?$AA?5?$AA?$CG?$AA?$CG?$AA?5?$AAn?$AAa@ ; `string'
PUBLIC	??_C@_1CG@FEBKCKMN@?$AAg?$AA?4?$AAW?$AAi?$AAt?$AAh?$AAi?$AAn?$AAF?$AAr?$AAa?$AAm?$AAe?$AAS?$AAc@ ; `string'
PUBLIC	??_C@_1EE@GGBMECGG@?$AAg?$AA?4?$AAF?$AAr?$AAa?$AAm?$AAe?$AAC?$AAo?$AAu?$AAn?$AAt?$AAE?$AAn?$AAd@ ; `string'
PUBLIC	??_C@_1EK@IADLALGG@?$AAf?$AAl?$AAa?$AAg?$AAs?$AA?5?$AA?$CG?$AA?5?$AAI?$AAm?$AAG?$AAu?$AAi?$AAW?$AAi@ ; `string'
PUBLIC	??_C@_1HM@BDHFFAHO@?$AAp?$AAa?$AAr?$AAe?$AAn?$AAt?$AA_?$AAw?$AAi?$AAn?$AAd?$AAo?$AAw?$AA?5?$AA?$CB@ ; `string'
PUBLIC	??_C@_1EO@GBMDJNAA@?$AAp?$AAa?$AAr?$AAe?$AAn?$AAt?$AA_?$AAw?$AAi?$AAn?$AAd?$AAo?$AAw?$AA?5?$AA?$CG@ ; `string'
PUBLIC	??_C@_1FG@JPKHCDHL@?$AA?$CI?$AAf?$AAl?$AAa?$AAg?$AAs?$AA?5?$AA?$CG?$AA?5?$AAI?$AAm?$AAG?$AAu?$AAi?$AAW@ ; `string'
PUBLIC	??_C@_1IG@DKOLGHNA@?$AA?$CI?$AAg?$AA?4?$AAC?$AAu?$AAr?$AAr?$AAe?$AAn?$AAt?$AAW?$AAi?$AAn?$AAd?$AAo@ ; `string'
PUBLIC	??_C@_1DM@FOOGCAMP@?$AAg?$AA?4?$AAC?$AAu?$AAr?$AAr?$AAe?$AAn?$AAt?$AAW?$AAi?$AAn?$AAd?$AAo?$AAw@ ; `string'
PUBLIC	??_C@_1HI@MIOLBHIM@?$AA?$CI?$AAg?$AA?4?$AAW?$AAi?$AAt?$AAh?$AAi?$AAn?$AAE?$AAn?$AAd?$AAC?$AAh?$AAi@ ; `string'
PUBLIC	??_C@_1EO@CDDKCBBF@?$AAw?$AAi?$AAn?$AAd?$AAo?$AAw?$AA?5?$AA?$DN?$AA?$DN?$AA?5?$AA0?$AA?5?$AA?$HM?$AA?$HM?$AA?5@ ; `string'
PUBLIC	??_C@_1DC@JABAIOEL@?$AAf?$AAo?$AAn?$AAt?$AA?5?$AA?$CG?$AA?$CG?$AA?5?$AAf?$AAo?$AAn?$AAt?$AA?9?$AA?$DO?$AAI@ ; `string'
PUBLIC	??_C@_1CG@FNLEAELN@?$AAf?$AAo?$AAn?$AAt?$AA?9?$AA?$DO?$AAS?$AAc?$AAa?$AAl?$AAe?$AA?5?$AA?$DO?$AA?5?$AA0@ ; `string'
PUBLIC	??_C@_1GK@LMFCIBAK@?$AA?$CI?$AAf?$AAl?$AAa?$AAg?$AAs?$AA?5?$AA?$CG?$AA?5?$AAI?$AAm?$AAG?$AAu?$AAi?$AAH@ ; `string'
PUBLIC	??_C@_1CA@CLMFAGNB@?$AAg?$AA?4?$AAC?$AAu?$AAr?$AAr?$AAe?$AAn?$AAt?$AAW?$AAi?$AAn?$AAd?$AAo?$AAw@ ; `string'
PUBLIC	??_C@_1EE@PBEDMJFL@?$AAc?$AAo?$AAn?$AAd?$AA?5?$AA?$DN?$AA?$DN?$AA?5?$AA0?$AA?5?$AA?$HM?$AA?$HM?$AA?5?$AAI?$AAm@ ; `string'
PUBLIC	??_C@_1BK@JIIMNACC@?$AAs?$AAc?$AAa?$AAl?$AAe?$AA?5?$AA?$DO?$AA?5?$AA0?$AA?4?$AA0?$AAf@ ; `string'
PUBLIC	??_C@_1BK@BEOECDF@?$AAo?$AAf?$AAf?$AAs?$AAe?$AAt?$AA?5?$AA?$DO?$AA?$DN?$AA?5?$AA?9?$AA1@ ; `string'
PUBLIC	??_C@_1IC@BPHALLKA@?$AAs?$AAt?$AAr?$AAc?$AAm?$AAp?$AA?$CI?$AAv?$AAe?$AAr?$AAs?$AAi?$AAo?$AAn?$AA?0@ ; `string'
PUBLIC	??_C@_1HA@BDEJLFJB@?$AAs?$AAz?$AA_?$AAi?$AAo?$AA?5?$AA?$DN?$AA?$DN?$AA?5?$AAs?$AAi?$AAz?$AAe?$AAo?$AAf@ ; `string'
PUBLIC	??_C@_1HM@KECEGJKN@?$AAs?$AAz?$AA_?$AAs?$AAt?$AAy?$AAl?$AAe?$AA?5?$AA?$DN?$AA?$DN?$AA?5?$AAs?$AAi?$AAz@ ; `string'
PUBLIC	??_C@_1HC@KAEGCKOM@?$AAs?$AAz?$AA_?$AAv?$AAe?$AAc?$AA2?$AA?5?$AA?$DN?$AA?$DN?$AA?5?$AAs?$AAi?$AAz?$AAe@ ; `string'
PUBLIC	??_C@_1HC@CFCKCFEN@?$AAs?$AAz?$AA_?$AAv?$AAe?$AAc?$AA4?$AA?5?$AA?$DN?$AA?$DN?$AA?5?$AAs?$AAi?$AAz?$AAe@ ; `string'
PUBLIC	??_C@_1HK@HMLAJPFG@?$AAs?$AAz?$AA_?$AAv?$AAe?$AAr?$AAt?$AA?5?$AA?$DN?$AA?$DN?$AA?5?$AAs?$AAi?$AAz?$AAe@ ; `string'
PUBLIC	??_C@_1HG@IIMLENED@?$AAs?$AAz?$AA_?$AAi?$AAd?$AAx?$AA?5?$AA?$DN?$AA?$DN?$AA?5?$AAs?$AAi?$AAz?$AAe?$AAo@ ; `string'
PUBLIC	??_C@_1JK@GMCNDFJ@?$AA?$CI?$AAg?$AA?4?$AAI?$AAO?$AA?4?$AAD?$AAe?$AAl?$AAt?$AAa?$AAT?$AAi?$AAm?$AAe@ ; `string'
PUBLIC	??_C@_1BAM@KGEBLPLP@?$AA?$CI?$AAg?$AA?4?$AAF?$AAr?$AAa?$AAm?$AAe?$AAC?$AAo?$AAu?$AAn?$AAt?$AA?5?$AA?$DN@ ; `string'
PUBLIC	??_C@_1LC@PGGPGCKP@?$AAg?$AA?4?$AAI?$AAO?$AA?4?$AAD?$AAi?$AAs?$AAp?$AAl?$AAa?$AAy?$AAS?$AAi?$AAz@ ; `string'
PUBLIC	??_C@_1PG@JADLACEI@?$AAg?$AA?4?$AAI?$AAO?$AA?4?$AAF?$AAo?$AAn?$AAt?$AAs?$AA?9?$AA?$DO?$AAF?$AAo?$AAn@ ; `string'
PUBLIC	??_C@_1BAC@FODFLPAM@?$AAg?$AA?4?$AAI?$AAO?$AA?4?$AAF?$AAo?$AAn?$AAt?$AAs?$AA?9?$AA?$DO?$AAF?$AAo?$AAn@ ; `string'
PUBLIC	??_C@_1IA@HHCKGFKM@?$AAg?$AA?4?$AAS?$AAt?$AAy?$AAl?$AAe?$AA?4?$AAC?$AAu?$AAr?$AAv?$AAe?$AAT?$AAe@ ; `string'
PUBLIC	??_C@_1IC@BOPBPOCJ@?$AAg?$AA?4?$AAS?$AAt?$AAy?$AAl?$AAe?$AA?4?$AAC?$AAi?$AAr?$AAc?$AAl?$AAe?$AAS@ ; `string'
PUBLIC	??_C@_1BDK@LCLKOPHF@?$AAg?$AA?4?$AAS?$AAt?$AAy?$AAl?$AAe?$AA?4?$AAA?$AAl?$AAp?$AAh?$AAa?$AA?5?$AA?$DO@ ; `string'
PUBLIC	??_C@_1LO@BODAGONP@?$AAg?$AA?4?$AAS?$AAt?$AAy?$AAl?$AAe?$AA?4?$AAW?$AAi?$AAn?$AAd?$AAo?$AAw?$AAM@ ; `string'
PUBLIC	??_C@_1BDK@FANHHEDI@?$AAg?$AA?4?$AAS?$AAt?$AAy?$AAl?$AAe?$AA?4?$AAW?$AAi?$AAn?$AAd?$AAo?$AAw?$AAM@ ; `string'
PUBLIC	??_C@_1BHK@MLHDJALK@?$AAg?$AA?4?$AAI?$AAO?$AA?4?$AAK?$AAe?$AAy?$AAM?$AAa?$AAp?$AA?$FL?$AAn?$AA?$FN?$AA?5@ ; `string'
PUBLIC	??_C@_1MO@ONPFNFPJ@?$AAg?$AA?4?$AAI?$AAO?$AA?4?$AAK?$AAe?$AAy?$AAM?$AAa?$AAp?$AA?$FL?$AAI?$AAm?$AAG@ ; `string'
PUBLIC	??_C@_1OG@BELPJINP@?$AAg?$AA?4?$AAI?$AAO?$AA?4?$AAK?$AAe?$AAy?$AAM?$AAo?$AAd?$AAs?$AA?5?$AA?$DN?$AA?$DN@ ; `string'
PUBLIC	??_C@_1PM@PNPJAGAO@?$AA?$CI?$AAg?$AA?4?$AAC?$AAu?$AAr?$AAr?$AAe?$AAn?$AAt?$AAW?$AAi?$AAn?$AAd?$AAo@ ; `string'
PUBLIC	??_C@_1PK@KPEOFHN@?$AA?$CI?$AAg?$AA?4?$AAC?$AAu?$AAr?$AAr?$AAe?$AAn?$AAt?$AAW?$AAi?$AAn?$AAd?$AAo@ ; `string'
PUBLIC	??_C@_1HA@BNECBFJH@?$AA?$CK?$AAp?$AA?5?$AA?$DN?$AA?$DN?$AA?5?$AAn?$AA?5?$AA?$CG?$AA?$CG?$AA?5?$AA?$CC?$AAP?$AAu?$AAs@ ; `string'
PUBLIC	??_C@_1FG@LFPLGJE@?$AA?$CK?$AAp?$AA?5?$AA?$DN?$AA?$DN?$AA?5?$AAn?$AA?5?$AA?$CG?$AA?$CG?$AA?5?$AA?$CC?$AAB?$AAe?$AAg@ ; `string'
PUBLIC	??_C@_1IA@CGGAANNC@?$AA?$CK?$AAp?$AA?5?$AA?$DN?$AA?$DN?$AA?5?$AAn?$AA?5?$AA?$CG?$AA?$CG?$AA?5?$AA?$CC?$AAB?$AAe?$AAg@ ; `string'
PUBLIC	??_C@_1GI@GIGPJFLN@?$AA?$CK?$AAp?$AA?5?$AA?$DO?$AA?$DN?$AA?5?$AAn?$AA?5?$AA?$CG?$AA?$CG?$AA?5?$AA?$CC?$AAP?$AAu?$AAs@ ; `string'
PUBLIC	??_C@_1GA@CAPLKMPC@?$AA?$CK?$AAp?$AA?5?$AA?$DO?$AA?$DN?$AA?5?$AAn?$AA?5?$AA?$CG?$AA?$CG?$AA?5?$AA?$CC?$AAP?$AAu?$AAs@ ; `string'
PUBLIC	??_C@_1FA@NLJAEADF@?$AA?$CK?$AAp?$AA?5?$AA?$DO?$AA?$DN?$AA?5?$AAn?$AA?5?$AA?$CG?$AA?$CG?$AA?5?$AA?$CC?$AAP?$AAu?$AAs@ ; `string'
PUBLIC	??_C@_1OO@PAKDGAAA@?$AAp?$AA?5?$AA?$DN?$AA?$DN?$AA?5?$AAw?$AAi?$AAn?$AAd?$AAo?$AAw?$AA?9?$AA?$DO?$AAD?$AAC@ ; `string'
PUBLIC	??_C@_1DO@IKDHAIOB@?$AA?$CB?$AAw?$AAi?$AAn?$AAd?$AAo?$AAw?$AA?9?$AA?$DO?$AAD?$AAC?$AA?4?$AAG?$AAr?$AAo@ ; `string'
PUBLIC	??_C@_1GC@BIJJIADH@?$AAc?$AAe?$AAn?$AAt?$AAe?$AAr?$AA_?$AAx?$AA_?$AAr?$AAa?$AAt?$AAi?$AAo?$AA?5@ ; `string'
PUBLIC	??_C@_1GC@LDEACFFC@?$AAc?$AAe?$AAn?$AAt?$AAe?$AAr?$AA_?$AAy?$AA_?$AAr?$AAa?$AAt?$AAi?$AAo?$AA?5@ ; `string'
PUBLIC	??_C@_0P@DHLMFJKK@?$CD?$CDTooltip_?$CF02d@	; `string'
PUBLIC	??_C@_1HC@IKPEGHCP@?$AAG?$AAe?$AAt?$AAC?$AAu?$AAr?$AAr?$AAe?$AAn?$AAt?$AAW?$AAi?$AAn?$AAd?$AAo@ ; `string'
PUBLIC	??_C@_1GI@FJFNMD@?$AA?$CI?$AAp?$AAo?$AAp?$AAu?$AAp?$AA?4?$AAW?$AAi?$AAn?$AAd?$AAo?$AAw?$AA?9?$AA?$DO@ ; `string'
PUBLIC	??_C@_1GI@BPADGCJE@?$AAr?$AAe?$AAm?$AAa?$AAi?$AAn?$AAi?$AAn?$AAg?$AA?5?$AA?$DO?$AA?$DN?$AA?5?$AA0?$AA?5@ ; `string'
PUBLIC	??_C@_0M@NANGKBBK@?$CD?$CDMenu_?$CF02d@		; `string'
PUBLIC	??_C@_0N@PIPFDMLM@?$CD?$CDPopup_?$CF08x@	; `string'
PUBLIC	??_C@_1EO@MGPJKAKN@?$AAw?$AAi?$AAn?$AAd?$AAo?$AAw?$AA?9?$AA?$DO?$AAF?$AAl?$AAa?$AAg?$AAs?$AA?5?$AA?$CG@ ; `string'
PUBLIC	??_C@_1DG@NPFLFCJJ@?$AAg?$AA?4?$AAB?$AAe?$AAg?$AAi?$AAn?$AAP?$AAo?$AAp?$AAu?$AAp?$AAS?$AAt?$AAa@ ; `string'
PUBLIC	??_C@_0P@DCJGJLLM@window_context@		; `string'
PUBLIC	??_C@_0N@OOFNFKBH@void_context@			; `string'
PUBLIC	??_C@_1DE@NAFIGFGG@?$AAg?$AA?4?$AAC?$AAu?$AAr?$AAr?$AAe?$AAn?$AAt?$AAW?$AAi?$AAn?$AAd?$AAo?$AAw@ ; `string'
PUBLIC	??_C@_1BI@DNJHCPPF@?$AAg?$AA?4?$AAN?$AAa?$AAv?$AAW?$AAi?$AAn?$AAd?$AAo?$AAw@ ; `string'
PUBLIC	??_C@_1EC@GJHEKLIJ@?$AAn?$AAa?$AAv?$AA_?$AAl?$AAa?$AAy?$AAe?$AAr?$AA?5?$AA?$DN?$AA?$DN?$AA?5?$AA0?$AA?5@ ; `string'
PUBLIC	??_C@_1IK@IGCCKHOG@?$AA?$CI?$AAw?$AAi?$AAn?$AAd?$AAo?$AAw?$AA?9?$AA?$DO?$AAF?$AAl?$AAa?$AAg?$AAs?$AA?5@ ; `string'
PUBLIC	??_C@_1GA@HNMFLEAL@?$AAg?$AA?4?$AAN?$AAa?$AAv?$AAM?$AAo?$AAv?$AAe?$AAR?$AAe?$AAq?$AAu?$AAe?$AAs@ ; `string'
PUBLIC	??_C@_1CC@BGDNHLPI@?$AAg?$AA?4?$AAN?$AAa?$AAv?$AAW?$AAi?$AAn?$AAd?$AAo?$AAw?$AA?5?$AA?$CB?$AA?$DN?$AA?5@ ; `string'
PUBLIC	??_C@_1CM@NGAIJMCF@?$AAw?$AAi?$AAn?$AAd?$AAo?$AAw?$AA?5?$AA?$DN?$AA?$DN?$AA?5?$AAg?$AA?4?$AAN?$AAa?$AAv@ ; `string'
PUBLIC	??_C@_1CC@PCNOPHOI@?$AAg?$AA?4?$AAN?$AAa?$AAv?$AAM?$AAo?$AAv?$AAe?$AAR?$AAe?$AAq?$AAu?$AAe?$AAs@ ; `string'
PUBLIC	??_C@_1EG@OLANNBKO@?$AAg?$AA?4?$AAN?$AAa?$AAv?$AAL?$AAa?$AAy?$AAe?$AAr?$AA?5?$AA?$DN?$AA?$DN?$AA?5?$AA0@ ; `string'
PUBLIC	??_C@_1DG@HPGLIPGM@?$AAc?$AAh?$AAi?$AAl?$AAd?$AA_?$AAw?$AAi?$AAn?$AAd?$AAo?$AAw?$AA?9?$AA?$DO?$AAC@ ; `string'
PUBLIC	??_C@_1EO@NJCLOIHM@?$AAg?$AA?4?$AAN?$AAa?$AAv?$AAA?$AAc?$AAt?$AAi?$AAv?$AAa?$AAt?$AAe?$AAD?$AAo@ ; `string'
PUBLIC	??_C@_1IG@KDKGHOJC@?$AAg?$AA?4?$AAN?$AAa?$AAv?$AAM?$AAo?$AAv?$AAe?$AAD?$AAi?$AAr?$AA?5?$AA?$CB?$AA?$DN@ ; `string'
PUBLIC	??_C@_1HC@ODAAGLGB@?$AAg?$AA?4?$AAN?$AAa?$AAv?$AAM?$AAo?$AAv?$AAe?$AAR?$AAe?$AAq?$AAu?$AAe?$AAs@ ; `string'
PUBLIC	??_C@_1DO@NFHNJCFP@?$AA?$CB?$AAg?$AA?4?$AAN?$AAa?$AAv?$AAS?$AAc?$AAo?$AAr?$AAi?$AAn?$AAg?$AAR?$AAe@ ; `string'
PUBLIC	??_C@_1DM@EKPCIOHK@?$AAg?$AA?4?$AAN?$AAa?$AAv?$AAW?$AAi?$AAn?$AAd?$AAo?$AAw?$AA?5?$AA?$CG?$AA?$CG?$AA?5@ ; `string'
PUBLIC	??_C@_1CA@PADPOC@?$AAm?$AAo?$AAv?$AAe?$AA_?$AAf?$AAl?$AAa?$AAg?$AAs?$AA?5?$AA?$CB?$AA?$DN?$AA?5?$AA0@ ; `string'
PUBLIC	??_C@_1CK@OIBCGJMF@?$AAg?$AA?4?$AAN?$AAa?$AAv?$AAW?$AAi?$AAn?$AAd?$AAo?$AAw?$AAi?$AAn?$AAg?$AAT@ ; `string'
PUBLIC	??_C@_07NPLNEKJH@?$CIPopup?$CJ@			; `string'
PUBLIC	??_C@_0O@BKOLOJFE@?$CD?$CDMainMenuBar@		; `string'
PUBLIC	??_C@_0BA@KDPNEDEH@?$CIMain?5menu?5bar?$CJ@	; `string'
PUBLIC	??_C@_0L@JOJOIPFK@?$CIUntitled?$CJ@		; `string'
PUBLIC	??_C@_1DE@DBGGCEBB@?$AAg?$AA?4?$AAN?$AAa?$AAv?$AAW?$AAi?$AAn?$AAd?$AAo?$AAw?$AAi?$AAn?$AAg?$AAT@ ; `string'
PUBLIC	??_C@_0BE@EBHFKNCA@?$CD?$CD?$CDNavWindowingList@ ; `string'
PUBLIC	??_C@_0O@KMAIKFAM@?$CDSourceExtern@		; `string'
PUBLIC	??_C@_1BO@PJLJNAI@?$AAs?$AAo?$AAu?$AAr?$AAc?$AAe?$AA_?$AAi?$AAd?$AA?5?$AA?$CB?$AA?$DN?$AA?5?$AA0@ ; `string'
PUBLIC	??_C@_1CC@NMCEOFEI@?$AAg?$AA?4?$AAD?$AAr?$AAa?$AAg?$AAD?$AAr?$AAo?$AAp?$AAA?$AAc?$AAt?$AAi?$AAv@ ; `string'
PUBLIC	??_C@_1HO@KPNGOBLC@?$AAg?$AA?4?$AAD?$AAr?$AAa?$AAg?$AAD?$AAr?$AAo?$AAp?$AAW?$AAi?$AAt?$AAh?$AAi@ ; `string'
PUBLIC	??_C@_1BE@MGJHACMG@?$AAt?$AAy?$AAp?$AAe?$AA?5?$AA?$CB?$AA?$DN?$AA?5?$AA0@ ; `string'
PUBLIC	??_C@_1BAC@ICGKEBHB@?$AAs?$AAt?$AAr?$AAl?$AAe?$AAn?$AA?$CI?$AAt?$AAy?$AAp?$AAe?$AA?$CJ?$AA?5?$AA?$DM?$AA?5@ ; `string'
PUBLIC	??_C@_1HM@NCOAFGFM@?$AA?$CI?$AAd?$AAa?$AAt?$AAa?$AA?5?$AA?$CB?$AA?$DN?$AA?5?$AA0?$AA?5?$AA?$CG?$AA?$CG?$AA?5?$AAd@ ; `string'
PUBLIC	??_C@_1GG@ONMAEHAO@?$AAc?$AAo?$AAn?$AAd?$AA?5?$AA?$DN?$AA?$DN?$AA?5?$AAI?$AAm?$AAG?$AAu?$AAi?$AAC?$AAo@ ; `string'
PUBLIC	??_C@_1CM@DLJODDMB@?$AAp?$AAa?$AAy?$AAl?$AAo?$AAa?$AAd?$AA?4?$AAS?$AAo?$AAu?$AAr?$AAc?$AAe?$AAI@ ; `string'
PUBLIC	??_C@_1EA@CHPNIKA@?$AAg?$AA?4?$AAD?$AAr?$AAa?$AAg?$AAD?$AAr?$AAo?$AAp?$AAW?$AAi?$AAt?$AAh?$AAi@ ; `string'
PUBLIC	??_C@_1DK@OHFCBLGB@?$AAp?$AAa?$AAy?$AAl?$AAo?$AAa?$AAd?$AA?4?$AAD?$AAa?$AAt?$AAa?$AAF?$AAr?$AAa@ ; `string'
PUBLIC	??_C@_1CO@LEPEHAFL@?$AAg?$AA?4?$AAD?$AAr?$AAa?$AAg?$AAD?$AAr?$AAo?$AAp?$AAW?$AAi?$AAt?$AAh?$AAi@ ; `string'
PUBLIC	??_C@_09FDEMHCFC@?$AN?6?$CF?$CKs?$CF?4?$CKs@	; `string'
PUBLIC	??_C@_07LFDEMEGD@?$CF?$CKs?$CF?4?$CKs@		; `string'
PUBLIC	??_C@_05DBJFMKBA@?5?$CF?4?$CKs@			; `string'
PUBLIC	??_C@_02PCIJFNDE@?$AN?6@			; `string'
PUBLIC	??_C@_1CM@DLAMPOKC@?$AAg?$AA?4?$AAL?$AAo?$AAg?$AAE?$AAn?$AAa?$AAb?$AAl?$AAe?$AAd?$AA?5?$AA?$DN?$AA?$DN@ ; `string'
PUBLIC	??_C@_1BO@HOGBMEAE@?$AAg?$AA?4?$AAL?$AAo?$AAg?$AAF?$AAi?$AAl?$AAe?$AA?5?$AA?$DN?$AA?$DN?$AA?5?$AA0@ ; `string'
PUBLIC	??_C@_1CI@CDGOCLNI@?$AAg?$AA?4?$AAL?$AAo?$AAg?$AAB?$AAu?$AAf?$AAf?$AAe?$AAr?$AA?4?$AAe?$AAm?$AAp@ ; `string'
PUBLIC	??_C@_02BOGAIONP@ab@				; `string'
PUBLIC	??_C@_0L@DMNDGOCF@LogButtons@			; `string'
PUBLIC	??_C@_0L@COILDFG@Log?5To?5TTY@			; `string'
PUBLIC	??_C@_0M@KAEBEAHF@Log?5To?5File@		; `string'
PUBLIC	??_C@_0BB@CPOBJDKM@Log?5To?5Clipboard@		; `string'
PUBLIC	??_C@_0O@CONALMON@Default?5Depth@		; `string'
PUBLIC	??_C@_1DE@BLONNHPO@?$AAg?$AA?4?$AAS?$AAe?$AAt?$AAt?$AAi?$AAn?$AAg?$AAs?$AAW?$AAi?$AAn?$AAd?$AAo@ ; `string'
PUBLIC	??_C@_03OIJOKPOL@?$CD?$CD?$CD@			; `string'
PUBLIC	??_C@_02JDPG@rb@				; `string'
PUBLIC	??_C@_02BKFDOEMK@wt@				; `string'
PUBLIC	??_C@_09GOMOMIIP@Pos?$DN?$CFi?0?$CFi@		; `string'
PUBLIC	??_C@_0L@MPPKDMFA@Size?$DN?$CFi?0?$CFi@		; `string'
PUBLIC	??_C@_0N@IAKNMBB@Collapsed?$DN?$CFd@		; `string'
PUBLIC	??_C@_1DG@BLKMIOLK@?$AAs?$AAe?$AAt?$AAt?$AAi?$AAn?$AAg?$AAs?$AA?9?$AA?$DO?$AAI?$AAD?$AA?5?$AA?$DN?$AA?$DN@ ; `string'
PUBLIC	??_C@_09HNFDDBIF@?$FL?$CFs?$FN?$FL?$CFs?$FN?6@	; `string'
PUBLIC	??_C@_0L@DDMADIHO@Pos?$DN?$CFd?0?$CFd?6@	; `string'
PUBLIC	??_C@_0M@CFANMDMP@Size?$DN?$CFd?0?$CFd?6@	; `string'
PUBLIC	??_C@_0O@JAFHMCKE@Collapsed?$DN?$CFd?6@		; `string'
PUBLIC	??_C@_03NAEMJKHE@?$CI?$DP?$CJ@			; `string'
PUBLIC	??_C@_1CO@NHFPKPKM@?$AAs?$AAh?$AAo?$AAw?$AA_?$AAm?$AAe?$AAs?$AAh?$AA?5?$AA?$HM?$AA?$HM?$AA?5?$AAs?$AAh@ ; `string'
PUBLIC	??_C@_0CF@IMBENNLG@?$CFs?3?5?8?$CFs?8?5?$CFd?5vtx?0?5?$CFd?5indices?0?5?$CFd@ ; `string'
PUBLIC	??_C@_0BE@LDCFEMCB@CURRENTLY?5APPENDING@	; `string'
PUBLIC	??_C@_0EJ@LNIIFBMO@Warning?3?5owning?5Window?5is?5inact@ ; `string'
PUBLIC	??_C@_0BK@FDNBBNBF@Callback?5?$CFp?0?5user_data?5?$CFp@ ; `string'
PUBLIC	??_C@_0EH@JMOALFHG@DrawCmd?3?5?$CF4d?5triangles?0?5Tex?50x?$CF@ ; `string'
PUBLIC	??_C@_02DKCKIIND@?$CFs@				; `string'
PUBLIC	??_C@_0EE@EGAMBHDK@Mesh?3?5ElemCount?3?5?$CFd?0?5VtxOffset?3@ ; `string'
PUBLIC	??_C@_05HCFPDLGJ@Vert?3@			; `string'
PUBLIC	??_C@_05IFKLLJBC@?5?5?5?5?5@			; `string'
PUBLIC	??_C@_0DG@MPIFBGBG@?$CFs?5?$CF04d?3?5pos?5?$CI?$CF8?42f?0?$CF8?42f?$CJ?0?5uv?5@ ; `string'
PUBLIC	??_C@_0CN@LMOAIACO@Columns?5Id?3?50x?$CF08X?0?5Count?3?5?$CFd?0?5@ ; `string'
PUBLIC	??_C@_0CF@PKFCLBKA@Width?3?5?$CF?41f?5?$CIMinX?3?5?$CF?41f?0?5MaxX?3?5@ ; `string'
PUBLIC	??_C@_0CJ@CPAFBJNN@Column?5?$CF02d?3?5OffsetNorm?5?$CF?43f?5?$CI?$DN@ ; `string'
PUBLIC	??_C@_07JMKCEEPK@?$CFs?5?$CI?$CFd?$CJ@		; `string'
PUBLIC	??_C@_08MGKMCIPB@?$CFs?3?5NULL@			; `string'
PUBLIC	??_C@_0BD@KOKNLAED@?$CFs?5?8?$CFs?8?0?5?$CFd?5?$EA?50x?$CFp@ ; `string'
PUBLIC	??_C@_0CH@GFEOKJIM@Note?3?5window?5is?5not?5currently?5v@ ; `string'
PUBLIC	??_C@_0DF@KJLKCABL@Note?3?5some?5memory?5buffers?5have?5@ ; `string'
PUBLIC	??_C@_08IJNCDCKF@DrawList@			; `string'
PUBLIC	??_C@_0DN@IDPJPCAL@Pos?3?5?$CI?$CF?41f?0?$CF?41f?$CJ?0?5Size?3?5?$CI?$CF?41f?0?$CF@ ; `string'
PUBLIC	??_C@_0BB@GGEIPOID@AlwaysAutoResize@		; `string'
PUBLIC	??_C@_0M@COLEABDL@NoNavInputs@			; `string'
PUBLIC	??_C@_0O@LAPEOEIJ@NoMouseInputs@		; `string'
PUBLIC	??_C@_0BB@EBNDPMCP@NoSavedSettings?5@		; `string'
PUBLIC	??_C@_0L@OPMMHACC@ChildMenu?5@			; `string'
PUBLIC	??_C@_06IFIMNOLK@Modal?5@			; `string'
PUBLIC	??_C@_06NMKCIICK@Popup?5@			; `string'
PUBLIC	??_C@_08LGECAIGF@Tooltip?5@			; `string'
PUBLIC	??_C@_06MMFPNIIL@Child?5@			; `string'
PUBLIC	??_C@_0CF@HFFEAFCN@Flags?3?50x?$CF08X?5?$CI?$CFs?$CFs?$CFs?$CFs?$CFs?$CFs?$CFs?$CFs@ ; `string'
PUBLIC	??_C@_01NFFPALBN@Y@				; `string'
PUBLIC	??_C@_01MMEEDKFM@X@				; `string'
PUBLIC	??_C@_0CN@OBHMFINH@Scroll?3?5?$CI?$CF?42f?1?$CF?42f?0?$CF?42f?1?$CF?42f?$CJ?5S@ ; `string'
PUBLIC	??_C@_0DO@LPCMGHLI@Active?3?5?$CFd?1?$CFd?0?5WriteAccessed?3?5?$CF@ ; `string'
PUBLIC	??_C@_0EA@JLDPMAKO@Appearing?3?5?$CFd?0?5Hidden?3?5?$CFd?5?$CICanS@ ; `string'
PUBLIC	??_C@_0DC@CFCLKJDH@NavLastIds?3?50x?$CF08X?00x?$CF08X?0?5NavL@ ; `string'
PUBLIC	??_C@_04HIBGFPH@NULL@				; `string'
PUBLIC	??_C@_0BK@KLNPELCL@NavLastChildNavWindow?3?5?$CFs@ ; `string'
PUBLIC	??_C@_0CG@HFMDFCIJ@NavRectRel?$FL0?$FN?3?5?$CI?$CF?41f?0?$CF?41f?$CJ?$CI?$CF?41f@ ; `string'
PUBLIC	??_C@_0BG@KHCECGOM@NavRectRel?$FL0?$FN?3?5?$DMNone?$DO@ ; `string'
PUBLIC	??_C@_0L@EHLMOHOL@RootWindow@			; `string'
PUBLIC	??_C@_0N@BPPHAMMO@ParentWindow@			; `string'
PUBLIC	??_C@_0N@BGDHDNPO@ChildWindows@			; `string'
PUBLIC	??_C@_0BC@FIDDFLAI@Columns?5sets?5?$CI?$CFd?$CJ@ ; `string'
PUBLIC	??_C@_07IBCCJKML@Columns@			; `string'
PUBLIC	??_C@_07PFGLPMIK@Storage@			; `string'
PUBLIC	??_C@_0DC@NLKEEDHM@0x?$CF08X?5?$CC?$CFs?$CC?5Pos?5?$CI?$CFd?0?$CFd?$CJ?5Size?5?$CI?$CF@ ; `string'
PUBLIC	??_C@_0M@MDILNFHC@?5?$CKInactive?$CK@		; `string'
PUBLIC	??_C@_0BD@HNMBCOGC@TabBar?5?$CI?$CFd?5tabs?$CJ?$CFs@ ; `string'
PUBLIC	??_C@_01MNNFJEPP@?$DM@				; `string'
PUBLIC	??_C@_01PPODPGHN@?$DO@				; `string'
PUBLIC	??_C@_0BH@JADAAALK@?$CF02d?$CFc?5Tab?50x?$CF08X?5?8?$CFs?8@ ; `string'
PUBLIC	??_C@_0BJ@EFAEFOHB@?$CFs?3?5?$CFd?5entries?0?5?$CFd?5bytes@ ; `string'
PUBLIC	??_C@_0BL@LEAFLIMO@Key?50x?$CF08X?5Value?5?$HL?5i?3?5?$CFd?5?$HN@ ; `string'
PUBLIC	??_C@_0BD@BEEBFKMB@Dear?5ImGui?5Metrics@	; `string'
PUBLIC	??_C@_09DBGHEPMN@OuterRect@			; `string'
PUBLIC	??_C@_0BB@CJNOCIFN@OuterRectClipped@		; `string'
PUBLIC	??_C@_09PPJHMOMF@InnerRect@			; `string'
PUBLIC	??_C@_0O@BNFMFEHO@InnerClipRect@		; `string'
PUBLIC	??_C@_08FACDBJHD@WorkRect@			; `string'
PUBLIC	??_C@_07HLHPKMFI@Content@			; `string'
PUBLIC	??_C@_0BC@NDBPEMLC@ContentRegionRect@		; `string'
PUBLIC	??_C@_0O@NCHBJMJF@Dear?5ImGui?5?$CFs@		; `string'
PUBLIC	??_C@_0CN@EIPBEGMP@Application?5average?5?$CF?43f?5ms?1fra@ ; `string'
PUBLIC	??_C@_0CH@HHKODNBE@?$CFd?5vertices?0?5?$CFd?5indices?5?$CI?$CFd?5tri@ ; `string'
PUBLIC	??_C@_0BP@OPGGNCEP@?$CFd?5active?5windows?5?$CI?$CFd?5visible?$CJ@ ; `string'
PUBLIC	??_C@_0BG@NBPNMJGC@?$CFd?5active?5allocations@	; `string'
PUBLIC	??_C@_05OENKALAF@Tools@				; `string'
PUBLIC	??_C@_0O@BDKBPKIH@Item?5Picker?4?4@		; `string'
PUBLIC	??_C@_0IF@BGKDCLHL@Will?5call?5the?5IM_DEBUG_BREAK?$CI?$CJ?5@ ; `string'
PUBLIC	??_C@_0BJ@HJBAEIMP@Show?5windows?5begin?5order@	; `string'
PUBLIC	??_C@_0BI@DIKJGFFM@Show?5windows?5rectangles@	; `string'
PUBLIC	??_C@_0BJ@OFHLDDCB@?$CD?$CDshow_windows_rect_type@ ; `string'
PUBLIC	??_C@_05DMJEEKMI@?8?$CFs?8?3@			; `string'
PUBLIC	??_C@_0DC@MPAIEFII@?$CI?$CF6?41f?0?$CF6?41f?$CJ?5?$CI?$CF6?41f?0?$CF6?41f?$CJ?5Siz@ ; `string'
PUBLIC	??_C@_0CC@IPOFCDML@Show?5mesh?5when?5hovering?5ImDrawC@ ; `string'
PUBLIC	??_C@_0CM@LKLDJBHP@Show?5bounding?5boxes?5when?5hoveri@ ; `string'
PUBLIC	??_C@_07LDLFNPGN@Windows@			; `string'
PUBLIC	??_C@_0BG@JOELHCIA@Active?5DrawLists?5?$CI?$CFd?$CJ@ ; `string'
PUBLIC	??_C@_09KCCHKPGA@DrawLists@			; `string'
PUBLIC	??_C@_0M@CMLJJLKO@Popups?5?$CI?$CFd?$CJ@	; `string'
PUBLIC	??_C@_06ENDEIGLN@Popups@			; `string'
PUBLIC	??_C@_0L@CMJPHOMG@?5ChildMenu@			; `string'
PUBLIC	??_C@_0N@FFCBFAEB@?5ChildWindow@		; `string'
PUBLIC	??_C@_0CA@FCBKAHPI@PopupID?3?5?$CF08x?0?5Window?3?5?8?$CFs?8?$CFs?$CFs@ ; `string'
PUBLIC	??_C@_0O@JLIGAOM@Tab?5Bars?5?$CI?$CFd?$CJ@	; `string'
PUBLIC	??_C@_07NBICDJOO@TabBars@			; `string'
PUBLIC	??_C@_08EEOHOBEO@Settings@			; `string'
PUBLIC	??_C@_05MDNHABIA@Clear@				; `string'
PUBLIC	??_C@_0N@PMPOLMLD@Save?5to?5disk@		; `string'
PUBLIC	??_C@_04OEDFLLKD@?$CC?$CFs?$CC@			; `string'
PUBLIC	??_C@_06CBHGEMFM@?$DMNULL?$DO@			; `string'
PUBLIC	??_C@_0BI@KCGHKNOH@SettingsDirtyTimer?5?$CF?42f@ ; `string'
PUBLIC	??_C@_0BI@PGENAEOL@Settings?5handlers?3?5?$CI?$CFd?$CJ@ ; `string'
PUBLIC	??_C@_0BB@NEINIHH@SettingsHandlers@		; `string'
PUBLIC	??_C@_0CI@CKIDLOMN@Settings?5packed?5data?3?5Windows?3?5@ ; `string'
PUBLIC	??_C@_0BA@GOMGONFN@SettingsWindows@		; `string'
PUBLIC	??_C@_0CI@MPNDIPDD@Settings?5unpacked?5data?5?$CI?4ini?$CJ?3?5@ ; `string'
PUBLIC	??_C@_0BA@IEPJFGMP@SettingsIniData@		; `string'
PUBLIC	??_C@_05FJAOFNGD@?$CD?$CDIni@			; `string'
PUBLIC	??_C@_0P@DKNCHHLP@Internal?5state@		; `string'
PUBLIC	??_C@_04OHJIHAFH@None@				; `string'
PUBLIC	??_C@_05PEEFLODH@Mouse@				; `string'
PUBLIC	??_C@_03JFAAHAIK@Nav@				; `string'
PUBLIC	??_C@_0M@BGJILJC@NavKeyboard@			; `string'
PUBLIC	??_C@_0L@GFEAGONP@NavGamepad@			; `string'
PUBLIC	??_C@_0BE@NBGIHPGN@HoveredWindow?3?5?8?$CFs?8@	; `string'
PUBLIC	??_C@_0BI@IDKCPFKM@HoveredRootWindow?3?5?8?$CFs?8@ ; `string'
PUBLIC	??_C@_0DG@FAAGHPBL@HoveredId?3?50x?$CF08X?10x?$CF08X?5?$CI?$CF?42f?5@ ; `string'
PUBLIC	??_C@_0EB@PEJDHKLE@ActiveId?3?50x?$CF08X?10x?$CF08X?5?$CI?$CF?42f?5s@ ; `string'
PUBLIC	??_C@_0BF@CPEAOPEJ@ActiveIdWindow?3?5?8?$CFs?8@	; `string'
PUBLIC	??_C@_0BD@HCKEDLME@MovingWindow?3?5?8?$CFs?8@	; `string'
PUBLIC	??_C@_0BA@KJPDENCF@NavWindow?3?5?8?$CFs?8@	; `string'
PUBLIC	??_C@_0BM@KFFINKHC@NavId?3?50x?$CF08X?0?5NavLayer?3?5?$CFd@ ; `string'
PUBLIC	??_C@_0BD@HIKDFBG@NavInputSource?3?5?$CFs@	; `string'
PUBLIC	??_C@_0BO@PADIALFI@NavActive?3?5?$CFd?0?5NavVisible?3?5?$CFd@ ; `string'
PUBLIC	??_C@_0CK@FMBJOEO@NavActivateId?3?50x?$CF08X?0?5NavInput@ ; `string'
PUBLIC	??_C@_0DC@PBLGJJAI@NavDisableHighlight?3?5?$CFd?0?5NavDis@ ; `string'
PUBLIC	??_C@_0BJ@HGGGEMAP@NavWindowingTarget?3?5?8?$CFs?8@ ; `string'
PUBLIC	??_C@_0DJ@OPOHHHAC@DragDrop?3?5?$CFd?0?5SourceId?5?$DN?50x?$CF08X@ ; `string'
PUBLIC	??_C@_02DPKJAMEF@?$CFd@				; `string'
PUBLIC	??_C@_1BC@DCMHDKFO@?$AAi?$AA?5?$AA?$DM?$AA?5?$AAS?$AAi?$AAz?$AAe@ ; `string'
PUBLIC	??_C@_1BC@KCECIPDP@?$AAS?$AAi?$AAz?$AAe?$AA?5?$AA?$DO?$AA?5?$AA0@ ; `string'
PUBLIC	??_C@_1DG@EPOMENA@?$AAo?$AAf?$AAf?$AA?5?$AA?$DO?$AA?$DN?$AA?5?$AA4?$AA?5?$AA?$CG?$AA?$CG?$AA?5?$AAo?$AAf?$AAf@ ; `string'
PUBLIC	??_C@_1DE@BDDBABLK@?$AAp?$AA?5?$AA?$DO?$AA?$DN?$AA?5?$AAb?$AAe?$AAg?$AAi?$AAn?$AA?$CI?$AA?$CJ?$AA?5?$AA?$CG?$AA?$CG@ ; `string'
PUBLIC	??_C@_1BE@OEELIPPM@?$AAp?$AA?5?$AA?$DM?$AA?5?$AAe?$AAn?$AAd?$AA?$CI?$AA?$CJ@ ; `string'
PUBLIC	??_C@_1DM@JNCAMPLJ@?$AAi?$AAt?$AA?5?$AA?$DO?$AA?$DN?$AA?5?$AAD?$AAa?$AAt?$AAa?$AA?5?$AA?$CG?$AA?$CG?$AA?5?$AAi@ ; `string'
PUBLIC	__real@1e3ce508
PUBLIC	__real@3727c5ac
PUBLIC	__real@38d1b717
PUBLIC	__real@3b808081
PUBLIC	__real@3d23d70a
PUBLIC	__real@3d4ccccd
PUBLIC	__real@3dcccccd
PUBLIC	__real@3e19999a
PUBLIC	__real@3e2aaaab
PUBLIC	__real@3e4ccccd
PUBLIC	__real@3e800000
PUBLIC	__real@3e99999a
PUBLIC	__real@3f000000
PUBLIC	__real@3f19999a
PUBLIC	__real@3f266666
PUBLIC	__real@3f2b851f
PUBLIC	__real@3f333333
PUBLIC	__real@3f3851ec
PUBLIC	__real@3f400000
PUBLIC	__real@3f490fdb
PUBLIC	__real@3f4ccccd
PUBLIC	__real@3f733333
PUBLIC	__real@3f800000
PUBLIC	__real@3fa00000
PUBLIC	__real@3faccccd
PUBLIC	__real@40000000
PUBLIC	__real@40200000
PUBLIC	__real@40400000
PUBLIC	__real@40600000
PUBLIC	__real@40800000
PUBLIC	__real@40a00000
PUBLIC	__real@40c00000
PUBLIC	__real@41000000
PUBLIC	__real@41200000
PUBLIC	__real@41400000
PUBLIC	__real@41800000
PUBLIC	__real@41c00000
PUBLIC	__real@420c0000
PUBLIC	__real@42c80000
PUBLIC	__real@42f00000
PUBLIC	__real@437f0000
PUBLIC	__real@44160000
PUBLIC	__real@44480000
PUBLIC	__real@447a0000
PUBLIC	__real@7f7fffff
PUBLIC	__real@80800000
PUBLIC	__real@be800000
PUBLIC	__real@beaaaaab
PUBLIC	__real@bf800000
PUBLIC	__real@c87a0000
PUBLIC	__real@ff7fffff
PUBLIC	__real@ffefffffffffffff
PUBLIC	__xmm@00000000000000020000000300000001
PUBLIC	__xmm@00000002000000000000000100000003
PUBLIC	__xmm@3f8000003ecccccd3ecccccd3f800000
PUBLIC	__xmm@7fffffff7fffffff7fffffff7fffffff
PUBLIC	__xmm@80000000800000008000000080000000
EXTRN	??_L@YAXPEAX_K1P6AX0@Z2@Z:PROC			; `eh vector constructor iterator'
EXTRN	??_M@YAXPEAX_K1P6AX0@Z@Z:PROC			; `eh vector destructor iterator'
EXTRN	??3@YAXPEAX_K@Z:PROC				; operator delete
EXTRN	__std_terminate:PROC
EXTRN	strstr:PROC
EXTRN	__imp_strncpy:PROC
EXTRN	__imp__wassert:PROC
EXTRN	?StyleColorsDark@ImGui@@YAXPEAUImGuiStyle@@@Z:PROC ; ImGui::StyleColorsDark
EXTRN	?Separator@ImGui@@YAXXZ:PROC			; ImGui::Separator
EXTRN	?TextUnformatted@ImGui@@YAXPEBD0@Z:PROC		; ImGui::TextUnformatted
EXTRN	?Text@ImGui@@YAXPEBDZZ:PROC			; ImGui::Text
EXTRN	?TextV@ImGui@@YAXPEBDPEAD@Z:PROC		; ImGui::TextV
EXTRN	?TextColored@ImGui@@YAXAEBUImVec4@@PEBDZZ:PROC	; ImGui::TextColored
EXTRN	?TextDisabled@ImGui@@YAXPEBDZZ:PROC		; ImGui::TextDisabled
EXTRN	?BulletText@ImGui@@YAXPEBDZZ:PROC		; ImGui::BulletText
EXTRN	?Button@ImGui@@YA_NPEBDAEBUImVec2@@@Z:PROC	; ImGui::Button
EXTRN	?SmallButton@ImGui@@YA_NPEBD@Z:PROC		; ImGui::SmallButton
EXTRN	?Checkbox@ImGui@@YA_NPEBDPEA_N@Z:PROC		; ImGui::Checkbox
EXTRN	?Combo@ImGui@@YA_NPEBDPEAHQEBQEBDHH@Z:PROC	; ImGui::Combo
EXTRN	?SliderInt@ImGui@@YA_NPEBDPEAHHH0@Z:PROC	; ImGui::SliderInt
EXTRN	?InputText@ImGui@@YA_NPEBDPEAD_KHP6AHPEAUImGuiInputTextCallbackData@@@ZPEAX@Z:PROC ; ImGui::InputText
EXTRN	?InputTextMultiline@ImGui@@YA_NPEBDPEAD_KAEBUImVec2@@HP6AHPEAUImGuiInputTextCallbackData@@@ZPEAX@Z:PROC ; ImGui::InputTextMultiline
EXTRN	?TreeNode@ImGui@@YA_NPEBD@Z:PROC		; ImGui::TreeNode
EXTRN	?TreeNode@ImGui@@YA_NPEBD0ZZ:PROC		; ImGui::TreeNode
EXTRN	?TreeNode@ImGui@@YA_NPEBXPEBDZZ:PROC		; ImGui::TreeNode
EXTRN	?TreePop@ImGui@@YAXXZ:PROC			; ImGui::TreePop
EXTRN	?Selectable@ImGui@@YA_NPEBD_NHAEBUImVec2@@@Z:PROC ; ImGui::Selectable
EXTRN	?ClearFreeMemory@ImDrawListSplitter@@QEAAXXZ:PROC ; ImDrawListSplitter::ClearFreeMemory
EXTRN	?PushClipRect@ImDrawList@@QEAAXUImVec2@@0_N@Z:PROC ; ImDrawList::PushClipRect
EXTRN	?PushClipRectFullScreen@ImDrawList@@QEAAXXZ:PROC ; ImDrawList::PushClipRectFullScreen
EXTRN	?PopClipRect@ImDrawList@@QEAAXXZ:PROC		; ImDrawList::PopClipRect
EXTRN	?PushTextureID@ImDrawList@@QEAAXPEAX@Z:PROC	; ImDrawList::PushTextureID
EXTRN	?PopTextureID@ImDrawList@@QEAAXXZ:PROC		; ImDrawList::PopTextureID
EXTRN	?AddLine@ImDrawList@@QEAAXAEBUImVec2@@0IM@Z:PROC ; ImDrawList::AddLine
EXTRN	?AddRect@ImDrawList@@QEAAXAEBUImVec2@@0IMHM@Z:PROC ; ImDrawList::AddRect
EXTRN	?AddRectFilled@ImDrawList@@QEAAXAEBUImVec2@@0IMH@Z:PROC ; ImDrawList::AddRectFilled
EXTRN	?AddText@ImDrawList@@QEAAXAEBUImVec2@@IPEBD1@Z:PROC ; ImDrawList::AddText
EXTRN	?AddText@ImDrawList@@QEAAXPEBUImFont@@MAEBUImVec2@@IPEBD2MPEBUImVec4@@@Z:PROC ; ImDrawList::AddText
EXTRN	?AddPolyline@ImDrawList@@QEAAXPEBUImVec2@@HI_NM@Z:PROC ; ImDrawList::AddPolyline
EXTRN	?AddConvexPolyFilled@ImDrawList@@QEAAXPEBUImVec2@@HI@Z:PROC ; ImDrawList::AddConvexPolyFilled
EXTRN	?PathArcTo@ImDrawList@@QEAAXAEBUImVec2@@MMMH@Z:PROC ; ImDrawList::PathArcTo
EXTRN	?PathArcToFast@ImDrawList@@QEAAXAEBUImVec2@@MHH@Z:PROC ; ImDrawList::PathArcToFast
EXTRN	?Clear@ImDrawList@@QEAAXXZ:PROC			; ImDrawList::Clear
EXTRN	?ClearFreeMemory@ImDrawList@@QEAAXXZ:PROC	; ImDrawList::ClearFreeMemory
EXTRN	??0ImFontAtlas@@QEAA@XZ:PROC			; ImFontAtlas::ImFontAtlas
EXTRN	??1ImFontAtlas@@QEAA@XZ:PROC			; ImFontAtlas::~ImFontAtlas
EXTRN	??0ImFont@@QEAA@XZ:PROC				; ImFont::ImFont
EXTRN	??1ImFont@@QEAA@XZ:PROC				; ImFont::~ImFont
EXTRN	?FindGlyph@ImFont@@QEBAPEBUImFontGlyph@@G@Z:PROC ; ImFont::FindGlyph
EXTRN	?CalcTextSizeA@ImFont@@QEBA?AUImVec2@@MMMPEBD0PEAPEBD@Z:PROC ; ImFont::CalcTextSizeA
EXTRN	?RenderChar@ImFont@@QEBAXPEAUImDrawList@@MUImVec2@@IG@Z:PROC ; ImFont::RenderChar
EXTRN	__imp___acrt_iob_func:PROC
EXTRN	__imp__wfopen:PROC
EXTRN	__imp_fclose:PROC
EXTRN	__imp_fflush:PROC
EXTRN	__imp_fread:PROC
EXTRN	__imp_fseek:PROC
EXTRN	__imp_ftell:PROC
EXTRN	__imp_fwrite:PROC
EXTRN	__imp___stdio_common_vsprintf:PROC
EXTRN	__imp___stdio_common_vsscanf:PROC
EXTRN	__imp_free:PROC
EXTRN	__imp_malloc:PROC
EXTRN	__imp_qsort:PROC
EXTRN	?ImBezierCalc@@YA?AUImVec2@@AEBU1@000M@Z:PROC	; ImBezierCalc
EXTRN	??0ImDrawListSharedData@@QEAA@XZ:PROC		; ImDrawListSharedData::ImDrawListSharedData
EXTRN	?SetCircleSegmentMaxError@ImDrawListSharedData@@QEAAXM@Z:PROC ; ImDrawListSharedData::SetCircleSegmentMaxError
EXTRN	??0ImGuiMenuColumns@@QEAA@XZ:PROC		; ImGuiMenuColumns::ImGuiMenuColumns
EXTRN	?Update@ImGuiMenuColumns@@QEAAXHM_N@Z:PROC	; ImGuiMenuColumns::Update
EXTRN	?EndColumns@ImGui@@YAXXZ:PROC			; ImGui::EndColumns
EXTRN	?GetColumnOffsetFromNorm@ImGui@@YAMPEBUImGuiColumns@@M@Z:PROC ; ImGui::GetColumnOffsetFromNorm
EXTRN	?TabBarQueueChangeTabOrder@ImGui@@YAXPEAUImGuiTabBar@@PEBUImGuiTabItem@@H@Z:PROC ; ImGui::TabBarQueueChangeTabOrder
EXTRN	?RenderMouseCursor@ImGui@@YAXPEAUImDrawList@@UImVec2@@MHIII@Z:PROC ; ImGui::RenderMouseCursor
EXTRN	?CloseButton@ImGui@@YA_NIAEBUImVec2@@@Z:PROC	; ImGui::CloseButton
EXTRN	?CollapseButton@ImGui@@YA_NIAEBUImVec2@@@Z:PROC	; ImGui::CollapseButton
EXTRN	?Scrollbar@ImGui@@YAXW4ImGuiAxis@@@Z:PROC	; ImGui::Scrollbar
EXTRN	?ButtonBehavior@ImGui@@YA_NAEBUImRect@@IPEA_N1H@Z:PROC ; ImGui::ButtonBehavior
EXTRN	__imp_toupper:PROC
EXTRN	__imp_GlobalAlloc:PROC
EXTRN	__imp_GlobalUnlock:PROC
EXTRN	__imp_GlobalLock:PROC
EXTRN	__imp_GlobalFree:PROC
EXTRN	__imp_OpenClipboard:PROC
EXTRN	__imp_CloseClipboard:PROC
EXTRN	__imp_SetClipboardData:PROC
EXTRN	__imp_GetClipboardData:PROC
EXTRN	__imp_EmptyClipboard:PROC
EXTRN	__imp_MultiByteToWideChar:PROC
EXTRN	__imp_WideCharToMultiByte:PROC
EXTRN	ImmGetContext:PROC
EXTRN	ImmReleaseContext:PROC
EXTRN	ImmSetCompositionWindow:PROC
EXTRN	__CxxFrameHandler4:PROC
EXTRN	__GSHandlerCheck:PROC
EXTRN	__GSHandlerCheck_EH4:PROC
EXTRN	__security_check_cookie:PROC
EXTRN	fmodf:PROC
EXTRN	memchr:PROC
EXTRN	memcpy:PROC
EXTRN	memmove:PROC
EXTRN	memset:PROC
EXTRN	strcmp:PROC
EXTRN	__ImageBase:BYTE
EXTRN	__security_cookie:QWORD
EXTRN	_fltused:DWORD
;	COMDAT ?_OptionsStorage@?1??__local_stdio_printf_options@@9@4_KA
_BSS	SEGMENT
?_OptionsStorage@?1??__local_stdio_printf_options@@9@4_KA DQ 01H DUP (?) ; `__local_stdio_printf_options'::`2'::_OptionsStorage
_BSS	ENDS
;	COMDAT ?_OptionsStorage@?1??__local_stdio_scanf_options@@9@4_KA
_BSS	SEGMENT
?_OptionsStorage@?1??__local_stdio_scanf_options@@9@4_KA DQ 01H DUP (?) ; `__local_stdio_scanf_options'::`2'::_OptionsStorage
_BSS	ENDS
_BSS	SEGMENT
	ALIGN	8

?GImAllocatorUserData@@3PEAXEA DQ 01H DUP (?)		; GImAllocatorUserData
_BSS	ENDS
;	COMDAT ?show_windows_rects@?1??ShowMetricsWindow@ImGui@@YAXPEA_N@Z@4_NA
_BSS	SEGMENT
?show_windows_rects@?1??ShowMetricsWindow@ImGui@@YAXPEA_N@Z@4_NA DB 01H DUP (?) ; `ImGui::ShowMetricsWindow'::`2'::show_windows_rects
_BSS	ENDS
;	COMDAT ?show_windows_begin_order@?1??ShowMetricsWindow@ImGui@@YAXPEA_N@Z@4_NA
_BSS	SEGMENT
?show_windows_begin_order@?1??ShowMetricsWindow@ImGui@@YAXPEA_N@Z@4_NA DB 01H DUP (?) ; `ImGui::ShowMetricsWindow'::`2'::show_windows_begin_order
_BSS	ENDS
;	COMDAT pdata
pdata	SEGMENT
$pdata$??_H@YAXPEAX_K1P6APEAX0@Z@Z DD imagerel $LN12
	DD	imagerel $LN12+72
	DD	imagerel $unwind$??_H@YAXPEAX_K1P6APEAX0@Z@Z
pdata	ENDS
;	COMDAT pdata
pdata	SEGMENT
$pdata$?CreateContext@ImGui@@YAPEAUImGuiContext@@PEAUImFontAtlas@@@Z DD imagerel $LN14
	DD	imagerel $LN14+126
	DD	imagerel $unwind$?CreateContext@ImGui@@YAPEAUImGuiContext@@PEAUImFontAtlas@@@Z
pdata	ENDS
;	COMDAT pdata
pdata	SEGMENT
$pdata$?dtor$0@?0??CreateContext@ImGui@@YAPEAUImGuiContext@@PEAUImFontAtlas@@@Z@4HA DD imagerel ?dtor$0@?0??CreateContext@ImGui@@YAPEAUImGuiContext@@PEAUImFontAtlas@@@Z@4HA
	DD	imagerel ?dtor$0@?0??CreateContext@ImGui@@YAPEAUImGuiContext@@PEAUImFontAtlas@@@Z@4HA+35
	DD	imagerel $unwind$?dtor$0@?0??CreateContext@ImGui@@YAPEAUImGuiContext@@PEAUImFontAtlas@@@Z@4HA
pdata	ENDS
;	COMDAT pdata
pdata	SEGMENT
$pdata$?DestroyContext@ImGui@@YAXPEAUImGuiContext@@@Z DD imagerel $LN19
	DD	imagerel $LN19+110
	DD	imagerel $unwind$?DestroyContext@ImGui@@YAXPEAUImGuiContext@@@Z
pdata	ENDS
;	COMDAT pdata
pdata	SEGMENT
$pdata$?GetIO@ImGui@@YAAEAUImGuiIO@@XZ DD imagerel $LN7
	DD	imagerel $LN7+58
	DD	imagerel $unwind$?GetIO@ImGui@@YAAEAUImGuiIO@@XZ
pdata	ENDS
;	COMDAT pdata
pdata	SEGMENT
$pdata$?GetStyle@ImGui@@YAAEAUImGuiStyle@@XZ DD imagerel $LN7
	DD	imagerel $LN7+60
	DD	imagerel $unwind$?GetStyle@ImGui@@YAAEAUImGuiStyle@@XZ
pdata	ENDS
;	COMDAT pdata
pdata	SEGMENT
$pdata$?NewFrame@ImGui@@YAXXZ DD imagerel $LN338
	DD	imagerel $LN338+4
	DD	imagerel $unwind$?NewFrame@ImGui@@YAXXZ
pdata	ENDS
;	COMDAT pdata
pdata	SEGMENT
$pdata$1$?NewFrame@ImGui@@YAXXZ DD imagerel $LN338+4
	DD	imagerel $LN338+21
	DD	imagerel $chain$1$?NewFrame@ImGui@@YAXXZ
pdata	ENDS
;	COMDAT pdata
pdata	SEGMENT
$pdata$3$?NewFrame@ImGui@@YAXXZ DD imagerel $LN338+21
	DD	imagerel $LN338+31
	DD	imagerel $chain$3$?NewFrame@ImGui@@YAXXZ
pdata	ENDS
;	COMDAT pdata
pdata	SEGMENT
$pdata$4$?NewFrame@ImGui@@YAXXZ DD imagerel $LN338+31
	DD	imagerel $LN338+1423
	DD	imagerel $chain$4$?NewFrame@ImGui@@YAXXZ
pdata	ENDS
;	COMDAT pdata
pdata	SEGMENT
$pdata$6$?NewFrame@ImGui@@YAXXZ DD imagerel $LN338+1423
	DD	imagerel $LN338+2641
	DD	imagerel $chain$6$?NewFrame@ImGui@@YAXXZ
pdata	ENDS
;	COMDAT pdata
pdata	SEGMENT
$pdata$7$?NewFrame@ImGui@@YAXXZ DD imagerel $LN338+2641
	DD	imagerel $LN338+2963
	DD	imagerel $chain$7$?NewFrame@ImGui@@YAXXZ
pdata	ENDS
;	COMDAT pdata
pdata	SEGMENT
$pdata$8$?NewFrame@ImGui@@YAXXZ DD imagerel $LN338+2963
	DD	imagerel $LN338+3091
	DD	imagerel $chain$8$?NewFrame@ImGui@@YAXXZ
pdata	ENDS
;	COMDAT pdata
pdata	SEGMENT
$pdata$9$?NewFrame@ImGui@@YAXXZ DD imagerel $LN338+3091
	DD	imagerel $LN338+3436
	DD	imagerel $chain$9$?NewFrame@ImGui@@YAXXZ
pdata	ENDS
;	COMDAT pdata
pdata	SEGMENT
$pdata$10$?NewFrame@ImGui@@YAXXZ DD imagerel $LN338+3436
	DD	imagerel $LN338+3472
	DD	imagerel $chain$10$?NewFrame@ImGui@@YAXXZ
pdata	ENDS
;	COMDAT pdata
pdata	SEGMENT
$pdata$11$?NewFrame@ImGui@@YAXXZ DD imagerel $LN338+3472
	DD	imagerel $LN338+3499
	DD	imagerel $chain$11$?NewFrame@ImGui@@YAXXZ
pdata	ENDS
;	COMDAT pdata
pdata	SEGMENT
$pdata$?EndFrame@ImGui@@YAXXZ DD imagerel $LN82
	DD	imagerel $LN82+69
	DD	imagerel $unwind$?EndFrame@ImGui@@YAXXZ
pdata	ENDS
;	COMDAT pdata
pdata	SEGMENT
$pdata$0$?EndFrame@ImGui@@YAXXZ DD imagerel $LN82+69
	DD	imagerel $LN82+74
	DD	imagerel $chain$0$?EndFrame@ImGui@@YAXXZ
pdata	ENDS
;	COMDAT pdata
pdata	SEGMENT
$pdata$2$?EndFrame@ImGui@@YAXXZ DD imagerel $LN82+74
	DD	imagerel $LN82+669
	DD	imagerel $chain$2$?EndFrame@ImGui@@YAXXZ
pdata	ENDS
;	COMDAT pdata
pdata	SEGMENT
$pdata$3$?EndFrame@ImGui@@YAXXZ DD imagerel $LN82+669
	DD	imagerel $LN82+762
	DD	imagerel $chain$3$?EndFrame@ImGui@@YAXXZ
pdata	ENDS
;	COMDAT pdata
pdata	SEGMENT
$pdata$4$?EndFrame@ImGui@@YAXXZ DD imagerel $LN82+762
	DD	imagerel $LN82+892
	DD	imagerel $chain$4$?EndFrame@ImGui@@YAXXZ
pdata	ENDS
;	COMDAT pdata
pdata	SEGMENT
$pdata$5$?EndFrame@ImGui@@YAXXZ DD imagerel $LN82+892
	DD	imagerel $LN82+982
	DD	imagerel $chain$5$?EndFrame@ImGui@@YAXXZ
pdata	ENDS
;	COMDAT pdata
pdata	SEGMENT
$pdata$6$?EndFrame@ImGui@@YAXXZ DD imagerel $LN82+982
	DD	imagerel $LN82+988
	DD	imagerel $chain$6$?EndFrame@ImGui@@YAXXZ
pdata	ENDS
;	COMDAT pdata
pdata	SEGMENT
$pdata$?Render@ImGui@@YAXXZ DD imagerel $LN126
	DD	imagerel $LN126+1005
	DD	imagerel $unwind$?Render@ImGui@@YAXXZ
pdata	ENDS
;	COMDAT pdata
pdata	SEGMENT
$pdata$?ShowMetricsWindow@ImGui@@YAXPEA_N@Z DD imagerel $LN334
	DD	imagerel $LN334+54
	DD	imagerel $unwind$?ShowMetricsWindow@ImGui@@YAXPEA_N@Z
pdata	ENDS
;	COMDAT pdata
pdata	SEGMENT
$pdata$4$?ShowMetricsWindow@ImGui@@YAXPEA_N@Z DD imagerel $LN334+54
	DD	imagerel $LN334+177
	DD	imagerel $chain$4$?ShowMetricsWindow@ImGui@@YAXPEA_N@Z
pdata	ENDS
;	COMDAT pdata
pdata	SEGMENT
$pdata$8$?ShowMetricsWindow@ImGui@@YAXPEA_N@Z DD imagerel $LN334+177
	DD	imagerel $LN334+674
	DD	imagerel $chain$8$?ShowMetricsWindow@ImGui@@YAXPEA_N@Z
pdata	ENDS
;	COMDAT pdata
pdata	SEGMENT
$pdata$9$?ShowMetricsWindow@ImGui@@YAXPEA_N@Z DD imagerel $LN334+674
	DD	imagerel $LN334+993
	DD	imagerel $chain$9$?ShowMetricsWindow@ImGui@@YAXPEA_N@Z
pdata	ENDS
;	COMDAT pdata
pdata	SEGMENT
$pdata$11$?ShowMetricsWindow@ImGui@@YAXPEA_N@Z DD imagerel $LN334+993
	DD	imagerel $LN334+2541
	DD	imagerel $chain$11$?ShowMetricsWindow@ImGui@@YAXPEA_N@Z
pdata	ENDS
;	COMDAT pdata
pdata	SEGMENT
$pdata$12$?ShowMetricsWindow@ImGui@@YAXPEA_N@Z DD imagerel $LN334+2541
	DD	imagerel $LN334+3528
	DD	imagerel $chain$12$?ShowMetricsWindow@ImGui@@YAXPEA_N@Z
pdata	ENDS
;	COMDAT pdata
pdata	SEGMENT
$pdata$13$?ShowMetricsWindow@ImGui@@YAXPEA_N@Z DD imagerel $LN334+3528
	DD	imagerel $LN334+3554
	DD	imagerel $chain$13$?ShowMetricsWindow@ImGui@@YAXPEA_N@Z
pdata	ENDS
;	COMDAT pdata
pdata	SEGMENT
$pdata$?Begin@ImGui@@YA_NPEBDPEA_NH@Z DD imagerel $LN901
	DD	imagerel $LN901+33
	DD	imagerel $unwind$?Begin@ImGui@@YA_NPEBDPEA_NH@Z
pdata	ENDS
;	COMDAT pdata
pdata	SEGMENT
$pdata$6$?Begin@ImGui@@YA_NPEBDPEA_NH@Z DD imagerel $LN901+33
	DD	imagerel $LN901+1818
	DD	imagerel $chain$6$?Begin@ImGui@@YA_NPEBDPEA_NH@Z
pdata	ENDS
;	COMDAT pdata
pdata	SEGMENT
$pdata$7$?Begin@ImGui@@YA_NPEBDPEA_NH@Z DD imagerel $LN901+1818
	DD	imagerel $LN901+1829
	DD	imagerel $chain$7$?Begin@ImGui@@YA_NPEBDPEA_NH@Z
pdata	ENDS
;	COMDAT pdata
pdata	SEGMENT
$pdata$9$?Begin@ImGui@@YA_NPEBDPEA_NH@Z DD imagerel $LN901+1829
	DD	imagerel $LN901+1856
	DD	imagerel $chain$9$?Begin@ImGui@@YA_NPEBDPEA_NH@Z
pdata	ENDS
;	COMDAT pdata
pdata	SEGMENT
$pdata$14$?Begin@ImGui@@YA_NPEBDPEA_NH@Z DD imagerel $LN901+1856
	DD	imagerel $LN901+1905
	DD	imagerel $chain$14$?Begin@ImGui@@YA_NPEBDPEA_NH@Z
pdata	ENDS
;	COMDAT pdata
pdata	SEGMENT
$pdata$15$?Begin@ImGui@@YA_NPEBDPEA_NH@Z DD imagerel $LN901+1905
	DD	imagerel $LN901+7170
	DD	imagerel $chain$15$?Begin@ImGui@@YA_NPEBDPEA_NH@Z
pdata	ENDS
;	COMDAT pdata
pdata	SEGMENT
$pdata$16$?Begin@ImGui@@YA_NPEBDPEA_NH@Z DD imagerel $LN901+7170
	DD	imagerel $LN901+7522
	DD	imagerel $chain$16$?Begin@ImGui@@YA_NPEBDPEA_NH@Z
pdata	ENDS
;	COMDAT pdata
pdata	SEGMENT
$pdata$17$?Begin@ImGui@@YA_NPEBDPEA_NH@Z DD imagerel $LN901+7522
	DD	imagerel $LN901+7571
	DD	imagerel $chain$17$?Begin@ImGui@@YA_NPEBDPEA_NH@Z
pdata	ENDS
;	COMDAT pdata
pdata	SEGMENT
$pdata$18$?Begin@ImGui@@YA_NPEBDPEA_NH@Z DD imagerel $LN901+7571
	DD	imagerel $LN901+7842
	DD	imagerel $chain$18$?Begin@ImGui@@YA_NPEBDPEA_NH@Z
pdata	ENDS
;	COMDAT pdata
pdata	SEGMENT
$pdata$19$?Begin@ImGui@@YA_NPEBDPEA_NH@Z DD imagerel $LN901+7842
	DD	imagerel $LN901+8649
	DD	imagerel $chain$19$?Begin@ImGui@@YA_NPEBDPEA_NH@Z
pdata	ENDS
;	COMDAT pdata
pdata	SEGMENT
$pdata$20$?Begin@ImGui@@YA_NPEBDPEA_NH@Z DD imagerel $LN901+8649
	DD	imagerel $LN901+8900
	DD	imagerel $chain$20$?Begin@ImGui@@YA_NPEBDPEA_NH@Z
pdata	ENDS
;	COMDAT pdata
pdata	SEGMENT
$pdata$21$?Begin@ImGui@@YA_NPEBDPEA_NH@Z DD imagerel $LN901+8900
	DD	imagerel $LN901+9024
	DD	imagerel $chain$21$?Begin@ImGui@@YA_NPEBDPEA_NH@Z
pdata	ENDS
;	COMDAT pdata
pdata	SEGMENT
$pdata$?End@ImGui@@YAXXZ DD imagerel $LN109
	DD	imagerel $LN109+81
	DD	imagerel $unwind$?End@ImGui@@YAXXZ
pdata	ENDS
;	COMDAT pdata
pdata	SEGMENT
$pdata$1$?End@ImGui@@YAXXZ DD imagerel $LN109+81
	DD	imagerel $LN109+91
	DD	imagerel $chain$1$?End@ImGui@@YAXXZ
pdata	ENDS
;	COMDAT pdata
pdata	SEGMENT
$pdata$2$?End@ImGui@@YAXXZ DD imagerel $LN109+91
	DD	imagerel $LN109+932
	DD	imagerel $chain$2$?End@ImGui@@YAXXZ
pdata	ENDS
;	COMDAT pdata
pdata	SEGMENT
$pdata$3$?End@ImGui@@YAXXZ DD imagerel $LN109+932
	DD	imagerel $LN109+975
	DD	imagerel $chain$3$?End@ImGui@@YAXXZ
pdata	ENDS
;	COMDAT pdata
pdata	SEGMENT
$pdata$4$?End@ImGui@@YAXXZ DD imagerel $LN109+975
	DD	imagerel $LN109+1154
	DD	imagerel $chain$4$?End@ImGui@@YAXXZ
pdata	ENDS
;	COMDAT pdata
pdata	SEGMENT
$pdata$?BeginChild@ImGui@@YA_NPEBDAEBUImVec2@@_NH@Z DD imagerel $LN17
	DD	imagerel $LN17+218
	DD	imagerel $unwind$?BeginChild@ImGui@@YA_NPEBDAEBUImVec2@@_NH@Z
pdata	ENDS
;	COMDAT pdata
pdata	SEGMENT
$pdata$?BeginChild@ImGui@@YA_NIAEBUImVec2@@_NH@Z DD imagerel $LN5
	DD	imagerel $LN5+103
	DD	imagerel $unwind$?BeginChild@ImGui@@YA_NIAEBUImVec2@@_NH@Z
pdata	ENDS
;	COMDAT pdata
pdata	SEGMENT
$pdata$?EndChild@ImGui@@YAXXZ DD imagerel $LN76
	DD	imagerel $LN76+144
	DD	imagerel $unwind$?EndChild@ImGui@@YAXXZ
pdata	ENDS
;	COMDAT pdata
pdata	SEGMENT
$pdata$4$?EndChild@ImGui@@YAXXZ DD imagerel $LN76+144
	DD	imagerel $LN76+330
	DD	imagerel $chain$4$?EndChild@ImGui@@YAXXZ
pdata	ENDS
;	COMDAT pdata
pdata	SEGMENT
$pdata$5$?EndChild@ImGui@@YAXXZ DD imagerel $LN76+330
	DD	imagerel $LN76+665
	DD	imagerel $chain$5$?EndChild@ImGui@@YAXXZ
pdata	ENDS
;	COMDAT pdata
pdata	SEGMENT
$pdata$6$?EndChild@ImGui@@YAXXZ DD imagerel $LN76+665
	DD	imagerel $LN76+693
	DD	imagerel $chain$6$?EndChild@ImGui@@YAXXZ
pdata	ENDS
;	COMDAT pdata
pdata	SEGMENT
$pdata$?IsWindowFocused@ImGui@@YA_NH@Z DD imagerel $LN30
	DD	imagerel $LN30+270
	DD	imagerel $unwind$?IsWindowFocused@ImGui@@YA_NH@Z
pdata	ENDS
;	COMDAT pdata
pdata	SEGMENT
$pdata$?IsWindowHovered@ImGui@@YA_NH@Z DD imagerel $LN44
	DD	imagerel $LN44+315
	DD	imagerel $unwind$?IsWindowHovered@ImGui@@YA_NH@Z
pdata	ENDS
;	COMDAT pdata
pdata	SEGMENT
$pdata$?SetNextWindowPos@ImGui@@YAXAEBUImVec2@@H0@Z DD imagerel $LN10
	DD	imagerel $LN10+141
	DD	imagerel $unwind$?SetNextWindowPos@ImGui@@YAXAEBUImVec2@@H0@Z
pdata	ENDS
;	COMDAT pdata
pdata	SEGMENT
$pdata$?SetNextWindowSize@ImGui@@YAXAEBUImVec2@@H@Z DD imagerel $LN10
	DD	imagerel $LN10+115
	DD	imagerel $unwind$?SetNextWindowSize@ImGui@@YAXAEBUImVec2@@H@Z
pdata	ENDS
;	COMDAT pdata
pdata	SEGMENT
$pdata$?SetNextWindowCollapsed@ImGui@@YAX_NH@Z DD imagerel $LN10
	DD	imagerel $LN10+110
	DD	imagerel $unwind$?SetNextWindowCollapsed@ImGui@@YAX_NH@Z
pdata	ENDS
;	COMDAT pdata
pdata	SEGMENT
$pdata$?SetWindowFontScale@ImGui@@YAXM@Z DD imagerel $LN11
	DD	imagerel $LN11+143
	DD	imagerel $unwind$?SetWindowFontScale@ImGui@@YAXM@Z
pdata	ENDS
;	COMDAT pdata
pdata	SEGMENT
$pdata$?SetWindowPos@ImGui@@YAXPEBDAEBUImVec2@@H@Z DD imagerel $LN27
	DD	imagerel $LN27+137
	DD	imagerel $unwind$?SetWindowPos@ImGui@@YAXPEBDAEBUImVec2@@H@Z
pdata	ENDS
;	COMDAT pdata
pdata	SEGMENT
$pdata$?SetWindowSize@ImGui@@YAXPEBDAEBUImVec2@@H@Z DD imagerel $LN27
	DD	imagerel $LN27+137
	DD	imagerel $unwind$?SetWindowSize@ImGui@@YAXPEBDAEBUImVec2@@H@Z
pdata	ENDS
;	COMDAT pdata
pdata	SEGMENT
$pdata$?SetWindowCollapsed@ImGui@@YAXPEBD_NH@Z DD imagerel $LN32
	DD	imagerel $LN32+149
	DD	imagerel $unwind$?SetWindowCollapsed@ImGui@@YAXPEBD_NH@Z
pdata	ENDS
;	COMDAT pdata
pdata	SEGMENT
$pdata$?SetWindowFocus@ImGui@@YAXPEBD@Z DD imagerel $LN67
	DD	imagerel $LN67+31
	DD	imagerel $unwind$?SetWindowFocus@ImGui@@YAXPEBD@Z
pdata	ENDS
;	COMDAT pdata
pdata	SEGMENT
$pdata$0$?SetWindowFocus@ImGui@@YAXPEBD@Z DD imagerel $LN67+31
	DD	imagerel $LN67+141
	DD	imagerel $chain$0$?SetWindowFocus@ImGui@@YAXPEBD@Z
pdata	ENDS
;	COMDAT pdata
pdata	SEGMENT
$pdata$2$?SetWindowFocus@ImGui@@YAXPEBD@Z DD imagerel $LN67+141
	DD	imagerel $LN67+146
	DD	imagerel $chain$2$?SetWindowFocus@ImGui@@YAXPEBD@Z
pdata	ENDS
;	COMDAT pdata
pdata	SEGMENT
$pdata$3$?SetWindowFocus@ImGui@@YAXPEBD@Z DD imagerel $LN67+146
	DD	imagerel $LN67+151
	DD	imagerel $chain$3$?SetWindowFocus@ImGui@@YAXPEBD@Z
pdata	ENDS
;	COMDAT pdata
pdata	SEGMENT
$pdata$?PushFont@ImGui@@YAXPEAUImFont@@@Z DD imagerel $LN30
	DD	imagerel $LN30+157
	DD	imagerel $unwind$?PushFont@ImGui@@YAXPEAUImFont@@@Z
pdata	ENDS
;	COMDAT pdata
pdata	SEGMENT
$pdata$0$?PushFont@ImGui@@YAXPEAUImFont@@@Z DD imagerel $LN30+157
	DD	imagerel $LN30+288
	DD	imagerel $chain$0$?PushFont@ImGui@@YAXPEAUImFont@@@Z
pdata	ENDS
;	COMDAT pdata
pdata	SEGMENT
$pdata$1$?PushFont@ImGui@@YAXPEAUImFont@@@Z DD imagerel $LN30+288
	DD	imagerel $LN30+354
	DD	imagerel $chain$1$?PushFont@ImGui@@YAXPEAUImFont@@@Z
pdata	ENDS
;	COMDAT pdata
pdata	SEGMENT
$pdata$?PopFont@ImGui@@YAXXZ DD imagerel $LN21
	DD	imagerel $LN21+220
	DD	imagerel $unwind$?PopFont@ImGui@@YAXXZ
pdata	ENDS
;	COMDAT pdata
pdata	SEGMENT
$pdata$?PushStyleColor@ImGui@@YAXHI@Z DD imagerel $LN12
	DD	imagerel $LN12+195
	DD	imagerel $unwind$?PushStyleColor@ImGui@@YAXHI@Z
pdata	ENDS
;	COMDAT pdata
pdata	SEGMENT
$pdata$?PushStyleColor@ImGui@@YAXHAEBUImVec4@@@Z DD imagerel $LN8
	DD	imagerel $LN8+91
	DD	imagerel $unwind$?PushStyleColor@ImGui@@YAXHAEBUImVec4@@@Z
pdata	ENDS
;	COMDAT pdata
pdata	SEGMENT
$pdata$?PopStyleColor@ImGui@@YAXH@Z DD imagerel $LN17
	DD	imagerel $LN17+185
	DD	imagerel $unwind$?PopStyleColor@ImGui@@YAXH@Z
pdata	ENDS
;	COMDAT pdata
pdata	SEGMENT
$pdata$?PushStyleVar@ImGui@@YAXHM@Z DD imagerel $LN15
	DD	imagerel $LN15+72
	DD	imagerel $unwind$?PushStyleVar@ImGui@@YAXHM@Z
pdata	ENDS
;	COMDAT pdata
pdata	SEGMENT
$pdata$1$?PushStyleVar@ImGui@@YAXHM@Z DD imagerel $LN15+72
	DD	imagerel $LN15+159
	DD	imagerel $chain$1$?PushStyleVar@ImGui@@YAXHM@Z
pdata	ENDS
;	COMDAT pdata
pdata	SEGMENT
$pdata$2$?PushStyleVar@ImGui@@YAXHM@Z DD imagerel $LN15+159
	DD	imagerel $LN15+196
	DD	imagerel $chain$2$?PushStyleVar@ImGui@@YAXHM@Z
pdata	ENDS
;	COMDAT pdata
pdata	SEGMENT
$pdata$?PushStyleVar@ImGui@@YAXHAEBUImVec2@@@Z DD imagerel $LN15
	DD	imagerel $LN15+73
	DD	imagerel $unwind$?PushStyleVar@ImGui@@YAXHAEBUImVec2@@@Z
pdata	ENDS
;	COMDAT pdata
pdata	SEGMENT
$pdata$1$?PushStyleVar@ImGui@@YAXHAEBUImVec2@@@Z DD imagerel $LN15+73
	DD	imagerel $LN15+181
	DD	imagerel $chain$1$?PushStyleVar@ImGui@@YAXHAEBUImVec2@@@Z
pdata	ENDS
;	COMDAT pdata
pdata	SEGMENT
$pdata$2$?PushStyleVar@ImGui@@YAXHAEBUImVec2@@@Z DD imagerel $LN15+181
	DD	imagerel $LN15+218
	DD	imagerel $chain$2$?PushStyleVar@ImGui@@YAXHAEBUImVec2@@@Z
pdata	ENDS
;	COMDAT pdata
pdata	SEGMENT
$pdata$?PopStyleVar@ImGui@@YAXH@Z DD imagerel $LN29
	DD	imagerel $LN29+23
	DD	imagerel $unwind$?PopStyleVar@ImGui@@YAXH@Z
pdata	ENDS
;	COMDAT pdata
pdata	SEGMENT
$pdata$3$?PopStyleVar@ImGui@@YAXH@Z DD imagerel $LN29+23
	DD	imagerel $LN29+294
	DD	imagerel $chain$3$?PopStyleVar@ImGui@@YAXH@Z
pdata	ENDS
;	COMDAT pdata
pdata	SEGMENT
$pdata$4$?PopStyleVar@ImGui@@YAXH@Z DD imagerel $LN29+294
	DD	imagerel $LN29+295
	DD	imagerel $chain$4$?PopStyleVar@ImGui@@YAXH@Z
pdata	ENDS
;	COMDAT pdata
pdata	SEGMENT
$pdata$?GetColorU32@ImGui@@YAIHM@Z DD imagerel $LN4
	DD	imagerel $LN4+67
	DD	imagerel $unwind$?GetColorU32@ImGui@@YAIHM@Z
pdata	ENDS
;	COMDAT pdata
pdata	SEGMENT
$pdata$?GetColorU32@ImGui@@YAIAEBUImVec4@@@Z DD imagerel $LN4
	DD	imagerel $LN4+52
	DD	imagerel $unwind$?GetColorU32@ImGui@@YAIAEBUImVec4@@@Z
pdata	ENDS
;	COMDAT pdata
pdata	SEGMENT
$pdata$?PushItemWidth@ImGui@@YAXM@Z DD imagerel $LN13
	DD	imagerel $LN13+156
	DD	imagerel $unwind$?PushItemWidth@ImGui@@YAXM@Z
pdata	ENDS
;	COMDAT pdata
pdata	SEGMENT
$pdata$?PopItemWidth@ImGui@@YAXXZ DD imagerel $LN17
	DD	imagerel $LN17+175
	DD	imagerel $unwind$?PopItemWidth@ImGui@@YAXXZ
pdata	ENDS
;	COMDAT pdata
pdata	SEGMENT
$pdata$?PushTextWrapPos@ImGui@@YAXM@Z DD imagerel $LN13
	DD	imagerel $LN13+130
	DD	imagerel $unwind$?PushTextWrapPos@ImGui@@YAXM@Z
pdata	ENDS
;	COMDAT pdata
pdata	SEGMENT
$pdata$?PopTextWrapPos@ImGui@@YAXXZ DD imagerel $LN17
	DD	imagerel $LN17+175
	DD	imagerel $unwind$?PopTextWrapPos@ImGui@@YAXXZ
pdata	ENDS
;	COMDAT pdata
pdata	SEGMENT
$pdata$?BeginGroup@ImGui@@YAXXZ DD imagerel $LN12
	DD	imagerel $LN12+320
	DD	imagerel $unwind$?BeginGroup@ImGui@@YAXXZ
pdata	ENDS
;	COMDAT pdata
pdata	SEGMENT
$pdata$?EndGroup@ImGui@@YAXXZ DD imagerel $LN81
	DD	imagerel $LN81+385
	DD	imagerel $unwind$?EndGroup@ImGui@@YAXXZ
pdata	ENDS
;	COMDAT pdata
pdata	SEGMENT
$pdata$1$?EndGroup@ImGui@@YAXXZ DD imagerel $LN81+385
	DD	imagerel $LN81+613
	DD	imagerel $chain$1$?EndGroup@ImGui@@YAXXZ
pdata	ENDS
;	COMDAT pdata
pdata	SEGMENT
$pdata$2$?EndGroup@ImGui@@YAXXZ DD imagerel $LN81+613
	DD	imagerel $LN81+691
	DD	imagerel $chain$2$?EndGroup@ImGui@@YAXXZ
pdata	ENDS
;	COMDAT pdata
pdata	SEGMENT
$pdata$3$?EndGroup@ImGui@@YAXXZ DD imagerel $LN81+691
	DD	imagerel $LN81+840
	DD	imagerel $chain$3$?EndGroup@ImGui@@YAXXZ
pdata	ENDS
;	COMDAT pdata
pdata	SEGMENT
$pdata$?PushID@ImGui@@YAXPEBD@Z DD imagerel $LN18
	DD	imagerel $LN18+181
	DD	imagerel $unwind$?PushID@ImGui@@YAXPEBD@Z
pdata	ENDS
;	COMDAT pdata
pdata	SEGMENT
$pdata$?PushID@ImGui@@YAXPEBD0@Z DD imagerel $LN11
	DD	imagerel $LN11+123
	DD	imagerel $unwind$?PushID@ImGui@@YAXPEBD0@Z
pdata	ENDS
;	COMDAT pdata
pdata	SEGMENT
$pdata$?PushID@ImGui@@YAXPEBX@Z DD imagerel $LN32
	DD	imagerel $LN32+352
	DD	imagerel $unwind$?PushID@ImGui@@YAXPEBX@Z
pdata	ENDS
;	COMDAT pdata
pdata	SEGMENT
$pdata$?PushID@ImGui@@YAXH@Z DD imagerel $LN28
	DD	imagerel $LN28+262
	DD	imagerel $unwind$?PushID@ImGui@@YAXH@Z
pdata	ENDS
;	COMDAT pdata
pdata	SEGMENT
$pdata$?PopID@ImGui@@YAXXZ DD imagerel $LN8
	DD	imagerel $LN8+82
	DD	imagerel $unwind$?PopID@ImGui@@YAXXZ
pdata	ENDS
;	COMDAT pdata
pdata	SEGMENT
$pdata$?GetID@ImGui@@YAIPEBD@Z DD imagerel $LN16
	DD	imagerel $LN16+151
	DD	imagerel $unwind$?GetID@ImGui@@YAIPEBD@Z
pdata	ENDS
;	COMDAT pdata
pdata	SEGMENT
$pdata$?GetID@ImGui@@YAIPEBX@Z DD imagerel $LN30
	DD	imagerel $LN30+326
	DD	imagerel $unwind$?GetID@ImGui@@YAIPEBX@Z
pdata	ENDS
;	COMDAT pdata
pdata	SEGMENT
$pdata$?EndTooltip@ImGui@@YAXXZ DD imagerel $LN7
	DD	imagerel $LN7+62
	DD	imagerel $unwind$?EndTooltip@ImGui@@YAXXZ
pdata	ENDS
;	COMDAT pdata
pdata	SEGMENT
$pdata$?SetTooltip@ImGui@@YAXPEBDZZ DD imagerel $LN11
	DD	imagerel $LN11+118
	DD	imagerel $unwind$?SetTooltip@ImGui@@YAXPEBDZZ
pdata	ENDS
;	COMDAT pdata
pdata	SEGMENT
$pdata$?SetTooltipV@ImGui@@YAXPEBDPEAD@Z DD imagerel $LN9
	DD	imagerel $LN9+103
	DD	imagerel $unwind$?SetTooltipV@ImGui@@YAXPEBDPEAD@Z
pdata	ENDS
;	COMDAT pdata
pdata	SEGMENT
$pdata$?OpenPopup@ImGui@@YAXPEBD@Z DD imagerel $LN15
	DD	imagerel $LN15+157
	DD	imagerel $unwind$?OpenPopup@ImGui@@YAXPEBD@Z
pdata	ENDS
;	COMDAT pdata
pdata	SEGMENT
$pdata$?BeginPopup@ImGui@@YA_NPEBDH@Z DD imagerel $LN18
	DD	imagerel $LN18+69
	DD	imagerel $unwind$?BeginPopup@ImGui@@YA_NPEBDH@Z
pdata	ENDS
;	COMDAT pdata
pdata	SEGMENT
$pdata$0$?BeginPopup@ImGui@@YA_NPEBDH@Z DD imagerel $LN18+69
	DD	imagerel $LN18+174
	DD	imagerel $chain$0$?BeginPopup@ImGui@@YA_NPEBDH@Z
pdata	ENDS
;	COMDAT pdata
pdata	SEGMENT
$pdata$1$?BeginPopup@ImGui@@YA_NPEBDH@Z DD imagerel $LN18+174
	DD	imagerel $LN18+219
	DD	imagerel $chain$1$?BeginPopup@ImGui@@YA_NPEBDH@Z
pdata	ENDS
;	COMDAT pdata
pdata	SEGMENT
$pdata$?BeginPopupContextItem@ImGui@@YA_NPEBDH@Z DD imagerel $LN14
	DD	imagerel $LN14+48
	DD	imagerel $unwind$?BeginPopupContextItem@ImGui@@YA_NPEBDH@Z
pdata	ENDS
;	COMDAT pdata
pdata	SEGMENT
$pdata$1$?BeginPopupContextItem@ImGui@@YA_NPEBDH@Z DD imagerel $LN14+48
	DD	imagerel $LN14+159
	DD	imagerel $chain$1$?BeginPopupContextItem@ImGui@@YA_NPEBDH@Z
pdata	ENDS
;	COMDAT pdata
pdata	SEGMENT
$pdata$2$?BeginPopupContextItem@ImGui@@YA_NPEBDH@Z DD imagerel $LN14+159
	DD	imagerel $LN14+202
	DD	imagerel $chain$2$?BeginPopupContextItem@ImGui@@YA_NPEBDH@Z
pdata	ENDS
;	COMDAT pdata
pdata	SEGMENT
$pdata$?BeginPopupContextWindow@ImGui@@YA_NPEBDH_N@Z DD imagerel $LN28
	DD	imagerel $LN28+291
	DD	imagerel $unwind$?BeginPopupContextWindow@ImGui@@YA_NPEBDH_N@Z
pdata	ENDS
;	COMDAT pdata
pdata	SEGMENT
$pdata$?BeginPopupContextVoid@ImGui@@YA_NPEBDH@Z DD imagerel $LN22
	DD	imagerel $LN22+247
	DD	imagerel $unwind$?BeginPopupContextVoid@ImGui@@YA_NPEBDH@Z
pdata	ENDS
;	COMDAT pdata
pdata	SEGMENT
$pdata$?BeginPopupModal@ImGui@@YA_NPEBDPEA_NH@Z DD imagerel $LN42
	DD	imagerel $LN42+402
	DD	imagerel $unwind$?BeginPopupModal@ImGui@@YA_NPEBDPEA_NH@Z
pdata	ENDS
;	COMDAT pdata
pdata	SEGMENT
$pdata$?EndPopup@ImGui@@YAXXZ DD imagerel $LN11
	DD	imagerel $LN11+201
	DD	imagerel $unwind$?EndPopup@ImGui@@YAXXZ
pdata	ENDS
;	COMDAT pdata
pdata	SEGMENT
$pdata$?OpenPopupOnItemClick@ImGui@@YA_NPEBDH@Z DD imagerel $LN38
	DD	imagerel $LN38+385
	DD	imagerel $unwind$?OpenPopupOnItemClick@ImGui@@YA_NPEBDH@Z
pdata	ENDS
;	COMDAT pdata
pdata	SEGMENT
$pdata$?IsPopupOpen@ImGui@@YA_NPEBD@Z DD imagerel $LN20
	DD	imagerel $LN20+39
	DD	imagerel $unwind$?IsPopupOpen@ImGui@@YA_NPEBD@Z
pdata	ENDS
;	COMDAT pdata
pdata	SEGMENT
$pdata$1$?IsPopupOpen@ImGui@@YA_NPEBD@Z DD imagerel $LN20+39
	DD	imagerel $LN20+158
	DD	imagerel $chain$1$?IsPopupOpen@ImGui@@YA_NPEBD@Z
pdata	ENDS
;	COMDAT pdata
pdata	SEGMENT
$pdata$2$?IsPopupOpen@ImGui@@YA_NPEBD@Z DD imagerel $LN20+158
	DD	imagerel $LN20+188
	DD	imagerel $chain$2$?IsPopupOpen@ImGui@@YA_NPEBD@Z
pdata	ENDS
;	COMDAT pdata
pdata	SEGMENT
$pdata$3$?IsPopupOpen@ImGui@@YA_NPEBD@Z DD imagerel $LN20+188
	DD	imagerel $LN20+214
	DD	imagerel $chain$3$?IsPopupOpen@ImGui@@YA_NPEBD@Z
pdata	ENDS
;	COMDAT pdata
pdata	SEGMENT
$pdata$?CloseCurrentPopup@ImGui@@YAXXZ DD imagerel $LN37
	DD	imagerel $LN37+46
	DD	imagerel $unwind$?CloseCurrentPopup@ImGui@@YAXXZ
pdata	ENDS
;	COMDAT pdata
pdata	SEGMENT
$pdata$2$?CloseCurrentPopup@ImGui@@YAXXZ DD imagerel $LN37+46
	DD	imagerel $LN37+361
	DD	imagerel $chain$2$?CloseCurrentPopup@ImGui@@YAXXZ
pdata	ENDS
;	COMDAT pdata
pdata	SEGMENT
$pdata$3$?CloseCurrentPopup@ImGui@@YAXXZ DD imagerel $LN37+361
	DD	imagerel $LN37+372
	DD	imagerel $chain$3$?CloseCurrentPopup@ImGui@@YAXXZ
pdata	ENDS
;	COMDAT pdata
pdata	SEGMENT
$pdata$?LogToTTY@ImGui@@YAXH@Z DD imagerel $LN5
	DD	imagerel $LN5+58
	DD	imagerel $unwind$?LogToTTY@ImGui@@YAXH@Z
pdata	ENDS
;	COMDAT pdata
pdata	SEGMENT
$pdata$?LogToFile@ImGui@@YAXHPEBD@Z DD imagerel $LN12
	DD	imagerel $LN12+57
	DD	imagerel $unwind$?LogToFile@ImGui@@YAXHPEBD@Z
pdata	ENDS
;	COMDAT pdata
pdata	SEGMENT
$pdata$0$?LogToFile@ImGui@@YAXHPEBD@Z DD imagerel $LN12+57
	DD	imagerel $LN12+120
	DD	imagerel $chain$0$?LogToFile@ImGui@@YAXHPEBD@Z
pdata	ENDS
;	COMDAT pdata
pdata	SEGMENT
$pdata$2$?LogToFile@ImGui@@YAXHPEBD@Z DD imagerel $LN12+120
	DD	imagerel $LN12+144
	DD	imagerel $chain$2$?LogToFile@ImGui@@YAXHPEBD@Z
pdata	ENDS
;	COMDAT pdata
pdata	SEGMENT
$pdata$3$?LogToFile@ImGui@@YAXHPEBD@Z DD imagerel $LN12+144
	DD	imagerel $LN12+155
	DD	imagerel $chain$3$?LogToFile@ImGui@@YAXHPEBD@Z
pdata	ENDS
;	COMDAT pdata
pdata	SEGMENT
$pdata$?LogFinish@ImGui@@YAXXZ DD imagerel $LN38
	DD	imagerel $LN38+33
	DD	imagerel $unwind$?LogFinish@ImGui@@YAXXZ
pdata	ENDS
;	COMDAT pdata
pdata	SEGMENT
$pdata$0$?LogFinish@ImGui@@YAXXZ DD imagerel $LN38+33
	DD	imagerel $LN38+268
	DD	imagerel $chain$0$?LogFinish@ImGui@@YAXXZ
pdata	ENDS
;	COMDAT pdata
pdata	SEGMENT
$pdata$1$?LogFinish@ImGui@@YAXXZ DD imagerel $LN38+268
	DD	imagerel $LN38+274
	DD	imagerel $chain$1$?LogFinish@ImGui@@YAXXZ
pdata	ENDS
;	COMDAT pdata
pdata	SEGMENT
$pdata$?LogButtons@ImGui@@YAXXZ DD imagerel $LN41
	DD	imagerel $LN41+526
	DD	imagerel $unwind$?LogButtons@ImGui@@YAXXZ
pdata	ENDS
;	COMDAT pdata
pdata	SEGMENT
$pdata$?LogText@ImGui@@YAXPEBDZZ DD imagerel $LN26
	DD	imagerel $LN26+52
	DD	imagerel $unwind$?LogText@ImGui@@YAXPEBDZZ
pdata	ENDS
;	COMDAT pdata
pdata	SEGMENT
$pdata$2$?LogText@ImGui@@YAXPEBDZZ DD imagerel $LN26+52
	DD	imagerel $LN26+205
	DD	imagerel $chain$2$?LogText@ImGui@@YAXPEBDZZ
pdata	ENDS
;	COMDAT pdata
pdata	SEGMENT
$pdata$4$?LogText@ImGui@@YAXPEBDZZ DD imagerel $LN26+205
	DD	imagerel $LN26+229
	DD	imagerel $chain$4$?LogText@ImGui@@YAXPEBDZZ
pdata	ENDS
;	COMDAT pdata
pdata	SEGMENT
$pdata$5$?LogText@ImGui@@YAXPEBDZZ DD imagerel $LN26+229
	DD	imagerel $LN26+235
	DD	imagerel $chain$5$?LogText@ImGui@@YAXPEBDZZ
pdata	ENDS
;	COMDAT pdata
pdata	SEGMENT
$pdata$?BeginDragDropSource@ImGui@@YA_NH@Z DD imagerel $LN89
	DD	imagerel $LN89+168
	DD	imagerel $unwind$?BeginDragDropSource@ImGui@@YA_NH@Z
pdata	ENDS
;	COMDAT pdata
pdata	SEGMENT
$pdata$0$?BeginDragDropSource@ImGui@@YA_NH@Z DD imagerel $LN89+168
	DD	imagerel $LN89+230
	DD	imagerel $chain$0$?BeginDragDropSource@ImGui@@YA_NH@Z
pdata	ENDS
;	COMDAT pdata
pdata	SEGMENT
$pdata$1$?BeginDragDropSource@ImGui@@YA_NH@Z DD imagerel $LN89+230
	DD	imagerel $LN89+293
	DD	imagerel $chain$1$?BeginDragDropSource@ImGui@@YA_NH@Z
pdata	ENDS
;	COMDAT pdata
pdata	SEGMENT
$pdata$2$?BeginDragDropSource@ImGui@@YA_NH@Z DD imagerel $LN89+293
	DD	imagerel $LN89+586
	DD	imagerel $chain$2$?BeginDragDropSource@ImGui@@YA_NH@Z
pdata	ENDS
;	COMDAT pdata
pdata	SEGMENT
$pdata$3$?BeginDragDropSource@ImGui@@YA_NH@Z DD imagerel $LN89+586
	DD	imagerel $LN89+591
	DD	imagerel $chain$3$?BeginDragDropSource@ImGui@@YA_NH@Z
pdata	ENDS
;	COMDAT pdata
pdata	SEGMENT
$pdata$4$?BeginDragDropSource@ImGui@@YA_NH@Z DD imagerel $LN89+591
	DD	imagerel $LN89+609
	DD	imagerel $chain$4$?BeginDragDropSource@ImGui@@YA_NH@Z
pdata	ENDS
;	COMDAT pdata
pdata	SEGMENT
$pdata$5$?BeginDragDropSource@ImGui@@YA_NH@Z DD imagerel $LN89+609
	DD	imagerel $LN89+991
	DD	imagerel $chain$5$?BeginDragDropSource@ImGui@@YA_NH@Z
pdata	ENDS
;	COMDAT pdata
pdata	SEGMENT
$pdata$?SetDragDropPayload@ImGui@@YA_NPEBDPEBX_KH@Z DD imagerel $LN29
	DD	imagerel $LN29+457
	DD	imagerel $unwind$?SetDragDropPayload@ImGui@@YA_NPEBDPEBX_KH@Z
pdata	ENDS
;	COMDAT pdata
pdata	SEGMENT
$pdata$?EndDragDropSource@ImGui@@YAXXZ DD imagerel $LN15
	DD	imagerel $LN15+173
	DD	imagerel $unwind$?EndDragDropSource@ImGui@@YAXXZ
pdata	ENDS
;	COMDAT pdata
pdata	SEGMENT
$pdata$?BeginDragDropTarget@ImGui@@YA_NXZ DD imagerel $LN13
	DD	imagerel $LN13+230
	DD	imagerel $unwind$?BeginDragDropTarget@ImGui@@YA_NXZ
pdata	ENDS
;	COMDAT pdata
pdata	SEGMENT
$pdata$?AcceptDragDropPayload@ImGui@@YAPEBUImGuiPayload@@PEBDH@Z DD imagerel $LN52
	DD	imagerel $LN52+183
	DD	imagerel $unwind$?AcceptDragDropPayload@ImGui@@YAPEBUImGuiPayload@@PEBDH@Z
pdata	ENDS
;	COMDAT pdata
pdata	SEGMENT
$pdata$0$?AcceptDragDropPayload@ImGui@@YAPEBUImGuiPayload@@PEBDH@Z DD imagerel $LN52+183
	DD	imagerel $LN52+364
	DD	imagerel $chain$0$?AcceptDragDropPayload@ImGui@@YAPEBUImGuiPayload@@PEBDH@Z
pdata	ENDS
;	COMDAT pdata
pdata	SEGMENT
$pdata$1$?AcceptDragDropPayload@ImGui@@YAPEBUImGuiPayload@@PEBDH@Z DD imagerel $LN52+364
	DD	imagerel $LN52+625
	DD	imagerel $chain$1$?AcceptDragDropPayload@ImGui@@YAPEBUImGuiPayload@@PEBDH@Z
pdata	ENDS
;	COMDAT pdata
pdata	SEGMENT
$pdata$2$?AcceptDragDropPayload@ImGui@@YAPEBUImGuiPayload@@PEBDH@Z DD imagerel $LN52+625
	DD	imagerel $LN52+662
	DD	imagerel $chain$2$?AcceptDragDropPayload@ImGui@@YAPEBUImGuiPayload@@PEBDH@Z
pdata	ENDS
;	COMDAT pdata
pdata	SEGMENT
$pdata$3$?AcceptDragDropPayload@ImGui@@YAPEBUImGuiPayload@@PEBDH@Z DD imagerel $LN52+662
	DD	imagerel $LN52+765
	DD	imagerel $chain$3$?AcceptDragDropPayload@ImGui@@YAPEBUImGuiPayload@@PEBDH@Z
pdata	ENDS
;	COMDAT pdata
pdata	SEGMENT
$pdata$?EndDragDropTarget@ImGui@@YAXXZ DD imagerel $LN7
	DD	imagerel $LN7+96
	DD	imagerel $unwind$?EndDragDropTarget@ImGui@@YAXXZ
pdata	ENDS
;	COMDAT pdata
pdata	SEGMENT
$pdata$?PushClipRect@ImGui@@YAXAEBUImVec2@@0_N@Z DD imagerel $LN15
	DD	imagerel $LN15+176
	DD	imagerel $unwind$?PushClipRect@ImGui@@YAXAEBUImVec2@@0_N@Z
pdata	ENDS
;	COMDAT pdata
pdata	SEGMENT
$pdata$?PopClipRect@ImGui@@YAXXZ DD imagerel $LN15
	DD	imagerel $LN15+166
	DD	imagerel $unwind$?PopClipRect@ImGui@@YAXXZ
pdata	ENDS
;	COMDAT pdata
pdata	SEGMENT
$pdata$?SetItemDefaultFocus@ImGui@@YAXXZ DD imagerel $LN31
	DD	imagerel $LN31+358
	DD	imagerel $unwind$?SetItemDefaultFocus@ImGui@@YAXXZ
pdata	ENDS
;	COMDAT pdata
pdata	SEGMENT
$pdata$?SetKeyboardFocusHere@ImGui@@YAXH@Z DD imagerel $LN5
	DD	imagerel $LN5+93
	DD	imagerel $unwind$?SetKeyboardFocusHere@ImGui@@YAXH@Z
pdata	ENDS
;	COMDAT pdata
pdata	SEGMENT
$pdata$?IsItemHovered@ImGui@@YA_NH@Z DD imagerel $LN27
	DD	imagerel $LN27+319
	DD	imagerel $unwind$?IsItemHovered@ImGui@@YA_NH@Z
pdata	ENDS
;	COMDAT pdata
pdata	SEGMENT
$pdata$?IsItemClicked@ImGui@@YA_NH@Z DD imagerel $LN40
	DD	imagerel $LN40+304
	DD	imagerel $unwind$?IsItemClicked@ImGui@@YA_NH@Z
pdata	ENDS
;	COMDAT pdata
pdata	SEGMENT
$pdata$?IsRectVisible@ImGui@@YA_NAEBUImVec2@@0@Z DD imagerel $LN10
	DD	imagerel $LN10+115
	DD	imagerel $unwind$?IsRectVisible@ImGui@@YA_NAEBUImVec2@@0@Z
pdata	ENDS
;	COMDAT pdata
pdata	SEGMENT
$pdata$?GetStyleColorName@ImGui@@YAPEBDH@Z DD imagerel $LN56
	DD	imagerel $LN56+844
	DD	imagerel $unwind$?GetStyleColorName@ImGui@@YAPEBDH@Z
pdata	ENDS
;	COMDAT pdata
pdata	SEGMENT
$pdata$?CalcListClipping@ImGui@@YAXHMPEAH0@Z DD imagerel $LN41
	DD	imagerel $LN41+322
	DD	imagerel $unwind$?CalcListClipping@ImGui@@YAXHMPEAH0@Z
pdata	ENDS
;	COMDAT pdata
pdata	SEGMENT
$pdata$?BeginChildFrame@ImGui@@YA_NIAEBUImVec2@@H@Z DD imagerel $LN27
	DD	imagerel $LN27+369
	DD	imagerel $unwind$?BeginChildFrame@ImGui@@YA_NIAEBUImVec2@@H@Z
pdata	ENDS
;	COMDAT pdata
pdata	SEGMENT
$pdata$?CalcTextSize@ImGui@@YA?AUImVec2@@PEBD0_NM@Z DD imagerel $LN21
	DD	imagerel $LN21+216
	DD	imagerel $unwind$?CalcTextSize@ImGui@@YA?AUImVec2@@PEBD0_NM@Z
pdata	ENDS
;	COMDAT pdata
pdata	SEGMENT
$pdata$?ColorConvertRGBtoHSV@ImGui@@YAXMMMAEAM00@Z DD imagerel $LN14
	DD	imagerel $LN14+164
	DD	imagerel $unwind$?ColorConvertRGBtoHSV@ImGui@@YAXMMMAEAM00@Z
pdata	ENDS
;	COMDAT pdata
pdata	SEGMENT
$pdata$?ColorConvertHSVtoRGB@ImGui@@YAXMMMAEAM00@Z DD imagerel $LN15
	DD	imagerel $LN15+354
	DD	imagerel $unwind$?ColorConvertHSVtoRGB@ImGui@@YAXMMMAEAM00@Z
pdata	ENDS
;	COMDAT pdata
pdata	SEGMENT
$pdata$?GetKeyIndex@ImGui@@YAHH@Z DD imagerel $LN8
	DD	imagerel $LN8+57
	DD	imagerel $unwind$?GetKeyIndex@ImGui@@YAHH@Z
pdata	ENDS
;	COMDAT pdata
pdata	SEGMENT
$pdata$?IsKeyDown@ImGui@@YA_NH@Z DD imagerel $LN7
	DD	imagerel $LN7+86
	DD	imagerel $unwind$?IsKeyDown@ImGui@@YA_NH@Z
pdata	ENDS
;	COMDAT pdata
pdata	SEGMENT
$pdata$?IsKeyPressed@ImGui@@YA_NH_N@Z DD imagerel $LN26
	DD	imagerel $LN26+156
	DD	imagerel $unwind$?IsKeyPressed@ImGui@@YA_NH_N@Z
pdata	ENDS
;	COMDAT pdata
pdata	SEGMENT
$pdata$0$?IsKeyPressed@ImGui@@YA_NH_N@Z DD imagerel $LN26+156
	DD	imagerel $LN26+245
	DD	imagerel $chain$0$?IsKeyPressed@ImGui@@YA_NH_N@Z
pdata	ENDS
;	COMDAT pdata
pdata	SEGMENT
$pdata$2$?IsKeyPressed@ImGui@@YA_NH_N@Z DD imagerel $LN26+245
	DD	imagerel $LN26+264
	DD	imagerel $chain$2$?IsKeyPressed@ImGui@@YA_NH_N@Z
pdata	ENDS
;	COMDAT pdata
pdata	SEGMENT
$pdata$4$?IsKeyPressed@ImGui@@YA_NH_N@Z DD imagerel $LN26+264
	DD	imagerel $LN26+297
	DD	imagerel $chain$4$?IsKeyPressed@ImGui@@YA_NH_N@Z
pdata	ENDS
;	COMDAT pdata
pdata	SEGMENT
$pdata$6$?IsKeyPressed@ImGui@@YA_NH_N@Z DD imagerel $LN26+297
	DD	imagerel $LN26+354
	DD	imagerel $chain$6$?IsKeyPressed@ImGui@@YA_NH_N@Z
pdata	ENDS
;	COMDAT pdata
pdata	SEGMENT
$pdata$7$?IsKeyPressed@ImGui@@YA_NH_N@Z DD imagerel $LN26+354
	DD	imagerel $LN26+394
	DD	imagerel $chain$7$?IsKeyPressed@ImGui@@YA_NH_N@Z
pdata	ENDS
;	COMDAT pdata
pdata	SEGMENT
$pdata$?IsKeyReleased@ImGui@@YA_NH@Z DD imagerel $LN9
	DD	imagerel $LN9+111
	DD	imagerel $unwind$?IsKeyReleased@ImGui@@YA_NH@Z
pdata	ENDS
;	COMDAT pdata
pdata	SEGMENT
$pdata$?GetKeyPressedAmount@ImGui@@YAHHMM@Z DD imagerel $LN19
	DD	imagerel $LN19+205
	DD	imagerel $unwind$?GetKeyPressedAmount@ImGui@@YAHHMM@Z
pdata	ENDS
;	COMDAT pdata
pdata	SEGMENT
$pdata$?IsMouseDown@ImGui@@YA_NH@Z DD imagerel $LN8
	DD	imagerel $LN8+70
	DD	imagerel $unwind$?IsMouseDown@ImGui@@YA_NH@Z
pdata	ENDS
;	COMDAT pdata
pdata	SEGMENT
$pdata$?IsMouseClicked@ImGui@@YA_NH_N@Z DD imagerel $LN12
	DD	imagerel $LN12+165
	DD	imagerel $unwind$?IsMouseClicked@ImGui@@YA_NH_N@Z
pdata	ENDS
;	COMDAT pdata
pdata	SEGMENT
$pdata$?IsMouseReleased@ImGui@@YA_NH@Z DD imagerel $LN8
	DD	imagerel $LN8+70
	DD	imagerel $unwind$?IsMouseReleased@ImGui@@YA_NH@Z
pdata	ENDS
;	COMDAT pdata
pdata	SEGMENT
$pdata$?IsMouseDoubleClicked@ImGui@@YA_NH@Z DD imagerel $LN8
	DD	imagerel $LN8+70
	DD	imagerel $unwind$?IsMouseDoubleClicked@ImGui@@YA_NH@Z
pdata	ENDS
;	COMDAT pdata
pdata	SEGMENT
$pdata$?IsMouseHoveringRect@ImGui@@YA_NAEBUImVec2@@0_N@Z DD imagerel $LN42
	DD	imagerel $LN42+204
	DD	imagerel $unwind$?IsMouseHoveringRect@ImGui@@YA_NAEBUImVec2@@0_N@Z
pdata	ENDS
;	COMDAT pdata
pdata	SEGMENT
$pdata$?IsMousePosValid@ImGui@@YA_NPEBUImVec2@@@Z DD imagerel $LN9
	DD	imagerel $LN9+109
	DD	imagerel $unwind$?IsMousePosValid@ImGui@@YA_NPEBUImVec2@@@Z
pdata	ENDS
;	COMDAT pdata
pdata	SEGMENT
$pdata$?GetMousePosOnOpeningCurrentPopup@ImGui@@YA?AUImVec2@@XZ DD imagerel $LN9
	DD	imagerel $LN9+144
	DD	imagerel $unwind$?GetMousePosOnOpeningCurrentPopup@ImGui@@YA?AUImVec2@@XZ
pdata	ENDS
;	COMDAT pdata
pdata	SEGMENT
$pdata$?IsMouseDragging@ImGui@@YA_NHM@Z DD imagerel $LN14
	DD	imagerel $LN14+182
	DD	imagerel $unwind$?IsMouseDragging@ImGui@@YA_NHM@Z
pdata	ENDS
;	COMDAT pdata
pdata	SEGMENT
$pdata$?GetMouseDragDelta@ImGui@@YA?AUImVec2@@HM@Z DD imagerel $LN19
	DD	imagerel $LN19+233
	DD	imagerel $unwind$?GetMouseDragDelta@ImGui@@YA?AUImVec2@@HM@Z
pdata	ENDS
;	COMDAT pdata
pdata	SEGMENT
$pdata$?ResetMouseDragDelta@ImGui@@YAXH@Z DD imagerel $LN7
	DD	imagerel $LN7+79
	DD	imagerel $unwind$?ResetMouseDragDelta@ImGui@@YAXH@Z
pdata	ENDS
;	COMDAT pdata
pdata	SEGMENT
$pdata$?LoadIniSettingsFromDisk@ImGui@@YAXPEBD@Z DD imagerel $LN49
	DD	imagerel $LN49+67
	DD	imagerel $unwind$?LoadIniSettingsFromDisk@ImGui@@YAXPEBD@Z
pdata	ENDS
;	COMDAT pdata
pdata	SEGMENT
$pdata$1$?LoadIniSettingsFromDisk@ImGui@@YAXPEBD@Z DD imagerel $LN49+67
	DD	imagerel $LN49+321
	DD	imagerel $chain$1$?LoadIniSettingsFromDisk@ImGui@@YAXPEBD@Z
pdata	ENDS
;	COMDAT pdata
pdata	SEGMENT
$pdata$3$?LoadIniSettingsFromDisk@ImGui@@YAXPEBD@Z DD imagerel $LN49+321
	DD	imagerel $LN49+340
	DD	imagerel $chain$3$?LoadIniSettingsFromDisk@ImGui@@YAXPEBD@Z
pdata	ENDS
;	COMDAT pdata
pdata	SEGMENT
$pdata$4$?LoadIniSettingsFromDisk@ImGui@@YAXPEBD@Z DD imagerel $LN49+340
	DD	imagerel $LN49+346
	DD	imagerel $chain$4$?LoadIniSettingsFromDisk@ImGui@@YAXPEBD@Z
pdata	ENDS
;	COMDAT pdata
pdata	SEGMENT
$pdata$?LoadIniSettingsFromMemory@ImGui@@YAXPEBD_K@Z DD imagerel $LN128
	DD	imagerel $LN128+1198
	DD	imagerel $unwind$?LoadIniSettingsFromMemory@ImGui@@YAXPEBD_K@Z
pdata	ENDS
;	COMDAT pdata
pdata	SEGMENT
$pdata$?SaveIniSettingsToDisk@ImGui@@YAXPEBD@Z DD imagerel $LN48
	DD	imagerel $LN48+35
	DD	imagerel $unwind$?SaveIniSettingsToDisk@ImGui@@YAXPEBD@Z
pdata	ENDS
;	COMDAT pdata
pdata	SEGMENT
$pdata$0$?SaveIniSettingsToDisk@ImGui@@YAXPEBD@Z DD imagerel $LN48+35
	DD	imagerel $LN48+40
	DD	imagerel $chain$0$?SaveIniSettingsToDisk@ImGui@@YAXPEBD@Z
pdata	ENDS
;	COMDAT pdata
pdata	SEGMENT
$pdata$2$?SaveIniSettingsToDisk@ImGui@@YAXPEBD@Z DD imagerel $LN48+40
	DD	imagerel $LN48+159
	DD	imagerel $chain$2$?SaveIniSettingsToDisk@ImGui@@YAXPEBD@Z
pdata	ENDS
;	COMDAT pdata
pdata	SEGMENT
$pdata$3$?SaveIniSettingsToDisk@ImGui@@YAXPEBD@Z DD imagerel $LN48+159
	DD	imagerel $LN48+243
	DD	imagerel $chain$3$?SaveIniSettingsToDisk@ImGui@@YAXPEBD@Z
pdata	ENDS
;	COMDAT pdata
pdata	SEGMENT
$pdata$4$?SaveIniSettingsToDisk@ImGui@@YAXPEBD@Z DD imagerel $LN48+243
	DD	imagerel $LN48+303
	DD	imagerel $chain$4$?SaveIniSettingsToDisk@ImGui@@YAXPEBD@Z
pdata	ENDS
;	COMDAT pdata
pdata	SEGMENT
$pdata$5$?SaveIniSettingsToDisk@ImGui@@YAXPEBD@Z DD imagerel $LN48+303
	DD	imagerel $LN48+342
	DD	imagerel $chain$5$?SaveIniSettingsToDisk@ImGui@@YAXPEBD@Z
pdata	ENDS
;	COMDAT pdata
pdata	SEGMENT
$pdata$6$?SaveIniSettingsToDisk@ImGui@@YAXPEBD@Z DD imagerel $LN48+342
	DD	imagerel $LN48+350
	DD	imagerel $chain$6$?SaveIniSettingsToDisk@ImGui@@YAXPEBD@Z
pdata	ENDS
;	COMDAT pdata
pdata	SEGMENT
$pdata$?SaveIniSettingsToMemory@ImGui@@YAPEBDPEA_K@Z DD imagerel $LN38
	DD	imagerel $LN38+22
	DD	imagerel $unwind$?SaveIniSettingsToMemory@ImGui@@YAPEBDPEA_K@Z
pdata	ENDS
;	COMDAT pdata
pdata	SEGMENT
$pdata$0$?SaveIniSettingsToMemory@ImGui@@YAPEBDPEA_K@Z DD imagerel $LN38+22
	DD	imagerel $LN38+130
	DD	imagerel $chain$0$?SaveIniSettingsToMemory@ImGui@@YAPEBDPEA_K@Z
pdata	ENDS
;	COMDAT pdata
pdata	SEGMENT
$pdata$1$?SaveIniSettingsToMemory@ImGui@@YAPEBDPEA_K@Z DD imagerel $LN38+130
	DD	imagerel $LN38+212
	DD	imagerel $chain$1$?SaveIniSettingsToMemory@ImGui@@YAPEBDPEA_K@Z
pdata	ENDS
;	COMDAT pdata
pdata	SEGMENT
$pdata$2$?SaveIniSettingsToMemory@ImGui@@YAPEBDPEA_K@Z DD imagerel $LN38+212
	DD	imagerel $LN38+222
	DD	imagerel $chain$2$?SaveIniSettingsToMemory@ImGui@@YAPEBDPEA_K@Z
pdata	ENDS
;	COMDAT pdata
pdata	SEGMENT
$pdata$3$?SaveIniSettingsToMemory@ImGui@@YAPEBDPEA_K@Z DD imagerel $LN38+222
	DD	imagerel $LN38+273
	DD	imagerel $chain$3$?SaveIniSettingsToMemory@ImGui@@YAPEBDPEA_K@Z
pdata	ENDS
;	COMDAT pdata
pdata	SEGMENT
$pdata$?DebugCheckVersionAndDataLayout@ImGui@@YA_NPEBD_K11111@Z DD imagerel $LN25
	DD	imagerel $LN25+351
	DD	imagerel $unwind$?DebugCheckVersionAndDataLayout@ImGui@@YA_NPEBD_K11111@Z
pdata	ENDS
;	COMDAT pdata
pdata	SEGMENT
$pdata$??0ImGuiStyle@@QEAA@XZ DD imagerel $LN106
	DD	imagerel $LN106+988
	DD	imagerel $unwind$??0ImGuiStyle@@QEAA@XZ
pdata	ENDS
;	COMDAT pdata
pdata	SEGMENT
$pdata$?AddInputCharacter@ImGuiIO@@QEAAXI@Z DD imagerel $LN15
	DD	imagerel $LN15+9
	DD	imagerel $unwind$?AddInputCharacter@ImGuiIO@@QEAAXI@Z
pdata	ENDS
;	COMDAT pdata
pdata	SEGMENT
$pdata$0$?AddInputCharacter@ImGuiIO@@QEAAXI@Z DD imagerel $LN15+9
	DD	imagerel $LN15+112
	DD	imagerel $chain$0$?AddInputCharacter@ImGuiIO@@QEAAXI@Z
pdata	ENDS
;	COMDAT pdata
pdata	SEGMENT
$pdata$1$?AddInputCharacter@ImGuiIO@@QEAAXI@Z DD imagerel $LN15+112
	DD	imagerel $LN15+113
	DD	imagerel $chain$1$?AddInputCharacter@ImGuiIO@@QEAAXI@Z
pdata	ENDS
;	COMDAT pdata
pdata	SEGMENT
$pdata$?AddInputCharacterUTF16@ImGuiIO@@QEAAXG@Z DD imagerel $LN37
	DD	imagerel $LN37+39
	DD	imagerel $unwind$?AddInputCharacterUTF16@ImGuiIO@@QEAAXG@Z
pdata	ENDS
;	COMDAT pdata
pdata	SEGMENT
$pdata$1$?AddInputCharacterUTF16@ImGuiIO@@QEAAXG@Z DD imagerel $LN37+39
	DD	imagerel $LN37+356
	DD	imagerel $chain$1$?AddInputCharacterUTF16@ImGuiIO@@QEAAXG@Z
pdata	ENDS
;	COMDAT pdata
pdata	SEGMENT
$pdata$2$?AddInputCharacterUTF16@ImGuiIO@@QEAAXG@Z DD imagerel $LN37+356
	DD	imagerel $LN37+367
	DD	imagerel $chain$2$?AddInputCharacterUTF16@ImGuiIO@@QEAAXG@Z
pdata	ENDS
;	COMDAT pdata
pdata	SEGMENT
$pdata$?AddInputCharactersUTF8@ImGuiIO@@QEAAXPEBD@Z DD imagerel $LN17
	DD	imagerel $LN17+22
	DD	imagerel $unwind$?AddInputCharactersUTF8@ImGuiIO@@QEAAXPEBD@Z
pdata	ENDS
;	COMDAT pdata
pdata	SEGMENT
$pdata$2$?AddInputCharactersUTF8@ImGuiIO@@QEAAXPEBD@Z DD imagerel $LN17+22
	DD	imagerel $LN17+176
	DD	imagerel $chain$2$?AddInputCharactersUTF8@ImGuiIO@@QEAAXPEBD@Z
pdata	ENDS
;	COMDAT pdata
pdata	SEGMENT
$pdata$3$?AddInputCharactersUTF8@ImGuiIO@@QEAAXPEBD@Z DD imagerel $LN17+176
	DD	imagerel $LN17+183
	DD	imagerel $chain$3$?AddInputCharactersUTF8@ImGuiIO@@QEAAXPEBD@Z
pdata	ENDS
;	COMDAT pdata
pdata	SEGMENT
$pdata$?ClearInputCharacters@ImGuiIO@@QEAAXXZ DD imagerel $LN12
	DD	imagerel $LN12+56
	DD	imagerel $unwind$?ClearInputCharacters@ImGuiIO@@QEAAXXZ
pdata	ENDS
;	COMDAT pdata
pdata	SEGMENT
$pdata$??1?$ImVector@G@@QEAA@XZ DD imagerel $LN10
	DD	imagerel $LN10+50
	DD	imagerel $unwind$??1?$ImVector@G@@QEAA@XZ
pdata	ENDS
;	COMDAT pdata
pdata	SEGMENT
$pdata$??A?$ImVector@G@@QEAAAEAGH@Z DD imagerel $LN5
	DD	imagerel $LN5+65
	DD	imagerel $unwind$??A?$ImVector@G@@QEAAAEAGH@Z
pdata	ENDS
;	COMDAT pdata
pdata	SEGMENT
$pdata$?clear@?$ImVector@G@@QEAAXXZ DD imagerel $LN9
	DD	imagerel $LN9+70
	DD	imagerel $unwind$?clear@?$ImVector@G@@QEAAXXZ
pdata	ENDS
;	COMDAT pdata
pdata	SEGMENT
$pdata$?resize@?$ImVector@G@@QEAAXH@Z DD imagerel $LN10
	DD	imagerel $LN10+70
	DD	imagerel $unwind$?resize@?$ImVector@G@@QEAAXH@Z
pdata	ENDS
;	COMDAT pdata
pdata	SEGMENT
$pdata$?reserve@?$ImVector@G@@QEAAXH@Z DD imagerel $LN13
	DD	imagerel $LN13+28
	DD	imagerel $unwind$?reserve@?$ImVector@G@@QEAAXH@Z
pdata	ENDS
;	COMDAT pdata
pdata	SEGMENT
$pdata$0$?reserve@?$ImVector@G@@QEAAXH@Z DD imagerel $LN13+28
	DD	imagerel $LN13+141
	DD	imagerel $chain$0$?reserve@?$ImVector@G@@QEAAXH@Z
pdata	ENDS
;	COMDAT pdata
pdata	SEGMENT
$pdata$1$?reserve@?$ImVector@G@@QEAAXH@Z DD imagerel $LN13+141
	DD	imagerel $LN13+152
	DD	imagerel $chain$1$?reserve@?$ImVector@G@@QEAAXH@Z
pdata	ENDS
;	COMDAT pdata
pdata	SEGMENT
$pdata$?push_back@?$ImVector@G@@QEAAXAEBG@Z DD imagerel $LN9
	DD	imagerel $LN9+96
	DD	imagerel $unwind$?push_back@?$ImVector@G@@QEAAXAEBG@Z
pdata	ENDS
;	COMDAT pdata
pdata	SEGMENT
$pdata$??0ImGuiIO@@QEAA@XZ DD imagerel $LN129
	DD	imagerel $LN129+922
	DD	imagerel $unwind$??0ImGuiIO@@QEAA@XZ
pdata	ENDS
;	COMDAT pdata
pdata	SEGMENT
$pdata$??1ImGuiIO@@QEAA@XZ DD imagerel $LN14
	DD	imagerel $LN14+53
	DD	imagerel $unwind$??1ImGuiIO@@QEAA@XZ
pdata	ENDS
;	COMDAT pdata
pdata	SEGMENT
$pdata$??0ImGuiTextFilter@@QEAA@PEBD@Z DD imagerel $LN15
	DD	imagerel $LN15+81
	DD	imagerel $unwind$??0ImGuiTextFilter@@QEAA@PEBD@Z
pdata	ENDS
;	COMDAT pdata
pdata	SEGMENT
$pdata$?Draw@ImGuiTextFilter@@QEAA_NPEBDM@Z DD imagerel $LN10
	DD	imagerel $LN10+109
	DD	imagerel $unwind$?Draw@ImGuiTextFilter@@QEAA_NPEBDM@Z
pdata	ENDS
;	COMDAT pdata
pdata	SEGMENT
$pdata$?PassFilter@ImGuiTextFilter@@QEBA_NPEBD0@Z DD imagerel $LN30
	DD	imagerel $LN30+210
	DD	imagerel $unwind$?PassFilter@ImGuiTextFilter@@QEBA_NPEBD0@Z
pdata	ENDS
;	COMDAT pdata
pdata	SEGMENT
$pdata$?Build@ImGuiTextFilter@@QEAAXXZ DD imagerel $LN97
	DD	imagerel $LN97+21
	DD	imagerel $unwind$?Build@ImGuiTextFilter@@QEAAXXZ
pdata	ENDS
;	COMDAT pdata
pdata	SEGMENT
$pdata$0$?Build@ImGuiTextFilter@@QEAAXXZ DD imagerel $LN97+21
	DD	imagerel $LN97+144
	DD	imagerel $chain$0$?Build@ImGuiTextFilter@@QEAAXXZ
pdata	ENDS
;	COMDAT pdata
pdata	SEGMENT
$pdata$2$?Build@ImGuiTextFilter@@QEAAXXZ DD imagerel $LN97+144
	DD	imagerel $LN97+333
	DD	imagerel $chain$2$?Build@ImGuiTextFilter@@QEAAXXZ
pdata	ENDS
;	COMDAT pdata
pdata	SEGMENT
$pdata$3$?Build@ImGuiTextFilter@@QEAAXXZ DD imagerel $LN97+333
	DD	imagerel $LN97+355
	DD	imagerel $chain$3$?Build@ImGuiTextFilter@@QEAAXXZ
pdata	ENDS
;	COMDAT pdata
pdata	SEGMENT
$pdata$4$?Build@ImGuiTextFilter@@QEAAXXZ DD imagerel $LN97+355
	DD	imagerel $LN97+566
	DD	imagerel $chain$4$?Build@ImGuiTextFilter@@QEAAXXZ
pdata	ENDS
;	COMDAT pdata
pdata	SEGMENT
$pdata$?split@ImGuiTextRange@ImGuiTextFilter@@QEBAXDPEAU?$ImVector@UImGuiTextRange@ImGuiTextFilter@@@@@Z DD imagerel $LN40
	DD	imagerel $LN40+83
	DD	imagerel $unwind$?split@ImGuiTextRange@ImGuiTextFilter@@QEBAXDPEAU?$ImVector@UImGuiTextRange@ImGuiTextFilter@@@@@Z
pdata	ENDS
;	COMDAT pdata
pdata	SEGMENT
$pdata$0$?split@ImGuiTextRange@ImGuiTextFilter@@QEBAXDPEAU?$ImVector@UImGuiTextRange@ImGuiTextFilter@@@@@Z DD imagerel $LN40+83
	DD	imagerel $LN40+263
	DD	imagerel $chain$0$?split@ImGuiTextRange@ImGuiTextFilter@@QEBAXDPEAU?$ImVector@UImGuiTextRange@ImGuiTextFilter@@@@@Z
pdata	ENDS
;	COMDAT pdata
pdata	SEGMENT
$pdata$1$?split@ImGuiTextRange@ImGuiTextFilter@@QEBAXDPEAU?$ImVector@UImGuiTextRange@ImGuiTextFilter@@@@@Z DD imagerel $LN40+263
	DD	imagerel $LN40+283
	DD	imagerel $chain$1$?split@ImGuiTextRange@ImGuiTextFilter@@QEBAXDPEAU?$ImVector@UImGuiTextRange@ImGuiTextFilter@@@@@Z
pdata	ENDS
;	COMDAT pdata
pdata	SEGMENT
$pdata$??1?$ImVector@UImGuiTextRange@ImGuiTextFilter@@@@QEAA@XZ DD imagerel $LN10
	DD	imagerel $LN10+50
	DD	imagerel $unwind$??1?$ImVector@UImGuiTextRange@ImGuiTextFilter@@@@QEAA@XZ
pdata	ENDS
;	COMDAT pdata
pdata	SEGMENT
$pdata$??A?$ImVector@UImGuiTextRange@ImGuiTextFilter@@@@QEAAAEAUImGuiTextRange@ImGuiTextFilter@@H@Z DD imagerel $LN5
	DD	imagerel $LN5+68
	DD	imagerel $unwind$??A?$ImVector@UImGuiTextRange@ImGuiTextFilter@@@@QEAAAEAUImGuiTextRange@ImGuiTextFilter@@H@Z
pdata	ENDS
;	COMDAT pdata
pdata	SEGMENT
$pdata$??A?$ImVector@UImGuiTextRange@ImGuiTextFilter@@@@QEBAAEBUImGuiTextRange@ImGuiTextFilter@@H@Z DD imagerel $LN5
	DD	imagerel $LN5+68
	DD	imagerel $unwind$??A?$ImVector@UImGuiTextRange@ImGuiTextFilter@@@@QEBAAEBUImGuiTextRange@ImGuiTextFilter@@H@Z
pdata	ENDS
;	COMDAT pdata
pdata	SEGMENT
$pdata$?resize@?$ImVector@UImGuiTextRange@ImGuiTextFilter@@@@QEAAXH@Z DD imagerel $LN10
	DD	imagerel $LN10+70
	DD	imagerel $unwind$?resize@?$ImVector@UImGuiTextRange@ImGuiTextFilter@@@@QEAAXH@Z
pdata	ENDS
;	COMDAT pdata
pdata	SEGMENT
$pdata$?reserve@?$ImVector@UImGuiTextRange@ImGuiTextFilter@@@@QEAAXH@Z DD imagerel $LN13
	DD	imagerel $LN13+28
	DD	imagerel $unwind$?reserve@?$ImVector@UImGuiTextRange@ImGuiTextFilter@@@@QEAAXH@Z
pdata	ENDS
;	COMDAT pdata
pdata	SEGMENT
$pdata$0$?reserve@?$ImVector@UImGuiTextRange@ImGuiTextFilter@@@@QEAAXH@Z DD imagerel $LN13+28
	DD	imagerel $LN13+143
	DD	imagerel $chain$0$?reserve@?$ImVector@UImGuiTextRange@ImGuiTextFilter@@@@QEAAXH@Z
pdata	ENDS
;	COMDAT pdata
pdata	SEGMENT
$pdata$1$?reserve@?$ImVector@UImGuiTextRange@ImGuiTextFilter@@@@QEAAXH@Z DD imagerel $LN13+143
	DD	imagerel $LN13+154
	DD	imagerel $chain$1$?reserve@?$ImVector@UImGuiTextRange@ImGuiTextFilter@@@@QEAAXH@Z
pdata	ENDS
;	COMDAT pdata
pdata	SEGMENT
$pdata$?push_back@?$ImVector@UImGuiTextRange@ImGuiTextFilter@@@@QEAAXAEBUImGuiTextRange@ImGuiTextFilter@@@Z DD imagerel $LN9
	DD	imagerel $LN9+99
	DD	imagerel $unwind$?push_back@?$ImVector@UImGuiTextRange@ImGuiTextFilter@@@@QEAAXAEBUImGuiTextRange@ImGuiTextFilter@@@Z
pdata	ENDS
;	COMDAT pdata
pdata	SEGMENT
$pdata$??1?$ImVector@D@@QEAA@XZ DD imagerel $LN10
	DD	imagerel $LN10+50
	DD	imagerel $unwind$??1?$ImVector@D@@QEAA@XZ
pdata	ENDS
;	COMDAT pdata
pdata	SEGMENT
$pdata$??A?$ImVector@D@@QEAAAEADH@Z DD imagerel $LN5
	DD	imagerel $LN5+64
	DD	imagerel $unwind$??A?$ImVector@D@@QEAAAEADH@Z
pdata	ENDS
;	COMDAT pdata
pdata	SEGMENT
$pdata$?clear@?$ImVector@D@@QEAAXXZ DD imagerel $LN9
	DD	imagerel $LN9+70
	DD	imagerel $unwind$?clear@?$ImVector@D@@QEAAXXZ
pdata	ENDS
;	COMDAT pdata
pdata	SEGMENT
$pdata$?front@?$ImVector@D@@QEBAAEBDXZ DD imagerel $LN6
	DD	imagerel $LN6+60
	DD	imagerel $unwind$?front@?$ImVector@D@@QEBAAEBDXZ
pdata	ENDS
;	COMDAT pdata
pdata	SEGMENT
$pdata$?resize@?$ImVector@D@@QEAAXH@Z DD imagerel $LN10
	DD	imagerel $LN10+70
	DD	imagerel $unwind$?resize@?$ImVector@D@@QEAAXH@Z
pdata	ENDS
;	COMDAT pdata
pdata	SEGMENT
$pdata$?reserve@?$ImVector@D@@QEAAXH@Z DD imagerel $LN13
	DD	imagerel $LN13+28
	DD	imagerel $unwind$?reserve@?$ImVector@D@@QEAAXH@Z
pdata	ENDS
;	COMDAT pdata
pdata	SEGMENT
$pdata$0$?reserve@?$ImVector@D@@QEAAXH@Z DD imagerel $LN13+28
	DD	imagerel $LN13+135
	DD	imagerel $chain$0$?reserve@?$ImVector@D@@QEAAXH@Z
pdata	ENDS
;	COMDAT pdata
pdata	SEGMENT
$pdata$1$?reserve@?$ImVector@D@@QEAAXH@Z DD imagerel $LN13+135
	DD	imagerel $LN13+146
	DD	imagerel $chain$1$?reserve@?$ImVector@D@@QEAAXH@Z
pdata	ENDS
;	COMDAT pdata
pdata	SEGMENT
$pdata$?push_back@?$ImVector@D@@QEAAXAEBD@Z DD imagerel $LN9
	DD	imagerel $LN9+95
	DD	imagerel $unwind$?push_back@?$ImVector@D@@QEAAXAEBD@Z
pdata	ENDS
;	COMDAT pdata
pdata	SEGMENT
$pdata$?begin@ImGuiTextBuffer@@QEBAPEBDXZ DD imagerel $LN9
	DD	imagerel $LN9+72
	DD	imagerel $unwind$?begin@ImGuiTextBuffer@@QEBAPEBDXZ
pdata	ENDS
;	COMDAT pdata
pdata	SEGMENT
$pdata$?clear@ImGuiTextBuffer@@QEAAXXZ DD imagerel $LN11
	DD	imagerel $LN11+70
	DD	imagerel $unwind$?clear@ImGuiTextBuffer@@QEAAXXZ
pdata	ENDS
;	COMDAT pdata
pdata	SEGMENT
$pdata$?append@ImGuiTextBuffer@@QEAAXPEBD0@Z DD imagerel $LN24
	DD	imagerel $LN24+271
	DD	imagerel $unwind$?append@ImGuiTextBuffer@@QEAAXPEBD0@Z
pdata	ENDS
;	COMDAT pdata
pdata	SEGMENT
$pdata$?appendf@ImGuiTextBuffer@@QEAAXPEBDZZ DD imagerel $LN4
	DD	imagerel $LN4+34
	DD	imagerel $unwind$?appendf@ImGuiTextBuffer@@QEAAXPEBDZZ
pdata	ENDS
;	COMDAT pdata
pdata	SEGMENT
$pdata$?appendfv@ImGuiTextBuffer@@QEAAXPEBDPEAD@Z DD imagerel $LN28
	DD	imagerel $LN28+87
	DD	imagerel $unwind$?appendfv@ImGuiTextBuffer@@QEAAXPEBDPEAD@Z
pdata	ENDS
;	COMDAT pdata
pdata	SEGMENT
$pdata$1$?appendfv@ImGuiTextBuffer@@QEAAXPEBDPEAD@Z DD imagerel $LN28+87
	DD	imagerel $LN28+186
	DD	imagerel $chain$1$?appendfv@ImGuiTextBuffer@@QEAAXPEBDPEAD@Z
pdata	ENDS
;	COMDAT pdata
pdata	SEGMENT
$pdata$2$?appendfv@ImGuiTextBuffer@@QEAAXPEBDPEAD@Z DD imagerel $LN28+186
	DD	imagerel $LN28+241
	DD	imagerel $chain$2$?appendfv@ImGuiTextBuffer@@QEAAXPEBDPEAD@Z
pdata	ENDS
;	COMDAT pdata
pdata	SEGMENT
$pdata$3$?appendfv@ImGuiTextBuffer@@QEAAXPEBDPEAD@Z DD imagerel $LN28+241
	DD	imagerel $LN28+256
	DD	imagerel $chain$3$?appendfv@ImGuiTextBuffer@@QEAAXPEBDPEAD@Z
pdata	ENDS
;	COMDAT pdata
pdata	SEGMENT
$pdata$??1ImGuiTextBuffer@@QEAA@XZ DD imagerel $LN14
	DD	imagerel $LN14+50
	DD	imagerel $unwind$??1ImGuiTextBuffer@@QEAA@XZ
pdata	ENDS
;	COMDAT pdata
pdata	SEGMENT
$pdata$??1?$ImVector@UImGuiStoragePair@ImGuiStorage@@@@QEAA@XZ DD imagerel $LN10
	DD	imagerel $LN10+50
	DD	imagerel $unwind$??1?$ImVector@UImGuiStoragePair@ImGuiStorage@@@@QEAA@XZ
pdata	ENDS
;	COMDAT pdata
pdata	SEGMENT
$pdata$??A?$ImVector@UImGuiStoragePair@ImGuiStorage@@@@QEAAAEAUImGuiStoragePair@ImGuiStorage@@H@Z DD imagerel $LN5
	DD	imagerel $LN5+68
	DD	imagerel $unwind$??A?$ImVector@UImGuiStoragePair@ImGuiStorage@@@@QEAAAEAUImGuiStoragePair@ImGuiStorage@@H@Z
pdata	ENDS
;	COMDAT pdata
pdata	SEGMENT
$pdata$?clear@?$ImVector@UImGuiStoragePair@ImGuiStorage@@@@QEAAXXZ DD imagerel $LN9
	DD	imagerel $LN9+70
	DD	imagerel $unwind$?clear@?$ImVector@UImGuiStoragePair@ImGuiStorage@@@@QEAAXXZ
pdata	ENDS
;	COMDAT pdata
pdata	SEGMENT
$pdata$?reserve@?$ImVector@UImGuiStoragePair@ImGuiStorage@@@@QEAAXH@Z DD imagerel $LN13
	DD	imagerel $LN13+28
	DD	imagerel $unwind$?reserve@?$ImVector@UImGuiStoragePair@ImGuiStorage@@@@QEAAXH@Z
pdata	ENDS
;	COMDAT pdata
pdata	SEGMENT
$pdata$0$?reserve@?$ImVector@UImGuiStoragePair@ImGuiStorage@@@@QEAAXH@Z DD imagerel $LN13+28
	DD	imagerel $LN13+143
	DD	imagerel $chain$0$?reserve@?$ImVector@UImGuiStoragePair@ImGuiStorage@@@@QEAAXH@Z
pdata	ENDS
;	COMDAT pdata
pdata	SEGMENT
$pdata$1$?reserve@?$ImVector@UImGuiStoragePair@ImGuiStorage@@@@QEAAXH@Z DD imagerel $LN13+143
	DD	imagerel $LN13+154
	DD	imagerel $chain$1$?reserve@?$ImVector@UImGuiStoragePair@ImGuiStorage@@@@QEAAXH@Z
pdata	ENDS
;	COMDAT pdata
pdata	SEGMENT
$pdata$?insert@?$ImVector@UImGuiStoragePair@ImGuiStorage@@@@QEAAPEAUImGuiStoragePair@ImGuiStorage@@PEBU23@AEBU23@@Z DD imagerel $LN25
	DD	imagerel $LN25+338
	DD	imagerel $unwind$?insert@?$ImVector@UImGuiStoragePair@ImGuiStorage@@@@QEAAPEAUImGuiStoragePair@ImGuiStorage@@PEBU23@AEBU23@@Z
pdata	ENDS
;	COMDAT pdata
pdata	SEGMENT
$pdata$?Clear@ImGuiStorage@@QEAAXXZ DD imagerel $LN11
	DD	imagerel $LN11+70
	DD	imagerel $unwind$?Clear@ImGuiStorage@@QEAAXXZ
pdata	ENDS
;	COMDAT pdata
pdata	SEGMENT
$pdata$?GetInt@ImGuiStorage@@QEBAHIH@Z DD imagerel $LN17
	DD	imagerel $LN17+117
	DD	imagerel $unwind$?GetInt@ImGuiStorage@@QEBAHIH@Z
pdata	ENDS
;	COMDAT pdata
pdata	SEGMENT
$pdata$?SetInt@ImGuiStorage@@QEAAXIH@Z DD imagerel $LN19
	DD	imagerel $LN19+163
	DD	imagerel $unwind$?SetInt@ImGuiStorage@@QEAAXIH@Z
pdata	ENDS
;	COMDAT pdata
pdata	SEGMENT
$pdata$?GetBool@ImGuiStorage@@QEBA_NI_N@Z DD imagerel $LN19
	DD	imagerel $LN19+128
	DD	imagerel $unwind$?GetBool@ImGuiStorage@@QEBA_NI_N@Z
pdata	ENDS
;	COMDAT pdata
pdata	SEGMENT
$pdata$?SetBool@ImGuiStorage@@QEAAXI_N@Z DD imagerel $LN21
	DD	imagerel $LN21+161
	DD	imagerel $unwind$?SetBool@ImGuiStorage@@QEAAXI_N@Z
pdata	ENDS
;	COMDAT pdata
pdata	SEGMENT
$pdata$?SetFloat@ImGuiStorage@@QEAAXIM@Z DD imagerel $LN19
	DD	imagerel $LN19+139
	DD	imagerel $unwind$?SetFloat@ImGuiStorage@@QEAAXIM@Z
pdata	ENDS
;	COMDAT pdata
pdata	SEGMENT
$pdata$?GetVoidPtr@ImGuiStorage@@QEBAPEAXI@Z DD imagerel $LN17
	DD	imagerel $LN17+116
	DD	imagerel $unwind$?GetVoidPtr@ImGuiStorage@@QEBAPEAXI@Z
pdata	ENDS
;	COMDAT pdata
pdata	SEGMENT
$pdata$?SetVoidPtr@ImGuiStorage@@QEAAXIPEAX@Z DD imagerel $LN19
	DD	imagerel $LN19+163
	DD	imagerel $unwind$?SetVoidPtr@ImGuiStorage@@QEAAXIPEAX@Z
pdata	ENDS
;	COMDAT pdata
pdata	SEGMENT
$pdata$?GetIntRef@ImGuiStorage@@QEAAPEAHIH@Z DD imagerel $LN20
	DD	imagerel $LN20+167
	DD	imagerel $unwind$?GetIntRef@ImGuiStorage@@QEAAPEAHIH@Z
pdata	ENDS
;	COMDAT pdata
pdata	SEGMENT
$pdata$?GetBoolRef@ImGuiStorage@@QEAAPEA_NI_N@Z DD imagerel $LN22
	DD	imagerel $LN22+170
	DD	imagerel $unwind$?GetBoolRef@ImGuiStorage@@QEAAPEA_NI_N@Z
pdata	ENDS
;	COMDAT pdata
pdata	SEGMENT
$pdata$?GetFloatRef@ImGuiStorage@@QEAAPEAMIM@Z DD imagerel $LN20
	DD	imagerel $LN20+142
	DD	imagerel $unwind$?GetFloatRef@ImGuiStorage@@QEAAPEAMIM@Z
pdata	ENDS
;	COMDAT pdata
pdata	SEGMENT
$pdata$?GetVoidPtrRef@ImGuiStorage@@QEAAPEAPEAXIPEAX@Z DD imagerel $LN20
	DD	imagerel $LN20+167
	DD	imagerel $unwind$?GetVoidPtrRef@ImGuiStorage@@QEAAPEAPEAXIPEAX@Z
pdata	ENDS
;	COMDAT pdata
pdata	SEGMENT
$pdata$?SetAllInt@ImGuiStorage@@QEAAXH@Z DD imagerel $LN15
	DD	imagerel $LN15+28
	DD	imagerel $unwind$?SetAllInt@ImGuiStorage@@QEAAXH@Z
pdata	ENDS
;	COMDAT pdata
pdata	SEGMENT
$pdata$0$?SetAllInt@ImGuiStorage@@QEAAXH@Z DD imagerel $LN15+28
	DD	imagerel $LN15+90
	DD	imagerel $chain$0$?SetAllInt@ImGuiStorage@@QEAAXH@Z
pdata	ENDS
;	COMDAT pdata
pdata	SEGMENT
$pdata$1$?SetAllInt@ImGuiStorage@@QEAAXH@Z DD imagerel $LN15+90
	DD	imagerel $LN15+106
	DD	imagerel $chain$1$?SetAllInt@ImGuiStorage@@QEAAXH@Z
pdata	ENDS
;	COMDAT pdata
pdata	SEGMENT
$pdata$??1ImGuiStorage@@QEAA@XZ DD imagerel $LN14
	DD	imagerel $LN14+50
	DD	imagerel $unwind$??1ImGuiStorage@@QEAA@XZ
pdata	ENDS
;	COMDAT pdata
pdata	SEGMENT
$pdata$??0ImGuiListClipper@@QEAA@HM@Z DD imagerel $LN4
	DD	imagerel $LN4+23
	DD	imagerel $unwind$??0ImGuiListClipper@@QEAA@HM@Z
pdata	ENDS
;	COMDAT pdata
pdata	SEGMENT
$pdata$?Step@ImGuiListClipper@@QEAA_NXZ DD imagerel $LN18
	DD	imagerel $LN18+100
	DD	imagerel $unwind$?Step@ImGuiListClipper@@QEAA_NXZ
pdata	ENDS
;	COMDAT pdata
pdata	SEGMENT
$pdata$0$?Step@ImGuiListClipper@@QEAA_NXZ DD imagerel $LN18+100
	DD	imagerel $LN18+194
	DD	imagerel $chain$0$?Step@ImGuiListClipper@@QEAA_NXZ
pdata	ENDS
;	COMDAT pdata
pdata	SEGMENT
$pdata$1$?Step@ImGuiListClipper@@QEAA_NXZ DD imagerel $LN18+194
	DD	imagerel $LN18+315
	DD	imagerel $chain$1$?Step@ImGuiListClipper@@QEAA_NXZ
pdata	ENDS
;	COMDAT pdata
pdata	SEGMENT
$pdata$?Begin@ImGuiListClipper@@QEAAXHM@Z DD imagerel $LN45
	DD	imagerel $LN45+407
	DD	imagerel $unwind$?Begin@ImGuiListClipper@@QEAAXHM@Z
pdata	ENDS
;	COMDAT pdata
pdata	SEGMENT
$pdata$?End@ImGuiListClipper@@QEAAXXZ DD imagerel $LN6
	DD	imagerel $LN6+66
	DD	imagerel $unwind$?End@ImGuiListClipper@@QEAAXXZ
pdata	ENDS
;	COMDAT pdata
pdata	SEGMENT
$pdata$??1?$ImVector@UImDrawCmd@@@@QEAA@XZ DD imagerel $LN10
	DD	imagerel $LN10+50
	DD	imagerel $unwind$??1?$ImVector@UImDrawCmd@@@@QEAA@XZ
pdata	ENDS
;	COMDAT pdata
pdata	SEGMENT
$pdata$?back@?$ImVector@UImDrawCmd@@@@QEAAAEAUImDrawCmd@@XZ DD imagerel $LN5
	DD	imagerel $LN5+62
	DD	imagerel $unwind$?back@?$ImVector@UImDrawCmd@@@@QEAAAEAUImDrawCmd@@XZ
pdata	ENDS
;	COMDAT pdata
pdata	SEGMENT
$pdata$?pop_back@?$ImVector@UImDrawCmd@@@@QEAAXXZ DD imagerel $LN6
	DD	imagerel $LN6+59
	DD	imagerel $unwind$?pop_back@?$ImVector@UImDrawCmd@@@@QEAAXXZ
pdata	ENDS
;	COMDAT pdata
pdata	SEGMENT
$pdata$??1?$ImVector@UImDrawChannel@@@@QEAA@XZ DD imagerel $LN10
	DD	imagerel $LN10+50
	DD	imagerel $unwind$??1?$ImVector@UImDrawChannel@@@@QEAA@XZ
pdata	ENDS
;	COMDAT pdata
pdata	SEGMENT
$pdata$??1ImDrawListSplitter@@QEAA@XZ DD imagerel $LN14
	DD	imagerel $LN14+62
	DD	imagerel $unwind$??1ImDrawListSplitter@@QEAA@XZ
pdata	ENDS
;	COMDAT pdata
pdata	SEGMENT
$pdata$??1?$ImVector@UImDrawVert@@@@QEAA@XZ DD imagerel $LN10
	DD	imagerel $LN10+50
	DD	imagerel $unwind$??1?$ImVector@UImDrawVert@@@@QEAA@XZ
pdata	ENDS
;	COMDAT pdata
pdata	SEGMENT
$pdata$??A?$ImVector@UImDrawVert@@@@QEAAAEAUImDrawVert@@H@Z DD imagerel $LN5
	DD	imagerel $LN5+69
	DD	imagerel $unwind$??A?$ImVector@UImDrawVert@@@@QEAAAEAUImDrawVert@@H@Z
pdata	ENDS
;	COMDAT pdata
pdata	SEGMENT
$pdata$??A?$ImVector@UImDrawVert@@@@QEBAAEBUImDrawVert@@H@Z DD imagerel $LN5
	DD	imagerel $LN5+69
	DD	imagerel $unwind$??A?$ImVector@UImDrawVert@@@@QEBAAEBUImDrawVert@@H@Z
pdata	ENDS
;	COMDAT pdata
pdata	SEGMENT
$pdata$?reserve@?$ImVector@UImDrawVert@@@@QEAAXH@Z DD imagerel $LN13
	DD	imagerel $LN13+28
	DD	imagerel $unwind$?reserve@?$ImVector@UImDrawVert@@@@QEAAXH@Z
pdata	ENDS
;	COMDAT pdata
pdata	SEGMENT
$pdata$0$?reserve@?$ImVector@UImDrawVert@@@@QEAAXH@Z DD imagerel $LN13+28
	DD	imagerel $LN13+148
	DD	imagerel $chain$0$?reserve@?$ImVector@UImDrawVert@@@@QEAAXH@Z
pdata	ENDS
;	COMDAT pdata
pdata	SEGMENT
$pdata$1$?reserve@?$ImVector@UImDrawVert@@@@QEAAXH@Z DD imagerel $LN13+148
	DD	imagerel $LN13+159
	DD	imagerel $chain$1$?reserve@?$ImVector@UImDrawVert@@@@QEAAXH@Z
pdata	ENDS
;	COMDAT pdata
pdata	SEGMENT
$pdata$??1?$ImVector@UImVec4@@@@QEAA@XZ DD imagerel $LN10
	DD	imagerel $LN10+50
	DD	imagerel $unwind$??1?$ImVector@UImVec4@@@@QEAA@XZ
pdata	ENDS
;	COMDAT pdata
pdata	SEGMENT
$pdata$?back@?$ImVector@UImVec4@@@@QEAAAEAUImVec4@@XZ DD imagerel $LN5
	DD	imagerel $LN5+61
	DD	imagerel $unwind$?back@?$ImVector@UImVec4@@@@QEAAAEAUImVec4@@XZ
pdata	ENDS
;	COMDAT pdata
pdata	SEGMENT
$pdata$??1?$ImVector@PEAX@@QEAA@XZ DD imagerel $LN10
	DD	imagerel $LN10+50
	DD	imagerel $unwind$??1?$ImVector@PEAX@@QEAA@XZ
pdata	ENDS
;	COMDAT pdata
pdata	SEGMENT
$pdata$??1?$ImVector@UImVec2@@@@QEAA@XZ DD imagerel $LN10
	DD	imagerel $LN10+50
	DD	imagerel $unwind$??1?$ImVector@UImVec2@@@@QEAA@XZ
pdata	ENDS
;	COMDAT pdata
pdata	SEGMENT
$pdata$?reserve@?$ImVector@UImVec2@@@@QEAAXH@Z DD imagerel $LN13
	DD	imagerel $LN13+28
	DD	imagerel $unwind$?reserve@?$ImVector@UImVec2@@@@QEAAXH@Z
pdata	ENDS
;	COMDAT pdata
pdata	SEGMENT
$pdata$0$?reserve@?$ImVector@UImVec2@@@@QEAAXH@Z DD imagerel $LN13+28
	DD	imagerel $LN13+143
	DD	imagerel $chain$0$?reserve@?$ImVector@UImVec2@@@@QEAAXH@Z
pdata	ENDS
;	COMDAT pdata
pdata	SEGMENT
$pdata$1$?reserve@?$ImVector@UImVec2@@@@QEAAXH@Z DD imagerel $LN13+143
	DD	imagerel $LN13+154
	DD	imagerel $chain$1$?reserve@?$ImVector@UImVec2@@@@QEAAXH@Z
pdata	ENDS
;	COMDAT pdata
pdata	SEGMENT
$pdata$?push_back@?$ImVector@UImVec2@@@@QEAAXAEBUImVec2@@@Z DD imagerel $LN20
	DD	imagerel $LN20+73
	DD	imagerel $unwind$?push_back@?$ImVector@UImVec2@@@@QEAAXAEBUImVec2@@@Z
pdata	ENDS
;	COMDAT pdata
pdata	SEGMENT
$pdata$0$?push_back@?$ImVector@UImVec2@@@@QEAAXAEBUImVec2@@@Z DD imagerel $LN20+73
	DD	imagerel $LN20+188
	DD	imagerel $chain$0$?push_back@?$ImVector@UImVec2@@@@QEAAXAEBUImVec2@@@Z
pdata	ENDS
;	COMDAT pdata
pdata	SEGMENT
$pdata$1$?push_back@?$ImVector@UImVec2@@@@QEAAXAEBUImVec2@@@Z DD imagerel $LN20+188
	DD	imagerel $LN20+221
	DD	imagerel $chain$1$?push_back@?$ImVector@UImVec2@@@@QEAAXAEBUImVec2@@@Z
pdata	ENDS
;	COMDAT pdata
pdata	SEGMENT
$pdata$??0ImDrawList@@QEAA@PEBUImDrawListSharedData@@@Z DD imagerel $LN30
	DD	imagerel $LN30+121
	DD	imagerel $unwind$??0ImDrawList@@QEAA@PEBUImDrawListSharedData@@@Z
pdata	ENDS
;	COMDAT pdata
pdata	SEGMENT
$pdata$??1ImDrawList@@QEAA@XZ DD imagerel $LN65
	DD	imagerel $LN65+336
	DD	imagerel $unwind$??1ImDrawList@@QEAA@XZ
pdata	ENDS
;	COMDAT pdata
pdata	SEGMENT
$pdata$?PathLineTo@ImDrawList@@QEAAXAEBUImVec2@@@Z DD imagerel $LN22
	DD	imagerel $LN22+84
	DD	imagerel $unwind$?PathLineTo@ImDrawList@@QEAAXAEBUImVec2@@@Z
pdata	ENDS
;	COMDAT pdata
pdata	SEGMENT
$pdata$0$?PathLineTo@ImDrawList@@QEAAXAEBUImVec2@@@Z DD imagerel $LN22+84
	DD	imagerel $LN22+215
	DD	imagerel $chain$0$?PathLineTo@ImDrawList@@QEAAXAEBUImVec2@@@Z
pdata	ENDS
;	COMDAT pdata
pdata	SEGMENT
$pdata$1$?PathLineTo@ImDrawList@@QEAAXAEBUImVec2@@@Z DD imagerel $LN22+215
	DD	imagerel $LN22+259
	DD	imagerel $chain$1$?PathLineTo@ImDrawList@@QEAAXAEBUImVec2@@@Z
pdata	ENDS
;	COMDAT pdata
pdata	SEGMENT
$pdata$?PathFillConvex@ImDrawList@@QEAAXI@Z DD imagerel $LN4
	DD	imagerel $LN4+47
	DD	imagerel $unwind$?PathFillConvex@ImDrawList@@QEAAXI@Z
pdata	ENDS
;	COMDAT pdata
pdata	SEGMENT
$pdata$?PathStroke@ImDrawList@@QEAAXI_NM@Z DD imagerel $LN4
	DD	imagerel $LN4+58
	DD	imagerel $unwind$?PathStroke@ImDrawList@@QEAAXI_NM@Z
pdata	ENDS
;	COMDAT pdata
pdata	SEGMENT
$pdata$??1?$ImVector@I@@QEAA@XZ DD imagerel $LN10
	DD	imagerel $LN10+50
	DD	imagerel $unwind$??1?$ImVector@I@@QEAA@XZ
pdata	ENDS
;	COMDAT pdata
pdata	SEGMENT
$pdata$?clear@?$ImVector@I@@QEAAXXZ DD imagerel $LN9
	DD	imagerel $LN9+70
	DD	imagerel $unwind$?clear@?$ImVector@I@@QEAAXXZ
pdata	ENDS
;	COMDAT pdata
pdata	SEGMENT
$pdata$?back@?$ImVector@I@@QEAAAEAIXZ DD imagerel $LN5
	DD	imagerel $LN5+62
	DD	imagerel $unwind$?back@?$ImVector@I@@QEAAAEAIXZ
pdata	ENDS
;	COMDAT pdata
pdata	SEGMENT
$pdata$?resize@?$ImVector@I@@QEAAXH@Z DD imagerel $LN10
	DD	imagerel $LN10+70
	DD	imagerel $unwind$?resize@?$ImVector@I@@QEAAXH@Z
pdata	ENDS
;	COMDAT pdata
pdata	SEGMENT
$pdata$?reserve@?$ImVector@I@@QEAAXH@Z DD imagerel $LN13
	DD	imagerel $LN13+28
	DD	imagerel $unwind$?reserve@?$ImVector@I@@QEAAXH@Z
pdata	ENDS
;	COMDAT pdata
pdata	SEGMENT
$pdata$0$?reserve@?$ImVector@I@@QEAAXH@Z DD imagerel $LN13+28
	DD	imagerel $LN13+143
	DD	imagerel $chain$0$?reserve@?$ImVector@I@@QEAAXH@Z
pdata	ENDS
;	COMDAT pdata
pdata	SEGMENT
$pdata$1$?reserve@?$ImVector@I@@QEAAXH@Z DD imagerel $LN13+143
	DD	imagerel $LN13+154
	DD	imagerel $chain$1$?reserve@?$ImVector@I@@QEAAXH@Z
pdata	ENDS
;	COMDAT pdata
pdata	SEGMENT
$pdata$?push_back@?$ImVector@I@@QEAAXAEBI@Z DD imagerel $LN9
	DD	imagerel $LN9+94
	DD	imagerel $unwind$?push_back@?$ImVector@I@@QEAAXAEBI@Z
pdata	ENDS
;	COMDAT pdata
pdata	SEGMENT
$pdata$?pop_back@?$ImVector@I@@QEAAXXZ DD imagerel $LN6
	DD	imagerel $LN6+59
	DD	imagerel $unwind$?pop_back@?$ImVector@I@@QEAAXXZ
pdata	ENDS
;	COMDAT pdata
pdata	SEGMENT
$pdata$??1?$ImVector@PEAUImFont@@@@QEAA@XZ DD imagerel $LN10
	DD	imagerel $LN10+50
	DD	imagerel $unwind$??1?$ImVector@PEAUImFont@@@@QEAA@XZ
pdata	ENDS
;	COMDAT pdata
pdata	SEGMENT
$pdata$??A?$ImVector@PEAUImFont@@@@QEAAAEAPEAUImFont@@H@Z DD imagerel $LN5
	DD	imagerel $LN5+65
	DD	imagerel $unwind$??A?$ImVector@PEAUImFont@@@@QEAAAEAPEAUImFont@@H@Z
pdata	ENDS
;	COMDAT pdata
pdata	SEGMENT
$pdata$?clear@?$ImVector@PEAUImFont@@@@QEAAXXZ DD imagerel $LN9
	DD	imagerel $LN9+70
	DD	imagerel $unwind$?clear@?$ImVector@PEAUImFont@@@@QEAAXXZ
pdata	ENDS
;	COMDAT pdata
pdata	SEGMENT
$pdata$?back@?$ImVector@PEAUImFont@@@@QEAAAEAPEAUImFont@@XZ DD imagerel $LN5
	DD	imagerel $LN5+62
	DD	imagerel $unwind$?back@?$ImVector@PEAUImFont@@@@QEAAAEAPEAUImFont@@XZ
pdata	ENDS
;	COMDAT pdata
pdata	SEGMENT
$pdata$?reserve@?$ImVector@PEAUImFont@@@@QEAAXH@Z DD imagerel $LN13
	DD	imagerel $LN13+28
	DD	imagerel $unwind$?reserve@?$ImVector@PEAUImFont@@@@QEAAXH@Z
pdata	ENDS
;	COMDAT pdata
pdata	SEGMENT
$pdata$0$?reserve@?$ImVector@PEAUImFont@@@@QEAAXH@Z DD imagerel $LN13+28
	DD	imagerel $LN13+143
	DD	imagerel $chain$0$?reserve@?$ImVector@PEAUImFont@@@@QEAAXH@Z
pdata	ENDS
;	COMDAT pdata
pdata	SEGMENT
$pdata$1$?reserve@?$ImVector@PEAUImFont@@@@QEAAXH@Z DD imagerel $LN13+143
	DD	imagerel $LN13+154
	DD	imagerel $chain$1$?reserve@?$ImVector@PEAUImFont@@@@QEAAXH@Z
pdata	ENDS
;	COMDAT pdata
pdata	SEGMENT
$pdata$?push_back@?$ImVector@PEAUImFont@@@@QEAAXAEBQEAUImFont@@@Z DD imagerel $LN20
	DD	imagerel $LN20+73
	DD	imagerel $unwind$?push_back@?$ImVector@PEAUImFont@@@@QEAAXAEBQEAUImFont@@@Z
pdata	ENDS
;	COMDAT pdata
pdata	SEGMENT
$pdata$0$?push_back@?$ImVector@PEAUImFont@@@@QEAAXAEBQEAUImFont@@@Z DD imagerel $LN20+73
	DD	imagerel $LN20+188
	DD	imagerel $chain$0$?push_back@?$ImVector@PEAUImFont@@@@QEAAXAEBQEAUImFont@@@Z
pdata	ENDS
;	COMDAT pdata
pdata	SEGMENT
$pdata$1$?push_back@?$ImVector@PEAUImFont@@@@QEAAXAEBQEAUImFont@@@Z DD imagerel $LN20+188
	DD	imagerel $LN20+221
	DD	imagerel $chain$1$?push_back@?$ImVector@PEAUImFont@@@@QEAAXAEBQEAUImFont@@@Z
pdata	ENDS
;	COMDAT pdata
pdata	SEGMENT
$pdata$?pop_back@?$ImVector@PEAUImFont@@@@QEAAXXZ DD imagerel $LN6
	DD	imagerel $LN6+59
	DD	imagerel $unwind$?pop_back@?$ImVector@PEAUImFont@@@@QEAAXXZ
pdata	ENDS
;	COMDAT pdata
pdata	SEGMENT
$pdata$??_GImFontAtlas@@QEAAPEAXI@Z DD imagerel $LN7
	DD	imagerel $LN7+52
	DD	imagerel $unwind$??_GImFontAtlas@@QEAAPEAXI@Z
pdata	ENDS
;	COMDAT pdata
pdata	SEGMENT
$pdata$??1?$ImVector@M@@QEAA@XZ DD imagerel $LN10
	DD	imagerel $LN10+50
	DD	imagerel $unwind$??1?$ImVector@M@@QEAA@XZ
pdata	ENDS
;	COMDAT pdata
pdata	SEGMENT
$pdata$?clear@?$ImVector@M@@QEAAXXZ DD imagerel $LN9
	DD	imagerel $LN9+70
	DD	imagerel $unwind$?clear@?$ImVector@M@@QEAAXXZ
pdata	ENDS
;	COMDAT pdata
pdata	SEGMENT
$pdata$?back@?$ImVector@M@@QEAAAEAMXZ DD imagerel $LN5
	DD	imagerel $LN5+62
	DD	imagerel $unwind$?back@?$ImVector@M@@QEAAAEAMXZ
pdata	ENDS
;	COMDAT pdata
pdata	SEGMENT
$pdata$?resize@?$ImVector@M@@QEAAXH@Z DD imagerel $LN10
	DD	imagerel $LN10+70
	DD	imagerel $unwind$?resize@?$ImVector@M@@QEAAXH@Z
pdata	ENDS
;	COMDAT pdata
pdata	SEGMENT
$pdata$?reserve@?$ImVector@M@@QEAAXH@Z DD imagerel $LN13
	DD	imagerel $LN13+28
	DD	imagerel $unwind$?reserve@?$ImVector@M@@QEAAXH@Z
pdata	ENDS
;	COMDAT pdata
pdata	SEGMENT
$pdata$0$?reserve@?$ImVector@M@@QEAAXH@Z DD imagerel $LN13+28
	DD	imagerel $LN13+143
	DD	imagerel $chain$0$?reserve@?$ImVector@M@@QEAAXH@Z
pdata	ENDS
;	COMDAT pdata
pdata	SEGMENT
$pdata$1$?reserve@?$ImVector@M@@QEAAXH@Z DD imagerel $LN13+143
	DD	imagerel $LN13+154
	DD	imagerel $chain$1$?reserve@?$ImVector@M@@QEAAXH@Z
pdata	ENDS
;	COMDAT pdata
pdata	SEGMENT
$pdata$?push_back@?$ImVector@M@@QEAAXAEBM@Z DD imagerel $LN9
	DD	imagerel $LN9+94
	DD	imagerel $unwind$?push_back@?$ImVector@M@@QEAAXAEBM@Z
pdata	ENDS
;	COMDAT pdata
pdata	SEGMENT
$pdata$?pop_back@?$ImVector@M@@QEAAXXZ DD imagerel $LN6
	DD	imagerel $LN6+59
	DD	imagerel $unwind$?pop_back@?$ImVector@M@@QEAAXXZ
pdata	ENDS
;	COMDAT pdata
pdata	SEGMENT
$pdata$_vsnprintf_l DD imagerel $LN4
	DD	imagerel $LN4+105
	DD	imagerel $unwind$_vsnprintf_l
pdata	ENDS
;	COMDAT pdata
pdata	SEGMENT
$pdata$_vsnprintf DD imagerel $LN6
	DD	imagerel $LN6+104
	DD	imagerel $unwind$_vsnprintf
pdata	ENDS
;	COMDAT pdata
pdata	SEGMENT
$pdata$_vsscanf_l DD imagerel $LN4
	DD	imagerel $LN4+90
	DD	imagerel $unwind$_vsscanf_l
pdata	ENDS
;	COMDAT pdata
pdata	SEGMENT
$pdata$sscanf DD imagerel $LN6
	DD	imagerel $LN6+82
	DD	imagerel $unwind$sscanf
pdata	ENDS
;	COMDAT pdata
pdata	SEGMENT
$pdata$?ImHashStr@@YAIPEBD_KI@Z DD imagerel $LN22
	DD	imagerel $LN22+175
	DD	imagerel $unwind$?ImHashStr@@YAIPEBD_KI@Z
pdata	ENDS
;	COMDAT pdata
pdata	SEGMENT
$pdata$?ImStricmp@@YAHPEBD0@Z DD imagerel $LN12
	DD	imagerel $LN12+113
	DD	imagerel $unwind$?ImStricmp@@YAHPEBD0@Z
pdata	ENDS
;	COMDAT pdata
pdata	SEGMENT
$pdata$?ImStrnicmp@@YAHPEBD0_K@Z DD imagerel $LN14
	DD	imagerel $LN14+29
	DD	imagerel $unwind$?ImStrnicmp@@YAHPEBD0_K@Z
pdata	ENDS
;	COMDAT pdata
pdata	SEGMENT
$pdata$0$?ImStrnicmp@@YAHPEBD0_K@Z DD imagerel $LN14+29
	DD	imagerel $LN14+99
	DD	imagerel $chain$0$?ImStrnicmp@@YAHPEBD0_K@Z
pdata	ENDS
;	COMDAT pdata
pdata	SEGMENT
$pdata$1$?ImStrnicmp@@YAHPEBD0_K@Z DD imagerel $LN14+99
	DD	imagerel $LN14+117
	DD	imagerel $chain$1$?ImStrnicmp@@YAHPEBD0_K@Z
pdata	ENDS
;	COMDAT pdata
pdata	SEGMENT
$pdata$?ImStrncpy@@YAXPEADPEBD_K@Z DD imagerel $LN6
	DD	imagerel $LN6+49
	DD	imagerel $unwind$?ImStrncpy@@YAXPEADPEBD_K@Z
pdata	ENDS
;	COMDAT pdata
pdata	SEGMENT
$pdata$?ImStrdup@@YAPEADPEBD@Z DD imagerel $LN8
	DD	imagerel $LN8+117
	DD	imagerel $unwind$?ImStrdup@@YAPEADPEBD@Z
pdata	ENDS
;	COMDAT pdata
pdata	SEGMENT
$pdata$?ImStrdupcpy@@YAPEADPEADPEA_KPEBD@Z DD imagerel $LN18
	DD	imagerel $LN18+201
	DD	imagerel $unwind$?ImStrdupcpy@@YAPEADPEADPEA_KPEBD@Z
pdata	ENDS
;	COMDAT pdata
pdata	SEGMENT
$pdata$?ImStreolRange@@YAPEBDPEBD0@Z DD imagerel $LN4
	DD	imagerel $LN4+41
	DD	imagerel $unwind$?ImStreolRange@@YAPEBDPEBD0@Z
pdata	ENDS
;	COMDAT pdata
pdata	SEGMENT
$pdata$?ImStristr@@YAPEBDPEBD000@Z DD imagerel $LN30
	DD	imagerel $LN30+210
	DD	imagerel $unwind$?ImStristr@@YAPEBDPEBD000@Z
pdata	ENDS
;	COMDAT pdata
pdata	SEGMENT
$pdata$?ImStrTrimBlanks@@YAXPEAD@Z DD imagerel $LN30
	DD	imagerel $LN30+135
	DD	imagerel $unwind$?ImStrTrimBlanks@@YAXPEAD@Z
pdata	ENDS
;	COMDAT pdata
pdata	SEGMENT
$pdata$?ImFormatString@@YAHPEAD_KPEBDZZ DD imagerel $LN13
	DD	imagerel $LN13+119
	DD	imagerel $unwind$?ImFormatString@@YAHPEAD_KPEBDZZ
pdata	ENDS
;	COMDAT pdata
pdata	SEGMENT
$pdata$?ImFormatStringV@@YAHPEAD_KPEBD0@Z DD imagerel $LN13
	DD	imagerel $LN13+138
	DD	imagerel $unwind$?ImFormatStringV@@YAHPEAD_KPEBD0@Z
pdata	ENDS
;	COMDAT pdata
pdata	SEGMENT
$pdata$?ImTextStrToUtf8@@YAHPEADHPEBG1@Z DD imagerel $LN22
	DD	imagerel $LN22+206
	DD	imagerel $unwind$?ImTextStrToUtf8@@YAHPEADHPEBG1@Z
pdata	ENDS
;	COMDAT pdata
pdata	SEGMENT
$pdata$?ImTextCharFromUtf8@@YAHPEAIPEBD1@Z DD imagerel $LN38
	DD	imagerel $LN38+298
	DD	imagerel $unwind$?ImTextCharFromUtf8@@YAHPEAIPEBD1@Z
pdata	ENDS
;	COMDAT pdata
pdata	SEGMENT
$pdata$0$?ImTextCharFromUtf8@@YAHPEAIPEBD1@Z DD imagerel $LN38+298
	DD	imagerel $LN38+342
	DD	imagerel $chain$0$?ImTextCharFromUtf8@@YAHPEAIPEBD1@Z
pdata	ENDS
;	COMDAT pdata
pdata	SEGMENT
$pdata$2$?ImTextCharFromUtf8@@YAHPEAIPEBD1@Z DD imagerel $LN38+342
	DD	imagerel $LN38+475
	DD	imagerel $chain$2$?ImTextCharFromUtf8@@YAHPEAIPEBD1@Z
pdata	ENDS
;	COMDAT pdata
pdata	SEGMENT
$pdata$3$?ImTextCharFromUtf8@@YAHPEAIPEBD1@Z DD imagerel $LN38+475
	DD	imagerel $LN38+488
	DD	imagerel $chain$3$?ImTextCharFromUtf8@@YAHPEAIPEBD1@Z
pdata	ENDS
;	COMDAT pdata
pdata	SEGMENT
$pdata$?ImTextStrFromUtf8@@YAHPEAGHPEBD1PEAPEBD@Z DD imagerel $LN49
	DD	imagerel $LN49+8
	DD	imagerel $unwind$?ImTextStrFromUtf8@@YAHPEAGHPEBD1PEAPEBD@Z
pdata	ENDS
;	COMDAT pdata
pdata	SEGMENT
$pdata$1$?ImTextStrFromUtf8@@YAHPEAGHPEBD1PEAPEBD@Z DD imagerel $LN49+8
	DD	imagerel $LN49+49
	DD	imagerel $chain$1$?ImTextStrFromUtf8@@YAHPEAGHPEBD1PEAPEBD@Z
pdata	ENDS
;	COMDAT pdata
pdata	SEGMENT
$pdata$4$?ImTextStrFromUtf8@@YAHPEAGHPEBD1PEAPEBD@Z DD imagerel $LN49+49
	DD	imagerel $LN49+687
	DD	imagerel $chain$4$?ImTextStrFromUtf8@@YAHPEAGHPEBD1PEAPEBD@Z
pdata	ENDS
;	COMDAT pdata
pdata	SEGMENT
$pdata$5$?ImTextStrFromUtf8@@YAHPEAGHPEBD1PEAPEBD@Z DD imagerel $LN49+687
	DD	imagerel $LN49+711
	DD	imagerel $chain$5$?ImTextStrFromUtf8@@YAHPEAGHPEBD1PEAPEBD@Z
pdata	ENDS
;	COMDAT pdata
pdata	SEGMENT
$pdata$6$?ImTextStrFromUtf8@@YAHPEAGHPEBD1PEAPEBD@Z DD imagerel $LN49+711
	DD	imagerel $LN49+730
	DD	imagerel $chain$6$?ImTextStrFromUtf8@@YAHPEAGHPEBD1PEAPEBD@Z
pdata	ENDS
;	COMDAT pdata
pdata	SEGMENT
$pdata$?ImTextCountCharsFromUtf8@@YAHPEBD0@Z DD imagerel $LN46
	DD	imagerel $LN46+640
	DD	imagerel $unwind$?ImTextCountCharsFromUtf8@@YAHPEBD0@Z
pdata	ENDS
;	COMDAT pdata
pdata	SEGMENT
$pdata$?ImTextCountUtf8BytesFromChar@@YAHPEBD0@Z DD imagerel $LN4
	DD	imagerel $LN4+25
	DD	imagerel $unwind$?ImTextCountUtf8BytesFromChar@@YAHPEBD0@Z
pdata	ENDS
;	COMDAT pdata
pdata	SEGMENT
$pdata$?ImFileOpen@@YAPEAU_iobuf@@PEBD0@Z DD imagerel $LN48
	DD	imagerel $LN48+439
	DD	imagerel $unwind$?ImFileOpen@@YAPEAU_iobuf@@PEBD0@Z
pdata	ENDS
;	COMDAT pdata
pdata	SEGMENT
$pdata$?ImFileClose@@YA_NPEAU_iobuf@@@Z DD imagerel $LN4
	DD	imagerel $LN4+20
	DD	imagerel $unwind$?ImFileClose@@YA_NPEAU_iobuf@@@Z
pdata	ENDS
;	COMDAT pdata
pdata	SEGMENT
$pdata$?ImFileGetSize@@YA_KPEAU_iobuf@@@Z DD imagerel $LN6
	DD	imagerel $LN6+111
	DD	imagerel $unwind$?ImFileGetSize@@YA_KPEAU_iobuf@@@Z
pdata	ENDS
;	COMDAT pdata
pdata	SEGMENT
$pdata$?ImFileLoadToMemory@@YAPEAXPEBD0PEA_KH@Z DD imagerel $LN39
	DD	imagerel $LN39+400
	DD	imagerel $unwind$?ImFileLoadToMemory@@YAPEAXPEBD0PEA_KH@Z
pdata	ENDS
;	COMDAT pdata
pdata	SEGMENT
$pdata$?ImClamp@@YA?AUImVec2@@AEBU1@0U1@@Z DD imagerel ?ImClamp@@YA?AUImVec2@@AEBU1@0U1@@Z
	DD	imagerel ?ImClamp@@YA?AUImVec2@@AEBU1@0U1@@Z+74
	DD	imagerel $unwind$?ImClamp@@YA?AUImVec2@@AEBU1@0U1@@Z
pdata	ENDS
;	COMDAT pdata
pdata	SEGMENT
$pdata$?ImBezierClosestPoint@@YA?AUImVec2@@AEBU1@0000H@Z DD imagerel $LN46
	DD	imagerel $LN46+142
	DD	imagerel $unwind$?ImBezierClosestPoint@@YA?AUImVec2@@AEBU1@0000H@Z
pdata	ENDS
;	COMDAT pdata
pdata	SEGMENT
$pdata$7$?ImBezierClosestPoint@@YA?AUImVec2@@AEBU1@0000H@Z DD imagerel $LN46+142
	DD	imagerel $LN46+550
	DD	imagerel $chain$7$?ImBezierClosestPoint@@YA?AUImVec2@@AEBU1@0000H@Z
pdata	ENDS
;	COMDAT pdata
pdata	SEGMENT
$pdata$8$?ImBezierClosestPoint@@YA?AUImVec2@@AEBU1@0000H@Z DD imagerel $LN46+550
	DD	imagerel $LN46+588
	DD	imagerel $chain$8$?ImBezierClosestPoint@@YA?AUImVec2@@AEBU1@0000H@Z
pdata	ENDS
;	COMDAT pdata
pdata	SEGMENT
$pdata$?ImBezierClosestPointCasteljau@@YA?AUImVec2@@AEBU1@0000M@Z DD imagerel $LN7
	DD	imagerel $LN7+286
	DD	imagerel $unwind$?ImBezierClosestPointCasteljau@@YA?AUImVec2@@AEBU1@0000M@Z
pdata	ENDS
;	COMDAT pdata
pdata	SEGMENT
$pdata$?ImTriangleContainsPoint@@YA_NAEBUImVec2@@000@Z DD imagerel $LN6
	DD	imagerel $LN6+238
	DD	imagerel $unwind$?ImTriangleContainsPoint@@YA_NAEBUImVec2@@000@Z
pdata	ENDS
;	COMDAT pdata
pdata	SEGMENT
$pdata$?ImTriangleClosestPoint@@YA?AUImVec2@@AEBU1@000@Z DD imagerel $LN105
	DD	imagerel $LN105+687
	DD	imagerel $unwind$?ImTriangleClosestPoint@@YA?AUImVec2@@AEBU1@000@Z
pdata	ENDS
;	COMDAT pdata
pdata	SEGMENT
$pdata$?ImTriangleBarycentricCoords@@YAXAEBUImVec2@@000AEAM11@Z DD imagerel $LN16
	DD	imagerel $LN16+206
	DD	imagerel $unwind$?ImTriangleBarycentricCoords@@YAXAEBUImVec2@@000AEAM11@Z
pdata	ENDS
;	COMDAT pdata
pdata	SEGMENT
$pdata$??1?$ImVector@PEAUImDrawList@@@@QEAA@XZ DD imagerel $LN10
	DD	imagerel $LN10+50
	DD	imagerel $unwind$??1?$ImVector@PEAUImDrawList@@@@QEAA@XZ
pdata	ENDS
;	COMDAT pdata
pdata	SEGMENT
$pdata$??A?$ImVector@PEAUImDrawList@@@@QEAAAEAPEAUImDrawList@@H@Z DD imagerel $LN5
	DD	imagerel $LN5+65
	DD	imagerel $unwind$??A?$ImVector@PEAUImDrawList@@@@QEAAAEAPEAUImDrawList@@H@Z
pdata	ENDS
;	COMDAT pdata
pdata	SEGMENT
$pdata$?clear@?$ImVector@PEAUImDrawList@@@@QEAAXXZ DD imagerel $LN9
	DD	imagerel $LN9+70
	DD	imagerel $unwind$?clear@?$ImVector@PEAUImDrawList@@@@QEAAXXZ
pdata	ENDS
;	COMDAT pdata
pdata	SEGMENT
$pdata$?resize@?$ImVector@PEAUImDrawList@@@@QEAAXH@Z DD imagerel $LN10
	DD	imagerel $LN10+70
	DD	imagerel $unwind$?resize@?$ImVector@PEAUImDrawList@@@@QEAAXH@Z
pdata	ENDS
;	COMDAT pdata
pdata	SEGMENT
$pdata$?reserve@?$ImVector@PEAUImDrawList@@@@QEAAXH@Z DD imagerel $LN13
	DD	imagerel $LN13+28
	DD	imagerel $unwind$?reserve@?$ImVector@PEAUImDrawList@@@@QEAAXH@Z
pdata	ENDS
;	COMDAT pdata
pdata	SEGMENT
$pdata$0$?reserve@?$ImVector@PEAUImDrawList@@@@QEAAXH@Z DD imagerel $LN13+28
	DD	imagerel $LN13+143
	DD	imagerel $chain$0$?reserve@?$ImVector@PEAUImDrawList@@@@QEAAXH@Z
pdata	ENDS
;	COMDAT pdata
pdata	SEGMENT
$pdata$1$?reserve@?$ImVector@PEAUImDrawList@@@@QEAAXH@Z DD imagerel $LN13+143
	DD	imagerel $LN13+154
	DD	imagerel $chain$1$?reserve@?$ImVector@PEAUImDrawList@@@@QEAAXH@Z
pdata	ENDS
;	COMDAT pdata
pdata	SEGMENT
$pdata$?push_back@?$ImVector@PEAUImDrawList@@@@QEAAXAEBQEAUImDrawList@@@Z DD imagerel $LN9
	DD	imagerel $LN9+96
	DD	imagerel $unwind$?push_back@?$ImVector@PEAUImDrawList@@@@QEAAXAEBQEAUImDrawList@@@Z
pdata	ENDS
;	COMDAT pdata
pdata	SEGMENT
$pdata$?Clear@ImDrawDataBuilder@@QEAAXXZ DD imagerel $LN18
	DD	imagerel $LN18+91
	DD	imagerel $unwind$?Clear@ImDrawDataBuilder@@QEAAXXZ
pdata	ENDS
;	COMDAT pdata
pdata	SEGMENT
$pdata$?ClearFreeMemory@ImDrawDataBuilder@@QEAAXXZ DD imagerel $LN20
	DD	imagerel $LN20+104
	DD	imagerel $unwind$?ClearFreeMemory@ImDrawDataBuilder@@QEAAXXZ
pdata	ENDS
;	COMDAT pdata
pdata	SEGMENT
$pdata$?FlattenIntoSingleLayer@ImDrawDataBuilder@@QEAAXXZ DD imagerel $LN42
	DD	imagerel $LN42+88
	DD	imagerel $unwind$?FlattenIntoSingleLayer@ImDrawDataBuilder@@QEAAXXZ
pdata	ENDS
;	COMDAT pdata
pdata	SEGMENT
$pdata$0$?FlattenIntoSingleLayer@ImDrawDataBuilder@@QEAAXXZ DD imagerel $LN42+88
	DD	imagerel $LN42+194
	DD	imagerel $chain$0$?FlattenIntoSingleLayer@ImDrawDataBuilder@@QEAAXXZ
pdata	ENDS
;	COMDAT pdata
pdata	SEGMENT
$pdata$1$?FlattenIntoSingleLayer@ImDrawDataBuilder@@QEAAXXZ DD imagerel $LN42+194
	DD	imagerel $LN42+248
	DD	imagerel $chain$1$?FlattenIntoSingleLayer@ImDrawDataBuilder@@QEAAXXZ
pdata	ENDS
;	COMDAT pdata
pdata	SEGMENT
$pdata$??0ImDrawDataBuilder@@QEAA@XZ DD imagerel $LN6
	DD	imagerel $LN6+51
	DD	imagerel $unwind$??0ImDrawDataBuilder@@QEAA@XZ
pdata	ENDS
;	COMDAT pdata
pdata	SEGMENT
$pdata$??1ImDrawDataBuilder@@QEAA@XZ DD imagerel $LN5
	DD	imagerel $LN5+31
	DD	imagerel $unwind$??1ImDrawDataBuilder@@QEAA@XZ
pdata	ENDS
;	COMDAT pdata
pdata	SEGMENT
$pdata$??0ImGuiInputTextState@@QEAA@XZ DD imagerel $LN14
	DD	imagerel $LN14+57
	DD	imagerel $unwind$??0ImGuiInputTextState@@QEAA@XZ
pdata	ENDS
;	COMDAT pdata
pdata	SEGMENT
$pdata$?ClearFreeMemory@ImGuiInputTextState@@QEAAXXZ DD imagerel $LN25
	DD	imagerel $LN25+170
	DD	imagerel $unwind$?ClearFreeMemory@ImGuiInputTextState@@QEAAXXZ
pdata	ENDS
;	COMDAT pdata
pdata	SEGMENT
$pdata$??1ImGuiInputTextState@@QEAA@XZ DD imagerel $LN30
	DD	imagerel $LN30+138
	DD	imagerel $unwind$??1ImGuiInputTextState@@QEAA@XZ
pdata	ENDS
;	COMDAT pdata
pdata	SEGMENT
$pdata$??1?$ImVector@UImGuiColumnData@@@@QEAA@XZ DD imagerel $LN10
	DD	imagerel $LN10+50
	DD	imagerel $unwind$??1?$ImVector@UImGuiColumnData@@@@QEAA@XZ
pdata	ENDS
;	COMDAT pdata
pdata	SEGMENT
$pdata$??A?$ImVector@UImGuiColumnData@@@@QEBAAEBUImGuiColumnData@@H@Z DD imagerel $LN5
	DD	imagerel $LN5+65
	DD	imagerel $unwind$??A?$ImVector@UImGuiColumnData@@@@QEBAAEBUImGuiColumnData@@H@Z
pdata	ENDS
;	COMDAT pdata
pdata	SEGMENT
$pdata$??1ImGuiColumns@@QEAA@XZ DD imagerel $LN25
	DD	imagerel $LN25+116
	DD	imagerel $unwind$??1ImGuiColumns@@QEAA@XZ
pdata	ENDS
;	COMDAT pdata
pdata	SEGMENT
$pdata$??_GImGuiColumns@@QEAAPEAXI@Z DD imagerel $LN29
	DD	imagerel $LN29+151
	DD	imagerel $unwind$??_GImGuiColumns@@QEAAPEAXI@Z
pdata	ENDS
;	COMDAT pdata
pdata	SEGMENT
$pdata$??1?$ImVector@PEAUImGuiWindow@@@@QEAA@XZ DD imagerel $LN10
	DD	imagerel $LN10+50
	DD	imagerel $unwind$??1?$ImVector@PEAUImGuiWindow@@@@QEAA@XZ
pdata	ENDS
;	COMDAT pdata
pdata	SEGMENT
$pdata$??A?$ImVector@PEAUImGuiWindow@@@@QEAAAEAPEAUImGuiWindow@@H@Z DD imagerel $LN5
	DD	imagerel $LN5+65
	DD	imagerel $unwind$??A?$ImVector@PEAUImGuiWindow@@@@QEAAAEAPEAUImGuiWindow@@H@Z
pdata	ENDS
;	COMDAT pdata
pdata	SEGMENT
$pdata$?clear@?$ImVector@PEAUImGuiWindow@@@@QEAAXXZ DD imagerel $LN9
	DD	imagerel $LN9+70
	DD	imagerel $unwind$?clear@?$ImVector@PEAUImGuiWindow@@@@QEAAXXZ
pdata	ENDS
;	COMDAT pdata
pdata	SEGMENT
$pdata$?back@?$ImVector@PEAUImGuiWindow@@@@QEAAAEAPEAUImGuiWindow@@XZ DD imagerel $LN5
	DD	imagerel $LN5+62
	DD	imagerel $unwind$?back@?$ImVector@PEAUImGuiWindow@@@@QEAAAEAPEAUImGuiWindow@@XZ
pdata	ENDS
;	COMDAT pdata
pdata	SEGMENT
$pdata$?resize@?$ImVector@PEAUImGuiWindow@@@@QEAAXH@Z DD imagerel $LN10
	DD	imagerel $LN10+70
	DD	imagerel $unwind$?resize@?$ImVector@PEAUImGuiWindow@@@@QEAAXH@Z
pdata	ENDS
;	COMDAT pdata
pdata	SEGMENT
$pdata$?reserve@?$ImVector@PEAUImGuiWindow@@@@QEAAXH@Z DD imagerel $LN13
	DD	imagerel $LN13+28
	DD	imagerel $unwind$?reserve@?$ImVector@PEAUImGuiWindow@@@@QEAAXH@Z
pdata	ENDS
;	COMDAT pdata
pdata	SEGMENT
$pdata$0$?reserve@?$ImVector@PEAUImGuiWindow@@@@QEAAXH@Z DD imagerel $LN13+28
	DD	imagerel $LN13+143
	DD	imagerel $chain$0$?reserve@?$ImVector@PEAUImGuiWindow@@@@QEAAXH@Z
pdata	ENDS
;	COMDAT pdata
pdata	SEGMENT
$pdata$1$?reserve@?$ImVector@PEAUImGuiWindow@@@@QEAAXH@Z DD imagerel $LN13+143
	DD	imagerel $LN13+154
	DD	imagerel $chain$1$?reserve@?$ImVector@PEAUImGuiWindow@@@@QEAAXH@Z
pdata	ENDS
;	COMDAT pdata
pdata	SEGMENT
$pdata$?push_back@?$ImVector@PEAUImGuiWindow@@@@QEAAXAEBQEAUImGuiWindow@@@Z DD imagerel $LN9
	DD	imagerel $LN9+96
	DD	imagerel $unwind$?push_back@?$ImVector@PEAUImGuiWindow@@@@QEAAXAEBQEAUImGuiWindow@@@Z
pdata	ENDS
;	COMDAT pdata
pdata	SEGMENT
$pdata$?pop_back@?$ImVector@PEAUImGuiWindow@@@@QEAAXXZ DD imagerel $LN6
	DD	imagerel $LN6+59
	DD	imagerel $unwind$?pop_back@?$ImVector@PEAUImGuiWindow@@@@QEAAXXZ
pdata	ENDS
;	COMDAT pdata
pdata	SEGMENT
$pdata$?push_front@?$ImVector@PEAUImGuiWindow@@@@QEAAXAEBQEAUImGuiWindow@@@Z DD imagerel $LN16
	DD	imagerel $LN16+213
	DD	imagerel $unwind$?push_front@?$ImVector@PEAUImGuiWindow@@@@QEAAXAEBQEAUImGuiWindow@@@Z
pdata	ENDS
;	COMDAT pdata
pdata	SEGMENT
$pdata$?insert@?$ImVector@PEAUImGuiWindow@@@@QEAAPEAPEAUImGuiWindow@@PEBQEAU2@AEBQEAU2@@Z DD imagerel $LN14
	DD	imagerel $LN14+204
	DD	imagerel $unwind$?insert@?$ImVector@PEAUImGuiWindow@@@@QEAAPEAPEAUImGuiWindow@@PEBQEAU2@AEBQEAU2@@Z
pdata	ENDS
;	COMDAT pdata
pdata	SEGMENT
$pdata$??1?$ImVector@UImGuiColorMod@@@@QEAA@XZ DD imagerel $LN10
	DD	imagerel $LN10+50
	DD	imagerel $unwind$??1?$ImVector@UImGuiColorMod@@@@QEAA@XZ
pdata	ENDS
;	COMDAT pdata
pdata	SEGMENT
$pdata$?clear@?$ImVector@UImGuiColorMod@@@@QEAAXXZ DD imagerel $LN9
	DD	imagerel $LN9+70
	DD	imagerel $unwind$?clear@?$ImVector@UImGuiColorMod@@@@QEAAXXZ
pdata	ENDS
;	COMDAT pdata
pdata	SEGMENT
$pdata$?back@?$ImVector@UImGuiColorMod@@@@QEAAAEAUImGuiColorMod@@XZ DD imagerel $LN5
	DD	imagerel $LN5+66
	DD	imagerel $unwind$?back@?$ImVector@UImGuiColorMod@@@@QEAAAEAUImGuiColorMod@@XZ
pdata	ENDS
;	COMDAT pdata
pdata	SEGMENT
$pdata$?reserve@?$ImVector@UImGuiColorMod@@@@QEAAXH@Z DD imagerel $LN13
	DD	imagerel $LN13+28
	DD	imagerel $unwind$?reserve@?$ImVector@UImGuiColorMod@@@@QEAAXH@Z
pdata	ENDS
;	COMDAT pdata
pdata	SEGMENT
$pdata$0$?reserve@?$ImVector@UImGuiColorMod@@@@QEAAXH@Z DD imagerel $LN13+28
	DD	imagerel $LN13+148
	DD	imagerel $chain$0$?reserve@?$ImVector@UImGuiColorMod@@@@QEAAXH@Z
pdata	ENDS
;	COMDAT pdata
pdata	SEGMENT
$pdata$1$?reserve@?$ImVector@UImGuiColorMod@@@@QEAAXH@Z DD imagerel $LN13+148
	DD	imagerel $LN13+159
	DD	imagerel $chain$1$?reserve@?$ImVector@UImGuiColorMod@@@@QEAAXH@Z
pdata	ENDS
;	COMDAT pdata
pdata	SEGMENT
$pdata$?push_back@?$ImVector@UImGuiColorMod@@@@QEAAXAEBUImGuiColorMod@@@Z DD imagerel $LN20
	DD	imagerel $LN20+76
	DD	imagerel $unwind$?push_back@?$ImVector@UImGuiColorMod@@@@QEAAXAEBUImGuiColorMod@@@Z
pdata	ENDS
;	COMDAT pdata
pdata	SEGMENT
$pdata$0$?push_back@?$ImVector@UImGuiColorMod@@@@QEAAXAEBUImGuiColorMod@@@Z DD imagerel $LN20+76
	DD	imagerel $LN20+199
	DD	imagerel $chain$0$?push_back@?$ImVector@UImGuiColorMod@@@@QEAAXAEBUImGuiColorMod@@@Z
pdata	ENDS
;	COMDAT pdata
pdata	SEGMENT
$pdata$1$?push_back@?$ImVector@UImGuiColorMod@@@@QEAAXAEBUImGuiColorMod@@@Z DD imagerel $LN20+199
	DD	imagerel $LN20+246
	DD	imagerel $chain$1$?push_back@?$ImVector@UImGuiColorMod@@@@QEAAXAEBUImGuiColorMod@@@Z
pdata	ENDS
;	COMDAT pdata
pdata	SEGMENT
$pdata$?pop_back@?$ImVector@UImGuiColorMod@@@@QEAAXXZ DD imagerel $LN6
	DD	imagerel $LN6+59
	DD	imagerel $unwind$?pop_back@?$ImVector@UImGuiColorMod@@@@QEAAXXZ
pdata	ENDS
;	COMDAT pdata
pdata	SEGMENT
$pdata$??1?$ImVector@UImGuiStyleMod@@@@QEAA@XZ DD imagerel $LN10
	DD	imagerel $LN10+50
	DD	imagerel $unwind$??1?$ImVector@UImGuiStyleMod@@@@QEAA@XZ
pdata	ENDS
;	COMDAT pdata
pdata	SEGMENT
$pdata$?clear@?$ImVector@UImGuiStyleMod@@@@QEAAXXZ DD imagerel $LN9
	DD	imagerel $LN9+70
	DD	imagerel $unwind$?clear@?$ImVector@UImGuiStyleMod@@@@QEAAXXZ
pdata	ENDS
;	COMDAT pdata
pdata	SEGMENT
$pdata$?back@?$ImVector@UImGuiStyleMod@@@@QEAAAEAUImGuiStyleMod@@XZ DD imagerel $LN5
	DD	imagerel $LN5+66
	DD	imagerel $unwind$?back@?$ImVector@UImGuiStyleMod@@@@QEAAAEAUImGuiStyleMod@@XZ
pdata	ENDS
;	COMDAT pdata
pdata	SEGMENT
$pdata$?reserve@?$ImVector@UImGuiStyleMod@@@@QEAAXH@Z DD imagerel $LN13
	DD	imagerel $LN13+28
	DD	imagerel $unwind$?reserve@?$ImVector@UImGuiStyleMod@@@@QEAAXH@Z
pdata	ENDS
;	COMDAT pdata
pdata	SEGMENT
$pdata$0$?reserve@?$ImVector@UImGuiStyleMod@@@@QEAAXH@Z DD imagerel $LN13+28
	DD	imagerel $LN13+148
	DD	imagerel $chain$0$?reserve@?$ImVector@UImGuiStyleMod@@@@QEAAXH@Z
pdata	ENDS
;	COMDAT pdata
pdata	SEGMENT
$pdata$1$?reserve@?$ImVector@UImGuiStyleMod@@@@QEAAXH@Z DD imagerel $LN13+148
	DD	imagerel $LN13+159
	DD	imagerel $chain$1$?reserve@?$ImVector@UImGuiStyleMod@@@@QEAAXH@Z
pdata	ENDS
;	COMDAT pdata
pdata	SEGMENT
$pdata$?push_back@?$ImVector@UImGuiStyleMod@@@@QEAAXAEBUImGuiStyleMod@@@Z DD imagerel $LN20
	DD	imagerel $LN20+76
	DD	imagerel $unwind$?push_back@?$ImVector@UImGuiStyleMod@@@@QEAAXAEBUImGuiStyleMod@@@Z
pdata	ENDS
;	COMDAT pdata
pdata	SEGMENT
$pdata$0$?push_back@?$ImVector@UImGuiStyleMod@@@@QEAAXAEBUImGuiStyleMod@@@Z DD imagerel $LN20+76
	DD	imagerel $LN20+199
	DD	imagerel $chain$0$?push_back@?$ImVector@UImGuiStyleMod@@@@QEAAXAEBUImGuiStyleMod@@@Z
pdata	ENDS
;	COMDAT pdata
pdata	SEGMENT
$pdata$1$?push_back@?$ImVector@UImGuiStyleMod@@@@QEAAXAEBUImGuiStyleMod@@@Z DD imagerel $LN20+199
	DD	imagerel $LN20+248
	DD	imagerel $chain$1$?push_back@?$ImVector@UImGuiStyleMod@@@@QEAAXAEBUImGuiStyleMod@@@Z
pdata	ENDS
;	COMDAT pdata
pdata	SEGMENT
$pdata$?pop_back@?$ImVector@UImGuiStyleMod@@@@QEAAXXZ DD imagerel $LN6
	DD	imagerel $LN6+59
	DD	imagerel $unwind$?pop_back@?$ImVector@UImGuiStyleMod@@@@QEAAXXZ
pdata	ENDS
;	COMDAT pdata
pdata	SEGMENT
$pdata$??1?$ImVector@UImGuiPopupData@@@@QEAA@XZ DD imagerel $LN10
	DD	imagerel $LN10+50
	DD	imagerel $unwind$??1?$ImVector@UImGuiPopupData@@@@QEAA@XZ
pdata	ENDS
;	COMDAT pdata
pdata	SEGMENT
$pdata$??A?$ImVector@UImGuiPopupData@@@@QEAAAEAUImGuiPopupData@@H@Z DD imagerel $LN5
	DD	imagerel $LN5+69
	DD	imagerel $unwind$??A?$ImVector@UImGuiPopupData@@@@QEAAAEAUImGuiPopupData@@H@Z
pdata	ENDS
;	COMDAT pdata
pdata	SEGMENT
$pdata$?clear@?$ImVector@UImGuiPopupData@@@@QEAAXXZ DD imagerel $LN9
	DD	imagerel $LN9+70
	DD	imagerel $unwind$?clear@?$ImVector@UImGuiPopupData@@@@QEAAXXZ
pdata	ENDS
;	COMDAT pdata
pdata	SEGMENT
$pdata$?back@?$ImVector@UImGuiPopupData@@@@QEAAAEAUImGuiPopupData@@XZ DD imagerel $LN5
	DD	imagerel $LN5+66
	DD	imagerel $unwind$?back@?$ImVector@UImGuiPopupData@@@@QEAAAEAUImGuiPopupData@@XZ
pdata	ENDS
;	COMDAT pdata
pdata	SEGMENT
$pdata$?resize@?$ImVector@UImGuiPopupData@@@@QEAAXH@Z DD imagerel $LN10
	DD	imagerel $LN10+70
	DD	imagerel $unwind$?resize@?$ImVector@UImGuiPopupData@@@@QEAAXH@Z
pdata	ENDS
;	COMDAT pdata
pdata	SEGMENT
$pdata$?reserve@?$ImVector@UImGuiPopupData@@@@QEAAXH@Z DD imagerel $LN13
	DD	imagerel $LN13+28
	DD	imagerel $unwind$?reserve@?$ImVector@UImGuiPopupData@@@@QEAAXH@Z
pdata	ENDS
;	COMDAT pdata
pdata	SEGMENT
$pdata$0$?reserve@?$ImVector@UImGuiPopupData@@@@QEAAXH@Z DD imagerel $LN13+28
	DD	imagerel $LN13+148
	DD	imagerel $chain$0$?reserve@?$ImVector@UImGuiPopupData@@@@QEAAXH@Z
pdata	ENDS
;	COMDAT pdata
pdata	SEGMENT
$pdata$1$?reserve@?$ImVector@UImGuiPopupData@@@@QEAAXH@Z DD imagerel $LN13+148
	DD	imagerel $LN13+159
	DD	imagerel $chain$1$?reserve@?$ImVector@UImGuiPopupData@@@@QEAAXH@Z
pdata	ENDS
;	COMDAT pdata
pdata	SEGMENT
$pdata$?push_back@?$ImVector@UImGuiPopupData@@@@QEAAXAEBUImGuiPopupData@@@Z DD imagerel $LN9
	DD	imagerel $LN9+120
	DD	imagerel $unwind$?push_back@?$ImVector@UImGuiPopupData@@@@QEAAXAEBUImGuiPopupData@@@Z
pdata	ENDS
;	COMDAT pdata
pdata	SEGMENT
$pdata$?pop_back@?$ImVector@UImGuiPopupData@@@@QEAAXXZ DD imagerel $LN6
	DD	imagerel $LN6+59
	DD	imagerel $unwind$?pop_back@?$ImVector@UImGuiPopupData@@@@QEAAXXZ
pdata	ENDS
;	COMDAT pdata
pdata	SEGMENT
$pdata$??1?$ImVector@E@@QEAA@XZ DD imagerel $LN10
	DD	imagerel $LN10+50
	DD	imagerel $unwind$??1?$ImVector@E@@QEAA@XZ
pdata	ENDS
;	COMDAT pdata
pdata	SEGMENT
$pdata$?clear@?$ImVector@E@@QEAAXXZ DD imagerel $LN9
	DD	imagerel $LN9+70
	DD	imagerel $unwind$?clear@?$ImVector@E@@QEAAXXZ
pdata	ENDS
;	COMDAT pdata
pdata	SEGMENT
$pdata$?resize@?$ImVector@E@@QEAAXH@Z DD imagerel $LN23
	DD	imagerel $LN23+26
	DD	imagerel $unwind$?resize@?$ImVector@E@@QEAAXH@Z
pdata	ENDS
;	COMDAT pdata
pdata	SEGMENT
$pdata$1$?resize@?$ImVector@E@@QEAAXH@Z DD imagerel $LN23+26
	DD	imagerel $LN23+198
	DD	imagerel $chain$1$?resize@?$ImVector@E@@QEAAXH@Z
pdata	ENDS
;	COMDAT pdata
pdata	SEGMENT
$pdata$3$?resize@?$ImVector@E@@QEAAXH@Z DD imagerel $LN23+198
	DD	imagerel $LN23+216
	DD	imagerel $chain$3$?resize@?$ImVector@E@@QEAAXH@Z
pdata	ENDS
;	COMDAT pdata
pdata	SEGMENT
$pdata$4$?resize@?$ImVector@E@@QEAAXH@Z DD imagerel $LN23+216
	DD	imagerel $LN23+229
	DD	imagerel $chain$4$?resize@?$ImVector@E@@QEAAXH@Z
pdata	ENDS
;	COMDAT pdata
pdata	SEGMENT
$pdata$?reserve@?$ImVector@E@@QEAAXH@Z DD imagerel $LN13
	DD	imagerel $LN13+28
	DD	imagerel $unwind$?reserve@?$ImVector@E@@QEAAXH@Z
pdata	ENDS
;	COMDAT pdata
pdata	SEGMENT
$pdata$0$?reserve@?$ImVector@E@@QEAAXH@Z DD imagerel $LN13+28
	DD	imagerel $LN13+135
	DD	imagerel $chain$0$?reserve@?$ImVector@E@@QEAAXH@Z
pdata	ENDS
;	COMDAT pdata
pdata	SEGMENT
$pdata$1$?reserve@?$ImVector@E@@QEAAXH@Z DD imagerel $LN13+135
	DD	imagerel $LN13+146
	DD	imagerel $chain$1$?reserve@?$ImVector@E@@QEAAXH@Z
pdata	ENDS
;	COMDAT pdata
pdata	SEGMENT
$pdata$??1?$ImVector@UImGuiTabBar@@@@QEAA@XZ DD imagerel $LN10
	DD	imagerel $LN10+50
	DD	imagerel $unwind$??1?$ImVector@UImGuiTabBar@@@@QEAA@XZ
pdata	ENDS
;	COMDAT pdata
pdata	SEGMENT
$pdata$??A?$ImVector@UImGuiTabBar@@@@QEAAAEAUImGuiTabBar@@H@Z DD imagerel $LN5
	DD	imagerel $LN5+68
	DD	imagerel $unwind$??A?$ImVector@UImGuiTabBar@@@@QEAAAEAUImGuiTabBar@@H@Z
pdata	ENDS
;	COMDAT pdata
pdata	SEGMENT
$pdata$?clear@?$ImVector@UImGuiTabBar@@@@QEAAXXZ DD imagerel $LN9
	DD	imagerel $LN9+70
	DD	imagerel $unwind$?clear@?$ImVector@UImGuiTabBar@@@@QEAAXXZ
pdata	ENDS
;	COMDAT pdata
pdata	SEGMENT
$pdata$??1?$ImPool@UImGuiTabBar@@@@QEAA@XZ DD imagerel $LN25
	DD	imagerel $LN25+103
	DD	imagerel $unwind$??1?$ImPool@UImGuiTabBar@@@@QEAA@XZ
pdata	ENDS
;	COMDAT pdata
pdata	SEGMENT
$pdata$?GetByIndex@?$ImPool@UImGuiTabBar@@@@QEAAPEAUImGuiTabBar@@H@Z DD imagerel $LN7
	DD	imagerel $LN7+68
	DD	imagerel $unwind$?GetByIndex@?$ImPool@UImGuiTabBar@@@@QEAAPEAUImGuiTabBar@@H@Z
pdata	ENDS
;	COMDAT pdata
pdata	SEGMENT
$pdata$?Clear@?$ImPool@UImGuiTabBar@@@@QEAAXXZ DD imagerel $LN62
	DD	imagerel $LN62+357
	DD	imagerel $unwind$?Clear@?$ImPool@UImGuiTabBar@@@@QEAAXXZ
pdata	ENDS
;	COMDAT pdata
pdata	SEGMENT
$pdata$??1?$ImVector@UImGuiPtrOrIndex@@@@QEAA@XZ DD imagerel $LN10
	DD	imagerel $LN10+50
	DD	imagerel $unwind$??1?$ImVector@UImGuiPtrOrIndex@@@@QEAA@XZ
pdata	ENDS
;	COMDAT pdata
pdata	SEGMENT
$pdata$?clear@?$ImVector@UImGuiPtrOrIndex@@@@QEAAXXZ DD imagerel $LN9
	DD	imagerel $LN9+70
	DD	imagerel $unwind$?clear@?$ImVector@UImGuiPtrOrIndex@@@@QEAAXXZ
pdata	ENDS
;	COMDAT pdata
pdata	SEGMENT
$pdata$??1?$ImVector@UImGuiShrinkWidthItem@@@@QEAA@XZ DD imagerel $LN10
	DD	imagerel $LN10+50
	DD	imagerel $unwind$??1?$ImVector@UImGuiShrinkWidthItem@@@@QEAA@XZ
pdata	ENDS
;	COMDAT pdata
pdata	SEGMENT
$pdata$?clear@?$ImVector@UImGuiShrinkWidthItem@@@@QEAAXXZ DD imagerel $LN9
	DD	imagerel $LN9+70
	DD	imagerel $unwind$?clear@?$ImVector@UImGuiShrinkWidthItem@@@@QEAAXXZ
pdata	ENDS
;	COMDAT pdata
pdata	SEGMENT
$pdata$??1?$ImVector@UImGuiSettingsHandler@@@@QEAA@XZ DD imagerel $LN10
	DD	imagerel $LN10+50
	DD	imagerel $unwind$??1?$ImVector@UImGuiSettingsHandler@@@@QEAA@XZ
pdata	ENDS
;	COMDAT pdata
pdata	SEGMENT
$pdata$??A?$ImVector@UImGuiSettingsHandler@@@@QEAAAEAUImGuiSettingsHandler@@H@Z DD imagerel $LN5
	DD	imagerel $LN5+69
	DD	imagerel $unwind$??A?$ImVector@UImGuiSettingsHandler@@@@QEAAAEAUImGuiSettingsHandler@@H@Z
pdata	ENDS
;	COMDAT pdata
pdata	SEGMENT
$pdata$?clear@?$ImVector@UImGuiSettingsHandler@@@@QEAAXXZ DD imagerel $LN9
	DD	imagerel $LN9+70
	DD	imagerel $unwind$?clear@?$ImVector@UImGuiSettingsHandler@@@@QEAAXXZ
pdata	ENDS
;	COMDAT pdata
pdata	SEGMENT
$pdata$?reserve@?$ImVector@UImGuiSettingsHandler@@@@QEAAXH@Z DD imagerel $LN13
	DD	imagerel $LN13+28
	DD	imagerel $unwind$?reserve@?$ImVector@UImGuiSettingsHandler@@@@QEAAXH@Z
pdata	ENDS
;	COMDAT pdata
pdata	SEGMENT
$pdata$0$?reserve@?$ImVector@UImGuiSettingsHandler@@@@QEAAXH@Z DD imagerel $LN13+28
	DD	imagerel $LN13+148
	DD	imagerel $chain$0$?reserve@?$ImVector@UImGuiSettingsHandler@@@@QEAAXH@Z
pdata	ENDS
;	COMDAT pdata
pdata	SEGMENT
$pdata$1$?reserve@?$ImVector@UImGuiSettingsHandler@@@@QEAAXH@Z DD imagerel $LN13+148
	DD	imagerel $LN13+159
	DD	imagerel $chain$1$?reserve@?$ImVector@UImGuiSettingsHandler@@@@QEAAXH@Z
pdata	ENDS
;	COMDAT pdata
pdata	SEGMENT
$pdata$?push_back@?$ImVector@UImGuiSettingsHandler@@@@QEAAXAEBUImGuiSettingsHandler@@@Z DD imagerel $LN20
	DD	imagerel $LN20+76
	DD	imagerel $unwind$?push_back@?$ImVector@UImGuiSettingsHandler@@@@QEAAXAEBUImGuiSettingsHandler@@@Z
pdata	ENDS
;	COMDAT pdata
pdata	SEGMENT
$pdata$0$?push_back@?$ImVector@UImGuiSettingsHandler@@@@QEAAXAEBUImGuiSettingsHandler@@@Z DD imagerel $LN20+76
	DD	imagerel $LN20+199
	DD	imagerel $chain$0$?push_back@?$ImVector@UImGuiSettingsHandler@@@@QEAAXAEBUImGuiSettingsHandler@@@Z
pdata	ENDS
;	COMDAT pdata
pdata	SEGMENT
$pdata$1$?push_back@?$ImVector@UImGuiSettingsHandler@@@@QEAAXAEBUImGuiSettingsHandler@@@Z DD imagerel $LN20+199
	DD	imagerel $LN20+273
	DD	imagerel $chain$1$?push_back@?$ImVector@UImGuiSettingsHandler@@@@QEAAXAEBUImGuiSettingsHandler@@@Z
pdata	ENDS
;	COMDAT pdata
pdata	SEGMENT
$pdata$?clear@?$ImChunkStream@UImGuiWindowSettings@@@@QEAAXXZ DD imagerel $LN11
	DD	imagerel $LN11+70
	DD	imagerel $unwind$?clear@?$ImChunkStream@UImGuiWindowSettings@@@@QEAAXXZ
pdata	ENDS
;	COMDAT pdata
pdata	SEGMENT
$pdata$?alloc_chunk@?$ImChunkStream@UImGuiWindowSettings@@@@QEAAPEAUImGuiWindowSettings@@_K@Z DD imagerel $LN11
	DD	imagerel $LN11+119
	DD	imagerel $unwind$?alloc_chunk@?$ImChunkStream@UImGuiWindowSettings@@@@QEAAPEAUImGuiWindowSettings@@_K@Z
pdata	ENDS
;	COMDAT pdata
pdata	SEGMENT
$pdata$?next_chunk@?$ImChunkStream@UImGuiWindowSettings@@@@QEAAPEAUImGuiWindowSettings@@PEAU2@@Z DD imagerel $LN21
	DD	imagerel $LN21+160
	DD	imagerel $unwind$?next_chunk@?$ImChunkStream@UImGuiWindowSettings@@@@QEAAPEAUImGuiWindowSettings@@PEAU2@@Z
pdata	ENDS
;	COMDAT pdata
pdata	SEGMENT
$pdata$?offset_from_ptr@?$ImChunkStream@UImGuiWindowSettings@@@@QEAAHPEBUImGuiWindowSettings@@@Z DD imagerel $LN12
	DD	imagerel $LN12+89
	DD	imagerel $unwind$?offset_from_ptr@?$ImChunkStream@UImGuiWindowSettings@@@@QEAAHPEBUImGuiWindowSettings@@@Z
pdata	ENDS
;	COMDAT pdata
pdata	SEGMENT
$pdata$?ptr_from_offset@?$ImChunkStream@UImGuiWindowSettings@@@@QEAAPEAUImGuiWindowSettings@@H@Z DD imagerel $LN6
	DD	imagerel $LN6+69
	DD	imagerel $unwind$?ptr_from_offset@?$ImChunkStream@UImGuiWindowSettings@@@@QEAAPEAUImGuiWindowSettings@@H@Z
pdata	ENDS
;	COMDAT pdata
pdata	SEGMENT
$pdata$??1?$ImChunkStream@UImGuiWindowSettings@@@@QEAA@XZ DD imagerel $LN14
	DD	imagerel $LN14+50
	DD	imagerel $unwind$??1?$ImChunkStream@UImGuiWindowSettings@@@@QEAA@XZ
pdata	ENDS
;	COMDAT pdata
pdata	SEGMENT
$pdata$??0ImGuiContext@@QEAA@PEAUImFontAtlas@@@Z DD imagerel $LN233
	DD	imagerel $LN233+1963
	DD	imagerel $unwind$??0ImGuiContext@@QEAA@PEAUImFontAtlas@@@Z
pdata	ENDS
;	COMDAT pdata
pdata	SEGMENT
$pdata$?dtor$27@?0???0ImGuiContext@@QEAA@PEAUImFontAtlas@@@Z@4HA DD imagerel ?dtor$27@?0???0ImGuiContext@@QEAA@PEAUImFontAtlas@@@Z@4HA
	DD	imagerel ?dtor$27@?0???0ImGuiContext@@QEAA@PEAUImFontAtlas@@@Z@4HA+41
	DD	imagerel $unwind$?dtor$27@?0???0ImGuiContext@@QEAA@PEAUImFontAtlas@@@Z@4HA
pdata	ENDS
;	COMDAT pdata
pdata	SEGMENT
$pdata$??1ImGuiContext@@QEAA@XZ DD imagerel $LN190
	DD	imagerel $LN190+1039
	DD	imagerel $unwind$??1ImGuiContext@@QEAA@XZ
pdata	ENDS
;	COMDAT pdata
pdata	SEGMENT
$pdata$??_GImGuiContext@@QEAAPEAXI@Z DD imagerel $LN7
	DD	imagerel $LN7+52
	DD	imagerel $unwind$??_GImGuiContext@@QEAAPEAXI@Z
pdata	ENDS
;	COMDAT pdata
pdata	SEGMENT
$pdata$??1?$ImVector@H@@QEAA@XZ DD imagerel $LN10
	DD	imagerel $LN10+50
	DD	imagerel $unwind$??1?$ImVector@H@@QEAA@XZ
pdata	ENDS
;	COMDAT pdata
pdata	SEGMENT
$pdata$?clear@?$ImVector@H@@QEAAXXZ DD imagerel $LN9
	DD	imagerel $LN9+70
	DD	imagerel $unwind$?clear@?$ImVector@H@@QEAAXXZ
pdata	ENDS
;	COMDAT pdata
pdata	SEGMENT
$pdata$?back@?$ImVector@H@@QEAAAEAHXZ DD imagerel $LN5
	DD	imagerel $LN5+62
	DD	imagerel $unwind$?back@?$ImVector@H@@QEAAAEAHXZ
pdata	ENDS
;	COMDAT pdata
pdata	SEGMENT
$pdata$?resize@?$ImVector@H@@QEAAXH@Z DD imagerel $LN10
	DD	imagerel $LN10+70
	DD	imagerel $unwind$?resize@?$ImVector@H@@QEAAXH@Z
pdata	ENDS
;	COMDAT pdata
pdata	SEGMENT
$pdata$?reserve@?$ImVector@H@@QEAAXH@Z DD imagerel $LN13
	DD	imagerel $LN13+28
	DD	imagerel $unwind$?reserve@?$ImVector@H@@QEAAXH@Z
pdata	ENDS
;	COMDAT pdata
pdata	SEGMENT
$pdata$0$?reserve@?$ImVector@H@@QEAAXH@Z DD imagerel $LN13+28
	DD	imagerel $LN13+143
	DD	imagerel $chain$0$?reserve@?$ImVector@H@@QEAAXH@Z
pdata	ENDS
;	COMDAT pdata
pdata	SEGMENT
$pdata$1$?reserve@?$ImVector@H@@QEAAXH@Z DD imagerel $LN13+143
	DD	imagerel $LN13+154
	DD	imagerel $chain$1$?reserve@?$ImVector@H@@QEAAXH@Z
pdata	ENDS
;	COMDAT pdata
pdata	SEGMENT
$pdata$?push_back@?$ImVector@H@@QEAAXAEBH@Z DD imagerel $LN9
	DD	imagerel $LN9+94
	DD	imagerel $unwind$?push_back@?$ImVector@H@@QEAAXAEBH@Z
pdata	ENDS
;	COMDAT pdata
pdata	SEGMENT
$pdata$?pop_back@?$ImVector@H@@QEAAXXZ DD imagerel $LN6
	DD	imagerel $LN6+59
	DD	imagerel $unwind$?pop_back@?$ImVector@H@@QEAAXXZ
pdata	ENDS
;	COMDAT pdata
pdata	SEGMENT
$pdata$??1?$ImVector@UImGuiGroupData@@@@QEAA@XZ DD imagerel $LN10
	DD	imagerel $LN10+50
	DD	imagerel $unwind$??1?$ImVector@UImGuiGroupData@@@@QEAA@XZ
pdata	ENDS
;	COMDAT pdata
pdata	SEGMENT
$pdata$?clear@?$ImVector@UImGuiGroupData@@@@QEAAXXZ DD imagerel $LN9
	DD	imagerel $LN9+70
	DD	imagerel $unwind$?clear@?$ImVector@UImGuiGroupData@@@@QEAAXXZ
pdata	ENDS
;	COMDAT pdata
pdata	SEGMENT
$pdata$?back@?$ImVector@UImGuiGroupData@@@@QEAAAEAUImGuiGroupData@@XZ DD imagerel $LN5
	DD	imagerel $LN5+62
	DD	imagerel $unwind$?back@?$ImVector@UImGuiGroupData@@@@QEAAAEAUImGuiGroupData@@XZ
pdata	ENDS
;	COMDAT pdata
pdata	SEGMENT
$pdata$?resize@?$ImVector@UImGuiGroupData@@@@QEAAXH@Z DD imagerel $LN23
	DD	imagerel $LN23+26
	DD	imagerel $unwind$?resize@?$ImVector@UImGuiGroupData@@@@QEAAXH@Z
pdata	ENDS
;	COMDAT pdata
pdata	SEGMENT
$pdata$1$?resize@?$ImVector@UImGuiGroupData@@@@QEAAXH@Z DD imagerel $LN23+26
	DD	imagerel $LN23+206
	DD	imagerel $chain$1$?resize@?$ImVector@UImGuiGroupData@@@@QEAAXH@Z
pdata	ENDS
;	COMDAT pdata
pdata	SEGMENT
$pdata$3$?resize@?$ImVector@UImGuiGroupData@@@@QEAAXH@Z DD imagerel $LN23+206
	DD	imagerel $LN23+224
	DD	imagerel $chain$3$?resize@?$ImVector@UImGuiGroupData@@@@QEAAXH@Z
pdata	ENDS
;	COMDAT pdata
pdata	SEGMENT
$pdata$4$?resize@?$ImVector@UImGuiGroupData@@@@QEAAXH@Z DD imagerel $LN23+224
	DD	imagerel $LN23+237
	DD	imagerel $chain$4$?resize@?$ImVector@UImGuiGroupData@@@@QEAAXH@Z
pdata	ENDS
;	COMDAT pdata
pdata	SEGMENT
$pdata$?reserve@?$ImVector@UImGuiGroupData@@@@QEAAXH@Z DD imagerel $LN13
	DD	imagerel $LN13+28
	DD	imagerel $unwind$?reserve@?$ImVector@UImGuiGroupData@@@@QEAAXH@Z
pdata	ENDS
;	COMDAT pdata
pdata	SEGMENT
$pdata$0$?reserve@?$ImVector@UImGuiGroupData@@@@QEAAXH@Z DD imagerel $LN13+28
	DD	imagerel $LN13+140
	DD	imagerel $chain$0$?reserve@?$ImVector@UImGuiGroupData@@@@QEAAXH@Z
pdata	ENDS
;	COMDAT pdata
pdata	SEGMENT
$pdata$1$?reserve@?$ImVector@UImGuiGroupData@@@@QEAAXH@Z DD imagerel $LN13+140
	DD	imagerel $LN13+151
	DD	imagerel $chain$1$?reserve@?$ImVector@UImGuiGroupData@@@@QEAAXH@Z
pdata	ENDS
;	COMDAT pdata
pdata	SEGMENT
$pdata$?pop_back@?$ImVector@UImGuiGroupData@@@@QEAAXXZ DD imagerel $LN6
	DD	imagerel $LN6+59
	DD	imagerel $unwind$?pop_back@?$ImVector@UImGuiGroupData@@@@QEAAXXZ
pdata	ENDS
;	COMDAT pdata
pdata	SEGMENT
$pdata$??0ImGuiWindowTempData@@QEAA@XZ DD imagerel $LN70
	DD	imagerel $LN70+345
	DD	imagerel $unwind$??0ImGuiWindowTempData@@QEAA@XZ
pdata	ENDS
;	COMDAT pdata
pdata	SEGMENT
$pdata$??1ImGuiWindowTempData@@QEAA@XZ DD imagerel $LN46
	DD	imagerel $LN46+235
	DD	imagerel $unwind$??1ImGuiWindowTempData@@QEAA@XZ
pdata	ENDS
;	COMDAT pdata
pdata	SEGMENT
$pdata$??1?$ImVector@UImGuiColumns@@@@QEAA@XZ DD imagerel $LN10
	DD	imagerel $LN10+50
	DD	imagerel $unwind$??1?$ImVector@UImGuiColumns@@@@QEAA@XZ
pdata	ENDS
;	COMDAT pdata
pdata	SEGMENT
$pdata$??A?$ImVector@UImGuiColumns@@@@QEAAAEAUImGuiColumns@@H@Z DD imagerel $LN5
	DD	imagerel $LN5+65
	DD	imagerel $unwind$??A?$ImVector@UImGuiColumns@@@@QEAAAEAUImGuiColumns@@H@Z
pdata	ENDS
;	COMDAT pdata
pdata	SEGMENT
$pdata$??0ImGuiWindow@@QEAA@PEAUImGuiContext@@PEBD@Z DD imagerel $LN171
	DD	imagerel $LN171+1025
	DD	imagerel $unwind$??0ImGuiWindow@@QEAA@PEAUImGuiContext@@PEBD@Z
pdata	ENDS
;	COMDAT pdata
pdata	SEGMENT
$pdata$??1ImGuiWindow@@QEAA@XZ DD imagerel $LN77
	DD	imagerel $LN77+463
	DD	imagerel $unwind$??1ImGuiWindow@@QEAA@XZ
pdata	ENDS
;	COMDAT pdata
pdata	SEGMENT
$pdata$?GetID@ImGuiWindow@@QEAAIPEBD0@Z DD imagerel $LN14
	DD	imagerel $LN14+157
	DD	imagerel $unwind$?GetID@ImGuiWindow@@QEAAIPEBD0@Z
pdata	ENDS
;	COMDAT pdata
pdata	SEGMENT
$pdata$?GetID@ImGuiWindow@@QEAAIPEBX@Z DD imagerel $LN28
	DD	imagerel $LN28+311
	DD	imagerel $unwind$?GetID@ImGuiWindow@@QEAAIPEBX@Z
pdata	ENDS
;	COMDAT pdata
pdata	SEGMENT
$pdata$?GetID@ImGuiWindow@@QEAAIH@Z DD imagerel $LN24
	DD	imagerel $LN24+221
	DD	imagerel $unwind$?GetID@ImGuiWindow@@QEAAIH@Z
pdata	ENDS
;	COMDAT pdata
pdata	SEGMENT
$pdata$?GetIDNoKeepAlive@ImGuiWindow@@QEAAIPEBD0@Z DD imagerel $LN9
	DD	imagerel $LN9+120
	DD	imagerel $unwind$?GetIDNoKeepAlive@ImGuiWindow@@QEAAIPEBD0@Z
pdata	ENDS
;	COMDAT pdata
pdata	SEGMENT
$pdata$?GetIDNoKeepAlive@ImGuiWindow@@QEAAIPEBX@Z DD imagerel $LN23
	DD	imagerel $LN23+275
	DD	imagerel $unwind$?GetIDNoKeepAlive@ImGuiWindow@@QEAAIPEBX@Z
pdata	ENDS
;	COMDAT pdata
pdata	SEGMENT
$pdata$?GetIDNoKeepAlive@ImGuiWindow@@QEAAIH@Z DD imagerel $LN19
	DD	imagerel $LN19+185
	DD	imagerel $unwind$?GetIDNoKeepAlive@ImGuiWindow@@QEAAIH@Z
pdata	ENDS
;	COMDAT pdata
pdata	SEGMENT
$pdata$?GetIDFromRectangle@ImGuiWindow@@QEAAIAEBUImRect@@@Z DD imagerel $LN36
	DD	imagerel $LN36+634
	DD	imagerel $unwind$?GetIDFromRectangle@ImGuiWindow@@QEAAIAEBUImRect@@@Z
pdata	ENDS
;	COMDAT pdata
pdata	SEGMENT
$pdata$??_GImGuiWindow@@QEAAPEAXI@Z DD imagerel $LN7
	DD	imagerel $LN7+52
	DD	imagerel $unwind$??_GImGuiWindow@@QEAAPEAXI@Z
pdata	ENDS
;	COMDAT pdata
pdata	SEGMENT
$pdata$??1?$ImVector@UImGuiTabItem@@@@QEAA@XZ DD imagerel $LN10
	DD	imagerel $LN10+50
	DD	imagerel $unwind$??1?$ImVector@UImGuiTabItem@@@@QEAA@XZ
pdata	ENDS
;	COMDAT pdata
pdata	SEGMENT
$pdata$??A?$ImVector@UImGuiTabItem@@@@QEAAAEAUImGuiTabItem@@H@Z DD imagerel $LN5
	DD	imagerel $LN5+68
	DD	imagerel $unwind$??A?$ImVector@UImGuiTabItem@@@@QEAAAEAUImGuiTabItem@@H@Z
pdata	ENDS
;	COMDAT pdata
pdata	SEGMENT
$pdata$?GetTabName@ImGuiTabBar@@QEBAPEBDPEBUImGuiTabItem@@@Z DD imagerel $LN6
	DD	imagerel $LN6+75
	DD	imagerel $unwind$?GetTabName@ImGuiTabBar@@QEBAPEBDPEBUImGuiTabItem@@@Z
pdata	ENDS
;	COMDAT pdata
pdata	SEGMENT
$pdata$??1ImGuiTabBar@@QEAA@XZ DD imagerel $LN25
	DD	imagerel $LN25+97
	DD	imagerel $unwind$??1ImGuiTabBar@@QEAA@XZ
pdata	ENDS
;	COMDAT pdata
pdata	SEGMENT
$pdata$??_GImGuiTabBar@@QEAAPEAXI@Z DD imagerel $LN29
	DD	imagerel $LN29+131
	DD	imagerel $unwind$??_GImGuiTabBar@@QEAAPEAXI@Z
pdata	ENDS
;	COMDAT pdata
pdata	SEGMENT
$pdata$?FindWindowByID@ImGui@@YAPEAUImGuiWindow@@I@Z DD imagerel $LN19
	DD	imagerel $LN19+139
	DD	imagerel $unwind$?FindWindowByID@ImGui@@YAPEAUImGuiWindow@@I@Z
pdata	ENDS
;	COMDAT pdata
pdata	SEGMENT
$pdata$?UpdateWindowParentAndRootLinks@ImGui@@YAXPEAUImGuiWindow@@H0@Z DD imagerel $LN13
	DD	imagerel $LN13+176
	DD	imagerel $unwind$?UpdateWindowParentAndRootLinks@ImGui@@YAXPEAUImGuiWindow@@H0@Z
pdata	ENDS
;	COMDAT pdata
pdata	SEGMENT
$pdata$?CalcWindowExpectedSize@ImGui@@YA?AUImVec2@@PEAUImGuiWindow@@@Z DD imagerel $LN4
	DD	imagerel $LN4+71
	DD	imagerel $unwind$?CalcWindowExpectedSize@ImGui@@YA?AUImVec2@@PEAUImGuiWindow@@@Z
pdata	ENDS
;	COMDAT pdata
pdata	SEGMENT
$pdata$?GetWindowAllowedExtentRect@ImGui@@YA?AUImRect@@PEAUImGuiWindow@@@Z DD imagerel $LN24
	DD	imagerel $LN24+164
	DD	imagerel $unwind$?GetWindowAllowedExtentRect@ImGui@@YA?AUImRect@@PEAUImGuiWindow@@@Z
pdata	ENDS
;	COMDAT pdata
pdata	SEGMENT
$pdata$?SetWindowPos@ImGui@@YAXPEAUImGuiWindow@@AEBUImVec2@@H@Z DD imagerel $LN28
	DD	imagerel $LN28+266
	DD	imagerel $unwind$?SetWindowPos@ImGui@@YAXPEAUImGuiWindow@@AEBUImVec2@@H@Z
pdata	ENDS
;	COMDAT pdata
pdata	SEGMENT
$pdata$?SetWindowSize@ImGui@@YAXPEAUImGuiWindow@@AEBUImVec2@@H@Z DD imagerel $LN16
	DD	imagerel $LN16+197
	DD	imagerel $unwind$?SetWindowSize@ImGui@@YAXPEAUImGuiWindow@@AEBUImVec2@@H@Z
pdata	ENDS
;	COMDAT pdata
pdata	SEGMENT
$pdata$?FocusWindow@ImGui@@YAXPEAUImGuiWindow@@@Z DD imagerel $LN73
	DD	imagerel $LN73+216
	DD	imagerel $unwind$?FocusWindow@ImGui@@YAXPEAUImGuiWindow@@@Z
pdata	ENDS
;	COMDAT pdata
pdata	SEGMENT
$pdata$0$?FocusWindow@ImGui@@YAXPEAUImGuiWindow@@@Z DD imagerel $LN73+216
	DD	imagerel $LN73+287
	DD	imagerel $chain$0$?FocusWindow@ImGui@@YAXPEAUImGuiWindow@@@Z
pdata	ENDS
;	COMDAT pdata
pdata	SEGMENT
$pdata$1$?FocusWindow@ImGui@@YAXPEAUImGuiWindow@@@Z DD imagerel $LN73+287
	DD	imagerel $LN73+551
	DD	imagerel $chain$1$?FocusWindow@ImGui@@YAXPEAUImGuiWindow@@@Z
pdata	ENDS
;	COMDAT pdata
pdata	SEGMENT
$pdata$2$?FocusWindow@ImGui@@YAXPEAUImGuiWindow@@@Z DD imagerel $LN73+551
	DD	imagerel $LN73+917
	DD	imagerel $chain$2$?FocusWindow@ImGui@@YAXPEAUImGuiWindow@@@Z
pdata	ENDS
;	COMDAT pdata
pdata	SEGMENT
$pdata$3$?FocusWindow@ImGui@@YAXPEAUImGuiWindow@@@Z DD imagerel $LN73+917
	DD	imagerel $LN73+933
	DD	imagerel $chain$3$?FocusWindow@ImGui@@YAXPEAUImGuiWindow@@@Z
pdata	ENDS
;	COMDAT pdata
pdata	SEGMENT
$pdata$?FocusTopMostWindowUnderOne@ImGui@@YAXPEAUImGuiWindow@@0@Z DD imagerel $LN225
	DD	imagerel $LN225+199
	DD	imagerel $unwind$?FocusTopMostWindowUnderOne@ImGui@@YAXPEAUImGuiWindow@@0@Z
pdata	ENDS
;	COMDAT pdata
pdata	SEGMENT
$pdata$?BringWindowToFocusFront@ImGui@@YAXPEAUImGuiWindow@@@Z DD imagerel $LN30
	DD	imagerel $LN30+91
	DD	imagerel $unwind$?BringWindowToFocusFront@ImGui@@YAXPEAUImGuiWindow@@@Z
pdata	ENDS
;	COMDAT pdata
pdata	SEGMENT
$pdata$0$?BringWindowToFocusFront@ImGui@@YAXPEAUImGuiWindow@@@Z DD imagerel $LN30+91
	DD	imagerel $LN30+357
	DD	imagerel $chain$0$?BringWindowToFocusFront@ImGui@@YAXPEAUImGuiWindow@@@Z
pdata	ENDS
;	COMDAT pdata
pdata	SEGMENT
$pdata$1$?BringWindowToFocusFront@ImGui@@YAXPEAUImGuiWindow@@@Z DD imagerel $LN30+357
	DD	imagerel $LN30+373
	DD	imagerel $chain$1$?BringWindowToFocusFront@ImGui@@YAXPEAUImGuiWindow@@@Z
pdata	ENDS
;	COMDAT pdata
pdata	SEGMENT
$pdata$?BringWindowToDisplayFront@ImGui@@YAXPEAUImGuiWindow@@@Z DD imagerel $LN31
	DD	imagerel $LN31+107
	DD	imagerel $unwind$?BringWindowToDisplayFront@ImGui@@YAXPEAUImGuiWindow@@@Z
pdata	ENDS
;	COMDAT pdata
pdata	SEGMENT
$pdata$0$?BringWindowToDisplayFront@ImGui@@YAXPEAUImGuiWindow@@@Z DD imagerel $LN31+107
	DD	imagerel $LN31+373
	DD	imagerel $chain$0$?BringWindowToDisplayFront@ImGui@@YAXPEAUImGuiWindow@@@Z
pdata	ENDS
;	COMDAT pdata
pdata	SEGMENT
$pdata$1$?BringWindowToDisplayFront@ImGui@@YAXPEAUImGuiWindow@@@Z DD imagerel $LN31+373
	DD	imagerel $LN31+389
	DD	imagerel $chain$1$?BringWindowToDisplayFront@ImGui@@YAXPEAUImGuiWindow@@@Z
pdata	ENDS
;	COMDAT pdata
pdata	SEGMENT
$pdata$?BringWindowToDisplayBack@ImGui@@YAXPEAUImGuiWindow@@@Z DD imagerel $LN35
	DD	imagerel $LN35+78
	DD	imagerel $unwind$?BringWindowToDisplayBack@ImGui@@YAXPEAUImGuiWindow@@@Z
pdata	ENDS
;	COMDAT pdata
pdata	SEGMENT
$pdata$0$?BringWindowToDisplayBack@ImGui@@YAXPEAUImGuiWindow@@@Z DD imagerel $LN35+78
	DD	imagerel $LN35+93
	DD	imagerel $chain$0$?BringWindowToDisplayBack@ImGui@@YAXPEAUImGuiWindow@@@Z
pdata	ENDS
;	COMDAT pdata
pdata	SEGMENT
$pdata$2$?BringWindowToDisplayBack@ImGui@@YAXPEAUImGuiWindow@@@Z DD imagerel $LN35+93
	DD	imagerel $LN35+327
	DD	imagerel $chain$2$?BringWindowToDisplayBack@ImGui@@YAXPEAUImGuiWindow@@@Z
pdata	ENDS
;	COMDAT pdata
pdata	SEGMENT
$pdata$3$?BringWindowToDisplayBack@ImGui@@YAXPEAUImGuiWindow@@@Z DD imagerel $LN35+327
	DD	imagerel $LN35+332
	DD	imagerel $chain$3$?BringWindowToDisplayBack@ImGui@@YAXPEAUImGuiWindow@@@Z
pdata	ENDS
;	COMDAT pdata
pdata	SEGMENT
$pdata$4$?BringWindowToDisplayBack@ImGui@@YAXPEAUImGuiWindow@@@Z DD imagerel $LN35+332
	DD	imagerel $LN35+344
	DD	imagerel $chain$4$?BringWindowToDisplayBack@ImGui@@YAXPEAUImGuiWindow@@@Z
pdata	ENDS
;	COMDAT pdata
pdata	SEGMENT
$pdata$?SetCurrentFont@ImGui@@YAXPEAUImFont@@@Z DD imagerel $LN20
	DD	imagerel $LN20+263
	DD	imagerel $unwind$?SetCurrentFont@ImGui@@YAXPEAUImFont@@@Z
pdata	ENDS
;	COMDAT pdata
pdata	SEGMENT
$pdata$?GetDefaultFont@ImGui@@YAPEAUImFont@@XZ DD imagerel $LN9
	DD	imagerel $LN9+76
	DD	imagerel $unwind$?GetDefaultFont@ImGui@@YAPEAUImFont@@XZ
pdata	ENDS
;	COMDAT pdata
pdata	SEGMENT
$pdata$?Initialize@ImGui@@YAXPEAUImGuiContext@@@Z DD imagerel $LN46
	DD	imagerel $LN46+292
	DD	imagerel $unwind$?Initialize@ImGui@@YAXPEAUImGuiContext@@@Z
pdata	ENDS
;	COMDAT pdata
pdata	SEGMENT
$pdata$0$?Initialize@ImGui@@YAXPEAUImGuiContext@@@Z DD imagerel $LN46+292
	DD	imagerel $LN46+437
	DD	imagerel $chain$0$?Initialize@ImGui@@YAXPEAUImGuiContext@@@Z
pdata	ENDS
;	COMDAT pdata
pdata	SEGMENT
$pdata$1$?Initialize@ImGui@@YAXPEAUImGuiContext@@@Z DD imagerel $LN46+437
	DD	imagerel $LN46+529
	DD	imagerel $chain$1$?Initialize@ImGui@@YAXPEAUImGuiContext@@@Z
pdata	ENDS
;	COMDAT pdata
pdata	SEGMENT
$pdata$?Shutdown@ImGui@@YAXPEAUImGuiContext@@@Z DD imagerel $LN213
	DD	imagerel $LN213+111
	DD	imagerel $unwind$?Shutdown@ImGui@@YAXPEAUImGuiContext@@@Z
pdata	ENDS
;	COMDAT pdata
pdata	SEGMENT
$pdata$0$?Shutdown@ImGui@@YAXPEAUImGuiContext@@@Z DD imagerel $LN213+111
	DD	imagerel $LN213+173
	DD	imagerel $chain$0$?Shutdown@ImGui@@YAXPEAUImGuiContext@@@Z
pdata	ENDS
;	COMDAT pdata
pdata	SEGMENT
$pdata$1$?Shutdown@ImGui@@YAXPEAUImGuiContext@@@Z DD imagerel $LN213+173
	DD	imagerel $LN213+290
	DD	imagerel $chain$1$?Shutdown@ImGui@@YAXPEAUImGuiContext@@@Z
pdata	ENDS
;	COMDAT pdata
pdata	SEGMENT
$pdata$2$?Shutdown@ImGui@@YAXPEAUImGuiContext@@@Z DD imagerel $LN213+290
	DD	imagerel $LN213+1037
	DD	imagerel $chain$2$?Shutdown@ImGui@@YAXPEAUImGuiContext@@@Z
pdata	ENDS
;	COMDAT pdata
pdata	SEGMENT
$pdata$3$?Shutdown@ImGui@@YAXPEAUImGuiContext@@@Z DD imagerel $LN213+1037
	DD	imagerel $LN213+1662
	DD	imagerel $chain$3$?Shutdown@ImGui@@YAXPEAUImGuiContext@@@Z
pdata	ENDS
;	COMDAT pdata
pdata	SEGMENT
$pdata$?UpdateHoveredWindowAndCaptureFlags@ImGui@@YAXXZ DD imagerel $LN154
	DD	imagerel $LN154+1265
	DD	imagerel $unwind$?UpdateHoveredWindowAndCaptureFlags@ImGui@@YAXXZ
pdata	ENDS
;	COMDAT pdata
pdata	SEGMENT
$pdata$?StartMouseMovingWindow@ImGui@@YAXPEAUImGuiWindow@@@Z DD imagerel $LN12
	DD	imagerel $LN12+129
	DD	imagerel $unwind$?StartMouseMovingWindow@ImGui@@YAXPEAUImGuiWindow@@@Z
pdata	ENDS
;	COMDAT pdata
pdata	SEGMENT
$pdata$?UpdateMouseMovingWindowNewFrame@ImGui@@YAXXZ DD imagerel $LN33
	DD	imagerel $LN33+35
	DD	imagerel $unwind$?UpdateMouseMovingWindowNewFrame@ImGui@@YAXXZ
pdata	ENDS
;	COMDAT pdata
pdata	SEGMENT
$pdata$1$?UpdateMouseMovingWindowNewFrame@ImGui@@YAXXZ DD imagerel $LN33+35
	DD	imagerel $LN33+295
	DD	imagerel $chain$1$?UpdateMouseMovingWindowNewFrame@ImGui@@YAXXZ
pdata	ENDS
;	COMDAT pdata
pdata	SEGMENT
$pdata$2$?UpdateMouseMovingWindowNewFrame@ImGui@@YAXXZ DD imagerel $LN33+295
	DD	imagerel $LN33+301
	DD	imagerel $chain$2$?UpdateMouseMovingWindowNewFrame@ImGui@@YAXXZ
pdata	ENDS
;	COMDAT pdata
pdata	SEGMENT
$pdata$3$?UpdateMouseMovingWindowNewFrame@ImGui@@YAXXZ DD imagerel $LN33+301
	DD	imagerel $LN33+333
	DD	imagerel $chain$3$?UpdateMouseMovingWindowNewFrame@ImGui@@YAXXZ
pdata	ENDS
;	COMDAT pdata
pdata	SEGMENT
$pdata$4$?UpdateMouseMovingWindowNewFrame@ImGui@@YAXXZ DD imagerel $LN33+333
	DD	imagerel $LN33+396
	DD	imagerel $chain$4$?UpdateMouseMovingWindowNewFrame@ImGui@@YAXXZ
pdata	ENDS
;	COMDAT pdata
pdata	SEGMENT
$pdata$?UpdateMouseMovingWindowEndFrame@ImGui@@YAXXZ DD imagerel $LN102
	DD	imagerel $LN102+71
	DD	imagerel $unwind$?UpdateMouseMovingWindowEndFrame@ImGui@@YAXXZ
pdata	ENDS
;	COMDAT pdata
pdata	SEGMENT
$pdata$0$?UpdateMouseMovingWindowEndFrame@ImGui@@YAXXZ DD imagerel $LN102+71
	DD	imagerel $LN102+379
	DD	imagerel $chain$0$?UpdateMouseMovingWindowEndFrame@ImGui@@YAXXZ
pdata	ENDS
;	COMDAT pdata
pdata	SEGMENT
$pdata$4$?UpdateMouseMovingWindowEndFrame@ImGui@@YAXXZ DD imagerel $LN102+379
	DD	imagerel $LN102+550
	DD	imagerel $chain$4$?UpdateMouseMovingWindowEndFrame@ImGui@@YAXXZ
pdata	ENDS
;	COMDAT pdata
pdata	SEGMENT
$pdata$5$?UpdateMouseMovingWindowEndFrame@ImGui@@YAXXZ DD imagerel $LN102+550
	DD	imagerel $LN102+555
	DD	imagerel $chain$5$?UpdateMouseMovingWindowEndFrame@ImGui@@YAXXZ
pdata	ENDS
;	COMDAT pdata
pdata	SEGMENT
$pdata$6$?UpdateMouseMovingWindowEndFrame@ImGui@@YAXXZ DD imagerel $LN102+555
	DD	imagerel $LN102+561
	DD	imagerel $chain$6$?UpdateMouseMovingWindowEndFrame@ImGui@@YAXXZ
pdata	ENDS
;	COMDAT pdata
pdata	SEGMENT
$pdata$?ClearIniSettings@ImGui@@YAXXZ DD imagerel $LN32
	DD	imagerel $LN32+90
	DD	imagerel $unwind$?ClearIniSettings@ImGui@@YAXXZ
pdata	ENDS
;	COMDAT pdata
pdata	SEGMENT
$pdata$1$?ClearIniSettings@ImGui@@YAXXZ DD imagerel $LN32+90
	DD	imagerel $LN32+286
	DD	imagerel $chain$1$?ClearIniSettings@ImGui@@YAXXZ
pdata	ENDS
;	COMDAT pdata
pdata	SEGMENT
$pdata$2$?ClearIniSettings@ImGui@@YAXXZ DD imagerel $LN32+286
	DD	imagerel $LN32+297
	DD	imagerel $chain$2$?ClearIniSettings@ImGui@@YAXXZ
pdata	ENDS
;	COMDAT pdata
pdata	SEGMENT
$pdata$?CreateNewWindowSettings@ImGui@@YAPEAUImGuiWindowSettings@@PEBD@Z DD imagerel $LN29
	DD	imagerel $LN29+244
	DD	imagerel $unwind$?CreateNewWindowSettings@ImGui@@YAPEAUImGuiWindowSettings@@PEBD@Z
pdata	ENDS
;	COMDAT pdata
pdata	SEGMENT
$pdata$?FindWindowSettings@ImGui@@YAPEAUImGuiWindowSettings@@I@Z DD imagerel $LN38
	DD	imagerel $LN38+234
	DD	imagerel $unwind$?FindWindowSettings@ImGui@@YAPEAUImGuiWindowSettings@@I@Z
pdata	ENDS
;	COMDAT pdata
pdata	SEGMENT
$pdata$?FindOrCreateWindowSettings@ImGui@@YAPEAUImGuiWindowSettings@@PEBD@Z DD imagerel $LN25
	DD	imagerel $LN25+121
	DD	imagerel $unwind$?FindOrCreateWindowSettings@ImGui@@YAPEAUImGuiWindowSettings@@PEBD@Z
pdata	ENDS
;	COMDAT pdata
pdata	SEGMENT
$pdata$?FindSettingsHandler@ImGui@@YAPEAUImGuiSettingsHandler@@PEBD@Z DD imagerel $LN40
	DD	imagerel $LN40+256
	DD	imagerel $unwind$?FindSettingsHandler@ImGui@@YAPEAUImGuiSettingsHandler@@PEBD@Z
pdata	ENDS
;	COMDAT pdata
pdata	SEGMENT
$pdata$?SetScrollFromPosX@ImGui@@YAXPEAUImGuiWindow@@MM@Z DD imagerel $LN6
	DD	imagerel $LN6+114
	DD	imagerel $unwind$?SetScrollFromPosX@ImGui@@YAXPEAUImGuiWindow@@MM@Z
pdata	ENDS
;	COMDAT pdata
pdata	SEGMENT
$pdata$?SetScrollFromPosY@ImGui@@YAXPEAUImGuiWindow@@MM@Z DD imagerel $LN20
	DD	imagerel $LN20+281
	DD	imagerel $unwind$?SetScrollFromPosY@ImGui@@YAXPEAUImGuiWindow@@MM@Z
pdata	ENDS
;	COMDAT pdata
pdata	SEGMENT
$pdata$?ScrollToBringRectIntoView@ImGui@@YA?AUImVec2@@PEAUImGuiWindow@@AEBUImRect@@@Z DD imagerel $LN53
	DD	imagerel $LN53+479
	DD	imagerel $unwind$?ScrollToBringRectIntoView@ImGui@@YA?AUImVec2@@PEAUImGuiWindow@@AEBUImRect@@@Z
pdata	ENDS
;	COMDAT pdata
pdata	SEGMENT
$pdata$?SetFocusID@ImGui@@YAXIPEAUImGuiWindow@@@Z DD imagerel $LN19
	DD	imagerel $LN19+275
	DD	imagerel $unwind$?SetFocusID@ImGui@@YAXIPEAUImGuiWindow@@@Z
pdata	ENDS
;	COMDAT pdata
pdata	SEGMENT
$pdata$?MarkItemEdited@ImGui@@YAXI@Z DD imagerel $LN5
	DD	imagerel $LN5+91
	DD	imagerel $unwind$?MarkItemEdited@ImGui@@YAXI@Z
pdata	ENDS
;	COMDAT pdata
pdata	SEGMENT
$pdata$?PushOverrideID@ImGui@@YAXI@Z DD imagerel $LN11
	DD	imagerel $LN11+114
	DD	imagerel $unwind$?PushOverrideID@ImGui@@YAXI@Z
pdata	ENDS
;	COMDAT pdata
pdata	SEGMENT
$pdata$?ItemSize@ImGui@@YAXAEBUImVec2@@M@Z DD imagerel $LN28
	DD	imagerel $LN28+42
	DD	imagerel $unwind$?ItemSize@ImGui@@YAXAEBUImVec2@@M@Z
pdata	ENDS
;	COMDAT pdata
pdata	SEGMENT
$pdata$0$?ItemSize@ImGui@@YAXAEBUImVec2@@M@Z DD imagerel $LN28+42
	DD	imagerel $LN28+295
	DD	imagerel $chain$0$?ItemSize@ImGui@@YAXAEBUImVec2@@M@Z
pdata	ENDS
;	COMDAT pdata
pdata	SEGMENT
$pdata$1$?ItemSize@ImGui@@YAXAEBUImVec2@@M@Z DD imagerel $LN28+295
	DD	imagerel $LN28+321
	DD	imagerel $chain$1$?ItemSize@ImGui@@YAXAEBUImVec2@@M@Z
pdata	ENDS
;	COMDAT pdata
pdata	SEGMENT
$pdata$?ItemSize@ImGui@@YAXAEBUImRect@@M@Z DD imagerel $LN8
	DD	imagerel $LN8+50
	DD	imagerel $unwind$?ItemSize@ImGui@@YAXAEBUImRect@@M@Z
pdata	ENDS
;	COMDAT pdata
pdata	SEGMENT
$pdata$?ItemAdd@ImGui@@YA_NAEBUImRect@@IPEBU2@@Z DD imagerel $LN25
	DD	imagerel $LN25+314
	DD	imagerel $unwind$?ItemAdd@ImGui@@YA_NAEBUImRect@@IPEBU2@@Z
pdata	ENDS
;	COMDAT pdata
pdata	SEGMENT
$pdata$?ItemHoverable@ImGui@@YA_NAEBUImRect@@I@Z DD imagerel $LN26
	DD	imagerel $LN26+372
	DD	imagerel $unwind$?ItemHoverable@ImGui@@YA_NAEBUImRect@@I@Z
pdata	ENDS
;	COMDAT pdata
pdata	SEGMENT
$pdata$?FocusableItemRegister@ImGui@@YA_NPEAUImGuiWindow@@I@Z DD imagerel $LN18
	DD	imagerel $LN18+213
	DD	imagerel $unwind$?FocusableItemRegister@ImGui@@YA_NPEAUImGuiWindow@@I@Z
pdata	ENDS
;	COMDAT pdata
pdata	SEGMENT
$pdata$?CalcItemSize@ImGui@@YA?AUImVec2@@U2@MM@Z DD imagerel $LN28
	DD	imagerel $LN28+236
	DD	imagerel $unwind$?CalcItemSize@ImGui@@YA?AUImVec2@@U2@MM@Z
pdata	ENDS
;	COMDAT pdata
pdata	SEGMENT
$pdata$?PushMultiItemsWidths@ImGui@@YAXHM@Z DD imagerel $LN36
	DD	imagerel $LN36+27
	DD	imagerel $unwind$?PushMultiItemsWidths@ImGui@@YAXHM@Z
pdata	ENDS
;	COMDAT pdata
pdata	SEGMENT
$pdata$0$?PushMultiItemsWidths@ImGui@@YAXHM@Z DD imagerel $LN36+27
	DD	imagerel $LN36+60
	DD	imagerel $chain$0$?PushMultiItemsWidths@ImGui@@YAXHM@Z
pdata	ENDS
;	COMDAT pdata
pdata	SEGMENT
$pdata$1$?PushMultiItemsWidths@ImGui@@YAXHM@Z DD imagerel $LN36+60
	DD	imagerel $LN36+144
	DD	imagerel $chain$1$?PushMultiItemsWidths@ImGui@@YAXHM@Z
pdata	ENDS
;	COMDAT pdata
pdata	SEGMENT
$pdata$2$?PushMultiItemsWidths@ImGui@@YAXHM@Z DD imagerel $LN36+144
	DD	imagerel $LN36+244
	DD	imagerel $chain$2$?PushMultiItemsWidths@ImGui@@YAXHM@Z
pdata	ENDS
;	COMDAT pdata
pdata	SEGMENT
$pdata$3$?PushMultiItemsWidths@ImGui@@YAXHM@Z DD imagerel $LN36+244
	DD	imagerel $LN36+334
	DD	imagerel $chain$3$?PushMultiItemsWidths@ImGui@@YAXHM@Z
pdata	ENDS
;	COMDAT pdata
pdata	SEGMENT
$pdata$4$?PushMultiItemsWidths@ImGui@@YAXHM@Z DD imagerel $LN36+334
	DD	imagerel $LN36+343
	DD	imagerel $chain$4$?PushMultiItemsWidths@ImGui@@YAXHM@Z
pdata	ENDS
;	COMDAT pdata
pdata	SEGMENT
$pdata$5$?PushMultiItemsWidths@ImGui@@YAXHM@Z DD imagerel $LN36+343
	DD	imagerel $LN36+405
	DD	imagerel $chain$5$?PushMultiItemsWidths@ImGui@@YAXHM@Z
pdata	ENDS
;	COMDAT pdata
pdata	SEGMENT
$pdata$?PushItemFlag@ImGui@@YAXH_N@Z DD imagerel $LN15
	DD	imagerel $LN15+157
	DD	imagerel $unwind$?PushItemFlag@ImGui@@YAXH_N@Z
pdata	ENDS
;	COMDAT pdata
pdata	SEGMENT
$pdata$?PopItemFlag@ImGui@@YAXXZ DD imagerel $LN16
	DD	imagerel $LN16+165
	DD	imagerel $unwind$?PopItemFlag@ImGui@@YAXXZ
pdata	ENDS
;	COMDAT pdata
pdata	SEGMENT
$pdata$?LogBegin@ImGui@@YAXW4ImGuiLogType@@H@Z DD imagerel $LN11
	DD	imagerel $LN11+223
	DD	imagerel $unwind$?LogBegin@ImGui@@YAXW4ImGuiLogType@@H@Z
pdata	ENDS
;	COMDAT pdata
pdata	SEGMENT
$pdata$?BeginChildEx@ImGui@@YA_NPEBDIAEBUImVec2@@_NH@Z DD imagerel $LN47
	DD	imagerel $LN47+566
	DD	imagerel $unwind$?BeginChildEx@ImGui@@YA_NPEBDIAEBUImVec2@@_NH@Z
pdata	ENDS
;	COMDAT pdata
pdata	SEGMENT
$pdata$?OpenPopupEx@ImGui@@YAXI@Z DD imagerel $LN43
	DD	imagerel $LN43+335
	DD	imagerel $unwind$?OpenPopupEx@ImGui@@YAXI@Z
pdata	ENDS
;	COMDAT pdata
pdata	SEGMENT
$pdata$0$?OpenPopupEx@ImGui@@YAXI@Z DD imagerel $LN43+335
	DD	imagerel $LN43+584
	DD	imagerel $chain$0$?OpenPopupEx@ImGui@@YAXI@Z
pdata	ENDS
;	COMDAT pdata
pdata	SEGMENT
$pdata$1$?OpenPopupEx@ImGui@@YAXI@Z DD imagerel $LN43+584
	DD	imagerel $LN43+605
	DD	imagerel $chain$1$?OpenPopupEx@ImGui@@YAXI@Z
pdata	ENDS
;	COMDAT pdata
pdata	SEGMENT
$pdata$?ClosePopupToLevel@ImGui@@YAXH_N@Z DD imagerel $LN122
	DD	imagerel $LN122+310
	DD	imagerel $unwind$?ClosePopupToLevel@ImGui@@YAXH_N@Z
pdata	ENDS
;	COMDAT pdata
pdata	SEGMENT
$pdata$?ClosePopupsOverWindow@ImGui@@YAXPEAUImGuiWindow@@_N@Z DD imagerel $LN44
	DD	imagerel $LN44+43
	DD	imagerel $unwind$?ClosePopupsOverWindow@ImGui@@YAXPEAUImGuiWindow@@_N@Z
pdata	ENDS
;	COMDAT pdata
pdata	SEGMENT
$pdata$4$?ClosePopupsOverWindow@ImGui@@YAXPEAUImGuiWindow@@_N@Z DD imagerel $LN44+43
	DD	imagerel $LN44+425
	DD	imagerel $chain$4$?ClosePopupsOverWindow@ImGui@@YAXPEAUImGuiWindow@@_N@Z
pdata	ENDS
;	COMDAT pdata
pdata	SEGMENT
$pdata$5$?ClosePopupsOverWindow@ImGui@@YAXPEAUImGuiWindow@@_N@Z DD imagerel $LN44+425
	DD	imagerel $LN44+435
	DD	imagerel $chain$5$?ClosePopupsOverWindow@ImGui@@YAXPEAUImGuiWindow@@_N@Z
pdata	ENDS
;	COMDAT pdata
pdata	SEGMENT
$pdata$?BeginPopupEx@ImGui@@YA_NIH@Z DD imagerel $LN20
	DD	imagerel $LN20+198
	DD	imagerel $unwind$?BeginPopupEx@ImGui@@YA_NIH@Z
pdata	ENDS
;	COMDAT pdata
pdata	SEGMENT
$pdata$?BeginTooltipEx@ImGui@@YAXHH@Z DD imagerel $LN48
	DD	imagerel $LN48+436
	DD	imagerel $unwind$?BeginTooltipEx@ImGui@@YAXHH@Z
pdata	ENDS
;	COMDAT pdata
pdata	SEGMENT
$pdata$?FindBestWindowPosForPopup@ImGui@@YA?AUImVec2@@PEAUImGuiWindow@@@Z DD imagerel $LN90
	DD	imagerel $LN90+185
	DD	imagerel $unwind$?FindBestWindowPosForPopup@ImGui@@YA?AUImVec2@@PEAUImGuiWindow@@@Z
pdata	ENDS
;	COMDAT pdata
pdata	SEGMENT
$pdata$0$?FindBestWindowPosForPopup@ImGui@@YA?AUImVec2@@PEAUImGuiWindow@@@Z DD imagerel $LN90+185
	DD	imagerel $LN90+307
	DD	imagerel $chain$0$?FindBestWindowPosForPopup@ImGui@@YA?AUImVec2@@PEAUImGuiWindow@@@Z
pdata	ENDS
;	COMDAT pdata
pdata	SEGMENT
$pdata$1$?FindBestWindowPosForPopup@ImGui@@YA?AUImVec2@@PEAUImGuiWindow@@@Z DD imagerel $LN90+307
	DD	imagerel $LN90+604
	DD	imagerel $chain$1$?FindBestWindowPosForPopup@ImGui@@YA?AUImVec2@@PEAUImGuiWindow@@@Z
pdata	ENDS
;	COMDAT pdata
pdata	SEGMENT
$pdata$2$?FindBestWindowPosForPopup@ImGui@@YA?AUImVec2@@PEAUImGuiWindow@@@Z DD imagerel $LN90+604
	DD	imagerel $LN90+863
	DD	imagerel $chain$2$?FindBestWindowPosForPopup@ImGui@@YA?AUImVec2@@PEAUImGuiWindow@@@Z
pdata	ENDS
;	COMDAT pdata
pdata	SEGMENT
$pdata$3$?FindBestWindowPosForPopup@ImGui@@YA?AUImVec2@@PEAUImGuiWindow@@@Z DD imagerel $LN90+863
	DD	imagerel $LN90+972
	DD	imagerel $chain$3$?FindBestWindowPosForPopup@ImGui@@YA?AUImVec2@@PEAUImGuiWindow@@@Z
pdata	ENDS
;	COMDAT pdata
pdata	SEGMENT
$pdata$?FindBestWindowPosForPopupEx@ImGui@@YA?AUImVec2@@AEBU2@0PEAHAEBUImRect@@2W4ImGuiPopupPositionPolicy@@@Z DD imagerel $LN112
	DD	imagerel $LN112+806
	DD	imagerel $unwind$?FindBestWindowPosForPopupEx@ImGui@@YA?AUImVec2@@AEBU2@0PEAHAEBUImRect@@2W4ImGuiPopupPositionPolicy@@@Z
pdata	ENDS
;	COMDAT pdata
pdata	SEGMENT
$pdata$?NavInitWindow@ImGui@@YAXPEAUImGuiWindow@@_N@Z DD imagerel $LN24
	DD	imagerel $LN24+282
	DD	imagerel $unwind$?NavInitWindow@ImGui@@YAXPEAUImGuiWindow@@_N@Z
pdata	ENDS
;	COMDAT pdata
pdata	SEGMENT
$pdata$?NavMoveRequestForward@ImGui@@YAXHHAEBUImRect@@H@Z DD imagerel $LN13
	DD	imagerel $LN13+257
	DD	imagerel $unwind$?NavMoveRequestForward@ImGui@@YAXHHAEBUImRect@@H@Z
pdata	ENDS
;	COMDAT pdata
pdata	SEGMENT
$pdata$?GetNavInputAmount@ImGui@@YAMHW4ImGuiInputReadMode@@@Z DD imagerel $LN16
	DD	imagerel $LN16+276
	DD	imagerel $unwind$?GetNavInputAmount@ImGui@@YAMHW4ImGuiInputReadMode@@@Z
pdata	ENDS
;	COMDAT pdata
pdata	SEGMENT
$pdata$?GetNavInputAmount2d@ImGui@@YA?AUImVec2@@HW4ImGuiInputReadMode@@MM@Z DD imagerel $LN35
	DD	imagerel $LN35+19
	DD	imagerel $unwind$?GetNavInputAmount2d@ImGui@@YA?AUImVec2@@HW4ImGuiInputReadMode@@MM@Z
pdata	ENDS
;	COMDAT pdata
pdata	SEGMENT
$pdata$0$?GetNavInputAmount2d@ImGui@@YA?AUImVec2@@HW4ImGuiInputReadMode@@MM@Z DD imagerel $LN35+19
	DD	imagerel $LN35+27
	DD	imagerel $chain$0$?GetNavInputAmount2d@ImGui@@YA?AUImVec2@@HW4ImGuiInputReadMode@@MM@Z
pdata	ENDS
;	COMDAT pdata
pdata	SEGMENT
$pdata$7$?GetNavInputAmount2d@ImGui@@YA?AUImVec2@@HW4ImGuiInputReadMode@@MM@Z DD imagerel $LN35+27
	DD	imagerel $LN35+295
	DD	imagerel $chain$7$?GetNavInputAmount2d@ImGui@@YA?AUImVec2@@HW4ImGuiInputReadMode@@MM@Z
pdata	ENDS
;	COMDAT pdata
pdata	SEGMENT
$pdata$8$?GetNavInputAmount2d@ImGui@@YA?AUImVec2@@HW4ImGuiInputReadMode@@MM@Z DD imagerel $LN35+295
	DD	imagerel $LN35+438
	DD	imagerel $chain$8$?GetNavInputAmount2d@ImGui@@YA?AUImVec2@@HW4ImGuiInputReadMode@@MM@Z
pdata	ENDS
;	COMDAT pdata
pdata	SEGMENT
$pdata$9$?GetNavInputAmount2d@ImGui@@YA?AUImVec2@@HW4ImGuiInputReadMode@@MM@Z DD imagerel $LN35+438
	DD	imagerel $LN35+514
	DD	imagerel $chain$9$?GetNavInputAmount2d@ImGui@@YA?AUImVec2@@HW4ImGuiInputReadMode@@MM@Z
pdata	ENDS
;	COMDAT pdata
pdata	SEGMENT
$pdata$10$?GetNavInputAmount2d@ImGui@@YA?AUImVec2@@HW4ImGuiInputReadMode@@MM@Z DD imagerel $LN35+514
	DD	imagerel $LN35+565
	DD	imagerel $chain$10$?GetNavInputAmount2d@ImGui@@YA?AUImVec2@@HW4ImGuiInputReadMode@@MM@Z
pdata	ENDS
;	COMDAT pdata
pdata	SEGMENT
$pdata$?SetNavID@ImGui@@YAXIHI@Z DD imagerel $LN7
	DD	imagerel $LN7+149
	DD	imagerel $unwind$?SetNavID@ImGui@@YAXIHI@Z
pdata	ENDS
;	COMDAT pdata
pdata	SEGMENT
$pdata$?SetNavIDWithRectRel@ImGui@@YAXIHIAEBUImRect@@@Z DD imagerel $LN4
	DD	imagerel $LN4+88
	DD	imagerel $unwind$?SetNavIDWithRectRel@ImGui@@YAXIHIAEBUImRect@@@Z
pdata	ENDS
;	COMDAT pdata
pdata	SEGMENT
$pdata$?PushFocusScope@ImGui@@YAXI@Z DD imagerel $LN11
	DD	imagerel $LN11+136
	DD	imagerel $unwind$?PushFocusScope@ImGui@@YAXI@Z
pdata	ENDS
;	COMDAT pdata
pdata	SEGMENT
$pdata$?PopFocusScope@ImGui@@YAXXZ DD imagerel $LN11
	DD	imagerel $LN11+145
	DD	imagerel $unwind$?PopFocusScope@ImGui@@YAXXZ
pdata	ENDS
;	COMDAT pdata
pdata	SEGMENT
$pdata$?IsActiveIdUsingKey@ImGui@@YA_NH@Z DD imagerel $LN5
	DD	imagerel $LN5+75
	DD	imagerel $unwind$?IsActiveIdUsingKey@ImGui@@YA_NH@Z
pdata	ENDS
;	COMDAT pdata
pdata	SEGMENT
$pdata$?IsMouseDragPastThreshold@ImGui@@YA_NHM@Z DD imagerel $LN8
	DD	imagerel $LN8+107
	DD	imagerel $unwind$?IsMouseDragPastThreshold@ImGui@@YA_NHM@Z
pdata	ENDS
;	COMDAT pdata
pdata	SEGMENT
$pdata$?IsNavInputTest@ImGui@@YA_NHW4ImGuiInputReadMode@@@Z DD imagerel $LN4
	DD	imagerel $LN4+23
	DD	imagerel $unwind$?IsNavInputTest@ImGui@@YA_NHW4ImGuiInputReadMode@@@Z
pdata	ENDS
;	COMDAT pdata
pdata	SEGMENT
$pdata$?BeginDragDropTargetCustom@ImGui@@YA_NAEBUImRect@@I@Z DD imagerel $LN12
	DD	imagerel $LN12+240
	DD	imagerel $unwind$?BeginDragDropTargetCustom@ImGui@@YA_NAEBUImRect@@I@Z
pdata	ENDS
;	COMDAT pdata
pdata	SEGMENT
$pdata$?ClearDragDrop@ImGui@@YAXXZ DD imagerel $LN13
	DD	imagerel $LN13+199
	DD	imagerel $unwind$?ClearDragDrop@ImGui@@YAXXZ
pdata	ENDS
;	COMDAT pdata
pdata	SEGMENT
$pdata$?RenderText@ImGui@@YAXUImVec2@@PEBD1_N@Z DD imagerel $LN23
	DD	imagerel $LN23+288
	DD	imagerel $unwind$?RenderText@ImGui@@YAXUImVec2@@PEBD1_N@Z
pdata	ENDS
;	COMDAT pdata
pdata	SEGMENT
$pdata$?RenderTextWrapped@ImGui@@YAXUImVec2@@PEBD1M@Z DD imagerel $LN10
	DD	imagerel $LN10+241
	DD	imagerel $unwind$?RenderTextWrapped@ImGui@@YAXUImVec2@@PEBD1M@Z
pdata	ENDS
;	COMDAT pdata
pdata	SEGMENT
$pdata$?RenderTextClipped@ImGui@@YAXAEBUImVec2@@0PEBD1PEBU2@0PEBUImRect@@@Z DD imagerel $LN17
	DD	imagerel $LN17+118
	DD	imagerel $unwind$?RenderTextClipped@ImGui@@YAXAEBUImVec2@@0PEBD1PEBU2@0PEBUImRect@@@Z
pdata	ENDS
;	COMDAT pdata
pdata	SEGMENT
$pdata$0$?RenderTextClipped@ImGui@@YAXAEBUImVec2@@0PEBD1PEBU2@0PEBUImRect@@@Z DD imagerel $LN17+118
	DD	imagerel $LN17+168
	DD	imagerel $chain$0$?RenderTextClipped@ImGui@@YAXAEBUImVec2@@0PEBD1PEBU2@0PEBUImRect@@@Z
pdata	ENDS
;	COMDAT pdata
pdata	SEGMENT
$pdata$1$?RenderTextClipped@ImGui@@YAXAEBUImVec2@@0PEBD1PEBU2@0PEBUImRect@@@Z DD imagerel $LN17+168
	DD	imagerel $LN17+198
	DD	imagerel $chain$1$?RenderTextClipped@ImGui@@YAXAEBUImVec2@@0PEBD1PEBU2@0PEBUImRect@@@Z
pdata	ENDS
;	COMDAT pdata
pdata	SEGMENT
$pdata$?RenderTextClippedEx@ImGui@@YAXPEAUImDrawList@@AEBUImVec2@@1PEBD2PEBU3@1PEBUImRect@@@Z DD imagerel $LN58
	DD	imagerel $LN58+630
	DD	imagerel $unwind$?RenderTextClippedEx@ImGui@@YAXPEAUImDrawList@@AEBUImVec2@@1PEBD2PEBU3@1PEBUImRect@@@Z
pdata	ENDS
;	COMDAT pdata
pdata	SEGMENT
$pdata$?RenderTextEllipsis@ImGui@@YAXPEAUImDrawList@@AEBUImVec2@@1MMPEBD2PEBU3@@Z DD imagerel $LN186
	DD	imagerel $LN186+38
	DD	imagerel $unwind$?RenderTextEllipsis@ImGui@@YAXPEAUImDrawList@@AEBUImVec2@@1MMPEBD2PEBU3@@Z
pdata	ENDS
;	COMDAT pdata
pdata	SEGMENT
$pdata$6$?RenderTextEllipsis@ImGui@@YAXPEAUImDrawList@@AEBUImVec2@@1MMPEBD2PEBU3@@Z DD imagerel $LN186+38
	DD	imagerel $LN186+309
	DD	imagerel $chain$6$?RenderTextEllipsis@ImGui@@YAXPEAUImDrawList@@AEBUImVec2@@1MMPEBD2PEBU3@@Z
pdata	ENDS
;	COMDAT pdata
pdata	SEGMENT
$pdata$9$?RenderTextEllipsis@ImGui@@YAXPEAUImDrawList@@AEBUImVec2@@1MMPEBD2PEBU3@@Z DD imagerel $LN186+309
	DD	imagerel $LN186+363
	DD	imagerel $chain$9$?RenderTextEllipsis@ImGui@@YAXPEAUImDrawList@@AEBUImVec2@@1MMPEBD2PEBU3@@Z
pdata	ENDS
;	COMDAT pdata
pdata	SEGMENT
$pdata$11$?RenderTextEllipsis@ImGui@@YAXPEAUImDrawList@@AEBUImVec2@@1MMPEBD2PEBU3@@Z DD imagerel $LN186+363
	DD	imagerel $LN186+1074
	DD	imagerel $chain$11$?RenderTextEllipsis@ImGui@@YAXPEAUImDrawList@@AEBUImVec2@@1MMPEBD2PEBU3@@Z
pdata	ENDS
;	COMDAT pdata
pdata	SEGMENT
$pdata$12$?RenderTextEllipsis@ImGui@@YAXPEAUImDrawList@@AEBUImVec2@@1MMPEBD2PEBU3@@Z DD imagerel $LN186+1074
	DD	imagerel $LN186+1502
	DD	imagerel $chain$12$?RenderTextEllipsis@ImGui@@YAXPEAUImDrawList@@AEBUImVec2@@1MMPEBD2PEBU3@@Z
pdata	ENDS
;	COMDAT pdata
pdata	SEGMENT
$pdata$13$?RenderTextEllipsis@ImGui@@YAXPEAUImDrawList@@AEBUImVec2@@1MMPEBD2PEBU3@@Z DD imagerel $LN186+1502
	DD	imagerel $LN186+1529
	DD	imagerel $chain$13$?RenderTextEllipsis@ImGui@@YAXPEAUImDrawList@@AEBUImVec2@@1MMPEBD2PEBU3@@Z
pdata	ENDS
;	COMDAT pdata
pdata	SEGMENT
$pdata$?RenderFrame@ImGui@@YAXUImVec2@@0I_NM@Z DD imagerel $LN22
	DD	imagerel $LN22+54
	DD	imagerel $unwind$?RenderFrame@ImGui@@YAXUImVec2@@0I_NM@Z
pdata	ENDS
;	COMDAT pdata
pdata	SEGMENT
$pdata$0$?RenderFrame@ImGui@@YAXUImVec2@@0I_NM@Z DD imagerel $LN22+54
	DD	imagerel $LN22+109
	DD	imagerel $chain$0$?RenderFrame@ImGui@@YAXUImVec2@@0I_NM@Z
pdata	ENDS
;	COMDAT pdata
pdata	SEGMENT
$pdata$2$?RenderFrame@ImGui@@YAXUImVec2@@0I_NM@Z DD imagerel $LN22+109
	DD	imagerel $LN22+401
	DD	imagerel $chain$2$?RenderFrame@ImGui@@YAXUImVec2@@0I_NM@Z
pdata	ENDS
;	COMDAT pdata
pdata	SEGMENT
$pdata$1$?RenderFrame@ImGui@@YAXUImVec2@@0I_NM@Z DD imagerel $LN22+401
	DD	imagerel $LN22+423
	DD	imagerel $chain$1$?RenderFrame@ImGui@@YAXUImVec2@@0I_NM@Z
pdata	ENDS
;	COMDAT pdata
pdata	SEGMENT
$pdata$?RenderFrameBorder@ImGui@@YAXUImVec2@@0M@Z DD imagerel $LN21
	DD	imagerel $LN21+339
	DD	imagerel $unwind$?RenderFrameBorder@ImGui@@YAXUImVec2@@0M@Z
pdata	ENDS
;	COMDAT pdata
pdata	SEGMENT
$pdata$?RenderNavHighlight@ImGui@@YAXAEBUImRect@@IH@Z DD imagerel $LN60
	DD	imagerel $LN60+59
	DD	imagerel $unwind$?RenderNavHighlight@ImGui@@YAXAEBUImRect@@IH@Z
pdata	ENDS
;	COMDAT pdata
pdata	SEGMENT
$pdata$0$?RenderNavHighlight@ImGui@@YAXAEBUImRect@@IH@Z DD imagerel $LN60+59
	DD	imagerel $LN60+87
	DD	imagerel $chain$0$?RenderNavHighlight@ImGui@@YAXAEBUImRect@@IH@Z
pdata	ENDS
;	COMDAT pdata
pdata	SEGMENT
$pdata$2$?RenderNavHighlight@ImGui@@YAXAEBUImRect@@IH@Z DD imagerel $LN60+87
	DD	imagerel $LN60+235
	DD	imagerel $chain$2$?RenderNavHighlight@ImGui@@YAXAEBUImRect@@IH@Z
pdata	ENDS
;	COMDAT pdata
pdata	SEGMENT
$pdata$3$?RenderNavHighlight@ImGui@@YAXAEBUImRect@@IH@Z DD imagerel $LN60+235
	DD	imagerel $LN60+517
	DD	imagerel $chain$3$?RenderNavHighlight@ImGui@@YAXAEBUImRect@@IH@Z
pdata	ENDS
;	COMDAT pdata
pdata	SEGMENT
$pdata$4$?RenderNavHighlight@ImGui@@YAXAEBUImRect@@IH@Z DD imagerel $LN60+517
	DD	imagerel $LN60+635
	DD	imagerel $chain$4$?RenderNavHighlight@ImGui@@YAXAEBUImRect@@IH@Z
pdata	ENDS
;	COMDAT pdata
pdata	SEGMENT
$pdata$5$?RenderNavHighlight@ImGui@@YAXAEBUImRect@@IH@Z DD imagerel $LN60+635
	DD	imagerel $LN60+643
	DD	imagerel $chain$5$?RenderNavHighlight@ImGui@@YAXAEBUImRect@@IH@Z
pdata	ENDS
;	COMDAT pdata
pdata	SEGMENT
$pdata$6$?RenderNavHighlight@ImGui@@YAXAEBUImRect@@IH@Z DD imagerel $LN60+643
	DD	imagerel $LN60+660
	DD	imagerel $chain$6$?RenderNavHighlight@ImGui@@YAXAEBUImRect@@IH@Z
pdata	ENDS
;	COMDAT pdata
pdata	SEGMENT
$pdata$?LogRenderedText@ImGui@@YAXPEBUImVec2@@PEBD1@Z DD imagerel $LN47
	DD	imagerel $LN47+410
	DD	imagerel $unwind$?LogRenderedText@ImGui@@YAXPEBUImVec2@@PEBD1@Z
pdata	ENDS
;	COMDAT pdata
pdata	SEGMENT
$pdata$?GetWindowResizeID@ImGui@@YAIPEAUImGuiWindow@@H@Z DD imagerel $LN39
	DD	imagerel $LN39+231
	DD	imagerel $unwind$?GetWindowResizeID@ImGui@@YAIPEAUImGuiWindow@@H@Z
pdata	ENDS
;	COMDAT pdata
pdata	SEGMENT
$pdata$?GcCompactTransientWindowBuffers@ImGui@@YAXPEAUImGuiWindow@@@Z DD imagerel $LN46
	DD	imagerel $LN46+415
	DD	imagerel $unwind$?GcCompactTransientWindowBuffers@ImGui@@YAXPEAUImGuiWindow@@@Z
pdata	ENDS
;	COMDAT pdata
pdata	SEGMENT
$pdata$?GcAwakeTransientWindowBuffers@ImGui@@YAXPEAUImGuiWindow@@@Z DD imagerel $LN16
	DD	imagerel $LN16+77
	DD	imagerel $unwind$?GcAwakeTransientWindowBuffers@ImGui@@YAXPEAUImGuiWindow@@@Z
pdata	ENDS
;	COMDAT pdata
pdata	SEGMENT
$pdata$0$?GcAwakeTransientWindowBuffers@ImGui@@YAXPEAUImGuiWindow@@@Z DD imagerel $LN16+77
	DD	imagerel $LN16+198
	DD	imagerel $chain$0$?GcAwakeTransientWindowBuffers@ImGui@@YAXPEAUImGuiWindow@@@Z
pdata	ENDS
;	COMDAT pdata
pdata	SEGMENT
$pdata$1$?GcAwakeTransientWindowBuffers@ImGui@@YAXPEAUImGuiWindow@@@Z DD imagerel $LN16+198
	DD	imagerel $LN16+223
	DD	imagerel $chain$1$?GcAwakeTransientWindowBuffers@ImGui@@YAXPEAUImGuiWindow@@@Z
pdata	ENDS
;	COMDAT pdata
pdata	SEGMENT
$pdata$?FindHoveredWindow@@YAXXZ DD imagerel ?FindHoveredWindow@@YAXXZ
	DD	imagerel ?FindHoveredWindow@@YAXXZ+498
	DD	imagerel $unwind$?FindHoveredWindow@@YAXXZ
pdata	ENDS
;	COMDAT pdata
pdata	SEGMENT
$pdata$?CreateNewWindow@@YAPEAUImGuiWindow@@PEBDH@Z DD imagerel ?CreateNewWindow@@YAPEAUImGuiWindow@@PEBDH@Z
	DD	imagerel ?CreateNewWindow@@YAPEAUImGuiWindow@@PEBDH@Z+822
	DD	imagerel $unwind$?CreateNewWindow@@YAPEAUImGuiWindow@@PEBDH@Z
pdata	ENDS
;	COMDAT pdata
pdata	SEGMENT
$pdata$?dtor$0@?0??CreateNewWindow@@YAPEAUImGuiWindow@@PEBDH@Z@4HA DD imagerel ?dtor$0@?0??CreateNewWindow@@YAPEAUImGuiWindow@@PEBDH@Z@4HA
	DD	imagerel ?dtor$0@?0??CreateNewWindow@@YAPEAUImGuiWindow@@PEBDH@Z@4HA+35
	DD	imagerel $unwind$?dtor$0@?0??CreateNewWindow@@YAPEAUImGuiWindow@@PEBDH@Z@4HA
pdata	ENDS
;	COMDAT pdata
pdata	SEGMENT
$pdata$?CalcNextScrollFromScrollTargetAndClamp@@YA?AUImVec2@@PEAUImGuiWindow@@_N@Z DD imagerel ?CalcNextScrollFromScrollTargetAndClamp@@YA?AUImVec2@@PEAUImGuiWindow@@_N@Z
	DD	imagerel ?CalcNextScrollFromScrollTargetAndClamp@@YA?AUImVec2@@PEAUImGuiWindow@@_N@Z+514
	DD	imagerel $unwind$?CalcNextScrollFromScrollTargetAndClamp@@YA?AUImVec2@@PEAUImGuiWindow@@_N@Z
pdata	ENDS
;	COMDAT pdata
pdata	SEGMENT
$pdata$?AddDrawListToDrawData@@YAXPEAU?$ImVector@PEAUImDrawList@@@@PEAUImDrawList@@@Z DD imagerel ?AddDrawListToDrawData@@YAXPEAU?$ImVector@PEAUImDrawList@@@@PEAUImDrawList@@@Z
	DD	imagerel ?AddDrawListToDrawData@@YAXPEAU?$ImVector@PEAUImDrawList@@@@PEAUImDrawList@@@Z+383
	DD	imagerel $unwind$?AddDrawListToDrawData@@YAXPEAU?$ImVector@PEAUImDrawList@@@@PEAUImDrawList@@@Z
pdata	ENDS
;	COMDAT pdata
pdata	SEGMENT
$pdata$?AddWindowToSortBuffer@@YAXPEAU?$ImVector@PEAUImGuiWindow@@@@PEAUImGuiWindow@@@Z DD imagerel ?AddWindowToSortBuffer@@YAXPEAU?$ImVector@PEAUImGuiWindow@@@@PEAUImGuiWindow@@@Z
	DD	imagerel ?AddWindowToSortBuffer@@YAXPEAU?$ImVector@PEAUImGuiWindow@@@@PEAUImGuiWindow@@@Z+95
	DD	imagerel $unwind$?AddWindowToSortBuffer@@YAXPEAU?$ImVector@PEAUImGuiWindow@@@@PEAUImGuiWindow@@@Z
pdata	ENDS
;	COMDAT pdata
pdata	SEGMENT
$pdata$2$?AddWindowToSortBuffer@@YAXPEAU?$ImVector@PEAUImGuiWindow@@@@PEAUImGuiWindow@@@Z DD imagerel ?AddWindowToSortBuffer@@YAXPEAU?$ImVector@PEAUImGuiWindow@@@@PEAUImGuiWindow@@@Z+95
	DD	imagerel ?AddWindowToSortBuffer@@YAXPEAU?$ImVector@PEAUImGuiWindow@@@@PEAUImGuiWindow@@@Z+246
	DD	imagerel $chain$2$?AddWindowToSortBuffer@@YAXPEAU?$ImVector@PEAUImGuiWindow@@@@PEAUImGuiWindow@@@Z
pdata	ENDS
;	COMDAT pdata
pdata	SEGMENT
$pdata$3$?AddWindowToSortBuffer@@YAXPEAU?$ImVector@PEAUImGuiWindow@@@@PEAUImGuiWindow@@@Z DD imagerel ?AddWindowToSortBuffer@@YAXPEAU?$ImVector@PEAUImGuiWindow@@@@PEAUImGuiWindow@@@Z+246
	DD	imagerel ?AddWindowToSortBuffer@@YAXPEAU?$ImVector@PEAUImGuiWindow@@@@PEAUImGuiWindow@@@Z+258
	DD	imagerel $chain$3$?AddWindowToSortBuffer@@YAXPEAU?$ImVector@PEAUImGuiWindow@@@@PEAUImGuiWindow@@@Z
pdata	ENDS
;	COMDAT pdata
pdata	SEGMENT
$pdata$?WindowSettingsHandler_ClearAll@@YAXPEAUImGuiContext@@PEAUImGuiSettingsHandler@@@Z DD imagerel ?WindowSettingsHandler_ClearAll@@YAXPEAUImGuiContext@@PEAUImGuiSettingsHandler@@@Z
	DD	imagerel ?WindowSettingsHandler_ClearAll@@YAXPEAUImGuiContext@@PEAUImGuiSettingsHandler@@@Z+15
	DD	imagerel $unwind$?WindowSettingsHandler_ClearAll@@YAXPEAUImGuiContext@@PEAUImGuiSettingsHandler@@@Z
pdata	ENDS
;	COMDAT pdata
pdata	SEGMENT
$pdata$0$?WindowSettingsHandler_ClearAll@@YAXPEAUImGuiContext@@PEAUImGuiSettingsHandler@@@Z DD imagerel ?WindowSettingsHandler_ClearAll@@YAXPEAUImGuiContext@@PEAUImGuiSettingsHandler@@@Z+15
	DD	imagerel ?WindowSettingsHandler_ClearAll@@YAXPEAUImGuiContext@@PEAUImGuiSettingsHandler@@@Z+26
	DD	imagerel $chain$0$?WindowSettingsHandler_ClearAll@@YAXPEAUImGuiContext@@PEAUImGuiSettingsHandler@@@Z
pdata	ENDS
;	COMDAT pdata
pdata	SEGMENT
$pdata$1$?WindowSettingsHandler_ClearAll@@YAXPEAUImGuiContext@@PEAUImGuiSettingsHandler@@@Z DD imagerel ?WindowSettingsHandler_ClearAll@@YAXPEAUImGuiContext@@PEAUImGuiSettingsHandler@@@Z+26
	DD	imagerel ?WindowSettingsHandler_ClearAll@@YAXPEAUImGuiContext@@PEAUImGuiSettingsHandler@@@Z+105
	DD	imagerel $chain$1$?WindowSettingsHandler_ClearAll@@YAXPEAUImGuiContext@@PEAUImGuiSettingsHandler@@@Z
pdata	ENDS
;	COMDAT pdata
pdata	SEGMENT
$pdata$2$?WindowSettingsHandler_ClearAll@@YAXPEAUImGuiContext@@PEAUImGuiSettingsHandler@@@Z DD imagerel ?WindowSettingsHandler_ClearAll@@YAXPEAUImGuiContext@@PEAUImGuiSettingsHandler@@@Z+105
	DD	imagerel ?WindowSettingsHandler_ClearAll@@YAXPEAUImGuiContext@@PEAUImGuiSettingsHandler@@@Z+122
	DD	imagerel $chain$2$?WindowSettingsHandler_ClearAll@@YAXPEAUImGuiContext@@PEAUImGuiSettingsHandler@@@Z
pdata	ENDS
;	COMDAT pdata
pdata	SEGMENT
$pdata$3$?WindowSettingsHandler_ClearAll@@YAXPEAUImGuiContext@@PEAUImGuiSettingsHandler@@@Z DD imagerel ?WindowSettingsHandler_ClearAll@@YAXPEAUImGuiContext@@PEAUImGuiSettingsHandler@@@Z+122
	DD	imagerel ?WindowSettingsHandler_ClearAll@@YAXPEAUImGuiContext@@PEAUImGuiSettingsHandler@@@Z+181
	DD	imagerel $chain$3$?WindowSettingsHandler_ClearAll@@YAXPEAUImGuiContext@@PEAUImGuiSettingsHandler@@@Z
pdata	ENDS
;	COMDAT pdata
pdata	SEGMENT
$pdata$?WindowSettingsHandler_ReadOpen@@YAPEAXPEAUImGuiContext@@PEAUImGuiSettingsHandler@@PEBD@Z DD imagerel ?WindowSettingsHandler_ReadOpen@@YAPEAXPEAUImGuiContext@@PEAUImGuiSettingsHandler@@PEBD@Z
	DD	imagerel ?WindowSettingsHandler_ReadOpen@@YAPEAXPEAUImGuiContext@@PEAUImGuiSettingsHandler@@PEBD@Z+155
	DD	imagerel $unwind$?WindowSettingsHandler_ReadOpen@@YAPEAXPEAUImGuiContext@@PEAUImGuiSettingsHandler@@PEBD@Z
pdata	ENDS
;	COMDAT pdata
pdata	SEGMENT
$pdata$?WindowSettingsHandler_ReadLine@@YAXPEAUImGuiContext@@PEAUImGuiSettingsHandler@@PEAXPEBD@Z DD imagerel ?WindowSettingsHandler_ReadLine@@YAXPEAUImGuiContext@@PEAUImGuiSettingsHandler@@PEAXPEBD@Z
	DD	imagerel ?WindowSettingsHandler_ReadLine@@YAXPEAUImGuiContext@@PEAUImGuiSettingsHandler@@PEAXPEBD@Z+199
	DD	imagerel $unwind$?WindowSettingsHandler_ReadLine@@YAXPEAUImGuiContext@@PEAUImGuiSettingsHandler@@PEAXPEBD@Z
pdata	ENDS
;	COMDAT pdata
pdata	SEGMENT
$pdata$?WindowSettingsHandler_ApplyAll@@YAXPEAUImGuiContext@@PEAUImGuiSettingsHandler@@@Z DD imagerel ?WindowSettingsHandler_ApplyAll@@YAXPEAUImGuiContext@@PEAUImGuiSettingsHandler@@@Z
	DD	imagerel ?WindowSettingsHandler_ApplyAll@@YAXPEAUImGuiContext@@PEAUImGuiSettingsHandler@@@Z+317
	DD	imagerel $unwind$?WindowSettingsHandler_ApplyAll@@YAXPEAUImGuiContext@@PEAUImGuiSettingsHandler@@@Z
pdata	ENDS
;	COMDAT pdata
pdata	SEGMENT
$pdata$?WindowSettingsHandler_WriteAll@@YAXPEAUImGuiContext@@PEAUImGuiSettingsHandler@@PEAUImGuiTextBuffer@@@Z DD imagerel ?WindowSettingsHandler_WriteAll@@YAXPEAUImGuiContext@@PEAUImGuiSettingsHandler@@PEAUImGuiTextBuffer@@@Z
	DD	imagerel ?WindowSettingsHandler_WriteAll@@YAXPEAUImGuiContext@@PEAUImGuiSettingsHandler@@PEAUImGuiTextBuffer@@@Z+41
	DD	imagerel $unwind$?WindowSettingsHandler_WriteAll@@YAXPEAUImGuiContext@@PEAUImGuiSettingsHandler@@PEAUImGuiTextBuffer@@@Z
pdata	ENDS
;	COMDAT pdata
pdata	SEGMENT
$pdata$0$?WindowSettingsHandler_WriteAll@@YAXPEAUImGuiContext@@PEAUImGuiSettingsHandler@@PEAUImGuiTextBuffer@@@Z DD imagerel ?WindowSettingsHandler_WriteAll@@YAXPEAUImGuiContext@@PEAUImGuiSettingsHandler@@PEAUImGuiTextBuffer@@@Z+41
	DD	imagerel ?WindowSettingsHandler_WriteAll@@YAXPEAUImGuiContext@@PEAUImGuiSettingsHandler@@PEAUImGuiTextBuffer@@@Z+390
	DD	imagerel $chain$0$?WindowSettingsHandler_WriteAll@@YAXPEAUImGuiContext@@PEAUImGuiSettingsHandler@@PEAUImGuiTextBuffer@@@Z
pdata	ENDS
;	COMDAT pdata
pdata	SEGMENT
$pdata$1$?WindowSettingsHandler_WriteAll@@YAXPEAUImGuiContext@@PEAUImGuiSettingsHandler@@PEAUImGuiTextBuffer@@@Z DD imagerel ?WindowSettingsHandler_WriteAll@@YAXPEAUImGuiContext@@PEAUImGuiSettingsHandler@@PEAUImGuiTextBuffer@@@Z+390
	DD	imagerel ?WindowSettingsHandler_WriteAll@@YAXPEAUImGuiContext@@PEAUImGuiSettingsHandler@@PEAUImGuiTextBuffer@@@Z+886
	DD	imagerel $chain$1$?WindowSettingsHandler_WriteAll@@YAXPEAUImGuiContext@@PEAUImGuiSettingsHandler@@PEAUImGuiTextBuffer@@@Z
pdata	ENDS
;	COMDAT pdata
pdata	SEGMENT
$pdata$?GetClipboardTextFn_DefaultImpl@@YAPEBDPEAX@Z DD imagerel ?GetClipboardTextFn_DefaultImpl@@YAPEBDPEAX@Z
	DD	imagerel ?GetClipboardTextFn_DefaultImpl@@YAPEBDPEAX@Z+104
	DD	imagerel $unwind$?GetClipboardTextFn_DefaultImpl@@YAPEBDPEAX@Z
pdata	ENDS
;	COMDAT pdata
pdata	SEGMENT
$pdata$0$?GetClipboardTextFn_DefaultImpl@@YAPEBDPEAX@Z DD imagerel ?GetClipboardTextFn_DefaultImpl@@YAPEBDPEAX@Z+104
	DD	imagerel ?GetClipboardTextFn_DefaultImpl@@YAPEBDPEAX@Z+145
	DD	imagerel $chain$0$?GetClipboardTextFn_DefaultImpl@@YAPEBDPEAX@Z
pdata	ENDS
;	COMDAT pdata
pdata	SEGMENT
$pdata$3$?GetClipboardTextFn_DefaultImpl@@YAPEBDPEAX@Z DD imagerel ?GetClipboardTextFn_DefaultImpl@@YAPEBDPEAX@Z+145
	DD	imagerel ?GetClipboardTextFn_DefaultImpl@@YAPEBDPEAX@Z+203
	DD	imagerel $chain$3$?GetClipboardTextFn_DefaultImpl@@YAPEBDPEAX@Z
pdata	ENDS
;	COMDAT pdata
pdata	SEGMENT
$pdata$4$?GetClipboardTextFn_DefaultImpl@@YAPEBDPEAX@Z DD imagerel ?GetClipboardTextFn_DefaultImpl@@YAPEBDPEAX@Z+203
	DD	imagerel ?GetClipboardTextFn_DefaultImpl@@YAPEBDPEAX@Z+283
	DD	imagerel $chain$4$?GetClipboardTextFn_DefaultImpl@@YAPEBDPEAX@Z
pdata	ENDS
;	COMDAT pdata
pdata	SEGMENT
$pdata$5$?GetClipboardTextFn_DefaultImpl@@YAPEBDPEAX@Z DD imagerel ?GetClipboardTextFn_DefaultImpl@@YAPEBDPEAX@Z+283
	DD	imagerel ?GetClipboardTextFn_DefaultImpl@@YAPEBDPEAX@Z+324
	DD	imagerel $chain$5$?GetClipboardTextFn_DefaultImpl@@YAPEBDPEAX@Z
pdata	ENDS
;	COMDAT pdata
pdata	SEGMENT
$pdata$?SetClipboardTextFn_DefaultImpl@@YAXPEAXPEBD@Z DD imagerel ?SetClipboardTextFn_DefaultImpl@@YAXPEAXPEBD@Z
	DD	imagerel ?SetClipboardTextFn_DefaultImpl@@YAXPEAXPEBD@Z+27
	DD	imagerel $unwind$?SetClipboardTextFn_DefaultImpl@@YAXPEAXPEBD@Z
pdata	ENDS
;	COMDAT pdata
pdata	SEGMENT
$pdata$1$?SetClipboardTextFn_DefaultImpl@@YAXPEAXPEBD@Z DD imagerel ?SetClipboardTextFn_DefaultImpl@@YAXPEAXPEBD@Z+27
	DD	imagerel ?SetClipboardTextFn_DefaultImpl@@YAXPEAXPEBD@Z+193
	DD	imagerel $chain$1$?SetClipboardTextFn_DefaultImpl@@YAXPEAXPEBD@Z
pdata	ENDS
;	COMDAT pdata
pdata	SEGMENT
$pdata$2$?SetClipboardTextFn_DefaultImpl@@YAXPEAXPEBD@Z DD imagerel ?SetClipboardTextFn_DefaultImpl@@YAXPEAXPEBD@Z+193
	DD	imagerel ?SetClipboardTextFn_DefaultImpl@@YAXPEAXPEBD@Z+199
	DD	imagerel $chain$2$?SetClipboardTextFn_DefaultImpl@@YAXPEAXPEBD@Z
pdata	ENDS
;	COMDAT pdata
pdata	SEGMENT
$pdata$?ImeSetInputScreenPosFn_DefaultImpl@@YAXHH@Z DD imagerel ?ImeSetInputScreenPosFn_DefaultImpl@@YAXHH@Z
	DD	imagerel ?ImeSetInputScreenPosFn_DefaultImpl@@YAXHH@Z+87
	DD	imagerel $unwind$?ImeSetInputScreenPosFn_DefaultImpl@@YAXHH@Z
pdata	ENDS
;	COMDAT pdata
pdata	SEGMENT
$pdata$0$?ImeSetInputScreenPosFn_DefaultImpl@@YAXHH@Z DD imagerel ?ImeSetInputScreenPosFn_DefaultImpl@@YAXHH@Z+87
	DD	imagerel ?ImeSetInputScreenPosFn_DefaultImpl@@YAXHH@Z+156
	DD	imagerel $chain$0$?ImeSetInputScreenPosFn_DefaultImpl@@YAXHH@Z
pdata	ENDS
;	COMDAT pdata
pdata	SEGMENT
$pdata$1$?ImeSetInputScreenPosFn_DefaultImpl@@YAXHH@Z DD imagerel ?ImeSetInputScreenPosFn_DefaultImpl@@YAXHH@Z+156
	DD	imagerel ?ImeSetInputScreenPosFn_DefaultImpl@@YAXHH@Z+177
	DD	imagerel $chain$1$?ImeSetInputScreenPosFn_DefaultImpl@@YAXHH@Z
pdata	ENDS
;	COMDAT pdata
pdata	SEGMENT
$pdata$?NavUpdate@ImGui@@YAXXZ DD imagerel ?NavUpdate@ImGui@@YAXXZ
	DD	imagerel ?NavUpdate@ImGui@@YAXXZ+28
	DD	imagerel $unwind$?NavUpdate@ImGui@@YAXXZ
pdata	ENDS
;	COMDAT pdata
pdata	SEGMENT
$pdata$0$?NavUpdate@ImGui@@YAXXZ DD imagerel ?NavUpdate@ImGui@@YAXXZ+28
	DD	imagerel ?NavUpdate@ImGui@@YAXXZ+32
	DD	imagerel $chain$0$?NavUpdate@ImGui@@YAXXZ
pdata	ENDS
;	COMDAT pdata
pdata	SEGMENT
$pdata$6$?NavUpdate@ImGui@@YAXXZ DD imagerel ?NavUpdate@ImGui@@YAXXZ+32
	DD	imagerel ?NavUpdate@ImGui@@YAXXZ+2602
	DD	imagerel $chain$6$?NavUpdate@ImGui@@YAXXZ
pdata	ENDS
;	COMDAT pdata
pdata	SEGMENT
$pdata$7$?NavUpdate@ImGui@@YAXXZ DD imagerel ?NavUpdate@ImGui@@YAXXZ+2602
	DD	imagerel ?NavUpdate@ImGui@@YAXXZ+3132
	DD	imagerel $chain$7$?NavUpdate@ImGui@@YAXXZ
pdata	ENDS
;	COMDAT pdata
pdata	SEGMENT
$pdata$8$?NavUpdate@ImGui@@YAXXZ DD imagerel ?NavUpdate@ImGui@@YAXXZ+3132
	DD	imagerel ?NavUpdate@ImGui@@YAXXZ+3522
	DD	imagerel $chain$8$?NavUpdate@ImGui@@YAXXZ
pdata	ENDS
;	COMDAT pdata
pdata	SEGMENT
$pdata$9$?NavUpdate@ImGui@@YAXXZ DD imagerel ?NavUpdate@ImGui@@YAXXZ+3522
	DD	imagerel ?NavUpdate@ImGui@@YAXXZ+4415
	DD	imagerel $chain$9$?NavUpdate@ImGui@@YAXXZ
pdata	ENDS
;	COMDAT pdata
pdata	SEGMENT
$pdata$10$?NavUpdate@ImGui@@YAXXZ DD imagerel ?NavUpdate@ImGui@@YAXXZ+4415
	DD	imagerel ?NavUpdate@ImGui@@YAXXZ+5164
	DD	imagerel $chain$10$?NavUpdate@ImGui@@YAXXZ
pdata	ENDS
;	COMDAT pdata
pdata	SEGMENT
$pdata$11$?NavUpdate@ImGui@@YAXXZ DD imagerel ?NavUpdate@ImGui@@YAXXZ+5164
	DD	imagerel ?NavUpdate@ImGui@@YAXXZ+5541
	DD	imagerel $chain$11$?NavUpdate@ImGui@@YAXXZ
pdata	ENDS
;	COMDAT pdata
pdata	SEGMENT
$pdata$12$?NavUpdate@ImGui@@YAXXZ DD imagerel ?NavUpdate@ImGui@@YAXXZ+5541
	DD	imagerel ?NavUpdate@ImGui@@YAXXZ+5807
	DD	imagerel $chain$12$?NavUpdate@ImGui@@YAXXZ
pdata	ENDS
;	COMDAT pdata
pdata	SEGMENT
$pdata$13$?NavUpdate@ImGui@@YAXXZ DD imagerel ?NavUpdate@ImGui@@YAXXZ+5807
	DD	imagerel ?NavUpdate@ImGui@@YAXXZ+5863
	DD	imagerel $chain$13$?NavUpdate@ImGui@@YAXXZ
pdata	ENDS
;	COMDAT pdata
pdata	SEGMENT
$pdata$?NavUpdateWindowing@ImGui@@YAXXZ DD imagerel ?NavUpdateWindowing@ImGui@@YAXXZ
	DD	imagerel ?NavUpdateWindowing@ImGui@@YAXXZ+95
	DD	imagerel $unwind$?NavUpdateWindowing@ImGui@@YAXXZ
pdata	ENDS
;	COMDAT pdata
pdata	SEGMENT
$pdata$4$?NavUpdateWindowing@ImGui@@YAXXZ DD imagerel ?NavUpdateWindowing@ImGui@@YAXXZ+95
	DD	imagerel ?NavUpdateWindowing@ImGui@@YAXXZ+262
	DD	imagerel $chain$4$?NavUpdateWindowing@ImGui@@YAXXZ
pdata	ENDS
;	COMDAT pdata
pdata	SEGMENT
$pdata$5$?NavUpdateWindowing@ImGui@@YAXXZ DD imagerel ?NavUpdateWindowing@ImGui@@YAXXZ+262
	DD	imagerel ?NavUpdateWindowing@ImGui@@YAXXZ+279
	DD	imagerel $chain$5$?NavUpdateWindowing@ImGui@@YAXXZ
pdata	ENDS
;	COMDAT pdata
pdata	SEGMENT
$pdata$6$?NavUpdateWindowing@ImGui@@YAXXZ DD imagerel ?NavUpdateWindowing@ImGui@@YAXXZ+279
	DD	imagerel ?NavUpdateWindowing@ImGui@@YAXXZ+497
	DD	imagerel $chain$6$?NavUpdateWindowing@ImGui@@YAXXZ
pdata	ENDS
;	COMDAT pdata
pdata	SEGMENT
$pdata$7$?NavUpdateWindowing@ImGui@@YAXXZ DD imagerel ?NavUpdateWindowing@ImGui@@YAXXZ+497
	DD	imagerel ?NavUpdateWindowing@ImGui@@YAXXZ+503
	DD	imagerel $chain$7$?NavUpdateWindowing@ImGui@@YAXXZ
pdata	ENDS
;	COMDAT pdata
pdata	SEGMENT
$pdata$8$?NavUpdateWindowing@ImGui@@YAXXZ DD imagerel ?NavUpdateWindowing@ImGui@@YAXXZ+503
	DD	imagerel ?NavUpdateWindowing@ImGui@@YAXXZ+726
	DD	imagerel $chain$8$?NavUpdateWindowing@ImGui@@YAXXZ
pdata	ENDS
;	COMDAT pdata
pdata	SEGMENT
$pdata$9$?NavUpdateWindowing@ImGui@@YAXXZ DD imagerel ?NavUpdateWindowing@ImGui@@YAXXZ+726
	DD	imagerel ?NavUpdateWindowing@ImGui@@YAXXZ+824
	DD	imagerel $chain$9$?NavUpdateWindowing@ImGui@@YAXXZ
pdata	ENDS
;	COMDAT pdata
pdata	SEGMENT
$pdata$10$?NavUpdateWindowing@ImGui@@YAXXZ DD imagerel ?NavUpdateWindowing@ImGui@@YAXXZ+824
	DD	imagerel ?NavUpdateWindowing@ImGui@@YAXXZ+1000
	DD	imagerel $chain$10$?NavUpdateWindowing@ImGui@@YAXXZ
pdata	ENDS
;	COMDAT pdata
pdata	SEGMENT
$pdata$11$?NavUpdateWindowing@ImGui@@YAXXZ DD imagerel ?NavUpdateWindowing@ImGui@@YAXXZ+1000
	DD	imagerel ?NavUpdateWindowing@ImGui@@YAXXZ+1148
	DD	imagerel $chain$11$?NavUpdateWindowing@ImGui@@YAXXZ
pdata	ENDS
;	COMDAT pdata
pdata	SEGMENT
$pdata$12$?NavUpdateWindowing@ImGui@@YAXXZ DD imagerel ?NavUpdateWindowing@ImGui@@YAXXZ+1148
	DD	imagerel ?NavUpdateWindowing@ImGui@@YAXXZ+1411
	DD	imagerel $chain$12$?NavUpdateWindowing@ImGui@@YAXXZ
pdata	ENDS
;	COMDAT pdata
pdata	SEGMENT
$pdata$13$?NavUpdateWindowing@ImGui@@YAXXZ DD imagerel ?NavUpdateWindowing@ImGui@@YAXXZ+1411
	DD	imagerel ?NavUpdateWindowing@ImGui@@YAXXZ+1532
	DD	imagerel $chain$13$?NavUpdateWindowing@ImGui@@YAXXZ
pdata	ENDS
;	COMDAT pdata
pdata	SEGMENT
$pdata$14$?NavUpdateWindowing@ImGui@@YAXXZ DD imagerel ?NavUpdateWindowing@ImGui@@YAXXZ+1532
	DD	imagerel ?NavUpdateWindowing@ImGui@@YAXXZ+1677
	DD	imagerel $chain$14$?NavUpdateWindowing@ImGui@@YAXXZ
pdata	ENDS
;	COMDAT pdata
pdata	SEGMENT
$pdata$?NavUpdateWindowingOverlay@ImGui@@YAXXZ DD imagerel ?NavUpdateWindowingOverlay@ImGui@@YAXXZ
	DD	imagerel ?NavUpdateWindowingOverlay@ImGui@@YAXXZ+78
	DD	imagerel $unwind$?NavUpdateWindowingOverlay@ImGui@@YAXXZ
pdata	ENDS
;	COMDAT pdata
pdata	SEGMENT
$pdata$2$?NavUpdateWindowingOverlay@ImGui@@YAXXZ DD imagerel ?NavUpdateWindowingOverlay@ImGui@@YAXXZ+78
	DD	imagerel ?NavUpdateWindowingOverlay@ImGui@@YAXXZ+93
	DD	imagerel $chain$2$?NavUpdateWindowingOverlay@ImGui@@YAXXZ
pdata	ENDS
;	COMDAT pdata
pdata	SEGMENT
$pdata$4$?NavUpdateWindowingOverlay@ImGui@@YAXXZ DD imagerel ?NavUpdateWindowingOverlay@ImGui@@YAXXZ+93
	DD	imagerel ?NavUpdateWindowingOverlay@ImGui@@YAXXZ+544
	DD	imagerel $chain$4$?NavUpdateWindowingOverlay@ImGui@@YAXXZ
pdata	ENDS
;	COMDAT pdata
pdata	SEGMENT
$pdata$5$?NavUpdateWindowingOverlay@ImGui@@YAXXZ DD imagerel ?NavUpdateWindowingOverlay@ImGui@@YAXXZ+544
	DD	imagerel ?NavUpdateWindowingOverlay@ImGui@@YAXXZ+802
	DD	imagerel $chain$5$?NavUpdateWindowingOverlay@ImGui@@YAXXZ
pdata	ENDS
;	COMDAT pdata
pdata	SEGMENT
$pdata$6$?NavUpdateWindowingOverlay@ImGui@@YAXXZ DD imagerel ?NavUpdateWindowingOverlay@ImGui@@YAXXZ+802
	DD	imagerel ?NavUpdateWindowingOverlay@ImGui@@YAXXZ+808
	DD	imagerel $chain$6$?NavUpdateWindowingOverlay@ImGui@@YAXXZ
pdata	ENDS
;	COMDAT pdata
pdata	SEGMENT
$pdata$?NavUpdateMoveResult@ImGui@@YAXXZ DD imagerel ?NavUpdateMoveResult@ImGui@@YAXXZ
	DD	imagerel ?NavUpdateMoveResult@ImGui@@YAXXZ+60
	DD	imagerel $unwind$?NavUpdateMoveResult@ImGui@@YAXXZ
pdata	ENDS
;	COMDAT pdata
pdata	SEGMENT
$pdata$2$?NavUpdateMoveResult@ImGui@@YAXXZ DD imagerel ?NavUpdateMoveResult@ImGui@@YAXXZ+60
	DD	imagerel ?NavUpdateMoveResult@ImGui@@YAXXZ+701
	DD	imagerel $chain$2$?NavUpdateMoveResult@ImGui@@YAXXZ
pdata	ENDS
;	COMDAT pdata
pdata	SEGMENT
$pdata$3$?NavUpdateMoveResult@ImGui@@YAXXZ DD imagerel ?NavUpdateMoveResult@ImGui@@YAXXZ+701
	DD	imagerel ?NavUpdateMoveResult@ImGui@@YAXXZ+707
	DD	imagerel $chain$3$?NavUpdateMoveResult@ImGui@@YAXXZ
pdata	ENDS
;	COMDAT pdata
pdata	SEGMENT
$pdata$?NavUpdatePageUpPageDown@ImGui@@YAMXZ DD imagerel ?NavUpdatePageUpPageDown@ImGui@@YAMXZ
	DD	imagerel ?NavUpdatePageUpPageDown@ImGui@@YAMXZ+97
	DD	imagerel $unwind$?NavUpdatePageUpPageDown@ImGui@@YAMXZ
pdata	ENDS
;	COMDAT pdata
pdata	SEGMENT
$pdata$0$?NavUpdatePageUpPageDown@ImGui@@YAMXZ DD imagerel ?NavUpdatePageUpPageDown@ImGui@@YAMXZ+97
	DD	imagerel ?NavUpdatePageUpPageDown@ImGui@@YAMXZ+281
	DD	imagerel $chain$0$?NavUpdatePageUpPageDown@ImGui@@YAMXZ
pdata	ENDS
;	COMDAT pdata
pdata	SEGMENT
$pdata$1$?NavUpdatePageUpPageDown@ImGui@@YAMXZ DD imagerel ?NavUpdatePageUpPageDown@ImGui@@YAMXZ+281
	DD	imagerel ?NavUpdatePageUpPageDown@ImGui@@YAMXZ+458
	DD	imagerel $chain$1$?NavUpdatePageUpPageDown@ImGui@@YAMXZ
pdata	ENDS
;	COMDAT pdata
pdata	SEGMENT
$pdata$4$?NavUpdatePageUpPageDown@ImGui@@YAMXZ DD imagerel ?NavUpdatePageUpPageDown@ImGui@@YAMXZ+458
	DD	imagerel ?NavUpdatePageUpPageDown@ImGui@@YAMXZ+555
	DD	imagerel $chain$4$?NavUpdatePageUpPageDown@ImGui@@YAMXZ
pdata	ENDS
;	COMDAT pdata
pdata	SEGMENT
$pdata$5$?NavUpdatePageUpPageDown@ImGui@@YAMXZ DD imagerel ?NavUpdatePageUpPageDown@ImGui@@YAMXZ+555
	DD	imagerel ?NavUpdatePageUpPageDown@ImGui@@YAMXZ+615
	DD	imagerel $chain$5$?NavUpdatePageUpPageDown@ImGui@@YAMXZ
pdata	ENDS
;	COMDAT pdata
pdata	SEGMENT
$pdata$7$?NavUpdatePageUpPageDown@ImGui@@YAMXZ DD imagerel ?NavUpdatePageUpPageDown@ImGui@@YAMXZ+615
	DD	imagerel ?NavUpdatePageUpPageDown@ImGui@@YAMXZ+746
	DD	imagerel $chain$7$?NavUpdatePageUpPageDown@ImGui@@YAMXZ
pdata	ENDS
;	COMDAT pdata
pdata	SEGMENT
$pdata$9$?NavUpdatePageUpPageDown@ImGui@@YAMXZ DD imagerel ?NavUpdatePageUpPageDown@ImGui@@YAMXZ+746
	DD	imagerel ?NavUpdatePageUpPageDown@ImGui@@YAMXZ+837
	DD	imagerel $chain$9$?NavUpdatePageUpPageDown@ImGui@@YAMXZ
pdata	ENDS
;	COMDAT pdata
pdata	SEGMENT
$pdata$?NavEndFrame@ImGui@@YAXXZ DD imagerel ?NavEndFrame@ImGui@@YAXXZ
	DD	imagerel ?NavEndFrame@ImGui@@YAXXZ+150
	DD	imagerel $unwind$?NavEndFrame@ImGui@@YAXXZ
pdata	ENDS
;	COMDAT pdata
pdata	SEGMENT
$pdata$4$?NavEndFrame@ImGui@@YAXXZ DD imagerel ?NavEndFrame@ImGui@@YAXXZ+150
	DD	imagerel ?NavEndFrame@ImGui@@YAXXZ+231
	DD	imagerel $chain$4$?NavEndFrame@ImGui@@YAXXZ
pdata	ENDS
;	COMDAT pdata
pdata	SEGMENT
$pdata$6$?NavEndFrame@ImGui@@YAXXZ DD imagerel ?NavEndFrame@ImGui@@YAXXZ+231
	DD	imagerel ?NavEndFrame@ImGui@@YAXXZ+539
	DD	imagerel $chain$6$?NavEndFrame@ImGui@@YAXXZ
pdata	ENDS
;	COMDAT pdata
pdata	SEGMENT
$pdata$7$?NavEndFrame@ImGui@@YAXXZ DD imagerel ?NavEndFrame@ImGui@@YAXXZ+539
	DD	imagerel ?NavEndFrame@ImGui@@YAXXZ+768
	DD	imagerel $chain$7$?NavEndFrame@ImGui@@YAXXZ
pdata	ENDS
;	COMDAT pdata
