; Listing generated by Microsoft (R) Optimizing Compiler Version 19.23.28106.4 

include listing.inc

INCLUDELIB MSVCRT
INCLUDELIB OLDNAMES

PUBLIC	??0ImVec2@@QEAA@MM@Z				; ImVec2::ImVec2
PUBLIC	?IsBuilt@ImFontAtlas@@QEBA_NXZ			; ImFontAtlas::IsBuilt
PUBLIC	?ImGui_ImplGlfw_InitForOpenGL@@YA_NPEAUGLFWwindow@@_N@Z ; ImGui_ImplGlfw_InitForOpenGL
PUBLIC	?ImGui_ImplGlfw_InitForVulkan@@YA_NPEAUGLFWwindow@@_N@Z ; ImGui_ImplGlfw_InitForVulkan
PUBLIC	?ImGui_ImplGlfw_Shutdown@@YAXXZ			; ImGui_ImplGlfw_Shutdown
PUBLIC	?ImGui_ImplGlfw_NewFrame@@YAXXZ			; ImGui_ImplGlfw_NewFrame
PUBLIC	?ImGui_ImplGlfw_MouseButtonCallback@@YAXPEAUGLFWwindow@@HHH@Z ; ImGui_ImplGlfw_MouseButtonCallback
PUBLIC	?ImGui_ImplGlfw_ScrollCallback@@YAXPEAUGLFWwindow@@NN@Z ; ImGui_ImplGlfw_ScrollCallback
PUBLIC	?ImGui_ImplGlfw_KeyCallback@@YAXPEAUGLFWwindow@@HHHH@Z ; ImGui_ImplGlfw_KeyCallback
PUBLIC	?ImGui_ImplGlfw_CharCallback@@YAXPEAUGLFWwindow@@I@Z ; ImGui_ImplGlfw_CharCallback
PUBLIC	??_C@_0BA@LCLOGKDG@imgui_impl_glfw@		; `string'
PUBLIC	??_C@_1GG@NDBHDDHM@?$AAE?$AA?3?$AA?1?$AAr?$AAe?$AAp?$AAs?$AA?1?$AAo?$AAc?$AAo?$AAr?$AAn?$AAu?$AAt@ ; `string'
PUBLIC	??_C@_1BGC@BEKJJODG@?$AAi?$AAo?$AA?4?$AAF?$AAo?$AAn?$AAt?$AAs?$AA?9?$AA?$DO?$AAI?$AAs?$AAB?$AAu?$AAi@ ; `string'
PUBLIC	__real@3c888889
PUBLIC	__real@3e99999a
PUBLIC	__real@3f199999
PUBLIC	__real@3f800000
PUBLIC	__real@be99999a
PUBLIC	__real@bf199999
EXTRN	__report_rangecheckfailure:PROC
EXTRN	__imp__wassert:PROC
EXTRN	?GetIO@ImGui@@YAAEAUImGuiIO@@XZ:PROC		; ImGui::GetIO
EXTRN	?GetMouseCursor@ImGui@@YAHXZ:PROC		; ImGui::GetMouseCursor
EXTRN	?AddInputCharacter@ImGuiIO@@QEAAXI@Z:PROC	; ImGuiIO::AddInputCharacter
EXTRN	glfwSetErrorCallback:PROC
EXTRN	glfwGetWindowSize:PROC
EXTRN	glfwGetFramebufferSize:PROC
EXTRN	glfwGetWindowAttrib:PROC
EXTRN	glfwGetInputMode:PROC
EXTRN	glfwSetInputMode:PROC
EXTRN	glfwGetMouseButton:PROC
EXTRN	glfwGetCursorPos:PROC
EXTRN	glfwSetCursorPos:PROC
EXTRN	glfwCreateStandardCursor:PROC
EXTRN	glfwDestroyCursor:PROC
EXTRN	glfwSetCursor:PROC
EXTRN	glfwSetKeyCallback:PROC
EXTRN	glfwSetCharCallback:PROC
EXTRN	glfwSetMouseButtonCallback:PROC
EXTRN	glfwSetScrollCallback:PROC
EXTRN	glfwGetJoystickAxes:PROC
EXTRN	glfwGetJoystickButtons:PROC
EXTRN	glfwSetClipboardString:PROC
EXTRN	glfwGetClipboardString:PROC
EXTRN	glfwGetTime:PROC
EXTRN	glfwGetWin32Window:PROC
EXTRN	_fltused:DWORD
_BSS	SEGMENT
?g_Window@@3PEAUGLFWwindow@@EA DQ 01H DUP (?)		; g_Window
?g_ClientApi@@3W4GlfwClientApi@@A DD 01H DUP (?)	; g_ClientApi
	ALIGN	8

?g_Time@@3NA DQ	01H DUP (?)				; g_Time
?g_MouseJustPressed@@3PA_NA DB 05H DUP (?)		; g_MouseJustPressed
	ALIGN	8

?g_MouseCursors@@3PAPEAUGLFWcursor@@A DQ 09H DUP (?)	; g_MouseCursors
?g_InstalledCallbacks@@3_NA DB 01H DUP (?)		; g_InstalledCallbacks
	ALIGN	8

?g_PrevUserCallbackMousebutton@@3P6AXPEAUGLFWwindow@@HHH@ZEA DQ 01H DUP (?) ; g_PrevUserCallbackMousebutton
?g_PrevUserCallbackScroll@@3P6AXPEAUGLFWwindow@@NN@ZEA DQ 01H DUP (?) ; g_PrevUserCallbackScroll
?g_PrevUserCallbackKey@@3P6AXPEAUGLFWwindow@@HHHH@ZEA DQ 01H DUP (?) ; g_PrevUserCallbackKey
?g_PrevUserCallbackChar@@3P6AXPEAUGLFWwindow@@I@ZEA DQ 01H DUP (?) ; g_PrevUserCallbackChar
_BSS	ENDS
;	COMDAT pdata
pdata	SEGMENT
$pdata$?ImGui_ImplGlfw_Shutdown@@YAXXZ DD imagerel $LN12
	DD	imagerel $LN12+170
	DD	imagerel $unwind$?ImGui_ImplGlfw_Shutdown@@YAXXZ
pdata	ENDS
;	COMDAT pdata
pdata	SEGMENT
$pdata$?ImGui_ImplGlfw_NewFrame@@YAXXZ DD imagerel $LN51
	DD	imagerel $LN51+410
	DD	imagerel $unwind$?ImGui_ImplGlfw_NewFrame@@YAXXZ
pdata	ENDS
;	COMDAT pdata
pdata	SEGMENT
$pdata$1$?ImGui_ImplGlfw_NewFrame@@YAXXZ DD imagerel $LN51+410
	DD	imagerel $LN51+568
	DD	imagerel $chain$1$?ImGui_ImplGlfw_NewFrame@@YAXXZ
pdata	ENDS
;	COMDAT pdata
pdata	SEGMENT
$pdata$2$?ImGui_ImplGlfw_NewFrame@@YAXXZ DD imagerel $LN51+568
	DD	imagerel $LN51+705
	DD	imagerel $chain$2$?ImGui_ImplGlfw_NewFrame@@YAXXZ
pdata	ENDS
;	COMDAT pdata
pdata	SEGMENT
$pdata$?ImGui_ImplGlfw_MouseButtonCallback@@YAXPEAUGLFWwindow@@HHH@Z DD imagerel $LN6
	DD	imagerel $LN6+64
	DD	imagerel $unwind$?ImGui_ImplGlfw_MouseButtonCallback@@YAXPEAUGLFWwindow@@HHH@Z
pdata	ENDS
;	COMDAT pdata
pdata	SEGMENT
$pdata$?ImGui_ImplGlfw_ScrollCallback@@YAXPEAUGLFWwindow@@NN@Z DD imagerel $LN5
	DD	imagerel $LN5+100
	DD	imagerel $unwind$?ImGui_ImplGlfw_ScrollCallback@@YAXPEAUGLFWwindow@@NN@Z
pdata	ENDS
;	COMDAT pdata
pdata	SEGMENT
$pdata$?ImGui_ImplGlfw_KeyCallback@@YAXPEAUGLFWwindow@@HHHH@Z DD imagerel $LN14
	DD	imagerel $LN14+189
	DD	imagerel $unwind$?ImGui_ImplGlfw_KeyCallback@@YAXPEAUGLFWwindow@@HHHH@Z
pdata	ENDS
;	COMDAT pdata
pdata	SEGMENT
$pdata$?ImGui_ImplGlfw_CharCallback@@YAXPEAUGLFWwindow@@I@Z DD imagerel $LN5
	DD	imagerel $LN5+42
	DD	imagerel $unwind$?ImGui_ImplGlfw_CharCallback@@YAXPEAUGLFWwindow@@I@Z
pdata	ENDS
;	COMDAT pdata
pdata	SEGMENT
$pdata$?ImGui_ImplGlfw_Init@@YA_NPEAUGLFWwindow@@_NW4GlfwClientApi@@@Z DD imagerel ?ImGui_ImplGlfw_Init@@YA_NPEAUGLFWwindow@@_NW4GlfwClientApi@@@Z
	DD	imagerel ?ImGui_ImplGlfw_Init@@YA_NPEAUGLFWwindow@@_NW4GlfwClientApi@@@Z+620
	DD	imagerel $unwind$?ImGui_ImplGlfw_Init@@YA_NPEAUGLFWwindow@@_NW4GlfwClientApi@@@Z
pdata	ENDS
;	COMDAT pdata
pdata	SEGMENT
$pdata$?ImGui_ImplGlfw_UpdateMousePosAndButtons@@YAXXZ DD imagerel ?ImGui_ImplGlfw_UpdateMousePosAndButtons@@YAXXZ
	DD	imagerel ?ImGui_ImplGlfw_UpdateMousePosAndButtons@@YAXXZ+122
	DD	imagerel $unwind$?ImGui_ImplGlfw_UpdateMousePosAndButtons@@YAXXZ
pdata	ENDS
;	COMDAT pdata
pdata	SEGMENT
$pdata$1$?ImGui_ImplGlfw_UpdateMousePosAndButtons@@YAXXZ DD imagerel ?ImGui_ImplGlfw_UpdateMousePosAndButtons@@YAXXZ+122
	DD	imagerel ?ImGui_ImplGlfw_UpdateMousePosAndButtons@@YAXXZ+234
	DD	imagerel $chain$1$?ImGui_ImplGlfw_UpdateMousePosAndButtons@@YAXXZ
pdata	ENDS
;	COMDAT pdata
pdata	SEGMENT
$pdata$3$?ImGui_ImplGlfw_UpdateMousePosAndButtons@@YAXXZ DD imagerel ?ImGui_ImplGlfw_UpdateMousePosAndButtons@@YAXXZ+234
	DD	imagerel ?ImGui_ImplGlfw_UpdateMousePosAndButtons@@YAXXZ+287
	DD	imagerel $chain$3$?ImGui_ImplGlfw_UpdateMousePosAndButtons@@YAXXZ
pdata	ENDS
;	COMDAT pdata
pdata	SEGMENT
$pdata$4$?ImGui_ImplGlfw_UpdateMousePosAndButtons@@YAXXZ DD imagerel ?ImGui_ImplGlfw_UpdateMousePosAndButtons@@YAXXZ+287
	DD	imagerel ?ImGui_ImplGlfw_UpdateMousePosAndButtons@@YAXXZ+293
	DD	imagerel $chain$4$?ImGui_ImplGlfw_UpdateMousePosAndButtons@@YAXXZ
pdata	ENDS
;	COMDAT pdata
pdata	SEGMENT
$pdata$?ImGui_ImplGlfw_UpdateMouseCursor@@YAXXZ DD imagerel ?ImGui_ImplGlfw_UpdateMouseCursor@@YAXXZ
	DD	imagerel ?ImGui_ImplGlfw_UpdateMouseCursor@@YAXXZ+143
	DD	imagerel $unwind$?ImGui_ImplGlfw_UpdateMouseCursor@@YAXXZ
pdata	ENDS
;	COMDAT pdata
pdata	SEGMENT
$pdata$?ImGui_ImplGlfw_UpdateGamepads@@YAXXZ DD imagerel ?ImGui_ImplGlfw_UpdateGamepads@@YAXXZ
	DD	imagerel ?ImGui_ImplGlfw_UpdateGamepads@@YAXXZ+74
	DD	imagerel $unwind$?ImGui_ImplGlfw_UpdateGamepads@@YAXXZ
pdata	ENDS
;	COMDAT pdata
pdata	SEGMENT
$pdata$0$?ImGui_ImplGlfw_UpdateGamepads@@YAXXZ DD imagerel ?ImGui_ImplGlfw_UpdateGamepads@@YAXXZ+74
	DD	imagerel ?ImGui_ImplGlfw_UpdateGamepads@@YAXXZ+618
	DD	imagerel $chain$0$?ImGui_ImplGlfw_UpdateGamepads@@YAXXZ
pdata	ENDS
;	COMDAT pdata
pdata	SEGMENT
$pdata$1$?ImGui_ImplGlfw_UpdateGamepads@@YAXXZ DD imagerel ?ImGui_ImplGlfw_UpdateGamepads@@YAXXZ+618
	DD	imagerel ?ImGui_ImplGlfw_UpdateGamepads@@YAXXZ+661
	DD	imagerel $chain$1$?ImGui_ImplGlfw_UpdateGamepads@@YAXXZ
pdata	ENDS
;	COMDAT __real@bf199999
CONST	SEGMENT
__real@bf199999 DD 0bf199999r			; -0.6
CONST	ENDS
;	COMDAT __real@be99999a
CONST	SEGMENT
__real@be99999a DD 0be99999ar			; -0.3
CONST	ENDS
;	COMDAT __real@3f800000
CONST	SEGMENT
__real@3f800000 DD 03f800000r			; 1
CONST	ENDS
;	COMDAT __real@3f199999
CONST	SEGMENT
__real@3f199999 DD 03f199999r			; 0.6
CONST	ENDS
;	COMDAT __real@3e99999a
CONST	SEGMENT
__real@3e99999a DD 03e99999ar			; 0.3
CONST	ENDS
;	COMDAT __real@3c888889
CONST	SEGMENT
__real@3c888889 DD 03c888889r			; 0.0166667
CONST	ENDS
;	COMDAT ??_C@_1BGC@BEKJJODG@?$AAi?$AAo?$AA?4?$AAF?$AAo?$AAn?$AAt?$AAs?$AA?9?$AA?$DO?$AAI?$AAs?$AAB?$AAu?$AAi@
CONST	SEGMENT
??_C@_1BGC@BEKJJODG@?$AAi?$AAo?$AA?4?$AAF?$AAo?$AAn?$AAt?$AAs?$AA?9?$AA?$DO?$AAI?$AAs?$AAB?$AAu?$AAi@ DB 'i'
	DB	00H, 'o', 00H, '.', 00H, 'F', 00H, 'o', 00H, 'n', 00H, 't', 00H
	DB	's', 00H, '-', 00H, '>', 00H, 'I', 00H, 's', 00H, 'B', 00H, 'u'
	DB	00H, 'i', 00H, 'l', 00H, 't', 00H, '(', 00H, ')', 00H, ' ', 00H
	DB	'&', 00H, '&', 00H, ' ', 00H, '"', 00H, 'F', 00H, 'o', 00H, 'n'
	DB	00H, 't', 00H, ' ', 00H, 'a', 00H, 't', 00H, 'l', 00H, 'a', 00H
	DB	's', 00H, ' ', 00H, 'n', 00H, 'o', 00H, 't', 00H, ' ', 00H, 'b'
	DB	00H, 'u', 00H, 'i', 00H, 'l', 00H, 't', 00H, '!', 00H, ' ', 00H
	DB	'I', 00H, 't', 00H, ' ', 00H, 'i', 00H, 's', 00H, ' ', 00H, 'g'
	DB	00H, 'e', 00H, 'n', 00H, 'e', 00H, 'r', 00H, 'a', 00H, 'l', 00H
	DB	'l', 00H, 'y', 00H, ' ', 00H, 'b', 00H, 'u', 00H, 'i', 00H, 'l'
	DB	00H, 't', 00H, ' ', 00H, 'b', 00H, 'y', 00H, ' ', 00H, 't', 00H
	DB	'h', 00H, 'e', 00H, ' ', 00H, 'r', 00H, 'e', 00H, 'n', 00H, 'd'
	DB	00H, 'e', 00H, 'r', 00H, 'e', 00H, 'r', 00H, ' ', 00H, 'b', 00H
	DB	'a', 00H, 'c', 00H, 'k', 00H, '-', 00H, 'e', 00H, 'n', 00H, 'd'
	DB	00H, '.', 00H, ' ', 00H, 'M', 00H, 'i', 00H, 's', 00H, 's', 00H
	DB	'i', 00H, 'n', 00H, 'g', 00H, ' ', 00H, 'c', 00H, 'a', 00H, 'l'
	DB	00H, 'l', 00H, ' ', 00H, 't', 00H, 'o', 00H, ' ', 00H, 'r', 00H
	DB	'e', 00H, 'n', 00H, 'd', 00H, 'e', 00H, 'r', 00H, 'e', 00H, 'r'
	DB	00H, ' ', 00H, '_', 00H, 'N', 00H, 'e', 00H, 'w', 00H, 'F', 00H
	DB	'r', 00H, 'a', 00H, 'm', 00H, 'e', 00H, '(', 00H, ')', 00H, ' '
	DB	00H, 'f', 00H, 'u', 00H, 'n', 00H, 'c', 00H, 't', 00H, 'i', 00H
	DB	'o', 00H, 'n', 00H, '?', 00H, ' ', 00H, 'e', 00H, '.', 00H, 'g'
	DB	00H, '.', 00H, ' ', 00H, 'I', 00H, 'm', 00H, 'G', 00H, 'u', 00H
	DB	'i', 00H, '_', 00H, 'I', 00H, 'm', 00H, 'p', 00H, 'l', 00H, 'O'
	DB	00H, 'p', 00H, 'e', 00H, 'n', 00H, 'G', 00H, 'L', 00H, '3', 00H
	DB	'_', 00H, 'N', 00H, 'e', 00H, 'w', 00H, 'F', 00H, 'r', 00H, 'a'
	DB	00H, 'm', 00H, 'e', 00H, '(', 00H, ')', 00H, '.', 00H, '"', 00H
	DB	00H, 00H					; `string'
CONST	ENDS
;	COMDAT ??_C@_1GG@NDBHDDHM@?$AAE?$AA?3?$AA?1?$AAr?$AAe?$AAp?$AAs?$AA?1?$AAo?$AAc?$AAo?$AAr?$AAn?$AAu?$AAt@
CONST	SEGMENT
??_C@_1GG@NDBHDDHM@?$AAE?$AA?3?$AA?1?$AAr?$AAe?$AAp?$AAs?$AA?1?$AAo?$AAc?$AAo?$AAr?$AAn?$AAu?$AAt@ DB 'E'
	DB	00H, ':', 00H, '/', 00H, 'r', 00H, 'e', 00H, 'p', 00H, 's', 00H
	DB	'/', 00H, 'o', 00H, 'c', 00H, 'o', 00H, 'r', 00H, 'n', 00H, 'u'
	DB	00H, 't', 00H, '/', 00H, 'i', 00H, 'm', 00H, 'g', 00H, 'u', 00H
	DB	'i', 00H, '/', 00H, 'e', 00H, 'x', 00H, 'a', 00H, 'm', 00H, 'p'
	DB	00H, 'l', 00H, 'e', 00H, 's', 00H, '/', 00H, 'i', 00H, 'm', 00H
	DB	'g', 00H, 'u', 00H, 'i', 00H, '_', 00H, 'i', 00H, 'm', 00H, 'p'
	DB	00H, 'l', 00H, '_', 00H, 'g', 00H, 'l', 00H, 'f', 00H, 'w', 00H
	DB	'.', 00H, 'c', 00H, 'p', 00H, 'p', 00H, 00H, 00H ; `string'
CONST	ENDS
;	COMDAT ??_C@_0BA@LCLOGKDG@imgui_impl_glfw@
CONST	SEGMENT
??_C@_0BA@LCLOGKDG@imgui_impl_glfw@ DB 'imgui_impl_glfw', 00H ; `string'
CONST	ENDS
;	COMDAT xdata
xdata	SEGMENT
$chain$1$?ImGui_ImplGlfw_UpdateGamepads@@YAXXZ DD 021H
	DD	imagerel ?ImGui_ImplGlfw_UpdateGamepads@@YAXXZ
	DD	imagerel ?ImGui_ImplGlfw_UpdateGamepads@@YAXXZ+74
	DD	imagerel $unwind$?ImGui_ImplGlfw_UpdateGamepads@@YAXXZ
xdata	ENDS
;	COMDAT xdata
xdata	SEGMENT
$chain$0$?ImGui_ImplGlfw_UpdateGamepads@@YAXXZ DD 020521H
	DD	087405H
	DD	imagerel ?ImGui_ImplGlfw_UpdateGamepads@@YAXXZ
	DD	imagerel ?ImGui_ImplGlfw_UpdateGamepads@@YAXXZ+74
	DD	imagerel $unwind$?ImGui_ImplGlfw_UpdateGamepads@@YAXXZ
xdata	ENDS
;	COMDAT xdata
xdata	SEGMENT
$unwind$?ImGui_ImplGlfw_UpdateGamepads@@YAXXZ DD 020601H
	DD	030023206H
xdata	ENDS
;	COMDAT xdata
xdata	SEGMENT
$unwind$?ImGui_ImplGlfw_UpdateMouseCursor@@YAXXZ DD 020601H
	DD	030023206H
xdata	ENDS
;	COMDAT xdata
xdata	SEGMENT
$chain$4$?ImGui_ImplGlfw_UpdateMousePosAndButtons@@YAXXZ DD 021H
	DD	imagerel ?ImGui_ImplGlfw_UpdateMousePosAndButtons@@YAXXZ
	DD	imagerel ?ImGui_ImplGlfw_UpdateMousePosAndButtons@@YAXXZ+122
	DD	imagerel $unwind$?ImGui_ImplGlfw_UpdateMousePosAndButtons@@YAXXZ
xdata	ENDS
;	COMDAT xdata
xdata	SEGMENT
$chain$3$?ImGui_ImplGlfw_UpdateMousePosAndButtons@@YAXXZ DD 040021H
	DD	027800H
	DD	036800H
	DD	imagerel ?ImGui_ImplGlfw_UpdateMousePosAndButtons@@YAXXZ
	DD	imagerel ?ImGui_ImplGlfw_UpdateMousePosAndButtons@@YAXXZ+122
	DD	imagerel $unwind$?ImGui_ImplGlfw_UpdateMousePosAndButtons@@YAXXZ
xdata	ENDS
;	COMDAT xdata
xdata	SEGMENT
$chain$1$?ImGui_ImplGlfw_UpdateMousePosAndButtons@@YAXXZ DD 041221H
	DD	027812H
	DD	036805H
	DD	imagerel ?ImGui_ImplGlfw_UpdateMousePosAndButtons@@YAXXZ
	DD	imagerel ?ImGui_ImplGlfw_UpdateMousePosAndButtons@@YAXXZ+122
	DD	imagerel $unwind$?ImGui_ImplGlfw_UpdateMousePosAndButtons@@YAXXZ
xdata	ENDS
;	COMDAT xdata
xdata	SEGMENT
$unwind$?ImGui_ImplGlfw_UpdateMousePosAndButtons@@YAXXZ DD 081001H
	DD	0103410H
	DD	0f00c7210H
	DD	07008e00aH
	DD	050066007H
xdata	ENDS
;	COMDAT xdata
xdata	SEGMENT
$unwind$?ImGui_ImplGlfw_Init@@YA_NPEAUGLFWwindow@@_NW4GlfwClientApi@@@Z DD 081401H
	DD	086414H
	DD	075414H
	DD	063414H
	DD	070103214H
xdata	ENDS
;	COMDAT xdata
xdata	SEGMENT
$unwind$?ImGui_ImplGlfw_CharCallback@@YAXPEAUGLFWwindow@@I@Z DD 020601H
	DD	030023206H
xdata	ENDS
;	COMDAT xdata
xdata	SEGMENT
$unwind$?ImGui_ImplGlfw_KeyCallback@@YAXPEAUGLFWwindow@@HHHH@Z DD 040a01H
	DD	08340aH
	DD	07006520aH
xdata	ENDS
;	COMDAT xdata
xdata	SEGMENT
$unwind$?ImGui_ImplGlfw_ScrollCallback@@YAXPEAUGLFWwindow@@NN@Z DD 051801H
	DD	027818H
	DD	036810H
	DD	08204H
xdata	ENDS
;	COMDAT xdata
xdata	SEGMENT
$unwind$?ImGui_ImplGlfw_MouseButtonCallback@@YAXPEAUGLFWwindow@@HHH@Z DD 040a01H
	DD	06340aH
	DD	07006320aH
xdata	ENDS
;	COMDAT xdata
xdata	SEGMENT
$chain$2$?ImGui_ImplGlfw_NewFrame@@YAXXZ DD 021H
	DD	imagerel $LN51
	DD	imagerel $LN51+410
	DD	imagerel $unwind$?ImGui_ImplGlfw_NewFrame@@YAXXZ
xdata	ENDS
;	COMDAT xdata
xdata	SEGMENT
$chain$1$?ImGui_ImplGlfw_NewFrame@@YAXXZ DD 041221H
	DD	037812H
	DD	046805H
	DD	imagerel $LN51
	DD	imagerel $LN51+410
	DD	imagerel $unwind$?ImGui_ImplGlfw_NewFrame@@YAXXZ
xdata	ENDS
;	COMDAT xdata
xdata	SEGMENT
$unwind$?ImGui_ImplGlfw_NewFrame@@YAXXZ DD 070d01H
	DD	0f009a20dH
	DD	07005e007H
	DD	050036004H
	DD	03002H
xdata	ENDS
;	COMDAT xdata
xdata	SEGMENT
$unwind$?ImGui_ImplGlfw_Shutdown@@YAXXZ DD 060f01H
	DD	07640fH
	DD	06340fH
	DD	0700b320fH
xdata	ENDS
; Function compile flags: /Ogtpy
;	COMDAT ?ImGui_ImplGlfw_UpdateGamepads@@YAXXZ
_TEXT	SEGMENT
buttons_count$ = 48
axes_count$ = 56
?ImGui_ImplGlfw_UpdateGamepads@@YAXXZ PROC		; ImGui_ImplGlfw_UpdateGamepads, COMDAT
; File E:\reps\ocornut\imgui\examples\imgui_impl_glfw.cpp
; Line 309
	push	rbx
	sub	rsp, 32					; 00000020H
; Line 310
	call	?GetIO@ImGui@@YAAEAUImGuiIO@@XZ		; ImGui::GetIO
	mov	rbx, rax
	xorps	xmm0, xmm0
; Line 311
	xor	eax, eax
	movups	XMMWORD PTR [rbx+836], xmm0
	movups	XMMWORD PTR [rbx+852], xmm0
	movups	XMMWORD PTR [rbx+868], xmm0
	movups	XMMWORD PTR [rbx+884], xmm0
	movups	XMMWORD PTR [rbx+900], xmm0
	mov	DWORD PTR [rbx+916], eax
; Line 312
	test	BYTE PTR [rbx], 2
	je	$LN24@ImGui_Impl
; Line 319
	lea	rdx, QWORD PTR axes_count$[rsp]
	mov	QWORD PTR [rsp+64], rdi
	xor	ecx, ecx
	mov	DWORD PTR axes_count$[rsp], eax
	mov	DWORD PTR buttons_count$[rsp], eax
	call	glfwGetJoystickAxes
; Line 320
	lea	rdx, QWORD PTR buttons_count$[rsp]
	xor	ecx, ecx
	mov	rdi, rax
	call	glfwGetJoystickButtons
; Line 321
	cmp	DWORD PTR buttons_count$[rsp], 0
	jle	SHORT $LN3@ImGui_Impl
	cmp	BYTE PTR [rax], 1
	jne	SHORT $LN3@ImGui_Impl
	mov	DWORD PTR [rbx+836], 1065353216		; 3f800000H
$LN3@ImGui_Impl:
; Line 322
	cmp	DWORD PTR buttons_count$[rsp], 1
	jle	SHORT $LN4@ImGui_Impl
	cmp	BYTE PTR [rax+1], 1
	jne	SHORT $LN4@ImGui_Impl
	mov	DWORD PTR [rbx+840], 1065353216		; 3f800000H
$LN4@ImGui_Impl:
; Line 323
	cmp	DWORD PTR buttons_count$[rsp], 2
	jle	SHORT $LN5@ImGui_Impl
	cmp	BYTE PTR [rax+2], 1
	jne	SHORT $LN5@ImGui_Impl
	mov	DWORD PTR [rbx+848], 1065353216		; 3f800000H
$LN5@ImGui_Impl:
; Line 324
	cmp	DWORD PTR buttons_count$[rsp], 3
	jle	SHORT $LN6@ImGui_Impl
	cmp	BYTE PTR [rax+3], 1
	jne	SHORT $LN6@ImGui_Impl
	mov	DWORD PTR [rbx+844], 1065353216		; 3f800000H
$LN6@ImGui_Impl:
; Line 325
	cmp	DWORD PTR buttons_count$[rsp], 13
	jle	SHORT $LN7@ImGui_Impl
	cmp	BYTE PTR [rax+13], 1
	jne	SHORT $LN7@ImGui_Impl
	mov	DWORD PTR [rbx+852], 1065353216		; 3f800000H
$LN7@ImGui_Impl:
; Line 326
	cmp	DWORD PTR buttons_count$[rsp], 11
	jle	SHORT $LN8@ImGui_Impl
	cmp	BYTE PTR [rax+11], 1
	jne	SHORT $LN8@ImGui_Impl
	mov	DWORD PTR [rbx+856], 1065353216		; 3f800000H
$LN8@ImGui_Impl:
; Line 327
	cmp	DWORD PTR buttons_count$[rsp], 10
	jle	SHORT $LN9@ImGui_Impl
	cmp	BYTE PTR [rax+10], 1
	jne	SHORT $LN9@ImGui_Impl
	mov	DWORD PTR [rbx+860], 1065353216		; 3f800000H
$LN9@ImGui_Impl:
; Line 328
	cmp	DWORD PTR buttons_count$[rsp], 12
	jle	SHORT $LN10@ImGui_Impl
	cmp	BYTE PTR [rax+12], 1
	jne	SHORT $LN10@ImGui_Impl
	mov	DWORD PTR [rbx+864], 1065353216		; 3f800000H
$LN10@ImGui_Impl:
; Line 329
	cmp	DWORD PTR buttons_count$[rsp], 4
	jle	SHORT $LN11@ImGui_Impl
	cmp	BYTE PTR [rax+4], 1
	jne	SHORT $LN11@ImGui_Impl
	mov	DWORD PTR [rbx+884], 1065353216		; 3f800000H
$LN11@ImGui_Impl:
; Line 330
	cmp	DWORD PTR buttons_count$[rsp], 5
	jle	SHORT $LN12@ImGui_Impl
	cmp	BYTE PTR [rax+5], 1
	jne	SHORT $LN12@ImGui_Impl
	mov	DWORD PTR [rbx+888], 1065353216		; 3f800000H
$LN12@ImGui_Impl:
; Line 331
	cmp	DWORD PTR buttons_count$[rsp], 4
	jle	SHORT $LN13@ImGui_Impl
	cmp	BYTE PTR [rax+4], 1
	jne	SHORT $LN13@ImGui_Impl
	mov	DWORD PTR [rbx+892], 1065353216		; 3f800000H
$LN13@ImGui_Impl:
; Line 332
	cmp	DWORD PTR buttons_count$[rsp], 5
	jle	SHORT $LN14@ImGui_Impl
	cmp	BYTE PTR [rax+5], 1
	jne	SHORT $LN14@ImGui_Impl
	mov	DWORD PTR [rbx+896], 1065353216		; 3f800000H
$LN14@ImGui_Impl:
; Line 333
	mov	eax, DWORD PTR axes_count$[rsp]
	movss	xmm2, DWORD PTR __real@be99999a
	test	eax, eax
	jle	SHORT $LN26@ImGui_Impl
	movss	xmm0, DWORD PTR [rdi]
	jmp	SHORT $LN27@ImGui_Impl
$LN26@ImGui_Impl:
	movaps	xmm0, xmm2
$LN27@ImGui_Impl:
	movss	xmm1, DWORD PTR __real@3f800000
	subss	xmm0, xmm2
	movaps	xmm3, xmm1
	divss	xmm0, DWORD PTR __real@bf199999
	minss	xmm3, xmm0
	comiss	xmm3, DWORD PTR [rbx+868]
	jbe	SHORT $LN16@ImGui_Impl
	movss	DWORD PTR [rbx+868], xmm3
	mov	eax, DWORD PTR axes_count$[rsp]
$LN16@ImGui_Impl:
; Line 334
	movss	xmm3, DWORD PTR __real@3e99999a
	test	eax, eax
	jle	SHORT $LN28@ImGui_Impl
	movss	xmm0, DWORD PTR [rdi]
	jmp	SHORT $LN29@ImGui_Impl
$LN28@ImGui_Impl:
	movaps	xmm0, xmm3
$LN29@ImGui_Impl:
	movss	xmm5, DWORD PTR __real@3f199999
	subss	xmm0, xmm3
	movaps	xmm4, xmm1
	divss	xmm0, xmm5
	minss	xmm4, xmm0
	comiss	xmm4, DWORD PTR [rbx+872]
	jbe	SHORT $LN18@ImGui_Impl
	movss	DWORD PTR [rbx+872], xmm4
	mov	eax, DWORD PTR axes_count$[rsp]
$LN18@ImGui_Impl:
; Line 335
	cmp	eax, 1
	jle	SHORT $LN30@ImGui_Impl
	movss	xmm0, DWORD PTR [rdi+4]
	jmp	SHORT $LN31@ImGui_Impl
$LN30@ImGui_Impl:
	movaps	xmm0, xmm3
$LN31@ImGui_Impl:
	subss	xmm0, xmm3
	movaps	xmm3, xmm1
	divss	xmm0, xmm5
	minss	xmm3, xmm0
	comiss	xmm3, DWORD PTR [rbx+876]
	jbe	SHORT $LN20@ImGui_Impl
	movss	DWORD PTR [rbx+876], xmm3
	mov	eax, DWORD PTR axes_count$[rsp]
$LN20@ImGui_Impl:
; Line 336
	cmp	eax, 1
	jle	SHORT $LN32@ImGui_Impl
	movss	xmm0, DWORD PTR [rdi+4]
	jmp	SHORT $LN33@ImGui_Impl
$LN32@ImGui_Impl:
	movaps	xmm0, xmm2
$LN33@ImGui_Impl:
	mov	rdi, QWORD PTR [rsp+64]
	subss	xmm0, xmm2
	divss	xmm0, DWORD PTR __real@bf199999
	minss	xmm1, xmm0
	comiss	xmm1, DWORD PTR [rbx+880]
	jbe	SHORT $LN22@ImGui_Impl
	movss	DWORD PTR [rbx+880], xmm1
	mov	eax, DWORD PTR axes_count$[rsp]
$LN22@ImGui_Impl:
; Line 339
	test	eax, eax
	jle	SHORT $LN23@ImGui_Impl
	cmp	DWORD PTR buttons_count$[rsp], 0
	jle	SHORT $LN23@ImGui_Impl
; Line 340
	or	DWORD PTR [rbx+4], 1
; Line 343
	add	rsp, 32					; 00000020H
	pop	rbx
	ret	0
$LN23@ImGui_Impl:
; Line 342
	and	DWORD PTR [rbx+4], -2
$LN24@ImGui_Impl:
; Line 343
	add	rsp, 32					; 00000020H
	pop	rbx
	ret	0
?ImGui_ImplGlfw_UpdateGamepads@@YAXXZ ENDP		; ImGui_ImplGlfw_UpdateGamepads
_TEXT	ENDS
; Function compile flags: /Ogtpy
;	COMDAT ?ImGui_ImplGlfw_UpdateMouseCursor@@YAXXZ
_TEXT	SEGMENT
?ImGui_ImplGlfw_UpdateMouseCursor@@YAXXZ PROC		; ImGui_ImplGlfw_UpdateMouseCursor, COMDAT
; File E:\reps\ocornut\imgui\examples\imgui_impl_glfw.cpp
; Line 288
	push	rbx
	sub	rsp, 32					; 00000020H
; Line 289
	call	?GetIO@ImGui@@YAAEAUImGuiIO@@XZ		; ImGui::GetIO
	mov	rbx, rax
; Line 290
	test	BYTE PTR [rax], 32			; 00000020H
	jne	SHORT $LN3@ImGui_Impl
	mov	rcx, QWORD PTR ?g_Window@@3PEAUGLFWwindow@@EA
	mov	edx, 208897				; 00033001H
	call	glfwGetInputMode
	cmp	eax, 212995				; 00034003H
	je	SHORT $LN3@ImGui_Impl
; Line 293
	call	?GetMouseCursor@ImGui@@YAHXZ		; ImGui::GetMouseCursor
; Line 294
	cmp	eax, -1
	je	SHORT $LN6@ImGui_Impl
	cmp	BYTE PTR [rbx+192], 0
	jne	SHORT $LN6@ImGui_Impl
; Line 303
	mov	rdx, QWORD PTR ?g_MouseCursors@@3PAPEAUGLFWcursor@@A
	lea	rcx, OFFSET FLAT:?g_MouseCursors@@3PAPEAUGLFWcursor@@A
	cdqe
	mov	rcx, QWORD PTR [rcx+rax*8]
	test	rcx, rcx
	cmovne	rdx, rcx
	mov	rcx, QWORD PTR ?g_Window@@3PEAUGLFWwindow@@EA
	call	glfwSetCursor
; Line 304
	mov	r8d, 212993				; 00034001H
	jmp	SHORT $LN10@ImGui_Impl
$LN6@ImGui_Impl:
; Line 297
	mov	r8d, 212994				; 00034002H
$LN10@ImGui_Impl:
; Line 306
	mov	rcx, QWORD PTR ?g_Window@@3PEAUGLFWwindow@@EA
	mov	edx, 208897				; 00033001H
	add	rsp, 32					; 00000020H
	pop	rbx
	jmp	glfwSetInputMode
$LN3@ImGui_Impl:
	add	rsp, 32					; 00000020H
	pop	rbx
	ret	0
?ImGui_ImplGlfw_UpdateMouseCursor@@YAXXZ ENDP		; ImGui_ImplGlfw_UpdateMouseCursor
_TEXT	ENDS
; Function compile flags: /Ogtpy
;	COMDAT ?ImGui_ImplGlfw_UpdateMousePosAndButtons@@YAXXZ
_TEXT	SEGMENT
mouse_x$3 = 112
mouse_y$4 = 120
?ImGui_ImplGlfw_UpdateMousePosAndButtons@@YAXXZ PROC	; ImGui_ImplGlfw_UpdateMousePosAndButtons, COMDAT
; File E:\reps\ocornut\imgui\examples\imgui_impl_glfw.cpp
; Line 254
	mov	QWORD PTR [rsp+24], rbx
	push	rbp
	push	rsi
	push	rdi
	push	r14
	push	r15
	sub	rsp, 64					; 00000040H
; Line 256
	call	?GetIO@ImGui@@YAAEAUImGuiIO@@XZ		; ImGui::GetIO
; Line 257
	xor	edi, edi
	lea	r15, OFFSET FLAT:?g_MouseJustPressed@@3PA_NA
	mov	r14, rax
	mov	rbp, rax
	sub	r14, r15
	mov	ebx, edi
	npad	7
$LL4@ImGui_Impl:
; Line 260
	cmp	BYTE PTR [rbx+r15], 0
	lea	rsi, QWORD PTR [rbx+r15]
	jne	SHORT $LN9@ImGui_Impl
	mov	rcx, QWORD PTR ?g_Window@@3PEAUGLFWwindow@@EA
	mov	edx, edi
	call	glfwGetMouseButton
	test	eax, eax
	je	SHORT $LN10@ImGui_Impl
$LN9@ImGui_Impl:
	mov	al, 1
$LN10@ImGui_Impl:
	mov	BYTE PTR [r14+rsi+304], al
; Line 261
	cmp	rbx, 5
	jae	$LN11@ImGui_Impl
	inc	edi
	mov	BYTE PTR [rsi], 0
	inc	rbx
	cmp	edi, 5
	jl	SHORT $LL4@ImGui_Impl
; Line 270
	mov	rcx, QWORD PTR ?g_Window@@3PEAUGLFWwindow@@EA
	mov	edx, 131073				; 00020001H
	movaps	XMMWORD PTR [rsp+48], xmm6
	movss	xmm6, DWORD PTR [rbp+296]
	movaps	XMMWORD PTR [rsp+32], xmm7
	movss	xmm7, DWORD PTR [rbp+300]
	mov	DWORD PTR [rbp+300], -8388609		; ff7fffffH
	mov	DWORD PTR [rbp+296], -8388609		; ff7fffffH
	call	glfwGetWindowAttrib
	test	eax, eax
; Line 272
	je	SHORT $LN22@ImGui_Impl
; Line 274
	cmp	BYTE PTR [rbp+923], 0
	mov	rcx, QWORD PTR ?g_Window@@3PEAUGLFWwindow@@EA
	je	SHORT $LN6@ImGui_Impl
; Line 276
	cvtps2pd xmm2, xmm7
	cvtps2pd xmm1, xmm6
	call	glfwSetCursorPos
$LN22@ImGui_Impl:
; Line 285
	movaps	xmm6, XMMWORD PTR [rsp+48]
	movaps	xmm7, XMMWORD PTR [rsp+32]
	mov	rbx, QWORD PTR [rsp+128]
	add	rsp, 64					; 00000040H
	pop	r15
	pop	r14
	pop	rdi
	pop	rsi
	pop	rbp
	ret	0
$LN6@ImGui_Impl:
; Line 281
	lea	r8, QWORD PTR mouse_y$4[rsp]
	lea	rdx, QWORD PTR mouse_x$3[rsp]
	call	glfwGetCursorPos
	movsd	xmm0, QWORD PTR mouse_x$3[rsp]
	movsd	xmm1, QWORD PTR mouse_y$4[rsp]
; Line 282
	cvtpd2ps xmm0, xmm0
	cvtpd2ps xmm1, xmm1
	movss	DWORD PTR [rbp+296], xmm0
	movss	DWORD PTR [rbp+300], xmm1
	jmp	SHORT $LN22@ImGui_Impl
$LN11@ImGui_Impl:
; Line 261
	call	__report_rangecheckfailure
	int	3
$LN23@ImGui_Impl:
?ImGui_ImplGlfw_UpdateMousePosAndButtons@@YAXXZ ENDP	; ImGui_ImplGlfw_UpdateMousePosAndButtons
_TEXT	ENDS
; Function compile flags: /Ogtpy
;	COMDAT ?ImGui_ImplGlfw_Init@@YA_NPEAUGLFWwindow@@_NW4GlfwClientApi@@@Z
_TEXT	SEGMENT
window$ = 48
install_callbacks$ = 56
client_api$ = 64
?ImGui_ImplGlfw_Init@@YA_NPEAUGLFWwindow@@_NW4GlfwClientApi@@@Z PROC ; ImGui_ImplGlfw_Init, COMDAT
; File E:\reps\ocornut\imgui\examples\imgui_impl_glfw.cpp
; Line 142
	mov	QWORD PTR [rsp+8], rbx
	mov	QWORD PTR [rsp+16], rbp
	mov	QWORD PTR [rsp+24], rsi
	push	rdi
	sub	rsp, 32					; 00000020H
	xorps	xmm0, xmm0
; Line 143
	mov	QWORD PTR ?g_Window@@3PEAUGLFWwindow@@EA, rcx
; Line 144
	movsd	QWORD PTR ?g_Time@@3NA, xmm0
	mov	ebp, r8d
	movzx	edi, dl
	mov	rsi, rcx
; Line 147
	call	?GetIO@ImGui@@YAAEAUImGuiIO@@XZ		; ImGui::GetIO
; Line 178
	mov	rcx, QWORD PTR ?g_Window@@3PEAUGLFWwindow@@EA
	mov	rbx, rax
	or	DWORD PTR [rax+4], 6
	lea	rax, OFFSET FLAT:??_C@_0BA@LCLOGKDG@imgui_impl_glfw@
	mov	QWORD PTR [rbx+208], rax
	lea	rax, OFFSET FLAT:?ImGui_ImplGlfw_SetClipboardText@@YAXPEAXPEBD@Z ; ImGui_ImplGlfw_SetClipboardText
	mov	QWORD PTR [rbx+256], rax
	lea	rax, OFFSET FLAT:?ImGui_ImplGlfw_GetClipboardText@@YAPEBDPEAX@Z ; ImGui_ImplGlfw_GetClipboardText
	mov	QWORD PTR [rbx+248], rax
	mov	DWORD PTR [rbx+52], 258			; 00000102H
	mov	DWORD PTR [rbx+56], 263			; 00000107H
	mov	DWORD PTR [rbx+60], 262			; 00000106H
	mov	DWORD PTR [rbx+64], 265			; 00000109H
	mov	DWORD PTR [rbx+68], 264			; 00000108H
	mov	DWORD PTR [rbx+72], 266			; 0000010aH
	mov	DWORD PTR [rbx+76], 267			; 0000010bH
	mov	DWORD PTR [rbx+80], 268			; 0000010cH
	mov	DWORD PTR [rbx+84], 269			; 0000010dH
	mov	DWORD PTR [rbx+88], 260			; 00000104H
	mov	DWORD PTR [rbx+92], 261			; 00000105H
	mov	DWORD PTR [rbx+96], 259			; 00000103H
	mov	DWORD PTR [rbx+100], 32			; 00000020H
	mov	DWORD PTR [rbx+104], 257		; 00000101H
	mov	DWORD PTR [rbx+108], 256		; 00000100H
	mov	DWORD PTR [rbx+112], 335		; 0000014fH
	mov	DWORD PTR [rbx+116], 65			; 00000041H
	mov	DWORD PTR [rbx+120], 67			; 00000043H
	mov	DWORD PTR [rbx+124], 86			; 00000056H
	mov	DWORD PTR [rbx+128], 88			; 00000058H
	mov	DWORD PTR [rbx+132], 89			; 00000059H
	mov	DWORD PTR [rbx+136], 90			; 0000005aH
	mov	QWORD PTR [rbx+264], rcx
; Line 180
	call	glfwGetWin32Window
; Line 187
	xor	ecx, ecx
	mov	QWORD PTR [rbx+280], rax
	call	glfwSetErrorCallback
; Line 188
	mov	ecx, 221185				; 00036001H
	mov	rbx, rax
	call	glfwCreateStandardCursor
; Line 189
	mov	ecx, 221186				; 00036002H
	mov	QWORD PTR ?g_MouseCursors@@3PAPEAUGLFWcursor@@A, rax
	call	glfwCreateStandardCursor
; Line 190
	mov	ecx, 221190				; 00036006H
	mov	QWORD PTR ?g_MouseCursors@@3PAPEAUGLFWcursor@@A+8, rax
	call	glfwCreateStandardCursor
; Line 191
	mov	ecx, 221189				; 00036005H
	mov	QWORD PTR ?g_MouseCursors@@3PAPEAUGLFWcursor@@A+24, rax
	call	glfwCreateStandardCursor
; Line 192
	mov	ecx, 221188				; 00036004H
	mov	QWORD PTR ?g_MouseCursors@@3PAPEAUGLFWcursor@@A+32, rax
	call	glfwCreateStandardCursor
; Line 199
	mov	ecx, 221185				; 00036001H
	mov	QWORD PTR ?g_MouseCursors@@3PAPEAUGLFWcursor@@A+56, rax
	call	glfwCreateStandardCursor
; Line 200
	mov	ecx, 221185				; 00036001H
	mov	QWORD PTR ?g_MouseCursors@@3PAPEAUGLFWcursor@@A+16, rax
	call	glfwCreateStandardCursor
; Line 201
	mov	ecx, 221185				; 00036001H
	mov	QWORD PTR ?g_MouseCursors@@3PAPEAUGLFWcursor@@A+40, rax
	call	glfwCreateStandardCursor
; Line 202
	mov	ecx, 221185				; 00036001H
	mov	QWORD PTR ?g_MouseCursors@@3PAPEAUGLFWcursor@@A+48, rax
	call	glfwCreateStandardCursor
; Line 204
	mov	rcx, rbx
	mov	QWORD PTR ?g_MouseCursors@@3PAPEAUGLFWcursor@@A+64, rax
	call	glfwSetErrorCallback
; Line 207
	xor	eax, eax
	mov	QWORD PTR ?g_PrevUserCallbackMousebutton@@3P6AXPEAUGLFWwindow@@HHH@ZEA, rax
; Line 208
	mov	QWORD PTR ?g_PrevUserCallbackScroll@@3P6AXPEAUGLFWwindow@@NN@ZEA, rax
; Line 209
	mov	QWORD PTR ?g_PrevUserCallbackKey@@3P6AXPEAUGLFWwindow@@HHHH@ZEA, rax
; Line 210
	mov	QWORD PTR ?g_PrevUserCallbackChar@@3P6AXPEAUGLFWwindow@@I@ZEA, rax
; Line 211
	test	dil, dil
	je	SHORT $LN4@ImGui_Impl
; Line 214
	lea	rdx, OFFSET FLAT:?ImGui_ImplGlfw_MouseButtonCallback@@YAXPEAUGLFWwindow@@HHH@Z ; ImGui_ImplGlfw_MouseButtonCallback
	mov	BYTE PTR ?g_InstalledCallbacks@@3_NA, 1
	mov	rcx, rsi
	call	glfwSetMouseButtonCallback
; Line 215
	lea	rdx, OFFSET FLAT:?ImGui_ImplGlfw_ScrollCallback@@YAXPEAUGLFWwindow@@NN@Z ; ImGui_ImplGlfw_ScrollCallback
	mov	QWORD PTR ?g_PrevUserCallbackMousebutton@@3P6AXPEAUGLFWwindow@@HHH@ZEA, rax
	mov	rcx, rsi
	call	glfwSetScrollCallback
; Line 216
	lea	rdx, OFFSET FLAT:?ImGui_ImplGlfw_KeyCallback@@YAXPEAUGLFWwindow@@HHHH@Z ; ImGui_ImplGlfw_KeyCallback
	mov	QWORD PTR ?g_PrevUserCallbackScroll@@3P6AXPEAUGLFWwindow@@NN@ZEA, rax
	mov	rcx, rsi
	call	glfwSetKeyCallback
; Line 217
	lea	rdx, OFFSET FLAT:?ImGui_ImplGlfw_CharCallback@@YAXPEAUGLFWwindow@@I@Z ; ImGui_ImplGlfw_CharCallback
	mov	QWORD PTR ?g_PrevUserCallbackKey@@3P6AXPEAUGLFWwindow@@HHHH@ZEA, rax
	mov	rcx, rsi
	call	glfwSetCharCallback
	mov	QWORD PTR ?g_PrevUserCallbackChar@@3P6AXPEAUGLFWwindow@@I@ZEA, rax
$LN4@ImGui_Impl:
; Line 222
	mov	rbx, QWORD PTR [rsp+48]
	mov	al, 1
	mov	rsi, QWORD PTR [rsp+64]
	mov	DWORD PTR ?g_ClientApi@@3W4GlfwClientApi@@A, ebp
	mov	rbp, QWORD PTR [rsp+56]
	add	rsp, 32					; 00000020H
	pop	rdi
	ret	0
?ImGui_ImplGlfw_Init@@YA_NPEAUGLFWwindow@@_NW4GlfwClientApi@@@Z ENDP ; ImGui_ImplGlfw_Init
_TEXT	ENDS
; Function compile flags: /Ogtpy
;	COMDAT ?ImGui_ImplGlfw_SetClipboardText@@YAXPEAXPEBD@Z
_TEXT	SEGMENT
user_data$ = 8
text$ = 16
?ImGui_ImplGlfw_SetClipboardText@@YAXPEAXPEBD@Z PROC	; ImGui_ImplGlfw_SetClipboardText, COMDAT
; File E:\reps\ocornut\imgui\examples\imgui_impl_glfw.cpp
; Line 88
	jmp	glfwSetClipboardString
?ImGui_ImplGlfw_SetClipboardText@@YAXPEAXPEBD@Z ENDP	; ImGui_ImplGlfw_SetClipboardText
_TEXT	ENDS
; Function compile flags: /Ogtpy
;	COMDAT ?ImGui_ImplGlfw_GetClipboardText@@YAPEBDPEAX@Z
_TEXT	SEGMENT
user_data$ = 8
?ImGui_ImplGlfw_GetClipboardText@@YAPEBDPEAX@Z PROC	; ImGui_ImplGlfw_GetClipboardText, COMDAT
; File E:\reps\ocornut\imgui\examples\imgui_impl_glfw.cpp
; Line 83
	jmp	glfwGetClipboardString
?ImGui_ImplGlfw_GetClipboardText@@YAPEBDPEAX@Z ENDP	; ImGui_ImplGlfw_GetClipboardText
_TEXT	ENDS
; Function compile flags: /Ogtpy
;	COMDAT ?ImGui_ImplGlfw_CharCallback@@YAXPEAUGLFWwindow@@I@Z
_TEXT	SEGMENT
window$ = 48
c$ = 56
?ImGui_ImplGlfw_CharCallback@@YAXPEAUGLFWwindow@@I@Z PROC ; ImGui_ImplGlfw_CharCallback, COMDAT
; File E:\reps\ocornut\imgui\examples\imgui_impl_glfw.cpp
; Line 133
$LN5:
	push	rbx
	sub	rsp, 32					; 00000020H
; Line 134
	mov	rax, QWORD PTR ?g_PrevUserCallbackChar@@3P6AXPEAUGLFWwindow@@I@ZEA
	mov	ebx, edx
	test	rax, rax
	je	SHORT $LN2@ImGui_Impl
; Line 135
	call	rax
$LN2@ImGui_Impl:
; Line 137
	call	?GetIO@ImGui@@YAAEAUImGuiIO@@XZ		; ImGui::GetIO
; Line 138
	mov	edx, ebx
	mov	rcx, rax
; Line 139
	add	rsp, 32					; 00000020H
	pop	rbx
; Line 138
	jmp	?AddInputCharacter@ImGuiIO@@QEAAXI@Z	; ImGuiIO::AddInputCharacter
?ImGui_ImplGlfw_CharCallback@@YAXPEAUGLFWwindow@@I@Z ENDP ; ImGui_ImplGlfw_CharCallback
_TEXT	ENDS
; Function compile flags: /Ogtpy
;	COMDAT ?ImGui_ImplGlfw_KeyCallback@@YAXPEAUGLFWwindow@@HHHH@Z
_TEXT	SEGMENT
window$ = 64
key$ = 72
scancode$ = 80
action$ = 88
mods$ = 96
?ImGui_ImplGlfw_KeyCallback@@YAXPEAUGLFWwindow@@HHHH@Z PROC ; ImGui_ImplGlfw_KeyCallback, COMDAT
; File E:\reps\ocornut\imgui\examples\imgui_impl_glfw.cpp
; Line 111
$LN14:
	mov	QWORD PTR [rsp+8], rbx
	push	rdi
	sub	rsp, 48					; 00000030H
; Line 112
	mov	r10, QWORD PTR ?g_PrevUserCallbackKey@@3P6AXPEAUGLFWwindow@@HHHH@ZEA
	mov	ebx, r9d
	movsxd	rdi, edx
	test	r10, r10
	je	SHORT $LN2@ImGui_Impl
; Line 113
	mov	eax, DWORD PTR mods$[rsp]
	mov	edx, edi
	mov	DWORD PTR [rsp+32], eax
	call	r10
$LN2@ImGui_Impl:
; Line 115
	call	?GetIO@ImGui@@YAAEAUImGuiIO@@XZ		; ImGui::GetIO
; Line 116
	cmp	ebx, 1
	jne	SHORT $LN12@ImGui_Impl
; Line 117
	mov	BYTE PTR [rdi+rax+324], bl
	jmp	SHORT $LN4@ImGui_Impl
$LN12@ImGui_Impl:
; Line 118
	test	ebx, ebx
	jne	SHORT $LN4@ImGui_Impl
; Line 119
	mov	BYTE PTR [rdi+rax+324], bl
$LN4@ImGui_Impl:
; Line 122
	cmp	BYTE PTR [rax+665], 0
	jne	SHORT $LN6@ImGui_Impl
	cmp	BYTE PTR [rax+669], 0
	jne	SHORT $LN6@ImGui_Impl
	xor	cl, cl
	jmp	SHORT $LN7@ImGui_Impl
$LN6@ImGui_Impl:
	mov	cl, 1
$LN7@ImGui_Impl:
; Line 123
	cmp	BYTE PTR [rax+664], 0
	mov	BYTE PTR [rax+320], cl
	jne	SHORT $LN8@ImGui_Impl
	cmp	BYTE PTR [rax+668], 0
	jne	SHORT $LN8@ImGui_Impl
	xor	cl, cl
	jmp	SHORT $LN9@ImGui_Impl
$LN8@ImGui_Impl:
	mov	cl, 1
$LN9@ImGui_Impl:
; Line 124
	cmp	BYTE PTR [rax+666], 0
	mov	BYTE PTR [rax+321], cl
	jne	SHORT $LN10@ImGui_Impl
	cmp	BYTE PTR [rax+670], 0
	jne	SHORT $LN10@ImGui_Impl
	mov	WORD PTR [rax+322], 0
; Line 130
	mov	rbx, QWORD PTR [rsp+64]
	add	rsp, 48					; 00000030H
	pop	rdi
	ret	0
$LN10@ImGui_Impl:
	mov	rbx, QWORD PTR [rsp+64]
	mov	WORD PTR [rax+322], 1
	add	rsp, 48					; 00000030H
	pop	rdi
	ret	0
?ImGui_ImplGlfw_KeyCallback@@YAXPEAUGLFWwindow@@HHHH@Z ENDP ; ImGui_ImplGlfw_KeyCallback
_TEXT	ENDS
; Function compile flags: /Ogtpy
;	COMDAT ?ImGui_ImplGlfw_ScrollCallback@@YAXPEAUGLFWwindow@@NN@Z
_TEXT	SEGMENT
window$ = 80
xoffset$ = 88
yoffset$ = 96
?ImGui_ImplGlfw_ScrollCallback@@YAXPEAUGLFWwindow@@NN@Z PROC ; ImGui_ImplGlfw_ScrollCallback, COMDAT
; File E:\reps\ocornut\imgui\examples\imgui_impl_glfw.cpp
; Line 101
$LN5:
	sub	rsp, 72					; 00000048H
; Line 102
	mov	rax, QWORD PTR ?g_PrevUserCallbackScroll@@3P6AXPEAUGLFWwindow@@NN@ZEA
	movaps	XMMWORD PTR [rsp+48], xmm6
	movaps	xmm6, xmm2
	movaps	XMMWORD PTR [rsp+32], xmm7
	movaps	xmm7, xmm1
	test	rax, rax
	je	SHORT $LN2@ImGui_Impl
; Line 103
	call	rax
$LN2@ImGui_Impl:
; Line 105
	call	?GetIO@ImGui@@YAAEAUImGuiIO@@XZ		; ImGui::GetIO
; Line 106
	xorps	xmm0, xmm0
; Line 107
	xorps	xmm1, xmm1
	cvtsd2ss xmm0, xmm7
; Line 108
	movaps	xmm7, XMMWORD PTR [rsp+32]
	addss	xmm0, DWORD PTR [rax+316]
	cvtsd2ss xmm1, xmm6
	movaps	xmm6, XMMWORD PTR [rsp+48]
	addss	xmm1, DWORD PTR [rax+312]
	movss	DWORD PTR [rax+316], xmm0
	movss	DWORD PTR [rax+312], xmm1
	add	rsp, 72					; 00000048H
	ret	0
?ImGui_ImplGlfw_ScrollCallback@@YAXPEAUGLFWwindow@@NN@Z ENDP ; ImGui_ImplGlfw_ScrollCallback
_TEXT	ENDS
; Function compile flags: /Ogtpy
;	COMDAT ?ImGui_ImplGlfw_MouseButtonCallback@@YAXPEAUGLFWwindow@@HHH@Z
_TEXT	SEGMENT
window$ = 48
button$ = 56
action$ = 64
mods$ = 72
?ImGui_ImplGlfw_MouseButtonCallback@@YAXPEAUGLFWwindow@@HHH@Z PROC ; ImGui_ImplGlfw_MouseButtonCallback, COMDAT
; File E:\reps\ocornut\imgui\examples\imgui_impl_glfw.cpp
; Line 92
$LN6:
	mov	QWORD PTR [rsp+8], rbx
	push	rdi
	sub	rsp, 32					; 00000020H
; Line 93
	mov	rax, QWORD PTR ?g_PrevUserCallbackMousebutton@@3P6AXPEAUGLFWwindow@@HHH@ZEA
	mov	edi, r8d
	movsxd	rbx, edx
	test	rax, rax
	je	SHORT $LN2@ImGui_Impl
; Line 94
	mov	edx, ebx
	call	rax
$LN2@ImGui_Impl:
; Line 96
	cmp	edi, 1
	jne	SHORT $LN3@ImGui_Impl
	cmp	ebx, 4
	ja	SHORT $LN3@ImGui_Impl
; Line 97
	lea	rcx, OFFSET FLAT:?g_MouseJustPressed@@3PA_NA
	mov	BYTE PTR [rbx+rcx], dil
$LN3@ImGui_Impl:
; Line 98
	mov	rbx, QWORD PTR [rsp+48]
	add	rsp, 32					; 00000020H
	pop	rdi
	ret	0
?ImGui_ImplGlfw_MouseButtonCallback@@YAXPEAUGLFWwindow@@HHH@Z ENDP ; ImGui_ImplGlfw_MouseButtonCallback
_TEXT	ENDS
; Function compile flags: /Ogtpy
;	COMDAT ?ImGui_ImplGlfw_NewFrame@@YAXXZ
_TEXT	SEGMENT
mouse_x$6 = 32
mouse_y$7 = 40
w$ = 144
h$ = 152
display_w$ = 160
display_h$ = 168
?ImGui_ImplGlfw_NewFrame@@YAXXZ PROC			; ImGui_ImplGlfw_NewFrame, COMDAT
; File E:\reps\ocornut\imgui\examples\imgui_impl_glfw.cpp
; Line 346
$LN51:
	push	rbx
	push	rbp
	push	rsi
	push	rdi
	push	r14
	push	r15
	sub	rsp, 88					; 00000058H
; Line 347
	call	?GetIO@ImGui@@YAAEAUImGuiIO@@XZ		; ImGui::GetIO
	mov	rbx, rax
; Line 348
	mov	rcx, QWORD PTR [rax+160]
; File E:\reps\ocornut\imgui\imgui.h
; Line 2212
	cmp	DWORD PTR [rcx+64], 0
	jle	SHORT $LN11@ImGui_Impl
	cmp	QWORD PTR [rcx+24], 0
	jne	SHORT $LN5@ImGui_Impl
	cmp	QWORD PTR [rcx+32], 0
	jne	SHORT $LN5@ImGui_Impl
$LN11@ImGui_Impl:
; File E:\reps\ocornut\imgui\examples\imgui_impl_glfw.cpp
; Line 348
	mov	r8d, 348				; 0000015cH
	lea	rdx, OFFSET FLAT:??_C@_1GG@NDBHDDHM@?$AAE?$AA?3?$AA?1?$AAr?$AAe?$AAp?$AAs?$AA?1?$AAo?$AAc?$AAo?$AAr?$AAn?$AAu?$AAt@
	lea	rcx, OFFSET FLAT:??_C@_1BGC@BEKJJODG@?$AAi?$AAo?$AA?4?$AAF?$AAo?$AAn?$AAt?$AAs?$AA?9?$AA?$DO?$AAI?$AAs?$AAB?$AAu?$AAi@
	call	QWORD PTR __imp__wassert
$LN5@ImGui_Impl:
; Line 353
	mov	rcx, QWORD PTR ?g_Window@@3PEAUGLFWwindow@@EA
	lea	r8, QWORD PTR h$[rsp]
	lea	rdx, QWORD PTR w$[rsp]
	call	glfwGetWindowSize
; Line 354
	mov	rcx, QWORD PTR ?g_Window@@3PEAUGLFWwindow@@EA
	lea	r8, QWORD PTR display_h$[rsp]
	lea	rdx, QWORD PTR display_w$[rsp]
	call	glfwGetFramebufferSize
	movd	xmm0, DWORD PTR w$[rsp]
	movd	xmm1, DWORD PTR h$[rsp]
; Line 355
	cvtdq2ps xmm0, xmm0
	cvtdq2ps xmm1, xmm1
	movss	DWORD PTR [rbx+8], xmm0
	movss	DWORD PTR [rbx+12], xmm1
; Line 356
	mov	ecx, DWORD PTR w$[rsp]
	test	ecx, ecx
	jle	SHORT $LN2@ImGui_Impl
	mov	eax, DWORD PTR h$[rsp]
	test	eax, eax
	jle	SHORT $LN2@ImGui_Impl
; Line 357
	movd	xmm2, DWORD PTR display_w$[rsp]
	movd	xmm1, DWORD PTR display_h$[rsp]
	movd	xmm0, ecx
	cvtdq2ps xmm0, xmm0
	cvtdq2ps xmm2, xmm2
	cvtdq2ps xmm1, xmm1
	divss	xmm2, xmm0
	movd	xmm0, eax
	cvtdq2ps xmm0, xmm0
	movss	DWORD PTR [rbx+184], xmm2
	divss	xmm1, xmm0
	movss	DWORD PTR [rbx+188], xmm1
$LN2@ImGui_Impl:
; Line 360
	call	glfwGetTime
; Line 361
	movsd	xmm2, QWORD PTR ?g_Time@@3NA
	xorps	xmm1, xmm1
	comisd	xmm2, xmm1
	jbe	SHORT $LN6@ImGui_Impl
	movaps	xmm1, xmm0
	xorps	xmm3, xmm3
	subsd	xmm1, xmm2
	cvtsd2ss xmm3, xmm1
	jmp	SHORT $LN7@ImGui_Impl
$LN6@ImGui_Impl:
	movss	xmm3, DWORD PTR __real@3c888889
$LN7@ImGui_Impl:
	movss	DWORD PTR [rbx+16], xmm3
; Line 362
	movsd	QWORD PTR ?g_Time@@3NA, xmm0
; Line 256
	call	?GetIO@ImGui@@YAAEAUImGuiIO@@XZ		; ImGui::GetIO
; Line 257
	xor	edi, edi
; Line 361
	lea	r15, OFFSET FLAT:?g_MouseJustPressed@@3PA_NA
	mov	r14, rax
; Line 256
	mov	rbp, rax
; Line 361
	sub	r14, r15
	mov	ebx, edi
	npad	4
$LL20@ImGui_Impl:
; Line 260
	cmp	BYTE PTR [rbx+r15], 0
	lea	rsi, QWORD PTR [rbx+r15]
	jne	SHORT $LN25@ImGui_Impl
	mov	rcx, QWORD PTR ?g_Window@@3PEAUGLFWwindow@@EA
	mov	edx, edi
	call	glfwGetMouseButton
	test	eax, eax
	je	SHORT $LN26@ImGui_Impl
$LN25@ImGui_Impl:
	mov	al, 1
$LN26@ImGui_Impl:
	mov	BYTE PTR [r14+rsi+304], al
; Line 261
	cmp	rbx, 5
	jae	$LN27@ImGui_Impl
	inc	edi
	mov	BYTE PTR [rsi], 0
	inc	rbx
	cmp	edi, 5
	jl	SHORT $LL20@ImGui_Impl
; Line 270
	mov	rcx, QWORD PTR ?g_Window@@3PEAUGLFWwindow@@EA
	mov	edx, 131073				; 00020001H
	movaps	XMMWORD PTR [rsp+64], xmm6
	movss	xmm6, DWORD PTR [rbp+296]
	movaps	XMMWORD PTR [rsp+48], xmm7
	movss	xmm7, DWORD PTR [rbp+300]
	mov	DWORD PTR [rbp+300], -8388609		; ff7fffffH
	mov	DWORD PTR [rbp+296], -8388609		; ff7fffffH
	call	glfwGetWindowAttrib
	test	eax, eax
; Line 272
	je	SHORT $LN23@ImGui_Impl
; Line 274
	cmp	BYTE PTR [rbp+923], 0
	mov	rcx, QWORD PTR ?g_Window@@3PEAUGLFWwindow@@EA
	je	SHORT $LN22@ImGui_Impl
; Line 276
	cvtps2pd xmm2, xmm7
	cvtps2pd xmm1, xmm6
	call	glfwSetCursorPos
; Line 277
	jmp	SHORT $LN23@ImGui_Impl
$LN22@ImGui_Impl:
; Line 281
	lea	r8, QWORD PTR mouse_y$7[rsp]
	lea	rdx, QWORD PTR mouse_x$6[rsp]
	call	glfwGetCursorPos
	movsd	xmm0, QWORD PTR mouse_x$6[rsp]
	movsd	xmm1, QWORD PTR mouse_y$7[rsp]
; Line 282
	cvtpd2ps xmm0, xmm0
	cvtpd2ps xmm1, xmm1
	movss	DWORD PTR [rbp+296], xmm0
	movss	DWORD PTR [rbp+300], xmm1
$LN23@ImGui_Impl:
; Line 289
	call	?GetIO@ImGui@@YAAEAUImGuiIO@@XZ		; ImGui::GetIO
	movaps	xmm7, XMMWORD PTR [rsp+48]
	mov	rbx, rax
	movaps	xmm6, XMMWORD PTR [rsp+64]
; Line 290
	test	BYTE PTR [rax], 32			; 00000020H
	jne	SHORT $LN36@ImGui_Impl
	mov	rcx, QWORD PTR ?g_Window@@3PEAUGLFWwindow@@EA
	mov	edx, 208897				; 00033001H
	call	glfwGetInputMode
	cmp	eax, 212995				; 00034003H
	je	SHORT $LN36@ImGui_Impl
; Line 293
	call	?GetMouseCursor@ImGui@@YAHXZ		; ImGui::GetMouseCursor
; Line 294
	cmp	eax, -1
	je	SHORT $LN39@ImGui_Impl
	cmp	BYTE PTR [rbx+192], 0
	jne	SHORT $LN39@ImGui_Impl
; Line 303
	mov	rdx, QWORD PTR ?g_MouseCursors@@3PAPEAUGLFWcursor@@A
	lea	rcx, OFFSET FLAT:?g_MouseCursors@@3PAPEAUGLFWcursor@@A
	cdqe
	mov	rcx, QWORD PTR [rcx+rax*8]
	test	rcx, rcx
	cmovne	rdx, rcx
	mov	rcx, QWORD PTR ?g_Window@@3PEAUGLFWwindow@@EA
	call	glfwSetCursor
; Line 304
	mov	r8d, 212993				; 00034001H
	jmp	SHORT $LN49@ImGui_Impl
$LN39@ImGui_Impl:
; Line 297
	mov	r8d, 212994				; 00034002H
$LN49@ImGui_Impl:
; Line 368
	mov	rcx, QWORD PTR ?g_Window@@3PEAUGLFWwindow@@EA
	mov	edx, 208897				; 00033001H
	call	glfwSetInputMode
$LN36@ImGui_Impl:
	call	?ImGui_ImplGlfw_UpdateGamepads@@YAXXZ	; ImGui_ImplGlfw_UpdateGamepads
; Line 369
	add	rsp, 88					; 00000058H
	pop	r15
	pop	r14
	pop	rdi
	pop	rsi
	pop	rbp
	pop	rbx
	ret	0
$LN27@ImGui_Impl:
; Line 261
	call	__report_rangecheckfailure
	int	3
$LN48@ImGui_Impl:
?ImGui_ImplGlfw_NewFrame@@YAXXZ ENDP			; ImGui_ImplGlfw_NewFrame
_TEXT	ENDS
; Function compile flags: /Ogtpy
;	COMDAT ?ImGui_ImplGlfw_Shutdown@@YAXXZ
_TEXT	SEGMENT
?ImGui_ImplGlfw_Shutdown@@YAXXZ PROC			; ImGui_ImplGlfw_Shutdown, COMDAT
; File E:\reps\ocornut\imgui\examples\imgui_impl_glfw.cpp
; Line 235
$LN12:
	mov	QWORD PTR [rsp+8], rbx
	mov	QWORD PTR [rsp+16], rsi
	push	rdi
	sub	rsp, 32					; 00000020H
; Line 236
	cmp	BYTE PTR ?g_InstalledCallbacks@@3_NA, 0
	je	SHORT $LN5@ImGui_Impl
; Line 238
	mov	rdx, QWORD PTR ?g_PrevUserCallbackMousebutton@@3P6AXPEAUGLFWwindow@@HHH@ZEA
	mov	rcx, QWORD PTR ?g_Window@@3PEAUGLFWwindow@@EA
	call	glfwSetMouseButtonCallback
; Line 239
	mov	rdx, QWORD PTR ?g_PrevUserCallbackScroll@@3P6AXPEAUGLFWwindow@@NN@ZEA
	mov	rcx, QWORD PTR ?g_Window@@3PEAUGLFWwindow@@EA
	call	glfwSetScrollCallback
; Line 240
	mov	rdx, QWORD PTR ?g_PrevUserCallbackKey@@3P6AXPEAUGLFWwindow@@HHHH@ZEA
	mov	rcx, QWORD PTR ?g_Window@@3PEAUGLFWwindow@@EA
	call	glfwSetKeyCallback
; Line 241
	mov	rdx, QWORD PTR ?g_PrevUserCallbackChar@@3P6AXPEAUGLFWwindow@@I@ZEA
	mov	rcx, QWORD PTR ?g_Window@@3PEAUGLFWwindow@@EA
	call	glfwSetCharCallback
; Line 242
	mov	BYTE PTR ?g_InstalledCallbacks@@3_NA, 0
$LN5@ImGui_Impl:
	lea	rbx, OFFSET FLAT:?g_MouseCursors@@3PAPEAUGLFWcursor@@A
	xor	edi, edi
	lea	rsi, OFFSET FLAT:?g_MouseCursors@@3PAPEAUGLFWcursor@@A+72
	npad	5
$LL4@ImGui_Impl:
; Line 247
	mov	rcx, QWORD PTR [rbx]
	call	glfwDestroyCursor
; Line 248
	mov	QWORD PTR [rbx], rdi
	add	rbx, 8
	cmp	rbx, rsi
	jl	SHORT $LL4@ImGui_Impl
; Line 251
	mov	rbx, QWORD PTR [rsp+48]
	mov	rsi, QWORD PTR [rsp+56]
	mov	DWORD PTR ?g_ClientApi@@3W4GlfwClientApi@@A, edi
	add	rsp, 32					; 00000020H
	pop	rdi
	ret	0
?ImGui_ImplGlfw_Shutdown@@YAXXZ ENDP			; ImGui_ImplGlfw_Shutdown
_TEXT	ENDS
; Function compile flags: /Ogtpy
;	COMDAT ?ImGui_ImplGlfw_InitForVulkan@@YA_NPEAUGLFWwindow@@_N@Z
_TEXT	SEGMENT
window$ = 8
install_callbacks$ = 16
?ImGui_ImplGlfw_InitForVulkan@@YA_NPEAUGLFWwindow@@_N@Z PROC ; ImGui_ImplGlfw_InitForVulkan, COMDAT
; File E:\reps\ocornut\imgui\examples\imgui_impl_glfw.cpp
; Line 231
	mov	r8d, 2
	jmp	?ImGui_ImplGlfw_Init@@YA_NPEAUGLFWwindow@@_NW4GlfwClientApi@@@Z ; ImGui_ImplGlfw_Init
?ImGui_ImplGlfw_InitForVulkan@@YA_NPEAUGLFWwindow@@_N@Z ENDP ; ImGui_ImplGlfw_InitForVulkan
_TEXT	ENDS
; Function compile flags: /Ogtpy
;	COMDAT ?ImGui_ImplGlfw_InitForOpenGL@@YA_NPEAUGLFWwindow@@_N@Z
_TEXT	SEGMENT
window$ = 8
install_callbacks$ = 16
?ImGui_ImplGlfw_InitForOpenGL@@YA_NPEAUGLFWwindow@@_N@Z PROC ; ImGui_ImplGlfw_InitForOpenGL, COMDAT
; File E:\reps\ocornut\imgui\examples\imgui_impl_glfw.cpp
; Line 226
	mov	r8d, 1
	jmp	?ImGui_ImplGlfw_Init@@YA_NPEAUGLFWwindow@@_NW4GlfwClientApi@@@Z ; ImGui_ImplGlfw_Init
?ImGui_ImplGlfw_InitForOpenGL@@YA_NPEAUGLFWwindow@@_N@Z ENDP ; ImGui_ImplGlfw_InitForOpenGL
_TEXT	ENDS
; Function compile flags: /Ogtpy
;	COMDAT ?IsBuilt@ImFontAtlas@@QEBA_NXZ
_TEXT	SEGMENT
this$ = 8
?IsBuilt@ImFontAtlas@@QEBA_NXZ PROC			; ImFontAtlas::IsBuilt, COMDAT
; File E:\reps\ocornut\imgui\imgui.h
; Line 2212
	cmp	DWORD PTR [rcx+64], 0
	jle	SHORT $LN4@IsBuilt
	cmp	QWORD PTR [rcx+24], 0
	jne	SHORT $LN3@IsBuilt
	cmp	QWORD PTR [rcx+32], 0
	je	SHORT $LN4@IsBuilt
$LN3@IsBuilt:
	mov	al, 1
	ret	0
$LN4@IsBuilt:
	xor	al, al
	ret	0
?IsBuilt@ImFontAtlas@@QEBA_NXZ ENDP			; ImFontAtlas::IsBuilt
_TEXT	ENDS
; Function compile flags: /Ogtpy
;	COMDAT ??0ImVec2@@QEAA@MM@Z
_TEXT	SEGMENT
this$ = 8
_x$ = 16
_y$ = 24
??0ImVec2@@QEAA@MM@Z PROC				; ImVec2::ImVec2, COMDAT
; File E:\reps\ocornut\imgui\imgui.h
; Line 212
	movss	DWORD PTR [rcx], xmm1
	mov	rax, rcx
	movss	DWORD PTR [rcx+4], xmm2
	ret	0
??0ImVec2@@QEAA@MM@Z ENDP				; ImVec2::ImVec2
_TEXT	ENDS
END
