; Listing generated by Microsoft (R) Optimizing Compiler Version 19.23.28106.4 

include listing.inc

INCLUDELIB MSVCRT
INCLUDELIB OLDNAMES

CONST	SEGMENT
?FONT_ATLAS_DEFAULT_TEX_DATA_PIXELS@@3QBDB DB '..-         -XXXXXXX-    X'
	DB	'    -           X           -XXXXXXX          -          XXXX'
	DB	'XXX-     XX          ..-         -X.....X-   X.X   -         '
	DB	' X.X          -X.....X          -          X.....X-    X..X  '
	DB	'       ---         -XXX.XXX-  X...X  -         X...X         '
	DB	'-X....X           -           X....X-    X..X         X      '
	DB	'     -  X.X  - X.....X -        X.....X        -X...X        '
	DB	'    -            X...X-    X..X         XX          -  X.X  -'
	DB	'X.......X-       X.......X       -X..X.X           -         '
	DB	'  X.X..X-    X..X         X.X         -  X.X  -XXXX.XXXX-    '
	DB	'   XXXX.XXXX       -X.X X.X          -          X.X X.X-    X'
	DB	'..XXX       X..X        -  X.X  -   X.X   -          X.X     '
	DB	'     -XX   X.X         -         X.X   XX-    X..X..XXX    X.'
	DB	'..X       -  X.X  -   X.X   -    XX    X.X    XX    -      X.'
	DB	'X        -        X.X      -    X..X..X..XX  X....X      -  X'
	DB	'.X  -   X.X   -   X.X    X.X    X.X   -       X.X       -    '
	DB	'   X.X       -    X..X..X..X.X X.....X     -  X.X  -   X.X   '
	DB	'-  X..X    X.X    X..X  -        X.X      -      X.X        -'
	DB	'XXX X..X..X..X..XX......X    -  X.X  -   X.X   - X...XXXXXX.X'
	DB	'XXXXX...X -         X.X   XX-XX   X.X         -X..XX........X'
	DB	'..XX.......X   -  X.X  -   X.X   -X.....................X-   '
	DB	'       X.X X.X-X.X X.X          -X...X...........XX........X '
	DB	' -  X.X  -   X.X   - X...XXXXXX.XXXXXX...X -           X.X..X'
	DB	'-X..X.X           - X..............XX.........X -XXX.XXX-   X'
	DB	'.X   -  X..X    X.X    X..X  -            X...X-X...X        '
	DB	'    -  X.............XX..........X-X.....X-   X.X   -   X.X  '
	DB	'  X.X    X.X   -           X....X-X....X           -  X......'
	DB	'.......XX......XXXXX-XXXXXXX-   X.X   -    XX    X.X    XX   '
	DB	' -          X.....X-X.....X          -   X............XX...X.'
	DB	'.X    ---------   X.X   -          X.X          -          XX'
	DB	'XXXXX-XXXXXXX          -   X...........X X..X X..X   -       '
	DB	'-XXXX.XXXX-       XXXX.XXXX       ---------------------------'
	DB	'----------    X..........X X.X  X..X   -       -X.......X-   '
	DB	'    X.......X       -    XX           XX    -           -    '
	DB	'X..........X XX    X..X  -       - X.....X -        X.....X  '
	DB	'      -   X.X           X.X   -           -     X........X   '
	DB	'     X..X          -  X...X  -         X...X         -  X..X '
	DB	'          X..X  -           -     X........X         XX      '
	DB	'     -   X.X   -          X.X          - X...XXXXXXXXXXXXX...'
	DB	'X -           -     XXXXXXXXXX  ------------        -    X   '
	DB	' -           X           -X.....................X-           '
	DB	'------------------                    -----------------------'
	DB	'------------ X...XXXXXXXXXXXXX...X -                         '
	DB	'                                                          -  '
	DB	'X..X           X..X  -                                       '
	DB	'                                            -   X.X          '
	DB	' X.X   -                                                     '
	DB	'                              -    XX           XX    -      '
	DB	'                       ', 00H		; FONT_ATLAS_DEFAULT_TEX_DATA_PIXELS
	ORG $+11
?proggy_clean_ttf_compressed_data_base85@@3QBDB DB '7])#######hV0qs''/###'
	DB	'[),##/l:$#Q6>##5[n42>c-TH`->>#/e>11NNV=Bv(*:.F?uu#(gRU.o0XGH`'
	DB	'$vhLG1hxt9?W`#,5LsCp#-i>.r$<$6pD>Lb'';9Crc6tgXmKVeU2cD4Eo3R/2'
	DB	'*>]b(MC;$jPfY.;h^`IWM9<Lh2TlS+f-s$o6Q<BWH`YiU.xfLq$N;$0iR/GX:'
	DB	'U(jcW2p/W*q?-qmnUCI;jHSAiFWM.R*kU@C=GH?a9wp8f$e.-4^Qg1)Q-GL(l'
	DB	'f(r/7GrRgwV%MS=C#`8ND>Qo#t''X#(v#Y9w0#1D$CIf;W''#pWUPXOuxXuU('
	DB	'H9M(1<q-UE31#^-V''8IRUo7Qf./L>=Ke$$''5F%)]0^#0X@U.a<r:QLtFsLc'
	DB	'L6##lOj)#.Y5<-R&KgLwqJfLgN&;Q?gI^#DY2uLi@^rMl9t=cWq6##weg>$FB'
	DB	'jVQTSDgEKnIS7EM9>ZY9w0#L;>>#Mx&4Mvt//L[MkA#W@lK.N''[0#7RL_&#w'
	DB	'+F%HtG9M#XL`N&.,GM4Pg;-<nLENhvx>-VsM.M0rJfLH2eTM`*oJMHRC`Nkfi'
	DB	'mM2J,W-jXS:)r0wK#@Fge$U>`w''N7G#$#fB#$E^$#:9:hk+eOe--6x)F7*E%'
	DB	'?76%^GMHePW-Z5l''&GiF#$956:rS?dA#fiK:)Yr+`&#0j@''DbG&#^$PG.Ll'
	DB	'+DNa<XCMKEV*N)LN/N*b=%Q6pia-Xg8I$<MR&,VdJe$<(7G;Ckl''&hF;;$<_'
	DB	'=X(b.RS%%)###MPBuuE1V:v&cX&#2m#(&cV]`k9OhLMbn%s$G2,B$BfD3X*sp'
	DB	'5#l,$R#]x_X1xKX%b5U*[r5iMfUo9U`N99hG)tm+/Us9pG)XPu`<0s-)WTt(g'
	DB	'CRxIg(%6sfh=ktMKn3j)<6<b5Sk_/0(^]AaN#(p/L>&VZ>1i%h1S9u5o@YaaW'
	DB	'$e+b<TWFn/Z:Oh(Cx2$lNEoN^e)#CFY@@I;BOQ*sRwZtZxRcU7uW6CXow0i(?'
	DB	'$Q[cjOd[P4d)]>ROPOpxTO7Stwi1::iB1q)C_=dV26J;2,]7op$]uQr@_V7$q'
	DB	'^%lQwtuHY]=DX,n3L#0PHDO4f9>dC@O>HBuKPpP*E,N+b3L#lpR/MrTEH.IAQ'
	DB	'k.a>D[.e;mc.x]Ip.PH^''/aqUO/$1WxLoW0[iLA<QT;5HKD+@qQ''NQ(3_PL'
	DB	'hE48R.qAPSwQ0/WK?Z,[x?-J;jQTWA0X@KJ(_Y8N-:/M74:/-ZpKrUss?d#dZ'
	DB	'q]DAbkU*JqkL+nwX@@47`5>w=4h(9.`GCRUxHPeR`5Mjol(dUWxZa(>STrPkr'
	DB	'JiWx`5U7F#.g*jrohGg`cg:lSTvEY/EV_7H4Q9[Z%cnv;JQYZ5q.l7Zeas:HO'
	DB	'IZOB?G<Nald$qs]@]L<J7bR*>gv:[7MI2k).''2($5FNP&EQ(,)U]W]+fh18.'
	DB	'vsai00);D3@4ku5P?DP8aJt+;qUM]=+b''8@;mViBKx0DE[-auGl8:PJ&Dj+M'
	DB	'6OC]O^((##]`0i)drT;-7X`=-H3[igUnPG-NZlo.#k@h#=Ork$m>a>$-?Tm$U'
	DB	'V(?#P6YY#''/###xe7q.73rI3*pP/$1>s9)W,JrM7SN]''/4C#v$U`0#V.[0>'
	DB	'xQsH$fEmPMgY2u7Kh(G%siIfLSoS+MK2eTM$=5,M8p`A.;_R%#u[K#$x4AG8.'
	DB	'kK/HSB==-''Ie/QTtG?-.*^N-4B/ZM_3YlQC7(p7q)&](`6_c)$/*JL(L-^(]'
	DB	'$wIM`dPtOdGA,U3:w2M-0<q-]L_?^)1vw''.,MRsqVr.L;aN&#/EgJ)PBc[-f'
	DB	'>+WomX2u7lqM2iEumMTcsF?-aT=Z-97UEnXglEn1K-bnEO`guFt(c%=;Am_Qs'
	DB	'@jLooI&NX;]0#j4#F14;gl8-GQpgwhrq8''=l_f-b49''UOqkLu7-##oDY2L('
	DB	'te+Mch&gLYtJ,MEtJfLh''x''M=$CS-ZZ%P]8bZ>#S?YY#%Q&q''3^Fw&?D)U'
	DB	'DNrocM3A76//oL?#h7gl85[qW/NDOk%16ij;+:1a''iNIdb-ou8.P*w,v5#EI'
	DB	'$TWS>Pot-R*H''-SEpA:g)f+O$%%`kA#G=8RMmG1&O`>to8bC]T&$,n.LoO>2'
	DB	'9sp3dt-52U%VM#q7''DHpg+#Z9%H[K<L%a2E-grWVM3@2=-k22tL]4$##6We'''
	DB	'8UJCKE[d_=%wI;''6X-GsLX4j^SgJ$##R*w,vP3wK#iiW&#*h^D&R?jp7+/u&'
	DB	'#(AP##XU8c$fSYW-J95_-Dp[g9wcO&#M-h1OcJlc-*vpw0xUX&#OQFKNX@QI'''
	DB	'IoPp7nb,QU//MQ&ZDkKP)X<WSVL(68uVl&#c''[0#(s1X&xm$Y%B7*K:eDA32'
	DB	'3j998GXbA#pwMs-jgD$9QISB-A_(aN4xoFM^@C58D0+Q+q3n0#3U1InDjF682'
	DB	'-SjMXJK)(h$hxua_K]ul92%''BOU&#BRRh-slg8KDlr:%L71Ka:.A;%YULjDP'
	DB	'mL<LYs8i#XwJOYaKPKc1h:''9Ke,g)b),78=I39B;xiY$bgGw-&.Zi9InXDuY'
	DB	'a%G*f2Bq7mn9^#p1vv%#(Wi-;/Z5ho;#2:;%d&#x9v68C5g?ntX0X)pT`;%pB'
	DB	'3q7mgGN)3%(P8nTd5L7GeA-GL@+%J3u2:(Yf>et`e;)f#Km8&+DC$I46>#Kr]'
	DB	']u-[=99tts1.qb#q72g1WJO81q+eN''03''eM>&1XxY-caEnOj%2n8)),?ILR'
	DB	'5^.Ibn<-X-Mq7[a82Lq:F&#ce+S9wsCK*x`569E8ew''He]h:sI[2LM$[guka'
	DB	'3ZRd6:t%IG:;$%YiJ:Nq=?eAw;/:nnDq0(CYcMpG)qLN4$##&J<j$UpK<Q4a1'
	DB	']MupW^-sj_$%[HK%''F####QRZJ::Y3EGl4''@%FkiAOg#p[##O`gukTfBHag'
	DB	'L<LHw%q&OV0##F=6/:chIm0@eCP8X]:kFI%hl8hgO@RcBhS-@Qb$%+m=hPDLg'
	DB	'*%K8ln(wcf3/''DW-$.lR?n[nCH-eXOONTJlh:.RYF%3''p6sq:UIMA945&^H'
	DB	'FS87@$EP2iG<-lCO$%c`uKGD3rC$x0BL8aFn--`ke%#HMP''vh1/R&O_J9''u'
	DB	'm,.<tx[@%wsJk&bUT2`0uMv7gg#qp/ij.L56''hl;.s5CUrxjOM7-##.l+Au'''
	DB	'A&O:-T72L]P`&=;ctp''XScX*rU.>-XTt,%OVU4)S1+R-#dg0/Nn?Ku1^0f$B'
	DB	'*P:Rowwm-`0PKjYDDM''3]d39VZHEl4,.j'']Pk-M.h^&:0FACm$maq-&sgw0'
	DB	't7/6(^xtk%LuH88Fj-ekm>GA#_>568x6(OFRl-IZp`&b,_P''$M<Jnq79VsJW'
	DB	'/mWS*PUiq76;]/NM_>hLbxfc$mj`,O;&%W2m`Zh:/)Uetw:aJ%]K9h:TcF]u_'
	DB	'-Sj9,VK3M.*''&0D[Ca]J9gp8,kAW]%(?A%R$f<->Zts''^kn=-^@c4%-pY6q'
	DB	'I%J%1IGxfLU9CP8cbPlXv);C=b),<2mOvP8up,UVf3839acAWAW-W?#ao/^#%'
	DB	'KYo8fRULNd2.>%m]UK:n%r$''sw]J;5pAoO_#2mO3n,''=H5(etHg*`+RLgv>'
	DB	'=4U8guD$I%D:W>-r5V*%j*W:Kvej.Lp$<M-SGZ'':+Q_k+uvOSLiEo(<aD/K<'
	DB	'CCc`''Lx>''?;++O''>()jLR-^u68PHm8ZFWe+ej8h:9r6L*0//c&iH&R8pRb'
	DB	'A#Kjm%upV1g:a_#Ur7FuA#(tRh#.Y5K+@?3<-8m0$PEn;J:rh6?I6uG<-`wMU'
	DB	'''ircp0LaE_OtlMb&1#6T.#FDKu#1Lw%u%+GM+X''e?YLfjM[VO0MbuFp7;>Q'
	DB	'&#WIo)0@F%q7c#4XAXN-U&VB<HFF*qL($/V,;(kXZejWO`<[5??ewY(*9=%wD'
	DB	'c;,u<''9t3W-(H1th3+G]ucQ]kLs7df($/*JL]@*t7Bu_G3_7mp7<iaQjO@.k'
	DB	'Lg;x3B0lqp7Hf,^Ze7-##@/c58Mo(3;knp0%)A7?-W+eI''o8)b<nKnw''Ho8'
	DB	'C=Y>pqB>0ie&jhZ[?iLR@@_AvA-iQC(=ksRZRVp7`.=+NpBC%rh&3]R:8XDmE'
	DB	'5^V8O(x<<aG/1N$#FX$0V5Y6x''aErI3I$7x%E`v<-BY,)%-?Psf*l?%C3.mM'
	DB	'(=/M0:JxG''?7WhH%o''a<-80g0NBxoO(GH<dM]n.+%q@jH?f.UsJ2Ggs&4<-'
	DB	'e47&Kl+f//9@`b+?.TeN_&B8Ss?v;^Trk;f#YvJkl&w$]>-+k?''(<S:68tq*'
	DB	'WoDfZu'';mM?8X[ma8W%*`-=;D.(nc7/;)g:T1=^J$&BRV(-lTmNB6xqB[@0*'
	DB	'o.erM*<SWF]u2=st-*(6v>^](H.aREZSi,#1:[IXaZFOm<-ui#qUq2$##Ri;u'
	DB	'75OK#(RtaW-K-F`S+cF]uN`-KMQ%rP/Xri.LRcB##=YL3BgM/3MD?@f&1''BW'
	DB	'-)Ju<L25gl8uhVm1hL$##*8###''A3/LkKW+(^rWX?5W_8g)a(m&K8P>#bmmW'
	DB	'CMkk&#TR`C,5d>g)F;t,4:@_l8G/5h4vUd%&%950:VXD''QdWoY-F$BtUwmfe'
	DB	'$YqL''8(PWX(P?^@Po3$##`MSs?DWBZ/S>+4%>fX,VWv/w''KD`LP5IbH;rTV'
	DB	'>n3cEK8U#bX]l-/V+^lj3;vlMb&[5YQ8#pekX9JP3XUC72L,,?+Ni&co7ApnO'
	DB	'*5NK,((W-i:$,kp''UDAO(G0Sq7MVjJsbIu)''Z,*[>br5fX^:FPAWr-m2KgL'
	DB	'<LUN098kTF&#lvo58=/vjDo;.;)Ka*hLR#/k=rKbxuV`>Q_nN6''8uTG&#1T5'
	DB	'g)uLv:873UpTLgH+#FgpH''_o1780Ph8KmxQJ8#H72L4@768@Tm&Qh4CB/5Ov'
	DB	'mA&,Q&QbUoi$a_%3M01H)4x7I^&KQVgtFnV+;[Pc>[m4k//,]1?#`VY[Jr*3&'
	DB	'&slRfLiVZJ:]?=K3Sw=[$=uRB?3xk48@aeg<Z''<$#4H)6,>e0jT6''N#(q%.'
	DB	'O=?2S]u*(m<-V8J''(1)G][68hW$5''q[GC&5j`TE?m''esFGNRM)j,ffZ?-q'
	DB	'x8;->g4t*:CIP/[Qap7/9''#(1sao7w-.qNUdkJ)tCF&#B^;xGvn2r9FEPFFF'
	DB	'cL@.iFNkTve$m%#QvQS8U@)2Z+3K:AKM5isZ88+dKQ)W6>J%CL<KE>`.d*(B`'
	DB	'-n8D9oK<Up]c$X$(,)M8Zt7/[rdkqTgl-0cuGMv''?>-XV1q[''-5k''cAZ69'
	DB	'e;D_?$ZPP&s^+7])$*$#@QYi9,5P&#9r+$%CE=68>K8r0=dSC%%(@p7.m7jil'
	DB	'Q02''0-VWAg<a/''''3u.=4L$Y)6k/K:_[3=&jvL<L0C/2''v:^;-DIBW,B4E'
	DB	'68:kZ;%?8(Q8BH=kO65BW?xSG&#@uU,DS*,?.+(o(#1vCS8#CHF>TlGW''b)T'
	DB	'q7VT9q^*^$$.:&N@@$&)WHtPm*5_rO0&e%K&#-30j(E4#''Zb.o/(Tpm$>K'''
	DB	'f@[PvFl,hfINTNU6u''0pao7%XUp9]5.>%h`8_=VYbxuel.NTSsJfLacFu3B'''
	DB	'lQSu/m6-Oqem8T+oE--$0a/k]uj9EwsG>%veR*hv^BFpQj:K''#SJ,sB-''#]'
	DB	'(j.Lg92rTw-*n%@/;39rrJF,l#qV%OrtBeC6/,;qB3ebNW[?,Hqj2L.1NP&Gj'
	DB	'UR=1D8QaS3Up&@*9wP?+lo7b?@%''k4`p0Z$22%K3+iCZj?XJN4Nm&+YF]u@-'
	DB	'W$U%VEQ/,,>>#)D<h#`)h0:<Q6909ua+&VU%n2:cG3FJ-%@Bj-DgLr`Hw&HAK'
	DB	'jKjseK</xKT*)B,N9X3]krc12t''pgTV(Lv-tL[xg_%=M_q7a^x?7Ubd>#%8c'
	DB	'Y#YZ?=,`Wdxu/ae&#w6)R89tI#6@s''(6Bf7a&?S=^ZI_kS&ai`&=tE72L_D,'
	DB	';^R)7[$s<Eh#c&)q.MXI%#v9ROa5FZO%sF7q7Nwb&#ptUJ:aqJe$Sl68%.D##'
	DB	'#EC><?-aF&#RNQv>o8lKN%5/$(vdfq7+ebA#u1p]ovUKW&Y%q]''>$1@-[xfn'
	DB	'$7ZTp7mM,G,Ko7a&Gu%G[RMxJs[0MM%wci.LFDK)(<c`Q8N)jEIF*+?P2a8g%'
	DB	')$q]o2aH8C&<SibC/q,(e:v;-b#6[$NtDZ84Je2KNvB#$P5?tQ3nt(0d=j.LQ'
	DB	'f./Ll33+(;q3L-w=8dX$#WF&uIJ@-bfI>%:_i2B5CsR8&9Z&#=mPEnm0f`<&c'
	DB	')QL5uJ#%u%lJj+D-r;BoF&#4DoS97h5g)E#o:&S4weDF,9^Hoe`h*L+_a*NrL'
	DB	'W-1pG_&2UdB86e%B/:=>)N4xeW.*wft-;$''58-ESqr<b?UI(_%@[P46>#U`'''
	DB	'6AQ]m&6/`Z>#S?YY#Vc;r7U2&326d=w&H####?TZ`*4?&.MK?LP8Vxg>$[QXc'
	DB	'%QJv92.(Db*B)gb*BM9dM*hJMAo*c&#b0v=Pjer]$gG&JXDf->''StvU7505l'
	DB	'9$AFvgYRI^&<^b68?j#q9QX4SM''RO#&sL1IM.rJfLUAj221]d##DW=m83u5;'
	DB	'''bYx,*Sl0hL(W;;$doB&O/TQ:(Z^xBdLjL<Lni;''''X.`$#8+1GD:k$YUWs'
	DB	'bn8ogh6rxZ2Z9]%nd+>V#*8U_72Lh+2Q8Cj0i:6hp&$C/:p(HK>T8Y[gHQ4`4'
	DB	')''$Ab(Nof%V''8hL&#<NEdtg(n''=S1A(Q1/I&4([%dM`,Iu''1:_hL>SfD0'
	DB	'7&6D<fp8dHM7/g+tlPN9J*rKaPct&?''uBCem^jn%9_K)<,C5K3s=5g&GmJb*'
	DB	'[SYq7K;TRLGCsM-$$;S%:Y@r7AK0pprpL<Lrh,q7e/%KWK:50I^+m''vi`3?%'
	DB	'Zp+<-d+$L-Sv:@.o19n$s0&39;kn;S%BSq*$3WoJSCLweV[aZ''MQIjO<7;X-'
	DB	'X;&+dMLvu#^UsGEC9WEc[X(wI7#2.(F0jV*eZf<-Qv3J-c+J5AlrB#$p(H68L'
	DB	'vEA''q3n0#m,[`*8Ft)FcYgEud]CWfm68,(aLA$@EFTgLXoBq/UPlp7:d[/;r'
	DB	'_ix=:TF`S5H-b<LI&HY(K=h#)]Lk$K14lVfm:x$H<3^Ql<M`$OhapBnkup''D'
	DB	'#L$Pb_`N*g]2e;X/Dtg,bsj&K#2[-:iYr''_wgH)NUIR8a1n#S?Yej''h8^58'
	DB	'UbZd+^FKD*T@;6A7aQC[K8d-(v6GI$x:T<&''Gp5Uf>@M.*J:;$-rv29''M]8'
	DB	'qMv-tLp,''886iaC=Hb*YJoKJ,(j%K=H`K.v9HggqBIiZu''QvBT.#=)0ukru'
	DB	'V&.)3=(^1`o*Pj4<-<aN((^7(''#Z0wK#5GX@7u][`*S^43933A4rl][`*O4C'
	DB	'gLEl]v$1Q3AeF37dbXk,.)vj#x''d`;qgbQR%FW,2(?LO=s%Sc68%NP''##Ao'
	DB	'tl8x=BE#j1UD([3$M(]UI2LX3RpKN@;/#f''f/&_mt&F)XdF<9t4)Qa.*kTLw'
	DB	'Q''(TTB9.xH''>#MJ+gLq9-##@HuZPN0]u:h7.T..G:;$/Usj(T7`Q8tT72Ln'
	DB	'Yl<-qx8;-HV7Q-&Xdx%1a,hC=0u+HlsV>nuIQL-5<N?)NBS)QN*_I,?&)2''I'
	DB	'M%L3I)X((e/dl2&8''<M:^#M*Q+[T.Xri.LYS3v%fF`68h;b-X[/En''CR.q7'
	DB	'E)p''/kle2HM,u;^%OKC-N+Ll%F9CF<Nf''^#t2L,;27W:0O@6##U6W7:$rJf'
	DB	'LWHj$#)woqBefIZ.PK<b*t7ed;p*_m;4ExK#h@&]>_>@kXQtMacfD.m-VAb8;'
	DB	'IReM3$wf0''''hra*so568''Ip&vRs849''MRYSp%:t:h5qSgwpEr$B>Q,;s('
	DB	'C#$)`svQuF$##-D,##,g68@2[T;.XSdN9Qe)rpt._K-#5wF)sP''##p#C0c%-'
	DB	'Gb%hd+<-j''Ai*x&&HMkT]C''OSl##5RG[JXaHN;d''uA#x._U;.`PU@(Z3dt'
	DB	'4r152@:v,''R.Sj''w#0<-;kPI)FfJ&#AYJ&#//)>-k=m=*XnK$>=)72L]0I%'
	DB	'>.G690a:$##<,);?;72#?x9+d;^V''9;jY@;)br#q^YQpx:X#Te$Z^''=-=bG'
	DB	'hLf:D6&bNwZ9-ZD#n^9HhLMr5G;'']d&6''wYmTFmL<LD)F^%[tC''8;+9E#C'
	DB	'$g%#5Y>q9wI>P(9mI[>kC-ekLC/R&CH+s''B;K-M6$EB%is00:+A4[7xks.Lr'
	DB	'Nk0&E)wILYF@2L''0Nb$+pv<(2.768/FrY&h$^3i&@+G%JT''<-,v`3;_)I9M'
	DB	'^AE]CN?Cl2AZg+%4iTpT3<n-&%H%b<FDj2M<hH=&Eh<2Len$b*aTX=-8QxN)k'
	DB	'11IM1c^j%9s<L<NFSo)B?+<-(GxsF,^-Eh@$4dXhN$+#rxK8''je''D7k`e;)'
	DB	'2pYwPA''_p9&@^18ml1^[@g4t*[JOa*[=Qp7(qJ_oOL^(''7fB&Hq-:sf,sNj'
	DB	'8xq^>$U4O]GKx''m9)b@p7YsvK3w^YR-CdQ*:Ir<($u&)#(&?L9Rg3H)4fiEp'
	DB	'^iI9O8KnTj,]H?D*r7''M;PwZ9K0E^k&-cpI;.p/6_vwoFMV<->#%Xi.LxVnr'
	DB	'U(4&8/P+:hLSKj$#U%]49t''I:rgMi''FL@a:0Y-uA[39'',(vbma*hU%<-SR'
	DB	'F`Tt:542R_VV$p@[p8DV[A,?1839FWdF<TddF<9Ah-6&9tWoDlh]&1SpGMq>T'
	DB	'i1O*H&#(AL8[_P%.M>v^-))qOT*F5Cq0`Ye%+$B6i:7@0IX<N+T+0MlMBPQ*V'
	DB	'j>SsD<U4JHY8kD2)2fU/M#$e.)T4,_=8hLim[&);?UkK''-x?''(:siIfL<$p'
	DB	'FM`i<?%W(mGDHM%>iWP,##P`%/L<eXi:@Z9C.7o=@(pXdAO/NLQ8lPl+HPOQa'
	DB	'8wD8=^GlPa8TKI1CjhsCTSLJM''/Wl>-S(qw%sf/@%#B6;/U7K]uZbi^Oc^2n'
	DB	'<bhPmUkMw>%t<)''mEVE''''n`WnJra$^TKvX5B>;_aSEK'',(hwa0:i4G?.B'
	DB	'ci.(X[?b*($,=-n<.Q%`(X=?+@Am*Js0&=3bh8K]mL<LoNs''6,''85`0?t/'''
	DB	'_U59@]ddF<#LdF<eWdF<OuN/45rY<-L@&#+fm>69=Lb,OcZV/);TTm8VI;?%O'
	DB	'tJ<(b4mq7M6:u?KRdF<gR@2L=FNU-<b[(9c/ML3m;Z[$oF3g)GAWqpARc=<RO'
	DB	'u7cL5l;-[A]%/+fsd;l#SafT/f*W]0=O''$(Tb<[)*@e775R-:Yob%g*>l*:x'
	DB	'P?Yb.5)%w_I?7uk5JC+FS(m#i''k.''a0i)9<7b''fs''59hq$*5Uhv##pi^8'
	DB	'+hIEBF`nvo`;''l0.^S1<-wUK2/Coh58KKhLjM=SO*rfO`+qC`W-On.=AJ56>'
	DB	'>i2@2LH6A:&5q`?9I3@@''04&p2/LVa*T-4<-i3;M9UvZd+N7>b*eIwg:CC)c'
	DB	'<>nO&#<IGe;__.thjZl<%w(Wk2xmp4Q@I#I9,DF]u7-P=.-_:YJ]aS@V?6*C('
	DB	')dOp7:WL,b&3Rg/.cmM9&r^>$(>.Z-I&J(Q0Hd5Q%7Co-b`-c<N(6r@ip+Aur'
	DB	'K<m86QIth*#v;-OBqi+L7wDE-Ir8K[''m+DDSLwK&/.?-V%U_%3:qKNu$_b*B'
	DB	'-kp7NaD''QdWQPKYq[@>P)hI;*_F]u`Rb[.j8_Q/<&>uu+VsH$sM9TA%?)(vm'
	DB	'J80),P7E>)tjD%2L=-t#fK[%`v=Q8<FfNkgg^oIbah*#8/Qt$F&:K*-(N/''+'
	DB	'1vMB,u()-a.VUU*#[e%gAAO(S>WlA2);Sa>gXm8YB`1d@K#n]76-a$U,mF<fX'
	DB	']idqd)<3,]J7JmW4`6]uks=4-72L(jEk+:bJ0M^q-8Dm_Z?0olP1C9Sa&H[d&'
	DB	'c$ooQUj]Exd*3ZM@-WGW2%s'',B-_M%>%Ul:#/''xoFM9QX-$.QN''>[%$Z$u'
	DB	'F6pA6Ki2O5:8w*vP1<-1`[G,)-m#>0`P&#eb#.3i)rtB61(o''$?X3B</R90;'
	DB	'eZ]%Ncq;-Tl]#F>2Qft^ae_5tKL9MUe9b*sLEQ95C&`=G?@Mj=wh*''3E>=-<'
	DB	')Gt*Iw)''QG:`@IwOf7&]1i''S01B+Ev/Nac#9S;=;YQpg_6U`*kVY39xK,[/'
	DB	'6Aj7:''1Bm-_1EYfa1+o&o4hp7KN_Q(OlIo@S%;jVdn0''1<Vc52=u`3^o-n1'
	DB	'''g4v58Hj&6_t7$##?M)c<$bgQ_''SY((-xkA#Y(,p''H9rIVY-b,''%bCPF7'
	DB	'.J<Up^,(dU1VY*5#WkTU>h19w,WQhLI)3S#f$2(eb,jr*b;3Vw]*7NH%$c4Vs'
	DB	',eD9>XW8?N]o+(*pgC%/72LV-u<Hp,3@e^9UB1J+ak9-TN/mhKPg+AJYd$Mlv'
	DB	'AF_jCK*.O-^(63adMT->W%iewS8W6m2rtCpo''RS1R84=@paTKt)>=%&1[)*v'
	DB	'p''u+x,VrwN;&]kuO9JDbg=pO$J*.jVe;u''m0dr9l,<*wMK*Oe=g8lV_KEBF'
	DB	'kO''oU]^=[-792#ok,)i]lR8qQ2oA8wcRCZ^7w/Njh;?.stX?Q1>S1q4Bn$)K'
	DB	'1<-rGdO''$Wr.Lc.CG)$/*JL4tNR/,SVO3,aUw''DJN:)Ss;wGn9A32ijw%FL'
	DB	'+Z0Fn.U9;reSq)bmI32U==5ALuG&#Vf1398/pVo1*c-(aY168o<`JsSbk-,1N'
	DB	';$>0:OUas(3:8Z972LSfF8eb=c-;>SPw7.6hn3m`9^Xkn(r.qS[0;T%&Qc=+S'
	DB	'TRxX''q1BNk3&*eu2;&8q$&x>Q#Q7^Tf+6<(d%ZVmj2bDi%.3L2n+4W''$PiD'
	DB	'DG)g,r%+?,$@?uou5tSe2aN_AQU*<h`e-GI7)?OK2A.d7_c)?wQ5AS@DL3r#7'
	DB	'fSkgl6-++D:''A,uq7SvlB$pcpH''q3n0#_%dY#xCpr-l<F0NR@-##FEV6NTF'
	DB	'6##$l84N1w?AO>''IAOURQ##V^Fv-XFbGM7Fl(N<3DhLGF%q.1rC$#:T__&Pi'
	DB	'68%0xi_&[qFJ(77j_&JWoF.V735&T,[R*:xFR*K5>>#`bW-?4Ne_&6Ne_&6Ne'
	DB	'_&n`kr-#GJcM6X;uM6X;uM(.a..^2TkL%oR(#;u.T%fAr%4tJ8&><1=GHZ_+m'
	DB	'9/#H1F^R#SC#*N=BA9(D?v[UiFY>>^8p,KKF.W]L29uLkLlu/+4T<XoIB&hx='
	DB	'T1PcDaB&;HH+-AFr?(m9HZV)FKS8JCw;SD=6[^/DZUL`EUDf]GGlG&>w$)F./'
	DB	'^n3+rlo+DB;5sIYGNk+i1t-69Jg--0pao7Sm#K)pdHW&;LuDNH@H>#/X-TI(;'
	DB	'P>#,Gc>#0Su>#4`1?#8lC?#<xU?#@.i?#D:%@#HF7@#LRI@#P_[@#Tkn@#Xw*'
	DB	'A#]-=A#a9OA#d<F&#*;G##.GY##2Sl##6`($#:l:$#>xL$#B.`$#F:r$#JF.%'
	DB	'#NR@%#R_R%#Vke%#Zww%#_-4&#3^Rh%Sflr-k''MS.o?.5/sWel/wpEM0%3'''
	DB	'/1)K^f1-d>G21&v(35>V`39V7A4=onx4A1OY5EI0;6Ibgr6M$HS7Q<)58C5w,'
	DB	';WoA*#[%T*#`1g*#d=#+#hI5+#lUG+#pbY+#tnl+#x$),#&1;,#*=M,#.I`,#'
	DB	'2Ur,#6b.-#;w[H#iQtA#m^0B#qjBB#uvTB##-hB#''9$C#+E6C#/QHC#3^ZC#'
	DB	'7jmC#;v)D#?,<D#C8ND#GDaD#KPsD#O]/E#g1A5#KA*1#gC17#MGd;#8(02#L'
	DB	'-d3#rWM4#Hga1#,<w0#T.j<#O#''2#CYN1#qa^:#_4m3#o@/=#eG8=#t8J5#`'
	DB	'+78#4uI-#m3B2#SB[8#Q0@8#i[*9#iOn8#1Nm;#^sN9#qh<9#:=x-#P;K2#$%'
	DB	'X9#bC+.#Rg;<#mN=.#MTF.#RZO.#2?)4#Y#(/#[)1/#b;L/#dAU/#0Sv;#lY$'
	DB	'0#n`-0#sf60#(F24#wrH0#%/e0#TmD<#%JSMFove:CTBEXI:<eh2g)B,3h2^G'
	DB	'3i;#d3jD>)4kMYD4lVu`4m`:&5niUA5@(A5BA1]PBB:xlBCC=2CDLXMCEUtiC'
	DB	'f&0g2''tN?PGT4CPGT4CPGT4CPGT4CPGT4CPGT4CPGT4CPGT4CPGT4CPGT4CP'
	DB	'GT4CPGT4CPGT4CP-qekC`.9kEg^+F$kwViFJTB&5KTB&5KTB&5KTB&5KTB&5K'
	DB	'TB&5KTB&5KTB&5KTB&5KTB&5KTB&5KTB&5KTB&5KTB&5KTB&5o,^<-28ZI''O'
	DB	'?;xpO?;xpO?;xpO?;xpO?;xpO?;xpO?;xpO?;xpO?;xpO?;xpO?;xpO?;xpO?'
	DB	';xpO?;xp;7q-#lLYI:xvD=#', 00H		; proggy_clean_ttf_compressed_data_base85
CONST	ENDS
PUBLIC	??_H@YAXPEAX_K1P6APEAX0@Z@Z			; `vector constructor iterator'
PUBLIC	??0ImVec2@@QEAA@XZ				; ImVec2::ImVec2
PUBLIC	??0ImVec2@@QEAA@MM@Z				; ImVec2::ImVec2
PUBLIC	??0ImVec4@@QEAA@XZ				; ImVec4::ImVec4
PUBLIC	??0ImVec4@@QEAA@MMMM@Z				; ImVec4::ImVec4
PUBLIC	?StyleColorsDark@ImGui@@YAXPEAUImGuiStyle@@@Z	; ImGui::StyleColorsDark
PUBLIC	?StyleColorsClassic@ImGui@@YAXPEAUImGuiStyle@@@Z ; ImGui::StyleColorsClassic
PUBLIC	?StyleColorsLight@ImGui@@YAXPEAUImGuiStyle@@@Z	; ImGui::StyleColorsLight
PUBLIC	??2@YAPEAX_KUImNewDummy@@PEAX@Z			; operator new
PUBLIC	??3@YAXPEAXUImNewDummy@@0@Z			; operator delete
PUBLIC	??0?$ImVector@G@@QEAA@XZ			; ImVector<unsigned short>::ImVector<unsigned short>
PUBLIC	??4?$ImVector@G@@QEAAAEAU0@AEBU0@@Z		; ImVector<unsigned short>::operator=
PUBLIC	??1?$ImVector@G@@QEAA@XZ			; ImVector<unsigned short>::~ImVector<unsigned short>
PUBLIC	?empty@?$ImVector@G@@QEBA_NXZ			; ImVector<unsigned short>::empty
PUBLIC	??A?$ImVector@G@@QEAAAEAGH@Z			; ImVector<unsigned short>::operator[]
PUBLIC	?clear@?$ImVector@G@@QEAAXXZ			; ImVector<unsigned short>::clear
PUBLIC	?_grow_capacity@?$ImVector@G@@QEBAHH@Z		; ImVector<unsigned short>::_grow_capacity
PUBLIC	?resize@?$ImVector@G@@QEAAXH@Z			; ImVector<unsigned short>::resize
PUBLIC	?resize@?$ImVector@G@@QEAAXHAEBG@Z		; ImVector<unsigned short>::resize
PUBLIC	?shrink@?$ImVector@G@@QEAAXH@Z			; ImVector<unsigned short>::shrink
PUBLIC	?reserve@?$ImVector@G@@QEAAXH@Z			; ImVector<unsigned short>::reserve
PUBLIC	?push_back@?$ImVector@G@@QEAAXAEBG@Z		; ImVector<unsigned short>::push_back
PUBLIC	??0ImDrawCmd@@QEAA@XZ				; ImDrawCmd::ImDrawCmd
PUBLIC	??0?$ImVector@UImDrawCmd@@@@QEAA@XZ		; ImVector<ImDrawCmd>::ImVector<ImDrawCmd>
PUBLIC	??4?$ImVector@UImDrawCmd@@@@QEAAAEAU0@AEBU0@@Z	; ImVector<ImDrawCmd>::operator=
PUBLIC	??1?$ImVector@UImDrawCmd@@@@QEAA@XZ		; ImVector<ImDrawCmd>::~ImVector<ImDrawCmd>
PUBLIC	??A?$ImVector@UImDrawCmd@@@@QEAAAEAUImDrawCmd@@H@Z ; ImVector<ImDrawCmd>::operator[]
PUBLIC	?clear@?$ImVector@UImDrawCmd@@@@QEAAXXZ		; ImVector<ImDrawCmd>::clear
PUBLIC	?back@?$ImVector@UImDrawCmd@@@@QEAAAEAUImDrawCmd@@XZ ; ImVector<ImDrawCmd>::back
PUBLIC	?_grow_capacity@?$ImVector@UImDrawCmd@@@@QEBAHH@Z ; ImVector<ImDrawCmd>::_grow_capacity
PUBLIC	?resize@?$ImVector@UImDrawCmd@@@@QEAAXH@Z	; ImVector<ImDrawCmd>::resize
PUBLIC	?reserve@?$ImVector@UImDrawCmd@@@@QEAAXH@Z	; ImVector<ImDrawCmd>::reserve
PUBLIC	?push_back@?$ImVector@UImDrawCmd@@@@QEAAXAEBUImDrawCmd@@@Z ; ImVector<ImDrawCmd>::push_back
PUBLIC	?pop_back@?$ImVector@UImDrawCmd@@@@QEAAXXZ	; ImVector<ImDrawCmd>::pop_back
PUBLIC	?erase@?$ImVector@UImDrawCmd@@@@QEAAPEAUImDrawCmd@@PEBU2@@Z ; ImVector<ImDrawCmd>::erase
PUBLIC	??0ImDrawChannel@@QEAA@XZ			; ImDrawChannel::ImDrawChannel
PUBLIC	??0?$ImVector@UImDrawChannel@@@@QEAA@XZ		; ImVector<ImDrawChannel>::ImVector<ImDrawChannel>
PUBLIC	??1?$ImVector@UImDrawChannel@@@@QEAA@XZ		; ImVector<ImDrawChannel>::~ImVector<ImDrawChannel>
PUBLIC	??A?$ImVector@UImDrawChannel@@@@QEAAAEAUImDrawChannel@@H@Z ; ImVector<ImDrawChannel>::operator[]
PUBLIC	?clear@?$ImVector@UImDrawChannel@@@@QEAAXXZ	; ImVector<ImDrawChannel>::clear
PUBLIC	?_grow_capacity@?$ImVector@UImDrawChannel@@@@QEBAHH@Z ; ImVector<ImDrawChannel>::_grow_capacity
PUBLIC	?resize@?$ImVector@UImDrawChannel@@@@QEAAXH@Z	; ImVector<ImDrawChannel>::resize
PUBLIC	?reserve@?$ImVector@UImDrawChannel@@@@QEAAXH@Z	; ImVector<ImDrawChannel>::reserve
PUBLIC	??0ImDrawListSplitter@@QEAA@XZ			; ImDrawListSplitter::ImDrawListSplitter
PUBLIC	??1ImDrawListSplitter@@QEAA@XZ			; ImDrawListSplitter::~ImDrawListSplitter
PUBLIC	?Clear@ImDrawListSplitter@@QEAAXXZ		; ImDrawListSplitter::Clear
PUBLIC	?ClearFreeMemory@ImDrawListSplitter@@QEAAXXZ	; ImDrawListSplitter::ClearFreeMemory
PUBLIC	?Split@ImDrawListSplitter@@QEAAXPEAUImDrawList@@H@Z ; ImDrawListSplitter::Split
PUBLIC	?Merge@ImDrawListSplitter@@QEAAXPEAUImDrawList@@@Z ; ImDrawListSplitter::Merge
PUBLIC	?SetCurrentChannel@ImDrawListSplitter@@QEAAXPEAUImDrawList@@H@Z ; ImDrawListSplitter::SetCurrentChannel
PUBLIC	??0?$ImVector@UImDrawVert@@@@QEAA@XZ		; ImVector<ImDrawVert>::ImVector<ImDrawVert>
PUBLIC	??4?$ImVector@UImDrawVert@@@@QEAAAEAU0@AEBU0@@Z	; ImVector<ImDrawVert>::operator=
PUBLIC	??1?$ImVector@UImDrawVert@@@@QEAA@XZ		; ImVector<ImDrawVert>::~ImVector<ImDrawVert>
PUBLIC	??A?$ImVector@UImDrawVert@@@@QEAAAEAUImDrawVert@@H@Z ; ImVector<ImDrawVert>::operator[]
PUBLIC	?clear@?$ImVector@UImDrawVert@@@@QEAAXXZ	; ImVector<ImDrawVert>::clear
PUBLIC	?swap@?$ImVector@UImDrawVert@@@@QEAAXAEAU1@@Z	; ImVector<ImDrawVert>::swap
PUBLIC	?_grow_capacity@?$ImVector@UImDrawVert@@@@QEBAHH@Z ; ImVector<ImDrawVert>::_grow_capacity
PUBLIC	?resize@?$ImVector@UImDrawVert@@@@QEAAXH@Z	; ImVector<ImDrawVert>::resize
PUBLIC	?shrink@?$ImVector@UImDrawVert@@@@QEAAXH@Z	; ImVector<ImDrawVert>::shrink
PUBLIC	?reserve@?$ImVector@UImDrawVert@@@@QEAAXH@Z	; ImVector<ImDrawVert>::reserve
PUBLIC	??0?$ImVector@UImVec4@@@@QEAA@XZ		; ImVector<ImVec4>::ImVector<ImVec4>
PUBLIC	??1?$ImVector@UImVec4@@@@QEAA@XZ		; ImVector<ImVec4>::~ImVector<ImVec4>
PUBLIC	?clear@?$ImVector@UImVec4@@@@QEAAXXZ		; ImVector<ImVec4>::clear
PUBLIC	?back@?$ImVector@UImVec4@@@@QEAAAEAUImVec4@@XZ	; ImVector<ImVec4>::back
PUBLIC	?_grow_capacity@?$ImVector@UImVec4@@@@QEBAHH@Z	; ImVector<ImVec4>::_grow_capacity
PUBLIC	?resize@?$ImVector@UImVec4@@@@QEAAXH@Z		; ImVector<ImVec4>::resize
PUBLIC	?reserve@?$ImVector@UImVec4@@@@QEAAXH@Z		; ImVector<ImVec4>::reserve
PUBLIC	?push_back@?$ImVector@UImVec4@@@@QEAAXAEBUImVec4@@@Z ; ImVector<ImVec4>::push_back
PUBLIC	?pop_back@?$ImVector@UImVec4@@@@QEAAXXZ		; ImVector<ImVec4>::pop_back
PUBLIC	??0?$ImVector@PEAX@@QEAA@XZ			; ImVector<void *>::ImVector<void *>
PUBLIC	??1?$ImVector@PEAX@@QEAA@XZ			; ImVector<void *>::~ImVector<void *>
PUBLIC	?empty@?$ImVector@PEAX@@QEBA_NXZ		; ImVector<void *>::empty
PUBLIC	?clear@?$ImVector@PEAX@@QEAAXXZ			; ImVector<void *>::clear
PUBLIC	?back@?$ImVector@PEAX@@QEAAAEAPEAXXZ		; ImVector<void *>::back
PUBLIC	?_grow_capacity@?$ImVector@PEAX@@QEBAHH@Z	; ImVector<void *>::_grow_capacity
PUBLIC	?resize@?$ImVector@PEAX@@QEAAXH@Z		; ImVector<void *>::resize
PUBLIC	?reserve@?$ImVector@PEAX@@QEAAXH@Z		; ImVector<void *>::reserve
PUBLIC	?push_back@?$ImVector@PEAX@@QEAAXAEBQEAX@Z	; ImVector<void *>::push_back
PUBLIC	?pop_back@?$ImVector@PEAX@@QEAAXXZ		; ImVector<void *>::pop_back
PUBLIC	??0?$ImVector@UImVec2@@@@QEAA@XZ		; ImVector<ImVec2>::ImVector<ImVec2>
PUBLIC	??1?$ImVector@UImVec2@@@@QEAA@XZ		; ImVector<ImVec2>::~ImVector<ImVec2>
PUBLIC	?clear@?$ImVector@UImVec2@@@@QEAAXXZ		; ImVector<ImVec2>::clear
PUBLIC	?back@?$ImVector@UImVec2@@@@QEAAAEAUImVec2@@XZ	; ImVector<ImVec2>::back
PUBLIC	?_grow_capacity@?$ImVector@UImVec2@@@@QEBAHH@Z	; ImVector<ImVec2>::_grow_capacity
PUBLIC	?resize@?$ImVector@UImVec2@@@@QEAAXH@Z		; ImVector<ImVec2>::resize
PUBLIC	?reserve@?$ImVector@UImVec2@@@@QEAAXH@Z		; ImVector<ImVec2>::reserve
PUBLIC	?push_back@?$ImVector@UImVec2@@@@QEAAXAEBUImVec2@@@Z ; ImVector<ImVec2>::push_back
PUBLIC	??0ImDrawList@@QEAA@PEBUImDrawListSharedData@@@Z ; ImDrawList::ImDrawList
PUBLIC	?PushClipRect@ImDrawList@@QEAAXUImVec2@@0_N@Z	; ImDrawList::PushClipRect
PUBLIC	?PushClipRectFullScreen@ImDrawList@@QEAAXXZ	; ImDrawList::PushClipRectFullScreen
PUBLIC	?PopClipRect@ImDrawList@@QEAAXXZ		; ImDrawList::PopClipRect
PUBLIC	?PushTextureID@ImDrawList@@QEAAXPEAX@Z		; ImDrawList::PushTextureID
PUBLIC	?PopTextureID@ImDrawList@@QEAAXXZ		; ImDrawList::PopTextureID
PUBLIC	?AddLine@ImDrawList@@QEAAXAEBUImVec2@@0IM@Z	; ImDrawList::AddLine
PUBLIC	?AddRect@ImDrawList@@QEAAXAEBUImVec2@@0IMHM@Z	; ImDrawList::AddRect
PUBLIC	?AddRectFilled@ImDrawList@@QEAAXAEBUImVec2@@0IMH@Z ; ImDrawList::AddRectFilled
PUBLIC	?AddRectFilledMultiColor@ImDrawList@@QEAAXAEBUImVec2@@0IIII@Z ; ImDrawList::AddRectFilledMultiColor
PUBLIC	?AddQuad@ImDrawList@@QEAAXAEBUImVec2@@000IM@Z	; ImDrawList::AddQuad
PUBLIC	?AddQuadFilled@ImDrawList@@QEAAXAEBUImVec2@@000I@Z ; ImDrawList::AddQuadFilled
PUBLIC	?AddTriangle@ImDrawList@@QEAAXAEBUImVec2@@00IM@Z ; ImDrawList::AddTriangle
PUBLIC	?AddTriangleFilled@ImDrawList@@QEAAXAEBUImVec2@@00I@Z ; ImDrawList::AddTriangleFilled
PUBLIC	?AddCircle@ImDrawList@@QEAAXAEBUImVec2@@MIHM@Z	; ImDrawList::AddCircle
PUBLIC	?AddCircleFilled@ImDrawList@@QEAAXAEBUImVec2@@MIH@Z ; ImDrawList::AddCircleFilled
PUBLIC	?AddNgon@ImDrawList@@QEAAXAEBUImVec2@@MIHM@Z	; ImDrawList::AddNgon
PUBLIC	?AddNgonFilled@ImDrawList@@QEAAXAEBUImVec2@@MIH@Z ; ImDrawList::AddNgonFilled
PUBLIC	?AddText@ImDrawList@@QEAAXAEBUImVec2@@IPEBD1@Z	; ImDrawList::AddText
PUBLIC	?AddText@ImDrawList@@QEAAXPEBUImFont@@MAEBUImVec2@@IPEBD2MPEBUImVec4@@@Z ; ImDrawList::AddText
PUBLIC	?AddPolyline@ImDrawList@@QEAAXPEBUImVec2@@HI_NM@Z ; ImDrawList::AddPolyline
PUBLIC	?AddConvexPolyFilled@ImDrawList@@QEAAXPEBUImVec2@@HI@Z ; ImDrawList::AddConvexPolyFilled
PUBLIC	?AddBezierCurve@ImDrawList@@QEAAXAEBUImVec2@@000IMH@Z ; ImDrawList::AddBezierCurve
PUBLIC	?AddImage@ImDrawList@@QEAAXPEAXAEBUImVec2@@111I@Z ; ImDrawList::AddImage
PUBLIC	?AddImageQuad@ImDrawList@@QEAAXPEAXAEBUImVec2@@1111111I@Z ; ImDrawList::AddImageQuad
PUBLIC	?AddImageRounded@ImDrawList@@QEAAXPEAXAEBUImVec2@@111IMH@Z ; ImDrawList::AddImageRounded
PUBLIC	?PathLineTo@ImDrawList@@QEAAXAEBUImVec2@@@Z	; ImDrawList::PathLineTo
PUBLIC	?PathFillConvex@ImDrawList@@QEAAXI@Z		; ImDrawList::PathFillConvex
PUBLIC	?PathStroke@ImDrawList@@QEAAXI_NM@Z		; ImDrawList::PathStroke
PUBLIC	?PathArcTo@ImDrawList@@QEAAXAEBUImVec2@@MMMH@Z	; ImDrawList::PathArcTo
PUBLIC	?PathArcToFast@ImDrawList@@QEAAXAEBUImVec2@@MHH@Z ; ImDrawList::PathArcToFast
PUBLIC	?PathBezierCurveTo@ImDrawList@@QEAAXAEBUImVec2@@00H@Z ; ImDrawList::PathBezierCurveTo
PUBLIC	?PathRect@ImDrawList@@QEAAXAEBUImVec2@@0MH@Z	; ImDrawList::PathRect
PUBLIC	?AddCallback@ImDrawList@@QEAAXP6AXPEBU1@PEBUImDrawCmd@@@ZPEAX@Z ; ImDrawList::AddCallback
PUBLIC	?AddDrawCmd@ImDrawList@@QEAAXXZ			; ImDrawList::AddDrawCmd
PUBLIC	?CloneOutput@ImDrawList@@QEBAPEAU1@XZ		; ImDrawList::CloneOutput
PUBLIC	?Clear@ImDrawList@@QEAAXXZ			; ImDrawList::Clear
PUBLIC	?ClearFreeMemory@ImDrawList@@QEAAXXZ		; ImDrawList::ClearFreeMemory
PUBLIC	?PrimReserve@ImDrawList@@QEAAXHH@Z		; ImDrawList::PrimReserve
PUBLIC	?PrimUnreserve@ImDrawList@@QEAAXHH@Z		; ImDrawList::PrimUnreserve
PUBLIC	?PrimRect@ImDrawList@@QEAAXAEBUImVec2@@0I@Z	; ImDrawList::PrimRect
PUBLIC	?PrimRectUV@ImDrawList@@QEAAXAEBUImVec2@@000I@Z	; ImDrawList::PrimRectUV
PUBLIC	?PrimQuadUV@ImDrawList@@QEAAXAEBUImVec2@@0000000I@Z ; ImDrawList::PrimQuadUV
PUBLIC	?PrimWriteVtx@ImDrawList@@QEAAXAEBUImVec2@@0I@Z	; ImDrawList::PrimWriteVtx
PUBLIC	?PrimWriteIdx@ImDrawList@@QEAAXG@Z		; ImDrawList::PrimWriteIdx
PUBLIC	?UpdateClipRect@ImDrawList@@QEAAXXZ		; ImDrawList::UpdateClipRect
PUBLIC	?UpdateTextureID@ImDrawList@@QEAAXXZ		; ImDrawList::UpdateTextureID
PUBLIC	?DeIndexAllBuffers@ImDrawData@@QEAAXXZ		; ImDrawData::DeIndexAllBuffers
PUBLIC	?ScaleClipRects@ImDrawData@@QEAAXAEBUImVec2@@@Z	; ImDrawData::ScaleClipRects
PUBLIC	??0ImFontConfig@@QEAA@XZ			; ImFontConfig::ImFontConfig
PUBLIC	??1?$ImVector@I@@QEAA@XZ			; ImVector<unsigned int>::~ImVector<unsigned int>
PUBLIC	?empty@?$ImVector@I@@QEBA_NXZ			; ImVector<unsigned int>::empty
PUBLIC	??A?$ImVector@I@@QEAAAEAIH@Z			; ImVector<unsigned int>::operator[]
PUBLIC	??A?$ImVector@I@@QEBAAEBIH@Z			; ImVector<unsigned int>::operator[]
PUBLIC	?clear@?$ImVector@I@@QEAAXXZ			; ImVector<unsigned int>::clear
PUBLIC	?begin@?$ImVector@I@@QEBAPEBIXZ			; ImVector<unsigned int>::begin
PUBLIC	?end@?$ImVector@I@@QEBAPEBIXZ			; ImVector<unsigned int>::end
PUBLIC	?_grow_capacity@?$ImVector@I@@QEBAHH@Z		; ImVector<unsigned int>::_grow_capacity
PUBLIC	?resize@?$ImVector@I@@QEAAXH@Z			; ImVector<unsigned int>::resize
PUBLIC	?reserve@?$ImVector@I@@QEAAXH@Z			; ImVector<unsigned int>::reserve
PUBLIC	?GetBit@ImFontGlyphRangesBuilder@@QEBA_N_K@Z	; ImFontGlyphRangesBuilder::GetBit
PUBLIC	?SetBit@ImFontGlyphRangesBuilder@@QEAAX_K@Z	; ImFontGlyphRangesBuilder::SetBit
PUBLIC	?AddChar@ImFontGlyphRangesBuilder@@QEAAXG@Z	; ImFontGlyphRangesBuilder::AddChar
PUBLIC	?AddText@ImFontGlyphRangesBuilder@@QEAAXPEBD0@Z	; ImFontGlyphRangesBuilder::AddText
PUBLIC	?AddRanges@ImFontGlyphRangesBuilder@@QEAAXPEBG@Z ; ImFontGlyphRangesBuilder::AddRanges
PUBLIC	?BuildRanges@ImFontGlyphRangesBuilder@@QEAAXPEAU?$ImVector@G@@@Z ; ImFontGlyphRangesBuilder::BuildRanges
PUBLIC	??0ImFontAtlasCustomRect@@QEAA@XZ		; ImFontAtlasCustomRect::ImFontAtlasCustomRect
PUBLIC	?IsPacked@ImFontAtlasCustomRect@@QEBA_NXZ	; ImFontAtlasCustomRect::IsPacked
PUBLIC	??0ImFontAtlas@@QEAA@XZ				; ImFontAtlas::ImFontAtlas
PUBLIC	??1ImFontAtlas@@QEAA@XZ				; ImFontAtlas::~ImFontAtlas
PUBLIC	?AddFont@ImFontAtlas@@QEAAPEAUImFont@@PEBUImFontConfig@@@Z ; ImFontAtlas::AddFont
PUBLIC	?AddFontDefault@ImFontAtlas@@QEAAPEAUImFont@@PEBUImFontConfig@@@Z ; ImFontAtlas::AddFontDefault
PUBLIC	?AddFontFromFileTTF@ImFontAtlas@@QEAAPEAUImFont@@PEBDMPEBUImFontConfig@@PEBG@Z ; ImFontAtlas::AddFontFromFileTTF
PUBLIC	?AddFontFromMemoryTTF@ImFontAtlas@@QEAAPEAUImFont@@PEAXHMPEBUImFontConfig@@PEBG@Z ; ImFontAtlas::AddFontFromMemoryTTF
PUBLIC	?AddFontFromMemoryCompressedTTF@ImFontAtlas@@QEAAPEAUImFont@@PEBXHMPEBUImFontConfig@@PEBG@Z ; ImFontAtlas::AddFontFromMemoryCompressedTTF
PUBLIC	?AddFontFromMemoryCompressedBase85TTF@ImFontAtlas@@QEAAPEAUImFont@@PEBDMPEBUImFontConfig@@PEBG@Z ; ImFontAtlas::AddFontFromMemoryCompressedBase85TTF
PUBLIC	?ClearInputData@ImFontAtlas@@QEAAXXZ		; ImFontAtlas::ClearInputData
PUBLIC	?ClearTexData@ImFontAtlas@@QEAAXXZ		; ImFontAtlas::ClearTexData
PUBLIC	?ClearFonts@ImFontAtlas@@QEAAXXZ		; ImFontAtlas::ClearFonts
PUBLIC	?Clear@ImFontAtlas@@QEAAXXZ			; ImFontAtlas::Clear
PUBLIC	?Build@ImFontAtlas@@QEAA_NXZ			; ImFontAtlas::Build
PUBLIC	?GetTexDataAsAlpha8@ImFontAtlas@@QEAAXPEAPEAEPEAH11@Z ; ImFontAtlas::GetTexDataAsAlpha8
PUBLIC	?GetTexDataAsRGBA32@ImFontAtlas@@QEAAXPEAPEAEPEAH11@Z ; ImFontAtlas::GetTexDataAsRGBA32
PUBLIC	?GetGlyphRangesDefault@ImFontAtlas@@QEAAPEBGXZ	; ImFontAtlas::GetGlyphRangesDefault
PUBLIC	?GetGlyphRangesKorean@ImFontAtlas@@QEAAPEBGXZ	; ImFontAtlas::GetGlyphRangesKorean
PUBLIC	?GetGlyphRangesJapanese@ImFontAtlas@@QEAAPEBGXZ	; ImFontAtlas::GetGlyphRangesJapanese
PUBLIC	?GetGlyphRangesChineseFull@ImFontAtlas@@QEAAPEBGXZ ; ImFontAtlas::GetGlyphRangesChineseFull
PUBLIC	?GetGlyphRangesChineseSimplifiedCommon@ImFontAtlas@@QEAAPEBGXZ ; ImFontAtlas::GetGlyphRangesChineseSimplifiedCommon
PUBLIC	?GetGlyphRangesCyrillic@ImFontAtlas@@QEAAPEBGXZ	; ImFontAtlas::GetGlyphRangesCyrillic
PUBLIC	?GetGlyphRangesThai@ImFontAtlas@@QEAAPEBGXZ	; ImFontAtlas::GetGlyphRangesThai
PUBLIC	?GetGlyphRangesVietnamese@ImFontAtlas@@QEAAPEBGXZ ; ImFontAtlas::GetGlyphRangesVietnamese
PUBLIC	?AddCustomRectRegular@ImFontAtlas@@QEAAHHH@Z	; ImFontAtlas::AddCustomRectRegular
PUBLIC	?AddCustomRectFontGlyph@ImFontAtlas@@QEAAHPEAUImFont@@GHHMAEBUImVec2@@@Z ; ImFontAtlas::AddCustomRectFontGlyph
PUBLIC	?CalcCustomRectUV@ImFontAtlas@@QEBAXPEBUImFontAtlasCustomRect@@PEAUImVec2@@1@Z ; ImFontAtlas::CalcCustomRectUV
PUBLIC	?GetMouseCursorTexData@ImFontAtlas@@QEAA_NHPEAUImVec2@@0QEAU2@1@Z ; ImFontAtlas::GetMouseCursorTexData
PUBLIC	??0?$ImVector@PEAUImFont@@@@QEAA@XZ		; ImVector<ImFont *>::ImVector<ImFont *>
PUBLIC	??1?$ImVector@PEAUImFont@@@@QEAA@XZ		; ImVector<ImFont *>::~ImVector<ImFont *>
PUBLIC	?empty@?$ImVector@PEAUImFont@@@@QEBA_NXZ	; ImVector<ImFont *>::empty
PUBLIC	?size@?$ImVector@PEAUImFont@@@@QEBAHXZ		; ImVector<ImFont *>::size
PUBLIC	??A?$ImVector@PEAUImFont@@@@QEAAAEAPEAUImFont@@H@Z ; ImVector<ImFont *>::operator[]
PUBLIC	?clear@?$ImVector@PEAUImFont@@@@QEAAXXZ		; ImVector<ImFont *>::clear
PUBLIC	?back@?$ImVector@PEAUImFont@@@@QEAAAEAPEAUImFont@@XZ ; ImVector<ImFont *>::back
PUBLIC	?_grow_capacity@?$ImVector@PEAUImFont@@@@QEBAHH@Z ; ImVector<ImFont *>::_grow_capacity
PUBLIC	?reserve@?$ImVector@PEAUImFont@@@@QEAAXH@Z	; ImVector<ImFont *>::reserve
PUBLIC	?push_back@?$ImVector@PEAUImFont@@@@QEAAXAEBQEAUImFont@@@Z ; ImVector<ImFont *>::push_back
PUBLIC	??0?$ImVector@UImFontAtlasCustomRect@@@@QEAA@XZ	; ImVector<ImFontAtlasCustomRect>::ImVector<ImFontAtlasCustomRect>
PUBLIC	??1?$ImVector@UImFontAtlasCustomRect@@@@QEAA@XZ	; ImVector<ImFontAtlasCustomRect>::~ImVector<ImFontAtlasCustomRect>
PUBLIC	??A?$ImVector@UImFontAtlasCustomRect@@@@QEAAAEAUImFontAtlasCustomRect@@H@Z ; ImVector<ImFontAtlasCustomRect>::operator[]
PUBLIC	?clear@?$ImVector@UImFontAtlasCustomRect@@@@QEAAXXZ ; ImVector<ImFontAtlasCustomRect>::clear
PUBLIC	?_grow_capacity@?$ImVector@UImFontAtlasCustomRect@@@@QEBAHH@Z ; ImVector<ImFontAtlasCustomRect>::_grow_capacity
PUBLIC	?reserve@?$ImVector@UImFontAtlasCustomRect@@@@QEAAXH@Z ; ImVector<ImFontAtlasCustomRect>::reserve
PUBLIC	?push_back@?$ImVector@UImFontAtlasCustomRect@@@@QEAAXAEBUImFontAtlasCustomRect@@@Z ; ImVector<ImFontAtlasCustomRect>::push_back
PUBLIC	??0?$ImVector@UImFontConfig@@@@QEAA@XZ		; ImVector<ImFontConfig>::ImVector<ImFontConfig>
PUBLIC	??1?$ImVector@UImFontConfig@@@@QEAA@XZ		; ImVector<ImFontConfig>::~ImVector<ImFontConfig>
PUBLIC	?empty@?$ImVector@UImFontConfig@@@@QEBA_NXZ	; ImVector<ImFontConfig>::empty
PUBLIC	??A?$ImVector@UImFontConfig@@@@QEAAAEAUImFontConfig@@H@Z ; ImVector<ImFontConfig>::operator[]
PUBLIC	?clear@?$ImVector@UImFontConfig@@@@QEAAXXZ	; ImVector<ImFontConfig>::clear
PUBLIC	?back@?$ImVector@UImFontConfig@@@@QEAAAEAUImFontConfig@@XZ ; ImVector<ImFontConfig>::back
PUBLIC	?_grow_capacity@?$ImVector@UImFontConfig@@@@QEBAHH@Z ; ImVector<ImFontConfig>::_grow_capacity
PUBLIC	?reserve@?$ImVector@UImFontConfig@@@@QEAAXH@Z	; ImVector<ImFontConfig>::reserve
PUBLIC	?push_back@?$ImVector@UImFontConfig@@@@QEAAXAEBUImFontConfig@@@Z ; ImVector<ImFontConfig>::push_back
PUBLIC	??0?$ImVector@M@@QEAA@XZ			; ImVector<float>::ImVector<float>
PUBLIC	??1?$ImVector@M@@QEAA@XZ			; ImVector<float>::~ImVector<float>
PUBLIC	??A?$ImVector@M@@QEAAAEAMH@Z			; ImVector<float>::operator[]
PUBLIC	?clear@?$ImVector@M@@QEAAXXZ			; ImVector<float>::clear
PUBLIC	?_grow_capacity@?$ImVector@M@@QEBAHH@Z		; ImVector<float>::_grow_capacity
PUBLIC	?resize@?$ImVector@M@@QEAAXHAEBM@Z		; ImVector<float>::resize
PUBLIC	?reserve@?$ImVector@M@@QEAAXH@Z			; ImVector<float>::reserve
PUBLIC	??0?$ImVector@UImFontGlyph@@@@QEAA@XZ		; ImVector<ImFontGlyph>::ImVector<ImFontGlyph>
PUBLIC	??1?$ImVector@UImFontGlyph@@@@QEAA@XZ		; ImVector<ImFontGlyph>::~ImVector<ImFontGlyph>
PUBLIC	??A?$ImVector@UImFontGlyph@@@@QEAAAEAUImFontGlyph@@H@Z ; ImVector<ImFontGlyph>::operator[]
PUBLIC	?clear@?$ImVector@UImFontGlyph@@@@QEAAXXZ	; ImVector<ImFontGlyph>::clear
PUBLIC	?back@?$ImVector@UImFontGlyph@@@@QEAAAEAUImFontGlyph@@XZ ; ImVector<ImFontGlyph>::back
PUBLIC	?_grow_capacity@?$ImVector@UImFontGlyph@@@@QEBAHH@Z ; ImVector<ImFontGlyph>::_grow_capacity
PUBLIC	?resize@?$ImVector@UImFontGlyph@@@@QEAAXH@Z	; ImVector<ImFontGlyph>::resize
PUBLIC	?reserve@?$ImVector@UImFontGlyph@@@@QEAAXH@Z	; ImVector<ImFontGlyph>::reserve
PUBLIC	??0ImFont@@QEAA@XZ				; ImFont::ImFont
PUBLIC	??1ImFont@@QEAA@XZ				; ImFont::~ImFont
PUBLIC	?FindGlyph@ImFont@@QEBAPEBUImFontGlyph@@G@Z	; ImFont::FindGlyph
PUBLIC	?FindGlyphNoFallback@ImFont@@QEBAPEBUImFontGlyph@@G@Z ; ImFont::FindGlyphNoFallback
PUBLIC	?IsLoaded@ImFont@@QEBA_NXZ			; ImFont::IsLoaded
PUBLIC	?CalcTextSizeA@ImFont@@QEBA?AUImVec2@@MMMPEBD0PEAPEBD@Z ; ImFont::CalcTextSizeA
PUBLIC	?CalcWordWrapPositionA@ImFont@@QEBAPEBDMPEBD0M@Z ; ImFont::CalcWordWrapPositionA
PUBLIC	?RenderChar@ImFont@@QEBAXPEAUImDrawList@@MUImVec2@@IG@Z ; ImFont::RenderChar
PUBLIC	?RenderText@ImFont@@QEBAXPEAUImDrawList@@MUImVec2@@IAEBUImVec4@@PEBD3M_N@Z ; ImFont::RenderText
PUBLIC	?BuildLookupTable@ImFont@@QEAAXXZ		; ImFont::BuildLookupTable
PUBLIC	?ClearOutputData@ImFont@@QEAAXXZ		; ImFont::ClearOutputData
PUBLIC	?GrowIndex@ImFont@@QEAAXH@Z			; ImFont::GrowIndex
PUBLIC	?AddGlyph@ImFont@@QEAAXGMMMMMMMMM@Z		; ImFont::AddGlyph
PUBLIC	?AddRemapChar@ImFont@@QEAAXGG_N@Z		; ImFont::AddRemapChar
PUBLIC	?SetGlyphVisible@ImFont@@QEAAXG_N@Z		; ImFont::SetGlyphVisible
PUBLIC	?SetFallbackChar@ImFont@@QEAAXG@Z		; ImFont::SetFallbackChar
PUBLIC	?IsGlyphRangeUnused@ImFont@@QEAA_NII@Z		; ImFont::IsGlyphRangeUnused
PUBLIC	??_GImFont@@QEAAPEAXI@Z				; ImFont::`scalar deleting destructor'
PUBLIC	fabsf
PUBLIC	?ImBezierCalc@@YA?AUImVec2@@AEBU1@000M@Z	; ImBezierCalc
PUBLIC	?ImBitArrayTestBit@@YA_NPEBIH@Z			; ImBitArrayTestBit
PUBLIC	?ImBitArraySetBit@@YAXPEAIH@Z			; ImBitArraySetBit
PUBLIC	?Create@ImBitVector@@QEAAXH@Z			; ImBitVector::Create
PUBLIC	?Clear@ImBitVector@@QEAAXXZ			; ImBitVector::Clear
PUBLIC	?TestBit@ImBitVector@@QEBA_NH@Z			; ImBitVector::TestBit
PUBLIC	?SetBit@ImBitVector@@QEAAXH@Z			; ImBitVector::SetBit
PUBLIC	??1ImBitVector@@QEAA@XZ				; ImBitVector::~ImBitVector
PUBLIC	??0ImDrawListSharedData@@QEAA@XZ		; ImDrawListSharedData::ImDrawListSharedData
PUBLIC	?SetCircleSegmentMaxError@ImDrawListSharedData@@QEAAXM@Z ; ImDrawListSharedData::SetCircleSegmentMaxError
PUBLIC	??1?$ImVector@H@@QEAA@XZ			; ImVector<int>::~ImVector<int>
PUBLIC	??A?$ImVector@H@@QEAAAEAHH@Z			; ImVector<int>::operator[]
PUBLIC	?_grow_capacity@?$ImVector@H@@QEBAHH@Z		; ImVector<int>::_grow_capacity
PUBLIC	?reserve@?$ImVector@H@@QEAAXH@Z			; ImVector<int>::reserve
PUBLIC	?push_back@?$ImVector@H@@QEAAXAEBH@Z		; ImVector<int>::push_back
PUBLIC	?RenderColorRectWithAlphaCheckerboard@ImGui@@YAXPEAUImDrawList@@UImVec2@@1IM1MH@Z ; ImGui::RenderColorRectWithAlphaCheckerboard
PUBLIC	?RenderArrow@ImGui@@YAXPEAUImDrawList@@UImVec2@@IHM@Z ; ImGui::RenderArrow
PUBLIC	?RenderBullet@ImGui@@YAXPEAUImDrawList@@UImVec2@@I@Z ; ImGui::RenderBullet
PUBLIC	?RenderCheckMark@ImGui@@YAXPEAUImDrawList@@UImVec2@@IM@Z ; ImGui::RenderCheckMark
PUBLIC	?RenderMouseCursor@ImGui@@YAXPEAUImDrawList@@UImVec2@@MHIII@Z ; ImGui::RenderMouseCursor
PUBLIC	?RenderArrowPointingAt@ImGui@@YAXPEAUImDrawList@@UImVec2@@1HI@Z ; ImGui::RenderArrowPointingAt
PUBLIC	?RenderRectFilledRangeH@ImGui@@YAXPEAUImDrawList@@AEBUImRect@@IMMM@Z ; ImGui::RenderRectFilledRangeH
PUBLIC	?ShadeVertsLinearColorGradientKeepAlpha@ImGui@@YAXPEAUImDrawList@@HHUImVec2@@1II@Z ; ImGui::ShadeVertsLinearColorGradientKeepAlpha
PUBLIC	?ShadeVertsLinearUV@ImGui@@YAXPEAUImDrawList@@HHAEBUImVec2@@111_N@Z ; ImGui::ShadeVertsLinearUV
PUBLIC	?ImFontAtlasBuildWithStbTruetype@@YA_NPEAUImFontAtlas@@@Z ; ImFontAtlasBuildWithStbTruetype
PUBLIC	?ImFontAtlasBuildInit@@YAXPEAUImFontAtlas@@@Z	; ImFontAtlasBuildInit
PUBLIC	?ImFontAtlasBuildSetupFont@@YAXPEAUImFontAtlas@@PEAUImFont@@PEAUImFontConfig@@MM@Z ; ImFontAtlasBuildSetupFont
PUBLIC	?ImFontAtlasBuildPackCustomRects@@YAXPEAUImFontAtlas@@PEAX@Z ; ImFontAtlasBuildPackCustomRects
PUBLIC	?ImFontAtlasBuildFinish@@YAXPEAUImFontAtlas@@@Z	; ImFontAtlasBuildFinish
PUBLIC	?ImFontAtlasBuildMultiplyCalcLookupTable@@YAXQEAEM@Z ; ImFontAtlasBuildMultiplyCalcLookupTable
PUBLIC	?ImFontAtlasBuildMultiplyRectAlpha8@@YAXQEBEPEAEHHHHH@Z ; ImFontAtlasBuildMultiplyRectAlpha8
PUBLIC	??$IM_DELETE@UImFont@@@@YAXPEAUImFont@@@Z	; IM_DELETE<ImFont>
PUBLIC	??1ImFontBuildSrcData@@QEAA@XZ			; ImFontBuildSrcData::~ImFontBuildSrcData
PUBLIC	??_GImFontBuildSrcData@@QEAAPEAXI@Z		; ImFontBuildSrcData::`scalar deleting destructor'
PUBLIC	??0?$ImVector@UImFontBuildSrcData@@@@QEAA@XZ	; ImVector<ImFontBuildSrcData>::ImVector<ImFontBuildSrcData>
PUBLIC	??1?$ImVector@UImFontBuildSrcData@@@@QEAA@XZ	; ImVector<ImFontBuildSrcData>::~ImVector<ImFontBuildSrcData>
PUBLIC	?size_in_bytes@?$ImVector@UImFontBuildSrcData@@@@QEBAHXZ ; ImVector<ImFontBuildSrcData>::size_in_bytes
PUBLIC	??A?$ImVector@UImFontBuildSrcData@@@@QEAAAEAUImFontBuildSrcData@@H@Z ; ImVector<ImFontBuildSrcData>::operator[]
PUBLIC	?_grow_capacity@?$ImVector@UImFontBuildSrcData@@@@QEBAHH@Z ; ImVector<ImFontBuildSrcData>::_grow_capacity
PUBLIC	?resize@?$ImVector@UImFontBuildSrcData@@@@QEAAXH@Z ; ImVector<ImFontBuildSrcData>::resize
PUBLIC	?reserve@?$ImVector@UImFontBuildSrcData@@@@QEAAXH@Z ; ImVector<ImFontBuildSrcData>::reserve
PUBLIC	??0?$ImVector@UImFontBuildDstData@@@@QEAA@XZ	; ImVector<ImFontBuildDstData>::ImVector<ImFontBuildDstData>
PUBLIC	??1?$ImVector@UImFontBuildDstData@@@@QEAA@XZ	; ImVector<ImFontBuildDstData>::~ImVector<ImFontBuildDstData>
PUBLIC	?size_in_bytes@?$ImVector@UImFontBuildDstData@@@@QEBAHXZ ; ImVector<ImFontBuildDstData>::size_in_bytes
PUBLIC	??A?$ImVector@UImFontBuildDstData@@@@QEAAAEAUImFontBuildDstData@@H@Z ; ImVector<ImFontBuildDstData>::operator[]
PUBLIC	?clear@?$ImVector@UImFontBuildDstData@@@@QEAAXXZ ; ImVector<ImFontBuildDstData>::clear
PUBLIC	?_grow_capacity@?$ImVector@UImFontBuildDstData@@@@QEBAHH@Z ; ImVector<ImFontBuildDstData>::_grow_capacity
PUBLIC	?resize@?$ImVector@UImFontBuildDstData@@@@QEAAXH@Z ; ImVector<ImFontBuildDstData>::resize
PUBLIC	?reserve@?$ImVector@UImFontBuildDstData@@@@QEAAXH@Z ; ImVector<ImFontBuildDstData>::reserve
PUBLIC	??0?$ImVector@Ustbrp_rect@@@@QEAA@XZ		; ImVector<stbrp_rect>::ImVector<stbrp_rect>
PUBLIC	??1?$ImVector@Ustbrp_rect@@@@QEAA@XZ		; ImVector<stbrp_rect>::~ImVector<stbrp_rect>
PUBLIC	?size_in_bytes@?$ImVector@Ustbrp_rect@@@@QEBAHXZ ; ImVector<stbrp_rect>::size_in_bytes
PUBLIC	??A?$ImVector@Ustbrp_rect@@@@QEAAAEAUstbrp_rect@@H@Z ; ImVector<stbrp_rect>::operator[]
PUBLIC	?clear@?$ImVector@Ustbrp_rect@@@@QEAAXXZ	; ImVector<stbrp_rect>::clear
PUBLIC	?_grow_capacity@?$ImVector@Ustbrp_rect@@@@QEBAHH@Z ; ImVector<stbrp_rect>::_grow_capacity
PUBLIC	?resize@?$ImVector@Ustbrp_rect@@@@QEAAXH@Z	; ImVector<stbrp_rect>::resize
PUBLIC	?reserve@?$ImVector@Ustbrp_rect@@@@QEAAXH@Z	; ImVector<stbrp_rect>::reserve
PUBLIC	??0?$ImVector@Ustbtt_packedchar@@@@QEAA@XZ	; ImVector<stbtt_packedchar>::ImVector<stbtt_packedchar>
PUBLIC	??1?$ImVector@Ustbtt_packedchar@@@@QEAA@XZ	; ImVector<stbtt_packedchar>::~ImVector<stbtt_packedchar>
PUBLIC	?size_in_bytes@?$ImVector@Ustbtt_packedchar@@@@QEBAHXZ ; ImVector<stbtt_packedchar>::size_in_bytes
PUBLIC	??A?$ImVector@Ustbtt_packedchar@@@@QEAAAEAUstbtt_packedchar@@H@Z ; ImVector<stbtt_packedchar>::operator[]
PUBLIC	?_grow_capacity@?$ImVector@Ustbtt_packedchar@@@@QEBAHH@Z ; ImVector<stbtt_packedchar>::_grow_capacity
PUBLIC	?resize@?$ImVector@Ustbtt_packedchar@@@@QEAAXH@Z ; ImVector<stbtt_packedchar>::resize
PUBLIC	?reserve@?$ImVector@Ustbtt_packedchar@@@@QEAAXH@Z ; ImVector<stbtt_packedchar>::reserve
PUBLIC	??_C@_1DM@HCDEHEAL@?$AAE?$AA?3?$AA?2?$AAr?$AAe?$AAp?$AAs?$AA?2?$AAo?$AAc?$AAo?$AAr?$AAn?$AAu?$AAt@ ; `string'
PUBLIC	??_C@_13COJANIEC@?$AA0@				; `string'
PUBLIC	??_C@_1EO@FHOHIDNF@?$AAE?$AA?3?$AA?2?$AAr?$AAe?$AAp?$AAs?$AA?2?$AAo?$AAc?$AAo?$AAr?$AAn?$AAu?$AAt@ ; `string'
PUBLIC	??_C@_1DA@HCNHOFJN@?$AAn?$AA?5?$AA?$DM?$AA?5?$AA?$CI?$AAS?$AAt?$AAo?$AAr?$AAa?$AAg?$AAe?$AA?4?$AAS?$AAi@ ; `string'
PUBLIC	??_C@_1EO@HBPFCPFM@?$AAE?$AA?3?$AA?2?$AAr?$AAe?$AAp?$AAs?$AA?2?$AAo?$AAc?$AAo?$AAr?$AAn?$AAu?$AAt@ ; `string'
PUBLIC	??_C@_1EI@NNJKMECF@?$AAw?$AAi?$AAd?$AAt?$AAh?$AA?5?$AA?$DM?$AA?$DN?$AA?5?$AA0?$AAx?$AAf?$AAf?$AAf?$AAf@ ; `string'
PUBLIC	??_C@_1BO@KBODBKOH@?$AAf?$AAi?$AAr?$AAs?$AAt?$AA?9?$AA?$DO?$AAx?$AA?5?$AA?$DM?$AA?$DN?$AA?5?$AAx?$AA0@ ; `string'
PUBLIC	??_C@_1CG@BDIGDJGP@?$AAn?$AAo?$AAd?$AAe?$AA?9?$AA?$DO?$AAn?$AAe?$AAx?$AAt?$AA?9?$AA?$DO?$AAx?$AA?5?$AA?$DO@ ; `string'
PUBLIC	??_C@_1BM@JHJLEEND@?$AAn?$AAo?$AAd?$AAe?$AA?9?$AA?$DO?$AAx?$AA?5?$AA?$DM?$AA?$DN?$AA?5?$AAx?$AA0@ ; `string'
PUBLIC	??_C@_1CM@LEHAODMI@?$AAw?$AAi?$AAd?$AAt?$AAh?$AA?5?$AA?$CF?$AA?5?$AAc?$AA?9?$AA?$DO?$AAa?$AAl?$AAi?$AAg@ ; `string'
PUBLIC	??_C@_1BE@MNLKNDNL@?$AAx?$AAp?$AAo?$AAs?$AA?5?$AA?$DO?$AA?$DN?$AA?5?$AA0@ ; `string'
PUBLIC	??_C@_1FA@GPDJEJHP@?$AAn?$AAo?$AAd?$AAe?$AA?9?$AA?$DO?$AAn?$AAe?$AAx?$AAt?$AA?9?$AA?$DO?$AAx?$AA?5?$AA?$DO@ ; `string'
PUBLIC	??_C@_1EO@KALNALDI@?$AAE?$AA?3?$AA?2?$AAr?$AAe?$AAp?$AAs?$AA?2?$AAo?$AAc?$AAo?$AAr?$AAn?$AAu?$AAt@ ; `string'
PUBLIC	??_C@_1DA@CPAEOPEI@?$AA?$CB?$AA?$CI?$AAo?$AA?5?$AA?$DO?$AA?5?$AAb?$AA?9?$AA?$DO?$AAs?$AAi?$AAz?$AAe?$AA?5?$AA?$HM@ ; `string'
PUBLIC	??_C@_1CC@OMFGMKMB@?$AAn?$AA?5?$AA?$DO?$AA?$DN?$AA?5?$AA1?$AA?5?$AA?$CG?$AA?$CG?$AA?5?$AAn?$AA?5?$AA?$DM?$AA?$DN?$AA?5@ ; `string'
PUBLIC	??_C@_1CE@EPOLDKHI@?$AAs?$AAi?$AAz?$AAe?$AA?5?$AA?$DM?$AA?5?$AA0?$AAx?$AA4?$AA0?$AA0?$AA0?$AA0?$AA0@ ; `string'
PUBLIC	??_C@_1DK@IJDIOPHB@?$AAo?$AAf?$AAf?$AAs?$AAi?$AAz?$AAe?$AA?5?$AA?$DO?$AA?$DN?$AA?5?$AA1?$AA?5?$AA?$CG?$AA?$CG@ ; `string'
PUBLIC	??_C@_1BC@KDMJFGHG@?$AAb?$AA0?$AA?5?$AA?$DO?$AA?$DN?$AA?5?$AA2?$AA8@ ; `string'
PUBLIC	??_C@_1CI@PFMEGAIA@?$AAi?$AA?5?$AA?$DO?$AA?$DN?$AA?5?$AA0?$AA?5?$AA?$CG?$AA?$CG?$AA?5?$AAi?$AA?5?$AA?$DM?$AA?5?$AAc@ ; `string'
PUBLIC	??_C@_04EICJPCEA@cmap@				; `string'
PUBLIC	??_C@_04DACNFKGE@loca@				; `string'
PUBLIC	??_C@_04NEODDMOL@head@				; `string'
PUBLIC	??_C@_04LLIHEPK@glyf@				; `string'
PUBLIC	??_C@_04FMPHLIKP@hhea@				; `string'
PUBLIC	??_C@_04ONMNCIMC@hmtx@				; `string'
PUBLIC	??_C@_04HHMMLDJI@kern@				; `string'
PUBLIC	??_C@_04PCFDEHHD@GPOS@				; `string'
PUBLIC	??_C@_04HJGCPIEK@CFF?5@				; `string'
PUBLIC	??_C@_04KODIGLGG@maxp@				; `string'
PUBLIC	??_C@_1HA@EBGBJFDE@?$AAu?$AAn?$AAi?$AAc?$AAo?$AAd?$AAe?$AA_?$AAc?$AAo?$AAd?$AAe?$AAp?$AAo?$AAi@ ; `string'
PUBLIC	??_C@_1CA@MDABGEPC@?$AA?$CB?$AAi?$AAn?$AAf?$AAo?$AA?9?$AA?$DO?$AAc?$AAf?$AAf?$AA?4?$AAs?$AAi?$AAz?$AAe@ ; `string'
PUBLIC	??_C@_1GE@KABFAMEA@?$AAo?$AAu?$AAt?$AAp?$AAu?$AAt?$AA_?$AAc?$AAt?$AAx?$AA?4?$AAn?$AAu?$AAm?$AA_@ ; `string'
PUBLIC	??_C@_1O@EHPNOHML@?$AAz?$AA?5?$AA?$CB?$AA?$DN?$AA?5?$AA0@ ; `string'
PUBLIC	??_C@_1BA@ENLNFFAM@?$AAy?$AA0?$AA?5?$AA?$DM?$AA?5?$AAy?$AA1@ ; `string'
PUBLIC	??_C@_1BO@JGPMADBG@?$AAe?$AA?9?$AA?$DO?$AAs?$AAy?$AA?5?$AA?$DM?$AA?$DN?$AA?5?$AAe?$AA?9?$AA?$DO?$AAe?$AAy@ ; `string'
PUBLIC	??_C@_1BE@DHAKMBPL@?$AAx?$AA1?$AA?5?$AA?$DM?$AA?$DN?$AA?5?$AAx?$AA?$CL?$AA1@ ; `string'
PUBLIC	??_C@_1BA@FAAMJPKE@?$AAx?$AA1?$AA?5?$AA?$DO?$AA?$DN?$AA?5?$AAx@ ; `string'
PUBLIC	??_C@_1BA@FEPJEPJJ@?$AAx?$AA1?$AA?5?$AA?$DM?$AA?$DN?$AA?5?$AAx@ ; `string'
PUBLIC	??_C@_1BE@NGGEAFFG@?$AAx?$AA1?$AA?5?$AA?$DO?$AA?$DN?$AA?5?$AAx?$AA?$CL?$AA1@ ; `string'
PUBLIC	??_C@_1CK@NILBPPPH@?$AAx?$AA1?$AA?5?$AA?$DO?$AA?$DN?$AA?5?$AAx?$AA?5?$AA?$CG?$AA?$CG?$AA?5?$AAx?$AA1?$AA?5?$AA?$DM@ ; `string'
PUBLIC	??_C@_1FK@JPMIPNJF@?$AAx?$AA0?$AA?5?$AA?$DO?$AA?$DN?$AA?5?$AAx?$AA?5?$AA?$CG?$AA?$CG?$AA?5?$AAx?$AA0?$AA?5?$AA?$DM@ ; `string'
PUBLIC	??_C@_1BO@MDBOACOJ@?$AAe?$AA?9?$AA?$DO?$AAe?$AAy?$AA?5?$AA?$DO?$AA?$DN?$AA?5?$AAy?$AA_?$AAt?$AAo?$AAp@ ; `string'
PUBLIC	??_C@_1EI@KOIFPDFH@?$AAe?$AA?9?$AA?$DO?$AAs?$AAy?$AA?5?$AA?$DM?$AA?$DN?$AA?5?$AAy?$AA_?$AAb?$AAo?$AAt?$AAt@ ; `string'
PUBLIC	??_C@_1CE@GDDDMDCC@?$AAx?$AA?5?$AA?$DO?$AA?$DN?$AA?5?$AA0?$AA?5?$AA?$CG?$AA?$CG?$AA?5?$AAx?$AA?5?$AA?$DM?$AA?5?$AAl@ ; `string'
PUBLIC	??_C@_1CK@PHOJNIKI@?$AAf?$AAa?$AAb?$AAs?$AAf?$AA?$CI?$AAa?$AAr?$AAe?$AAa?$AA?$CJ?$AA?5?$AA?$DM?$AA?$DN?$AA?5@ ; `string'
PUBLIC	??_C@_1BK@LMAHJHLI@?$AAz?$AA?9?$AA?$DO?$AAd?$AAi?$AAr?$AAe?$AAc?$AAt?$AAi?$AAo?$AAn@ ; `string'
PUBLIC	??_C@_1CI@PMJHELI@?$AAz?$AA?9?$AA?$DO?$AAe?$AAy?$AA?5?$AA?$DO?$AA?$DN?$AA?5?$AAs?$AAc?$AAa?$AAn?$AA_?$AAy@ ; `string'
PUBLIC	??_C@_1BO@BDJAMAMF@?$AAp?$AAi?$AAx?$AAe?$AAl?$AAs?$AA?$FL?$AAi?$AA?$FN?$AA?5?$AA?$DN?$AA?$DN?$AA?5?$AA0@ ; `string'
PUBLIC	??_C@_1DO@LAPBLJ@?$AAp?$AAi?$AAx?$AAe?$AAl?$AAs?$AA?$FL?$AAi?$AA?$CK?$AAs?$AAt?$AAr?$AAi?$AAd?$AAe@ ; `string'
PUBLIC	??_C@_1EK@NLEDJEBN@?$AAE?$AA?3?$AA?1?$AAr?$AAe?$AAp?$AAs?$AA?1?$AAo?$AAc?$AAo?$AAr?$AAn?$AAu?$AAt@ ; `string'
PUBLIC	??_C@_1LC@MAEAJCLC@?$AAd?$AAr?$AAa?$AAw?$AA_?$AAc?$AAm?$AAd?$AA?4?$AAC?$AAl?$AAi?$AAp?$AAR?$AAe@ ; `string'
PUBLIC	??_C@_1DA@MJAOFGMF@?$AA_?$AAC?$AAl?$AAi?$AAp?$AAR?$AAe?$AAc?$AAt?$AAS?$AAt?$AAa?$AAc?$AAk?$AA?4@ ; `string'
PUBLIC	??_C@_1DC@CKLENJON@?$AA_?$AAT?$AAe?$AAx?$AAt?$AAu?$AAr?$AAe?$AAI?$AAd?$AAS?$AAt?$AAa?$AAc?$AAk@ ; `string'
PUBLIC	??_C@_1GM@DGBHKFGF@?$AAf?$AAo?$AAn?$AAt?$AA?9?$AA?$DO?$AAC?$AAo?$AAn?$AAt?$AAa?$AAi?$AAn?$AAe?$AAr@ ; `string'
PUBLIC	??_C@_1BAE@LAENHIMB@?$AA_?$AAC?$AAu?$AAr?$AAr?$AAe?$AAn?$AAt?$AA?5?$AA?$DN?$AA?$DN?$AA?5?$AA0?$AA?5?$AA?$CG@ ; `string'
PUBLIC	??_C@_1DC@ILGGLBID@?$AAi?$AAd?$AAx?$AA?5?$AA?$DO?$AA?$DN?$AA?5?$AA0?$AA?5?$AA?$CG?$AA?$CG?$AA?5?$AAi?$AAd?$AAx@ ; `string'
PUBLIC	??_C@_1LE@PGHOGCJ@?$AA?$CB?$AAL?$AAo?$AAc?$AAk?$AAe?$AAd?$AA?5?$AA?$CG?$AA?$CG?$AA?5?$AA?$CC?$AAC?$AAa?$AAn@ ; `string'
PUBLIC	??_C@_1GM@FAHJAOLI@?$AAf?$AAo?$AAn?$AAt?$AA_?$AAc?$AAf?$AAg?$AA?9?$AA?$DO?$AAF?$AAo?$AAn?$AAt?$AAD@ ; `string'
PUBLIC	??_C@_1DI@LEOIHPJH@?$AAf?$AAo?$AAn?$AAt?$AA_?$AAc?$AAf?$AAg?$AA?9?$AA?$DO?$AAS?$AAi?$AAz?$AAe?$AAP@ ; `string'
PUBLIC	??_C@_1HI@KOOOLAEJ@?$AA?$CB?$AAF?$AAo?$AAn?$AAt?$AAs?$AA?4?$AAe?$AAm?$AAp?$AAt?$AAy?$AA?$CI?$AA?$CJ?$AA?5@ ; `string'
PUBLIC	??_C@_0BG@CONABPA@ProggyClean?4ttf?0?5?$CFdpx@	; `string'
PUBLIC	??_C@_02JDPG@rb@				; `string'
PUBLIC	??_C@_1EG@KCPDJPKE@?$AA?$CI?$AA0?$AA?$CJ?$AA?5?$AA?$CG?$AA?$CG?$AA?5?$AA?$CC?$AAC?$AAo?$AAu?$AAl?$AAd?$AA?5?$AAn@ ; `string'
PUBLIC	??_C@_0L@EPCGLJHG@?$CFs?0?5?$CF?40fpx@		; `string'
PUBLIC	??_C@_1CO@ODFMNMML@?$AAf?$AAo?$AAn?$AAt?$AA_?$AAc?$AAf?$AAg?$AA?4?$AAF?$AAo?$AAn?$AAt?$AAD?$AAa@ ; `string'
PUBLIC	??_C@_1DK@GHLOFHKF@?$AAw?$AAi?$AAd?$AAt?$AAh?$AA?5?$AA?$DO?$AA?5?$AA0?$AA?5?$AA?$CG?$AA?$CG?$AA?5?$AAw?$AAi@ ; `string'
PUBLIC	??_C@_1DO@CAIIJEKF@?$AAh?$AAe?$AAi?$AAg?$AAh?$AAt?$AA?5?$AA?$DO?$AA?5?$AA0?$AA?5?$AA?$CG?$AA?$CG?$AA?5?$AAh@ ; `string'
PUBLIC	??_C@_1BE@PBFICKNN@?$AAf?$AAo?$AAn?$AAt?$AA?5?$AA?$CB?$AA?$DN?$AA?5?$AA0@ ; `string'
PUBLIC	??_C@_1DM@CMBJAGBP@?$AAT?$AAe?$AAx?$AAW?$AAi?$AAd?$AAt?$AAh?$AA?5?$AA?$DO?$AA?5?$AA0?$AA?5?$AA?$CG?$AA?$CG@ ; `string'
PUBLIC	??_C@_1CC@DEJIAPCP@?$AAr?$AAe?$AAc?$AAt?$AA?9?$AA?$DO?$AAI?$AAs?$AAP?$AAa?$AAc?$AAk?$AAe?$AAd?$AA?$CI@ ; `string'
PUBLIC	??_C@_1CO@OOJMDEAG@?$AAC?$AAu?$AAs?$AAt?$AAo?$AAm?$AAR?$AAe?$AAc?$AAt?$AAI?$AAd?$AAs?$AA?$FL?$AA0@ ; `string'
PUBLIC	??_C@_1DG@BBHAKCJP@?$AAa?$AAt?$AAl?$AAa?$AAs?$AA?9?$AA?$DO?$AAC?$AAo?$AAn?$AAf?$AAi?$AAg?$AAD?$AAa@ ; `string'
PUBLIC	??_C@_1KE@NPGLPIC@?$AAc?$AAf?$AAg?$AA?4?$AAD?$AAs?$AAt?$AAF?$AAo?$AAn?$AAt?$AA?5?$AA?$CG?$AA?$CG?$AA?5@ ; `string'
PUBLIC	??_C@_1CO@NKKOCLPN@?$AAs?$AAr?$AAc?$AA_?$AAt?$AAm?$AAp?$AA?4?$AAD?$AAs?$AAt?$AAI?$AAn?$AAd?$AAe@ ; `string'
PUBLIC	??_C@_1JA@MENENCJI@?$AAf?$AAo?$AAn?$AAt?$AA_?$AAo?$AAf?$AAf?$AAs?$AAe?$AAt?$AA?5?$AA?$DO?$AA?$DN?$AA?5@ ; `string'
PUBLIC	??_C@_1FO@GJGKHCEN@?$AAs?$AAr?$AAc?$AA_?$AAt?$AAm?$AAp?$AA?4?$AAG?$AAl?$AAy?$AAp?$AAh?$AAs?$AAL@ ; `string'
PUBLIC	??_C@_1DC@ENBGOGEF@?$AAg?$AAl?$AAy?$AAp?$AAh?$AA_?$AAi?$AAn?$AAd?$AAe?$AAx?$AA_?$AAi?$AAn?$AA_@ ; `string'
PUBLIC	??_C@_1CE@FMMHMDCM@?$AAp?$AAa?$AAc?$AAk?$AA_?$AAc?$AAo?$AAn?$AAt?$AAe?$AAx?$AAt?$AA?5?$AA?$CB?$AA?$DN@ ; `string'
PUBLIC	??_C@_1CK@POMOOFJC@?$AAu?$AAs?$AAe?$AAr?$AA_?$AAr?$AAe?$AAc?$AAt?$AAs?$AA?4?$AAS?$AAi?$AAz?$AAe@ ; `string'
PUBLIC	??_C@_1KE@CBAIECN@?$AAp?$AAa?$AAc?$AAk?$AA_?$AAr?$AAe?$AAc?$AAt?$AAs?$AA?$FL?$AAi?$AA?$FN?$AA?4?$AAw@ ; `string'
PUBLIC	??_C@_1DK@CIPOCJML@?$AAa?$AAt?$AAl?$AAa?$AAs?$AA?9?$AA?$DO?$AAC?$AAu?$AAs?$AAt?$AAo?$AAm?$AAR?$AAe@ ; `string'
PUBLIC	??_C@_1DI@LKIOFBD@?$AAa?$AAt?$AAl?$AAa?$AAs?$AA?9?$AA?$DO?$AAT?$AAe?$AAx?$AAP?$AAi?$AAx?$AAe?$AAl@ ; `string'
PUBLIC	??_C@_1BK@MDHNDFCJ@?$AAr?$AA?4?$AAI?$AAs?$AAP?$AAa?$AAc?$AAk?$AAe?$AAd?$AA?$CI?$AA?$CJ@ ; `string'
PUBLIC	??_C@_1MG@KMJKJDJG@?$AAr?$AA?4?$AAW?$AAi?$AAd?$AAt?$AAh?$AA?5?$AA?$DN?$AA?$DN?$AA?5?$AAF?$AAO?$AAN?$AAT@ ; `string'
PUBLIC	??_C@_1DM@OOPIKMMI@?$AAr?$AA?4?$AAW?$AAi?$AAd?$AAt?$AAh?$AA?5?$AA?$DN?$AA?$DN?$AA?5?$AA2?$AA?5?$AA?$CG?$AA?$CG@ ; `string'
PUBLIC	??_C@_1EA@GJDLMPMC@?$AAr?$AA?4?$AAF?$AAo?$AAn?$AAt?$AA?9?$AA?$DO?$AAC?$AAo?$AAn?$AAt?$AAa?$AAi?$AAn@ ; `string'
PUBLIC	??_C@_1CK@FHBHHKB@?$AAG?$AAl?$AAy?$AAp?$AAh?$AAs?$AA?4?$AAS?$AAi?$AAz?$AAe?$AA?5?$AA?$DM?$AA?5?$AA0@ ; `string'
PUBLIC	??_C@_1EO@HLFAHELG@?$AAI?$AAn?$AAd?$AAe?$AAx?$AAA?$AAd?$AAv?$AAa?$AAn?$AAc?$AAe?$AAX?$AA?4?$AAS@ ; `string'
PUBLIC	??_C@_1CK@OHOOGJPG@?$AAI?$AAn?$AAd?$AAe?$AAx?$AAL?$AAo?$AAo?$AAk?$AAu?$AAp?$AA?4?$AAS?$AAi?$AAz@ ; `string'
PUBLIC	??_C@_1JM@LKKCKIOL@?$AAm?$AAo?$AAu?$AAs?$AAe?$AA_?$AAc?$AAu?$AAr?$AAs?$AAo?$AAr?$AA?5?$AA?$DO?$AA?5@ ; `string'
PUBLIC	??_C@_1FC@IADGHEAH@?$AAs?$AAt?$AAb?$AA_?$AA_?$AAd?$AAo?$AAu?$AAt?$AA?5?$AA?$CL?$AA?5?$AAl?$AAe?$AAn@ ; `string'
PUBLIC	??_C@_1DG@GCANDLHA@?$AAs?$AAt?$AAb?$AA_?$AA_?$AAd?$AAo?$AAu?$AAt?$AA?5?$AA?$DN?$AA?$DN?$AA?5?$AAo?$AAu@ ; `string'
PUBLIC	??_C@_1DG@EGIPGKEG@?$AAs?$AAt?$AAb?$AA_?$AA_?$AAd?$AAo?$AAu?$AAt?$AA?5?$AA?$DM?$AA?$DN?$AA?5?$AAo?$AAu@ ; `string'
PUBLIC	??_C@_1BC@DCMHDKFO@?$AAi?$AA?5?$AA?$DM?$AA?5?$AAS?$AAi?$AAz?$AAe@ ; `string'
PUBLIC	??_C@_1BC@KCECIPDP@?$AAS?$AAi?$AAz?$AAe?$AA?5?$AA?$DO?$AA?5?$AA0@ ; `string'
PUBLIC	??_C@_1CC@BPLGCGDC@?$AAn?$AAe?$AAw?$AA_?$AAs?$AAi?$AAz?$AAe?$AA?5?$AA?$DM?$AA?$DN?$AA?5?$AAS?$AAi?$AAz@ ; `string'
PUBLIC	??_C@_1DK@JJGEFOJO@?$AAi?$AAt?$AA?5?$AA?$DO?$AA?$DN?$AA?5?$AAD?$AAa?$AAt?$AAa?$AA?5?$AA?$CG?$AA?$CG?$AA?5?$AAi@ ; `string'
PUBLIC	__isa_available_default
PUBLIC	__real@37800000
PUBLIC	__real@38800000
PUBLIC	__real@3e4ccccd
PUBLIC	__real@3e800000
PUBLIC	__real@3eb33333
PUBLIC	__real@3ecccccd
PUBLIC	__real@3efae148
PUBLIC	__real@3f000000
PUBLIC	__real@3f19999a
PUBLIC	__real@3f400000
PUBLIC	__real@3f4ccccd
PUBLIC	__real@3f5db22d
PUBLIC	__real@3f666666
PUBLIC	__real@3f800000
PUBLIC	__real@3f8147ae
PUBLIC	__real@3fc90fdb
PUBLIC	__real@3ffeb852
PUBLIC	__real@40400000
PUBLIC	__real@40490fdb
PUBLIC	__real@40800000
PUBLIC	__real@40a00000
PUBLIC	__real@40afede0
PUBLIC	__real@40c90fdb
PUBLIC	__real@41400000
PUBLIC	__real@41500000
PUBLIC	__real@42da0000
PUBLIC	__real@437f0000
PUBLIC	__real@44333333
PUBLIC	__real@44b33333
PUBLIC	__real@45333333
PUBLIC	__real@7f7fffff
PUBLIC	__real@bf400000
PUBLIC	__real@bf5db22d
PUBLIC	__real@bf800000
PUBLIC	__xmm@00000001000000010000000100000001
PUBLIC	__xmm@00000003000000020000000100000000
PUBLIC	__xmm@3e23d70a3f8000003f8000003f800000
PUBLIC	__xmm@3e4ccccd3e4ccccd3e4ccccd3e4ccccd
PUBLIC	__xmm@3e4ccccd3f4ccccd3ecccccd3ecccccd
PUBLIC	__xmm@3e4ccccd3f4ccccd3f4ccccd3f4ccccd
PUBLIC	__xmm@3e8000003f7ae1483f170a3d3e851eb8
PUBLIC	__xmm@3e99999a000000000000000000000000
PUBLIC	__xmm@3e99999a3f4ccccd3ecccccd3ecccccd
PUBLIC	__xmm@3e99999a3f8000003f8000003f800000
PUBLIC	__xmm@3e9eb8523f7ae1483f170a3d3e851eb8
PUBLIC	__xmm@3eb333333e4ccccd3e4ccccd3e4ccccd
PUBLIC	__xmm@3eb333333f4ccccd3f4ccccd3f4ccccd
PUBLIC	__xmm@3eb333333f7ae1483f170a3d3e851eb8
PUBLIC	__xmm@3eb333333f8000000000000000000000
PUBLIC	__xmm@3ec7ae143edc28f63edc28f63edc28f6
PUBLIC	__xmm@3ecccccd3f30a3d73ef0a3d73ef0a3d7
PUBLIC	__xmm@3ecccccd3f4ccccd3ecccccd3ecccccd
PUBLIC	__xmm@3ecccccd3f7ae1483f170a3d3e851eb8
PUBLIC	__xmm@3ee666663f6666663ecccccd3ecccccd
PUBLIC	__xmm@3f0000003f0000003edc28f63edc28f6
PUBLIC	__xmm@3f0000003f0000003f0000003f000000
PUBLIC	__xmm@3f0000003f6666663f6666663f666666
PUBLIC	__xmm@3f028f5c000000000000000000000000
PUBLIC	__xmm@3f028f5c3f8000003f8000003f800000
PUBLIC	__xmm@3f07ae143ca3d70a3ca3d70a3ca3d70a
PUBLIC	__xmm@3f07ae143f7ae1483f7ae1483f7ae148
PUBLIC	__xmm@3f0a3d713ef5c28f3e947ae13e23d70a
PUBLIC	__xmm@3f0f5c293f4ccccd3f4ccccd3f4ccccd
PUBLIC	__xmm@3f19999a3e99999a3e8000003e4ccccd
PUBLIC	__xmm@3f19999a3f0000003f0000003f000000
PUBLIC	__xmm@3f19999a3f4ccccd3ec7ae143ed1eb85
PUBLIC	__xmm@3f19999a3f4ccccd3f0a3d713eeb851f
PUBLIC	__xmm@3f19999a3f8000003f51eb853f47ae14
PUBLIC	__xmm@3f1eb8523ec7ae143ec7ae143ec7ae14
PUBLIC	__xmm@3f1eb8523f1c28f63ecccccd3eb33333
PUBLIC	__xmm@3f2b851f3f7ae1483f170a3d3e851eb8
PUBLIC	__xmm@3f30a3d73f23d70a3ed1eb853ed70a3d
PUBLIC	__xmm@3f333333000000000000000000000000
PUBLIC	__xmm@3f3333333f3333333f3333333f333333
PUBLIC	__xmm@3f3333333f8000003f8000003f800000
PUBLIC	__xmm@3f47ae143f4000003ecccccd3dcccccd
PUBLIC	__xmm@3f47ae143f4ccccd3ee147ae3e0f5c29
PUBLIC	__xmm@3f47ae143f7ae1483f170a3d3e851eb8
PUBLIC	__xmm@3f4a3d713f35c28f3ef5c28f3ecccccd
PUBLIC	__xmm@3f4ccccd3efae1483efae1483efae148
PUBLIC	__xmm@3f4ccccd3f0ccccd3ecccccd3ecccccd
PUBLIC	__xmm@3f4ccccd3f30a3d73f30a3d73f30a3d7
PUBLIC	__xmm@3f4ccccd3f5eb8523f07ae143f07ae14
PUBLIC	__xmm@3f4ccccd3f6666663ee666663ee66666
PUBLIC	__xmm@3f4ccccd3f7ae1483f170a3d3e851eb8
PUBLIC	__xmm@3f547ae13f0a3d713e8a3d713e8a3d71
PUBLIC	__xmm@3f5eb8523f2147ae3ea3d70a3ea3d70a
PUBLIC	__xmm@3f666666000000003f8000003f800000
PUBLIC	__xmm@3f6666663f8000003f51eb853f47ae14
PUBLIC	__xmm@3f6b851f3e0f5c293de147ae3de147ae
PUBLIC	__xmm@3f70a3d73d75c28f3d75c28f3d75c28f
PUBLIC	__xmm@3f70a3d73da3d70a3da3d70a3da3d70a
PUBLIC	__xmm@3f7333333f7ae1483f170a3d3e851eb8
PUBLIC	__xmm@3f7ae1483f8000003f8000003f800000
PUBLIC	__xmm@3f800000000000000000000000000000
PUBLIC	__xmm@3f80000000000000000000003f800000
PUBLIC	__xmm@3f800000000000003ee666663f800000
PUBLIC	__xmm@3f800000000000003f19999a3f800000
PUBLIC	__xmm@3f800000000000003f3333333f666666
PUBLIC	__xmm@3f8000003d23d70a3d23d70a3d23d70a
PUBLIC	__xmm@3f8000003e0f5c293e0f5c293e0f5c29
PUBLIC	__xmm@3f8000003e9eb8523e9eb8523e9eb852
PUBLIC	__xmm@3f8000003eb333333edc28f63f800000
PUBLIC	__xmm@3f8000003ec7ae143ec7ae143ec7ae14
PUBLIC	__xmm@3f8000003ed1eb853ed1eb853ed1eb85
PUBLIC	__xmm@3f8000003ef5c28f3e947ae13e23d70a
PUBLIC	__xmm@3f8000003efae1483efae1483efae148
PUBLIC	__xmm@3f8000003f0000003f0000003f000000
PUBLIC	__xmm@3f8000003f028f5c3f028f5c3f028f5c
PUBLIC	__xmm@3f8000003f19999a3f19999a3f19999a
PUBLIC	__xmm@3f8000003f1c28f63f1c28f63f1c28f6
PUBLIC	__xmm@3f8000003f3333333f19999a3f19999a
PUBLIC	__xmm@3f8000003f4000003ecccccd3dcccccd
PUBLIC	__xmm@3f8000003f4ccccd3ee147ae3e0f5c29
PUBLIC	__xmm@3f8000003f4ccccd3f0a3d713eeb851f
PUBLIC	__xmm@3f8000003f51eb853f51eb853f51eb85
PUBLIC	__xmm@3f8000003f5c28f63f5c28f63f5c28f6
PUBLIC	__xmm@3f8000003f6147ae3f051eb83e75c28f
PUBLIC	__xmm@3f8000003f6666663f3333333f333333
PUBLIC	__xmm@3f8000003f6666663f6666663f666666
PUBLIC	__xmm@3f8000003f70a3d73f70a3d73f70a3d7
PUBLIC	__xmm@3f8000003f75c28f3f75c28f3f75c28f
PUBLIC	__xmm@3f8000003f7ae1483f07ae143d75c28f
PUBLIC	__xmm@3f8000003f7ae1483f170a3d3e851eb8
PUBLIC	__xmm@3f8000003f8000003f8000003f800000
PUBLIC	__xmm@4600000046000000c6000000c6000000
PUBLIC	__xmm@7fffffff7fffffff7fffffff7fffffff
PUBLIC	__xmm@80000000800000008000000080000000
EXTRN	??3@YAXPEAX_K@Z:PROC				; operator delete
EXTRN	__std_terminate:PROC
EXTRN	__imp__wassert:PROC
EXTRN	?GetStyle@ImGui@@YAAEAUImGuiStyle@@XZ:PROC	; ImGui::GetStyle
EXTRN	?GetColorU32@ImGui@@YAII@Z:PROC			; ImGui::GetColorU32
EXTRN	?MemAlloc@ImGui@@YAPEAX_K@Z:PROC		; ImGui::MemAlloc
EXTRN	?MemFree@ImGui@@YAXPEAX@Z:PROC			; ImGui::MemFree
EXTRN	__imp_qsort:PROC
EXTRN	?ImAlphaBlendColors@@YAIII@Z:PROC		; ImAlphaBlendColors
EXTRN	?ImFormatString@@YAHPEAD_KPEBDZZ:PROC		; ImFormatString
EXTRN	?ImTextCharFromUtf8@@YAHPEAIPEBD1@Z:PROC	; ImTextCharFromUtf8
EXTRN	?ImFileLoadToMemory@@YAPEAXPEBD0PEA_KH@Z:PROC	; ImFileLoadToMemory
EXTRN	__CxxFrameHandler4:PROC
EXTRN	__GSHandlerCheck:PROC
EXTRN	__GSHandlerCheck_EH4:PROC
EXTRN	__chkstk:PROC
EXTRN	__security_check_cookie:PROC
EXTRN	acosf:PROC
EXTRN	ceilf:PROC
EXTRN	cosf:PROC
EXTRN	floorf:PROC
EXTRN	memchr:PROC
EXTRN	memcpy:PROC
EXTRN	memmove:PROC
EXTRN	memset:PROC
EXTRN	sinf:PROC
EXTRN	sqrtf:PROC
EXTRN	__ImageBase:BYTE
EXTRN	__isa_available:DWORD
EXTRN	__security_cookie:QWORD
EXTRN	_fltused:DWORD
;	COMDAT ?full_ranges@?1??GetGlyphRangesChineseSimplifiedCommon@ImFontAtlas@@QEAAPEBGXZ@4PAGA
_BSS	SEGMENT
?full_ranges@?1??GetGlyphRangesChineseSimplifiedCommon@ImFontAtlas@@QEAAPEBGXZ@4PAGA DW 01393H DUP (?) ; `ImFontAtlas::GetGlyphRangesChineseSimplifiedCommon'::`2'::full_ranges
_BSS	ENDS
;	COMDAT ?full_ranges@?1??GetGlyphRangesJapanese@ImFontAtlas@@QEAAPEBGXZ@4PAGA
_BSS	SEGMENT
?full_ranges@?1??GetGlyphRangesJapanese@ImFontAtlas@@QEAAPEBGXZ@4PAGA DW 0f3dH DUP (?) ; `ImFontAtlas::GetGlyphRangesJapanese'::`2'::full_ranges
_BSS	ENDS
_BSS	SEGMENT
?stb__barrier_out_e@@3PEAEEA DQ 01H DUP (?)		; stb__barrier_out_e
?stb__barrier_out_b@@3PEAEEA DQ 01H DUP (?)		; stb__barrier_out_b
?stb__barrier_in_b@@3PEBEEB DQ 01H DUP (?)		; stb__barrier_in_b
?stb__dout@@3PEAEEA DQ 01H DUP (?)			; stb__dout
_BSS	ENDS
;	COMDAT __isa_available_default
_BSS	SEGMENT
__isa_available_default DD 01H DUP (?)
_BSS	ENDS
;	COMDAT pdata
pdata	SEGMENT
$pdata$??_H@YAXPEAX_K1P6APEAX0@Z@Z DD imagerel $LN12
	DD	imagerel $LN12+72
	DD	imagerel $unwind$??_H@YAXPEAX_K1P6APEAX0@Z@Z
pdata	ENDS
;	COMDAT pdata
pdata	SEGMENT
$pdata$?StyleColorsDark@ImGui@@YAXPEAUImGuiStyle@@@Z DD imagerel $LN106
	DD	imagerel $LN106+1231
	DD	imagerel $unwind$?StyleColorsDark@ImGui@@YAXPEAUImGuiStyle@@@Z
pdata	ENDS
;	COMDAT pdata
pdata	SEGMENT
$pdata$?StyleColorsClassic@ImGui@@YAXPEAUImGuiStyle@@@Z DD imagerel $LN106
	DD	imagerel $LN106+1237
	DD	imagerel $unwind$?StyleColorsClassic@ImGui@@YAXPEAUImGuiStyle@@@Z
pdata	ENDS
;	COMDAT pdata
pdata	SEGMENT
$pdata$?StyleColorsLight@ImGui@@YAXPEAUImGuiStyle@@@Z DD imagerel $LN106
	DD	imagerel $LN106+1242
	DD	imagerel $unwind$?StyleColorsLight@ImGui@@YAXPEAUImGuiStyle@@@Z
pdata	ENDS
;	COMDAT pdata
pdata	SEGMENT
$pdata$??4?$ImVector@G@@QEAAAEAU0@AEBU0@@Z DD imagerel $LN7
	DD	imagerel $LN7+88
	DD	imagerel $unwind$??4?$ImVector@G@@QEAAAEAU0@AEBU0@@Z
pdata	ENDS
;	COMDAT pdata
pdata	SEGMENT
$pdata$??1?$ImVector@G@@QEAA@XZ DD imagerel $LN6
	DD	imagerel $LN6+24
	DD	imagerel $unwind$??1?$ImVector@G@@QEAA@XZ
pdata	ENDS
;	COMDAT pdata
pdata	SEGMENT
$pdata$??A?$ImVector@G@@QEAAAEAGH@Z DD imagerel $LN5
	DD	imagerel $LN5+65
	DD	imagerel $unwind$??A?$ImVector@G@@QEAAAEAGH@Z
pdata	ENDS
;	COMDAT pdata
pdata	SEGMENT
$pdata$?clear@?$ImVector@G@@QEAAXXZ DD imagerel $LN5
	DD	imagerel $LN5+44
	DD	imagerel $unwind$?clear@?$ImVector@G@@QEAAXXZ
pdata	ENDS
;	COMDAT pdata
pdata	SEGMENT
$pdata$?resize@?$ImVector@G@@QEAAXH@Z DD imagerel $LN16
	DD	imagerel $LN16+26
	DD	imagerel $unwind$?resize@?$ImVector@G@@QEAAXH@Z
pdata	ENDS
;	COMDAT pdata
pdata	SEGMENT
$pdata$1$?resize@?$ImVector@G@@QEAAXH@Z DD imagerel $LN16+26
	DD	imagerel $LN16+143
	DD	imagerel $chain$1$?resize@?$ImVector@G@@QEAAXH@Z
pdata	ENDS
;	COMDAT pdata
pdata	SEGMENT
$pdata$3$?resize@?$ImVector@G@@QEAAXH@Z DD imagerel $LN16+143
	DD	imagerel $LN16+161
	DD	imagerel $chain$3$?resize@?$ImVector@G@@QEAAXH@Z
pdata	ENDS
;	COMDAT pdata
pdata	SEGMENT
$pdata$4$?resize@?$ImVector@G@@QEAAXH@Z DD imagerel $LN16+161
	DD	imagerel $LN16+174
	DD	imagerel $chain$4$?resize@?$ImVector@G@@QEAAXH@Z
pdata	ENDS
;	COMDAT pdata
pdata	SEGMENT
$pdata$?resize@?$ImVector@G@@QEAAXHAEBG@Z DD imagerel $LN24
	DD	imagerel $LN24+32
	DD	imagerel $unwind$?resize@?$ImVector@G@@QEAAXHAEBG@Z
pdata	ENDS
;	COMDAT pdata
pdata	SEGMENT
$pdata$0$?resize@?$ImVector@G@@QEAAXHAEBG@Z DD imagerel $LN24+32
	DD	imagerel $LN24+74
	DD	imagerel $chain$0$?resize@?$ImVector@G@@QEAAXHAEBG@Z
pdata	ENDS
;	COMDAT pdata
pdata	SEGMENT
$pdata$1$?resize@?$ImVector@G@@QEAAXHAEBG@Z DD imagerel $LN24+74
	DD	imagerel $LN24+131
	DD	imagerel $chain$1$?resize@?$ImVector@G@@QEAAXHAEBG@Z
pdata	ENDS
;	COMDAT pdata
pdata	SEGMENT
$pdata$2$?resize@?$ImVector@G@@QEAAXHAEBG@Z DD imagerel $LN24+131
	DD	imagerel $LN24+136
	DD	imagerel $chain$2$?resize@?$ImVector@G@@QEAAXHAEBG@Z
pdata	ENDS
;	COMDAT pdata
pdata	SEGMENT
$pdata$3$?resize@?$ImVector@G@@QEAAXHAEBG@Z DD imagerel $LN24+136
	DD	imagerel $LN24+199
	DD	imagerel $chain$3$?resize@?$ImVector@G@@QEAAXHAEBG@Z
pdata	ENDS
;	COMDAT pdata
pdata	SEGMENT
$pdata$?shrink@?$ImVector@G@@QEAAXH@Z DD imagerel $LN6
	DD	imagerel $LN6+71
	DD	imagerel $unwind$?shrink@?$ImVector@G@@QEAAXH@Z
pdata	ENDS
;	COMDAT pdata
pdata	SEGMENT
$pdata$?reserve@?$ImVector@G@@QEAAXH@Z DD imagerel $LN6
	DD	imagerel $LN6+24
	DD	imagerel $unwind$?reserve@?$ImVector@G@@QEAAXH@Z
pdata	ENDS
;	COMDAT pdata
pdata	SEGMENT
$pdata$0$?reserve@?$ImVector@G@@QEAAXH@Z DD imagerel $LN6+24
	DD	imagerel $LN6+84
	DD	imagerel $chain$0$?reserve@?$ImVector@G@@QEAAXH@Z
pdata	ENDS
;	COMDAT pdata
pdata	SEGMENT
$pdata$1$?reserve@?$ImVector@G@@QEAAXH@Z DD imagerel $LN6+84
	DD	imagerel $LN6+95
	DD	imagerel $chain$1$?reserve@?$ImVector@G@@QEAAXH@Z
pdata	ENDS
;	COMDAT pdata
pdata	SEGMENT
$pdata$?push_back@?$ImVector@G@@QEAAXAEBG@Z DD imagerel $LN14
	DD	imagerel $LN14+28
	DD	imagerel $unwind$?push_back@?$ImVector@G@@QEAAXAEBG@Z
pdata	ENDS
;	COMDAT pdata
pdata	SEGMENT
$pdata$0$?push_back@?$ImVector@G@@QEAAXAEBG@Z DD imagerel $LN14+28
	DD	imagerel $LN14+75
	DD	imagerel $chain$0$?push_back@?$ImVector@G@@QEAAXAEBG@Z
pdata	ENDS
;	COMDAT pdata
pdata	SEGMENT
$pdata$1$?push_back@?$ImVector@G@@QEAAXAEBG@Z DD imagerel $LN14+75
	DD	imagerel $LN14+134
	DD	imagerel $chain$1$?push_back@?$ImVector@G@@QEAAXAEBG@Z
pdata	ENDS
;	COMDAT pdata
pdata	SEGMENT
$pdata$2$?push_back@?$ImVector@G@@QEAAXAEBG@Z DD imagerel $LN14+134
	DD	imagerel $LN14+139
	DD	imagerel $chain$2$?push_back@?$ImVector@G@@QEAAXAEBG@Z
pdata	ENDS
;	COMDAT pdata
pdata	SEGMENT
$pdata$3$?push_back@?$ImVector@G@@QEAAXAEBG@Z DD imagerel $LN14+139
	DD	imagerel $LN14+168
	DD	imagerel $chain$3$?push_back@?$ImVector@G@@QEAAXAEBG@Z
pdata	ENDS
;	COMDAT pdata
pdata	SEGMENT
$pdata$??4?$ImVector@UImDrawCmd@@@@QEAAAEAU0@AEBU0@@Z DD imagerel $LN7
	DD	imagerel $LN7+89
	DD	imagerel $unwind$??4?$ImVector@UImDrawCmd@@@@QEAAAEAU0@AEBU0@@Z
pdata	ENDS
;	COMDAT pdata
pdata	SEGMENT
$pdata$??1?$ImVector@UImDrawCmd@@@@QEAA@XZ DD imagerel $LN6
	DD	imagerel $LN6+24
	DD	imagerel $unwind$??1?$ImVector@UImDrawCmd@@@@QEAA@XZ
pdata	ENDS
;	COMDAT pdata
pdata	SEGMENT
$pdata$??A?$ImVector@UImDrawCmd@@@@QEAAAEAUImDrawCmd@@H@Z DD imagerel $LN5
	DD	imagerel $LN5+65
	DD	imagerel $unwind$??A?$ImVector@UImDrawCmd@@@@QEAAAEAUImDrawCmd@@H@Z
pdata	ENDS
;	COMDAT pdata
pdata	SEGMENT
$pdata$?clear@?$ImVector@UImDrawCmd@@@@QEAAXXZ DD imagerel $LN5
	DD	imagerel $LN5+44
	DD	imagerel $unwind$?clear@?$ImVector@UImDrawCmd@@@@QEAAXXZ
pdata	ENDS
;	COMDAT pdata
pdata	SEGMENT
$pdata$?back@?$ImVector@UImDrawCmd@@@@QEAAAEAUImDrawCmd@@XZ DD imagerel $LN5
	DD	imagerel $LN5+62
	DD	imagerel $unwind$?back@?$ImVector@UImDrawCmd@@@@QEAAAEAUImDrawCmd@@XZ
pdata	ENDS
;	COMDAT pdata
pdata	SEGMENT
$pdata$?resize@?$ImVector@UImDrawCmd@@@@QEAAXH@Z DD imagerel $LN16
	DD	imagerel $LN16+26
	DD	imagerel $unwind$?resize@?$ImVector@UImDrawCmd@@@@QEAAXH@Z
pdata	ENDS
;	COMDAT pdata
pdata	SEGMENT
$pdata$1$?resize@?$ImVector@UImDrawCmd@@@@QEAAXH@Z DD imagerel $LN16+26
	DD	imagerel $LN16+145
	DD	imagerel $chain$1$?resize@?$ImVector@UImDrawCmd@@@@QEAAXH@Z
pdata	ENDS
;	COMDAT pdata
pdata	SEGMENT
$pdata$3$?resize@?$ImVector@UImDrawCmd@@@@QEAAXH@Z DD imagerel $LN16+145
	DD	imagerel $LN16+163
	DD	imagerel $chain$3$?resize@?$ImVector@UImDrawCmd@@@@QEAAXH@Z
pdata	ENDS
;	COMDAT pdata
pdata	SEGMENT
$pdata$4$?resize@?$ImVector@UImDrawCmd@@@@QEAAXH@Z DD imagerel $LN16+163
	DD	imagerel $LN16+176
	DD	imagerel $chain$4$?resize@?$ImVector@UImDrawCmd@@@@QEAAXH@Z
pdata	ENDS
;	COMDAT pdata
pdata	SEGMENT
$pdata$?reserve@?$ImVector@UImDrawCmd@@@@QEAAXH@Z DD imagerel $LN6
	DD	imagerel $LN6+25
	DD	imagerel $unwind$?reserve@?$ImVector@UImDrawCmd@@@@QEAAXH@Z
pdata	ENDS
;	COMDAT pdata
pdata	SEGMENT
$pdata$0$?reserve@?$ImVector@UImDrawCmd@@@@QEAAXH@Z DD imagerel $LN6+25
	DD	imagerel $LN6+83
	DD	imagerel $chain$0$?reserve@?$ImVector@UImDrawCmd@@@@QEAAXH@Z
pdata	ENDS
;	COMDAT pdata
pdata	SEGMENT
$pdata$1$?reserve@?$ImVector@UImDrawCmd@@@@QEAAXH@Z DD imagerel $LN6+83
	DD	imagerel $LN6+94
	DD	imagerel $chain$1$?reserve@?$ImVector@UImDrawCmd@@@@QEAAXH@Z
pdata	ENDS
;	COMDAT pdata
pdata	SEGMENT
$pdata$?push_back@?$ImVector@UImDrawCmd@@@@QEAAXAEBUImDrawCmd@@@Z DD imagerel $LN14
	DD	imagerel $LN14+27
	DD	imagerel $unwind$?push_back@?$ImVector@UImDrawCmd@@@@QEAAXAEBUImDrawCmd@@@Z
pdata	ENDS
;	COMDAT pdata
pdata	SEGMENT
$pdata$0$?push_back@?$ImVector@UImDrawCmd@@@@QEAAXAEBUImDrawCmd@@@Z DD imagerel $LN14+27
	DD	imagerel $LN14+75
	DD	imagerel $chain$0$?push_back@?$ImVector@UImDrawCmd@@@@QEAAXAEBUImDrawCmd@@@Z
pdata	ENDS
;	COMDAT pdata
pdata	SEGMENT
$pdata$1$?push_back@?$ImVector@UImDrawCmd@@@@QEAAXAEBUImDrawCmd@@@Z DD imagerel $LN14+75
	DD	imagerel $LN14+135
	DD	imagerel $chain$1$?push_back@?$ImVector@UImDrawCmd@@@@QEAAXAEBUImDrawCmd@@@Z
pdata	ENDS
;	COMDAT pdata
pdata	SEGMENT
$pdata$2$?push_back@?$ImVector@UImDrawCmd@@@@QEAAXAEBUImDrawCmd@@@Z DD imagerel $LN14+135
	DD	imagerel $LN14+140
	DD	imagerel $chain$2$?push_back@?$ImVector@UImDrawCmd@@@@QEAAXAEBUImDrawCmd@@@Z
pdata	ENDS
;	COMDAT pdata
pdata	SEGMENT
$pdata$3$?push_back@?$ImVector@UImDrawCmd@@@@QEAAXAEBUImDrawCmd@@@Z DD imagerel $LN14+140
	DD	imagerel $LN14+201
	DD	imagerel $chain$3$?push_back@?$ImVector@UImDrawCmd@@@@QEAAXAEBUImDrawCmd@@@Z
pdata	ENDS
;	COMDAT pdata
pdata	SEGMENT
$pdata$?pop_back@?$ImVector@UImDrawCmd@@@@QEAAXXZ DD imagerel $LN6
	DD	imagerel $LN6+59
	DD	imagerel $unwind$?pop_back@?$ImVector@UImDrawCmd@@@@QEAAXXZ
pdata	ENDS
;	COMDAT pdata
pdata	SEGMENT
$pdata$?erase@?$ImVector@UImDrawCmd@@@@QEAAPEAUImDrawCmd@@PEBU2@@Z DD imagerel $LN8
	DD	imagerel $LN8+150
	DD	imagerel $unwind$?erase@?$ImVector@UImDrawCmd@@@@QEAAPEAUImDrawCmd@@PEBU2@@Z
pdata	ENDS
;	COMDAT pdata
pdata	SEGMENT
$pdata$??1?$ImVector@UImDrawChannel@@@@QEAA@XZ DD imagerel $LN6
	DD	imagerel $LN6+24
	DD	imagerel $unwind$??1?$ImVector@UImDrawChannel@@@@QEAA@XZ
pdata	ENDS
;	COMDAT pdata
pdata	SEGMENT
$pdata$??A?$ImVector@UImDrawChannel@@@@QEAAAEAUImDrawChannel@@H@Z DD imagerel $LN5
	DD	imagerel $LN5+68
	DD	imagerel $unwind$??A?$ImVector@UImDrawChannel@@@@QEAAAEAUImDrawChannel@@H@Z
pdata	ENDS
;	COMDAT pdata
pdata	SEGMENT
$pdata$?clear@?$ImVector@UImDrawChannel@@@@QEAAXXZ DD imagerel $LN5
	DD	imagerel $LN5+44
	DD	imagerel $unwind$?clear@?$ImVector@UImDrawChannel@@@@QEAAXXZ
pdata	ENDS
;	COMDAT pdata
pdata	SEGMENT
$pdata$?resize@?$ImVector@UImDrawChannel@@@@QEAAXH@Z DD imagerel $LN16
	DD	imagerel $LN16+26
	DD	imagerel $unwind$?resize@?$ImVector@UImDrawChannel@@@@QEAAXH@Z
pdata	ENDS
;	COMDAT pdata
pdata	SEGMENT
$pdata$1$?resize@?$ImVector@UImDrawChannel@@@@QEAAXH@Z DD imagerel $LN16+26
	DD	imagerel $LN16+145
	DD	imagerel $chain$1$?resize@?$ImVector@UImDrawChannel@@@@QEAAXH@Z
pdata	ENDS
;	COMDAT pdata
pdata	SEGMENT
$pdata$3$?resize@?$ImVector@UImDrawChannel@@@@QEAAXH@Z DD imagerel $LN16+145
	DD	imagerel $LN16+163
	DD	imagerel $chain$3$?resize@?$ImVector@UImDrawChannel@@@@QEAAXH@Z
pdata	ENDS
;	COMDAT pdata
pdata	SEGMENT
$pdata$4$?resize@?$ImVector@UImDrawChannel@@@@QEAAXH@Z DD imagerel $LN16+163
	DD	imagerel $LN16+176
	DD	imagerel $chain$4$?resize@?$ImVector@UImDrawChannel@@@@QEAAXH@Z
pdata	ENDS
;	COMDAT pdata
pdata	SEGMENT
$pdata$?reserve@?$ImVector@UImDrawChannel@@@@QEAAXH@Z DD imagerel $LN6
	DD	imagerel $LN6+24
	DD	imagerel $unwind$?reserve@?$ImVector@UImDrawChannel@@@@QEAAXH@Z
pdata	ENDS
;	COMDAT pdata
pdata	SEGMENT
$pdata$0$?reserve@?$ImVector@UImDrawChannel@@@@QEAAXH@Z DD imagerel $LN6+24
	DD	imagerel $LN6+86
	DD	imagerel $chain$0$?reserve@?$ImVector@UImDrawChannel@@@@QEAAXH@Z
pdata	ENDS
;	COMDAT pdata
pdata	SEGMENT
$pdata$1$?reserve@?$ImVector@UImDrawChannel@@@@QEAAXH@Z DD imagerel $LN6+86
	DD	imagerel $LN6+97
	DD	imagerel $chain$1$?reserve@?$ImVector@UImDrawChannel@@@@QEAAXH@Z
pdata	ENDS
;	COMDAT pdata
pdata	SEGMENT
$pdata$??1ImDrawListSplitter@@QEAA@XZ DD imagerel $LN10
	DD	imagerel $LN10+36
	DD	imagerel $unwind$??1ImDrawListSplitter@@QEAA@XZ
pdata	ENDS
;	COMDAT pdata
pdata	SEGMENT
$pdata$?ClearFreeMemory@ImDrawListSplitter@@QEAAXXZ DD imagerel $LN34
	DD	imagerel $LN34+15
	DD	imagerel $unwind$?ClearFreeMemory@ImDrawListSplitter@@QEAAXXZ
pdata	ENDS
;	COMDAT pdata
pdata	SEGMENT
$pdata$0$?ClearFreeMemory@ImDrawListSplitter@@QEAAXXZ DD imagerel $LN34+15
	DD	imagerel $LN34+33
	DD	imagerel $chain$0$?ClearFreeMemory@ImDrawListSplitter@@QEAAXXZ
pdata	ENDS
;	COMDAT pdata
pdata	SEGMENT
$pdata$2$?ClearFreeMemory@ImDrawListSplitter@@QEAAXXZ DD imagerel $LN34+33
	DD	imagerel $LN34+249
	DD	imagerel $chain$2$?ClearFreeMemory@ImDrawListSplitter@@QEAAXXZ
pdata	ENDS
;	COMDAT pdata
pdata	SEGMENT
$pdata$3$?ClearFreeMemory@ImDrawListSplitter@@QEAAXXZ DD imagerel $LN34+249
	DD	imagerel $LN34+272
	DD	imagerel $chain$3$?ClearFreeMemory@ImDrawListSplitter@@QEAAXXZ
pdata	ENDS
;	COMDAT pdata
pdata	SEGMENT
$pdata$4$?ClearFreeMemory@ImDrawListSplitter@@QEAAXXZ DD imagerel $LN34+272
	DD	imagerel $LN34+296
	DD	imagerel $chain$4$?ClearFreeMemory@ImDrawListSplitter@@QEAAXXZ
pdata	ENDS
;	COMDAT pdata
pdata	SEGMENT
$pdata$?Split@ImDrawListSplitter@@QEAAXPEAUImDrawList@@H@Z DD imagerel $LN99
	DD	imagerel $LN99+253
	DD	imagerel $unwind$?Split@ImDrawListSplitter@@QEAAXPEAUImDrawList@@H@Z
pdata	ENDS
;	COMDAT pdata
pdata	SEGMENT
$pdata$2$?Split@ImDrawListSplitter@@QEAAXPEAUImDrawList@@H@Z DD imagerel $LN99+253
	DD	imagerel $LN99+1060
	DD	imagerel $chain$2$?Split@ImDrawListSplitter@@QEAAXPEAUImDrawList@@H@Z
pdata	ENDS
;	COMDAT pdata
pdata	SEGMENT
$pdata$3$?Split@ImDrawListSplitter@@QEAAXPEAUImDrawList@@H@Z DD imagerel $LN99+1060
	DD	imagerel $LN99+1085
	DD	imagerel $chain$3$?Split@ImDrawListSplitter@@QEAAXPEAUImDrawList@@H@Z
pdata	ENDS
;	COMDAT pdata
pdata	SEGMENT
$pdata$?Merge@ImDrawListSplitter@@QEAAXPEAUImDrawList@@@Z DD imagerel $LN85
	DD	imagerel $LN85+31
	DD	imagerel $unwind$?Merge@ImDrawListSplitter@@QEAAXPEAUImDrawList@@@Z
pdata	ENDS
;	COMDAT pdata
pdata	SEGMENT
$pdata$5$?Merge@ImDrawListSplitter@@QEAAXPEAUImDrawList@@@Z DD imagerel $LN85+31
	DD	imagerel $LN85+1102
	DD	imagerel $chain$5$?Merge@ImDrawListSplitter@@QEAAXPEAUImDrawList@@@Z
pdata	ENDS
;	COMDAT pdata
pdata	SEGMENT
$pdata$6$?Merge@ImDrawListSplitter@@QEAAXPEAUImDrawList@@@Z DD imagerel $LN85+1102
	DD	imagerel $LN85+1111
	DD	imagerel $chain$6$?Merge@ImDrawListSplitter@@QEAAXPEAUImDrawList@@@Z
pdata	ENDS
;	COMDAT pdata
pdata	SEGMENT
$pdata$?SetCurrentChannel@ImDrawListSplitter@@QEAAXPEAUImDrawList@@H@Z DD imagerel $LN7
	DD	imagerel $LN7+170
	DD	imagerel $unwind$?SetCurrentChannel@ImDrawListSplitter@@QEAAXPEAUImDrawList@@H@Z
pdata	ENDS
;	COMDAT pdata
pdata	SEGMENT
$pdata$??4?$ImVector@UImDrawVert@@@@QEAAAEAU0@AEBU0@@Z DD imagerel $LN7
	DD	imagerel $LN7+93
	DD	imagerel $unwind$??4?$ImVector@UImDrawVert@@@@QEAAAEAU0@AEBU0@@Z
pdata	ENDS
;	COMDAT pdata
pdata	SEGMENT
$pdata$??1?$ImVector@UImDrawVert@@@@QEAA@XZ DD imagerel $LN6
	DD	imagerel $LN6+24
	DD	imagerel $unwind$??1?$ImVector@UImDrawVert@@@@QEAA@XZ
pdata	ENDS
;	COMDAT pdata
pdata	SEGMENT
$pdata$??A?$ImVector@UImDrawVert@@@@QEAAAEAUImDrawVert@@H@Z DD imagerel $LN5
	DD	imagerel $LN5+69
	DD	imagerel $unwind$??A?$ImVector@UImDrawVert@@@@QEAAAEAUImDrawVert@@H@Z
pdata	ENDS
;	COMDAT pdata
pdata	SEGMENT
$pdata$?clear@?$ImVector@UImDrawVert@@@@QEAAXXZ DD imagerel $LN5
	DD	imagerel $LN5+44
	DD	imagerel $unwind$?clear@?$ImVector@UImDrawVert@@@@QEAAXXZ
pdata	ENDS
;	COMDAT pdata
pdata	SEGMENT
$pdata$?resize@?$ImVector@UImDrawVert@@@@QEAAXH@Z DD imagerel $LN16
	DD	imagerel $LN16+26
	DD	imagerel $unwind$?resize@?$ImVector@UImDrawVert@@@@QEAAXH@Z
pdata	ENDS
;	COMDAT pdata
pdata	SEGMENT
$pdata$1$?resize@?$ImVector@UImDrawVert@@@@QEAAXH@Z DD imagerel $LN16+26
	DD	imagerel $LN16+153
	DD	imagerel $chain$1$?resize@?$ImVector@UImDrawVert@@@@QEAAXH@Z
pdata	ENDS
;	COMDAT pdata
pdata	SEGMENT
$pdata$3$?resize@?$ImVector@UImDrawVert@@@@QEAAXH@Z DD imagerel $LN16+153
	DD	imagerel $LN16+171
	DD	imagerel $chain$3$?resize@?$ImVector@UImDrawVert@@@@QEAAXH@Z
pdata	ENDS
;	COMDAT pdata
pdata	SEGMENT
$pdata$4$?resize@?$ImVector@UImDrawVert@@@@QEAAXH@Z DD imagerel $LN16+171
	DD	imagerel $LN16+184
	DD	imagerel $chain$4$?resize@?$ImVector@UImDrawVert@@@@QEAAXH@Z
pdata	ENDS
;	COMDAT pdata
pdata	SEGMENT
$pdata$?shrink@?$ImVector@UImDrawVert@@@@QEAAXH@Z DD imagerel $LN6
	DD	imagerel $LN6+71
	DD	imagerel $unwind$?shrink@?$ImVector@UImDrawVert@@@@QEAAXH@Z
pdata	ENDS
;	COMDAT pdata
pdata	SEGMENT
$pdata$?reserve@?$ImVector@UImDrawVert@@@@QEAAXH@Z DD imagerel $LN6
	DD	imagerel $LN6+25
	DD	imagerel $unwind$?reserve@?$ImVector@UImDrawVert@@@@QEAAXH@Z
pdata	ENDS
;	COMDAT pdata
pdata	SEGMENT
$pdata$0$?reserve@?$ImVector@UImDrawVert@@@@QEAAXH@Z DD imagerel $LN6+25
	DD	imagerel $LN6+91
	DD	imagerel $chain$0$?reserve@?$ImVector@UImDrawVert@@@@QEAAXH@Z
pdata	ENDS
;	COMDAT pdata
pdata	SEGMENT
$pdata$1$?reserve@?$ImVector@UImDrawVert@@@@QEAAXH@Z DD imagerel $LN6+91
	DD	imagerel $LN6+102
	DD	imagerel $chain$1$?reserve@?$ImVector@UImDrawVert@@@@QEAAXH@Z
pdata	ENDS
;	COMDAT pdata
pdata	SEGMENT
$pdata$??1?$ImVector@UImVec4@@@@QEAA@XZ DD imagerel $LN6
	DD	imagerel $LN6+24
	DD	imagerel $unwind$??1?$ImVector@UImVec4@@@@QEAA@XZ
pdata	ENDS
;	COMDAT pdata
pdata	SEGMENT
$pdata$?clear@?$ImVector@UImVec4@@@@QEAAXXZ DD imagerel $LN5
	DD	imagerel $LN5+44
	DD	imagerel $unwind$?clear@?$ImVector@UImVec4@@@@QEAAXXZ
pdata	ENDS
;	COMDAT pdata
pdata	SEGMENT
$pdata$?back@?$ImVector@UImVec4@@@@QEAAAEAUImVec4@@XZ DD imagerel $LN5
	DD	imagerel $LN5+61
	DD	imagerel $unwind$?back@?$ImVector@UImVec4@@@@QEAAAEAUImVec4@@XZ
pdata	ENDS
;	COMDAT pdata
pdata	SEGMENT
$pdata$?resize@?$ImVector@UImVec4@@@@QEAAXH@Z DD imagerel $LN10
	DD	imagerel $LN10+70
	DD	imagerel $unwind$?resize@?$ImVector@UImVec4@@@@QEAAXH@Z
pdata	ENDS
;	COMDAT pdata
pdata	SEGMENT
$pdata$?reserve@?$ImVector@UImVec4@@@@QEAAXH@Z DD imagerel $LN6
	DD	imagerel $LN6+24
	DD	imagerel $unwind$?reserve@?$ImVector@UImVec4@@@@QEAAXH@Z
pdata	ENDS
;	COMDAT pdata
pdata	SEGMENT
$pdata$0$?reserve@?$ImVector@UImVec4@@@@QEAAXH@Z DD imagerel $LN6+24
	DD	imagerel $LN6+86
	DD	imagerel $chain$0$?reserve@?$ImVector@UImVec4@@@@QEAAXH@Z
pdata	ENDS
;	COMDAT pdata
pdata	SEGMENT
$pdata$1$?reserve@?$ImVector@UImVec4@@@@QEAAXH@Z DD imagerel $LN6+86
	DD	imagerel $LN6+97
	DD	imagerel $chain$1$?reserve@?$ImVector@UImVec4@@@@QEAAXH@Z
pdata	ENDS
;	COMDAT pdata
pdata	SEGMENT
$pdata$?push_back@?$ImVector@UImVec4@@@@QEAAXAEBUImVec4@@@Z DD imagerel $LN9
	DD	imagerel $LN9+99
	DD	imagerel $unwind$?push_back@?$ImVector@UImVec4@@@@QEAAXAEBUImVec4@@@Z
pdata	ENDS
;	COMDAT pdata
pdata	SEGMENT
$pdata$?pop_back@?$ImVector@UImVec4@@@@QEAAXXZ DD imagerel $LN6
	DD	imagerel $LN6+59
	DD	imagerel $unwind$?pop_back@?$ImVector@UImVec4@@@@QEAAXXZ
pdata	ENDS
;	COMDAT pdata
pdata	SEGMENT
$pdata$??1?$ImVector@PEAX@@QEAA@XZ DD imagerel $LN6
	DD	imagerel $LN6+24
	DD	imagerel $unwind$??1?$ImVector@PEAX@@QEAA@XZ
pdata	ENDS
;	COMDAT pdata
pdata	SEGMENT
$pdata$?clear@?$ImVector@PEAX@@QEAAXXZ DD imagerel $LN5
	DD	imagerel $LN5+44
	DD	imagerel $unwind$?clear@?$ImVector@PEAX@@QEAAXXZ
pdata	ENDS
;	COMDAT pdata
pdata	SEGMENT
$pdata$?back@?$ImVector@PEAX@@QEAAAEAPEAXXZ DD imagerel $LN5
	DD	imagerel $LN5+62
	DD	imagerel $unwind$?back@?$ImVector@PEAX@@QEAAAEAPEAXXZ
pdata	ENDS
;	COMDAT pdata
pdata	SEGMENT
$pdata$?resize@?$ImVector@PEAX@@QEAAXH@Z DD imagerel $LN10
	DD	imagerel $LN10+70
	DD	imagerel $unwind$?resize@?$ImVector@PEAX@@QEAAXH@Z
pdata	ENDS
;	COMDAT pdata
pdata	SEGMENT
$pdata$?reserve@?$ImVector@PEAX@@QEAAXH@Z DD imagerel $LN6
	DD	imagerel $LN6+24
	DD	imagerel $unwind$?reserve@?$ImVector@PEAX@@QEAAXH@Z
pdata	ENDS
;	COMDAT pdata
pdata	SEGMENT
$pdata$0$?reserve@?$ImVector@PEAX@@QEAAXH@Z DD imagerel $LN6+24
	DD	imagerel $LN6+86
	DD	imagerel $chain$0$?reserve@?$ImVector@PEAX@@QEAAXH@Z
pdata	ENDS
;	COMDAT pdata
pdata	SEGMENT
$pdata$1$?reserve@?$ImVector@PEAX@@QEAAXH@Z DD imagerel $LN6+86
	DD	imagerel $LN6+97
	DD	imagerel $chain$1$?reserve@?$ImVector@PEAX@@QEAAXH@Z
pdata	ENDS
;	COMDAT pdata
pdata	SEGMENT
$pdata$?push_back@?$ImVector@PEAX@@QEAAXAEBQEAX@Z DD imagerel $LN9
	DD	imagerel $LN9+96
	DD	imagerel $unwind$?push_back@?$ImVector@PEAX@@QEAAXAEBQEAX@Z
pdata	ENDS
;	COMDAT pdata
pdata	SEGMENT
$pdata$?pop_back@?$ImVector@PEAX@@QEAAXXZ DD imagerel $LN6
	DD	imagerel $LN6+59
	DD	imagerel $unwind$?pop_back@?$ImVector@PEAX@@QEAAXXZ
pdata	ENDS
;	COMDAT pdata
pdata	SEGMENT
$pdata$??1?$ImVector@UImVec2@@@@QEAA@XZ DD imagerel $LN6
	DD	imagerel $LN6+24
	DD	imagerel $unwind$??1?$ImVector@UImVec2@@@@QEAA@XZ
pdata	ENDS
;	COMDAT pdata
pdata	SEGMENT
$pdata$?clear@?$ImVector@UImVec2@@@@QEAAXXZ DD imagerel $LN5
	DD	imagerel $LN5+44
	DD	imagerel $unwind$?clear@?$ImVector@UImVec2@@@@QEAAXXZ
pdata	ENDS
;	COMDAT pdata
pdata	SEGMENT
$pdata$?back@?$ImVector@UImVec2@@@@QEAAAEAUImVec2@@XZ DD imagerel $LN5
	DD	imagerel $LN5+62
	DD	imagerel $unwind$?back@?$ImVector@UImVec2@@@@QEAAAEAUImVec2@@XZ
pdata	ENDS
;	COMDAT pdata
pdata	SEGMENT
$pdata$?resize@?$ImVector@UImVec2@@@@QEAAXH@Z DD imagerel $LN10
	DD	imagerel $LN10+70
	DD	imagerel $unwind$?resize@?$ImVector@UImVec2@@@@QEAAXH@Z
pdata	ENDS
;	COMDAT pdata
pdata	SEGMENT
$pdata$?reserve@?$ImVector@UImVec2@@@@QEAAXH@Z DD imagerel $LN6
	DD	imagerel $LN6+24
	DD	imagerel $unwind$?reserve@?$ImVector@UImVec2@@@@QEAAXH@Z
pdata	ENDS
;	COMDAT pdata
pdata	SEGMENT
$pdata$0$?reserve@?$ImVector@UImVec2@@@@QEAAXH@Z DD imagerel $LN6+24
	DD	imagerel $LN6+86
	DD	imagerel $chain$0$?reserve@?$ImVector@UImVec2@@@@QEAAXH@Z
pdata	ENDS
;	COMDAT pdata
pdata	SEGMENT
$pdata$1$?reserve@?$ImVector@UImVec2@@@@QEAAXH@Z DD imagerel $LN6+86
	DD	imagerel $LN6+97
	DD	imagerel $chain$1$?reserve@?$ImVector@UImVec2@@@@QEAAXH@Z
pdata	ENDS
;	COMDAT pdata
pdata	SEGMENT
$pdata$?push_back@?$ImVector@UImVec2@@@@QEAAXAEBUImVec2@@@Z DD imagerel $LN9
	DD	imagerel $LN9+96
	DD	imagerel $unwind$?push_back@?$ImVector@UImVec2@@@@QEAAXAEBUImVec2@@@Z
pdata	ENDS
;	COMDAT pdata
pdata	SEGMENT
$pdata$??0ImDrawList@@QEAA@PEBUImDrawListSharedData@@@Z DD imagerel $LN57
	DD	imagerel $LN57+339
	DD	imagerel $unwind$??0ImDrawList@@QEAA@PEBUImDrawListSharedData@@@Z
pdata	ENDS
;	COMDAT pdata
pdata	SEGMENT
$pdata$?PushClipRect@ImDrawList@@QEAAXUImVec2@@0_N@Z DD imagerel $LN26
	DD	imagerel $LN26+296
	DD	imagerel $unwind$?PushClipRect@ImDrawList@@QEAAXUImVec2@@0_N@Z
pdata	ENDS
;	COMDAT pdata
pdata	SEGMENT
$pdata$?PushClipRectFullScreen@ImDrawList@@QEAAXXZ DD imagerel $LN32
	DD	imagerel $LN32+179
	DD	imagerel $unwind$?PushClipRectFullScreen@ImDrawList@@QEAAXXZ
pdata	ENDS
;	COMDAT pdata
pdata	SEGMENT
$pdata$?PopClipRect@ImDrawList@@QEAAXXZ DD imagerel $LN8
	DD	imagerel $LN8+95
	DD	imagerel $unwind$?PopClipRect@ImDrawList@@QEAAXXZ
pdata	ENDS
;	COMDAT pdata
pdata	SEGMENT
$pdata$?PushTextureID@ImDrawList@@QEAAXPEAX@Z DD imagerel $LN11
	DD	imagerel $LN11+119
	DD	imagerel $unwind$?PushTextureID@ImDrawList@@QEAAXPEAX@Z
pdata	ENDS
;	COMDAT pdata
pdata	SEGMENT
$pdata$?PopTextureID@ImDrawList@@QEAAXXZ DD imagerel $LN8
	DD	imagerel $LN8+95
	DD	imagerel $unwind$?PopTextureID@ImDrawList@@QEAAXXZ
pdata	ENDS
;	COMDAT pdata
pdata	SEGMENT
$pdata$?AddLine@ImDrawList@@QEAAXAEBUImVec2@@0IM@Z DD imagerel $LN38
	DD	imagerel $LN38+44
	DD	imagerel $unwind$?AddLine@ImDrawList@@QEAAXAEBUImVec2@@0IM@Z
pdata	ENDS
;	COMDAT pdata
pdata	SEGMENT
$pdata$1$?AddLine@ImDrawList@@QEAAXAEBUImVec2@@0IM@Z DD imagerel $LN38+44
	DD	imagerel $LN38+61
	DD	imagerel $chain$1$?AddLine@ImDrawList@@QEAAXAEBUImVec2@@0IM@Z
pdata	ENDS
;	COMDAT pdata
pdata	SEGMENT
$pdata$2$?AddLine@ImDrawList@@QEAAXAEBUImVec2@@0IM@Z DD imagerel $LN38+61
	DD	imagerel $LN38+215
	DD	imagerel $chain$2$?AddLine@ImDrawList@@QEAAXAEBUImVec2@@0IM@Z
pdata	ENDS
;	COMDAT pdata
pdata	SEGMENT
$pdata$3$?AddLine@ImDrawList@@QEAAXAEBUImVec2@@0IM@Z DD imagerel $LN38+215
	DD	imagerel $LN38+343
	DD	imagerel $chain$3$?AddLine@ImDrawList@@QEAAXAEBUImVec2@@0IM@Z
pdata	ENDS
;	COMDAT pdata
pdata	SEGMENT
$pdata$4$?AddLine@ImDrawList@@QEAAXAEBUImVec2@@0IM@Z DD imagerel $LN38+343
	DD	imagerel $LN38+344
	DD	imagerel $chain$4$?AddLine@ImDrawList@@QEAAXAEBUImVec2@@0IM@Z
pdata	ENDS
;	COMDAT pdata
pdata	SEGMENT
$pdata$?AddRect@ImDrawList@@QEAAXAEBUImVec2@@0IMHM@Z DD imagerel $LN35
	DD	imagerel $LN35+250
	DD	imagerel $unwind$?AddRect@ImDrawList@@QEAAXAEBUImVec2@@0IMHM@Z
pdata	ENDS
;	COMDAT pdata
pdata	SEGMENT
$pdata$?AddRectFilled@ImDrawList@@QEAAXAEBUImVec2@@0IMH@Z DD imagerel $LN16
	DD	imagerel $LN16+117
	DD	imagerel $unwind$?AddRectFilled@ImDrawList@@QEAAXAEBUImVec2@@0IMH@Z
pdata	ENDS
;	COMDAT pdata
pdata	SEGMENT
$pdata$0$?AddRectFilled@ImDrawList@@QEAAXAEBUImVec2@@0IMH@Z DD imagerel $LN16+117
	DD	imagerel $LN16+381
	DD	imagerel $chain$0$?AddRectFilled@ImDrawList@@QEAAXAEBUImVec2@@0IMH@Z
pdata	ENDS
;	COMDAT pdata
pdata	SEGMENT
$pdata$1$?AddRectFilled@ImDrawList@@QEAAXAEBUImVec2@@0IMH@Z DD imagerel $LN16+381
	DD	imagerel $LN16+402
	DD	imagerel $chain$1$?AddRectFilled@ImDrawList@@QEAAXAEBUImVec2@@0IMH@Z
pdata	ENDS
;	COMDAT pdata
pdata	SEGMENT
$pdata$?AddRectFilledMultiColor@ImDrawList@@QEAAXAEBUImVec2@@0IIII@Z DD imagerel $LN29
	DD	imagerel $LN29+94
	DD	imagerel $unwind$?AddRectFilledMultiColor@ImDrawList@@QEAAXAEBUImVec2@@0IIII@Z
pdata	ENDS
;	COMDAT pdata
pdata	SEGMENT
$pdata$1$?AddRectFilledMultiColor@ImDrawList@@QEAAXAEBUImVec2@@0IIII@Z DD imagerel $LN29+94
	DD	imagerel $LN29+443
	DD	imagerel $chain$1$?AddRectFilledMultiColor@ImDrawList@@QEAAXAEBUImVec2@@0IIII@Z
pdata	ENDS
;	COMDAT pdata
pdata	SEGMENT
$pdata$2$?AddRectFilledMultiColor@ImDrawList@@QEAAXAEBUImVec2@@0IIII@Z DD imagerel $LN29+443
	DD	imagerel $LN29+474
	DD	imagerel $chain$2$?AddRectFilledMultiColor@ImDrawList@@QEAAXAEBUImVec2@@0IIII@Z
pdata	ENDS
;	COMDAT pdata
pdata	SEGMENT
$pdata$?AddQuad@ImDrawList@@QEAAXAEBUImVec2@@000IM@Z DD imagerel $LN7
	DD	imagerel $LN7+144
	DD	imagerel $unwind$?AddQuad@ImDrawList@@QEAAXAEBUImVec2@@000IM@Z
pdata	ENDS
;	COMDAT pdata
pdata	SEGMENT
$pdata$?AddQuadFilled@ImDrawList@@QEAAXAEBUImVec2@@000I@Z DD imagerel $LN7
	DD	imagerel $LN7+127
	DD	imagerel $unwind$?AddQuadFilled@ImDrawList@@QEAAXAEBUImVec2@@000I@Z
pdata	ENDS
;	COMDAT pdata
pdata	SEGMENT
$pdata$?AddTriangle@ImDrawList@@QEAAXAEBUImVec2@@00IM@Z DD imagerel $LN7
	DD	imagerel $LN7+131
	DD	imagerel $unwind$?AddTriangle@ImDrawList@@QEAAXAEBUImVec2@@00IM@Z
pdata	ENDS
;	COMDAT pdata
pdata	SEGMENT
$pdata$?AddTriangleFilled@ImDrawList@@QEAAXAEBUImVec2@@00I@Z DD imagerel $LN7
	DD	imagerel $LN7+114
	DD	imagerel $unwind$?AddTriangleFilled@ImDrawList@@QEAAXAEBUImVec2@@00I@Z
pdata	ENDS
;	COMDAT pdata
pdata	SEGMENT
$pdata$?AddCircle@ImDrawList@@QEAAXAEBUImVec2@@MIHM@Z DD imagerel $LN25
	DD	imagerel $LN25+36
	DD	imagerel $unwind$?AddCircle@ImDrawList@@QEAAXAEBUImVec2@@MIHM@Z
pdata	ENDS
;	COMDAT pdata
pdata	SEGMENT
$pdata$0$?AddCircle@ImDrawList@@QEAAXAEBUImVec2@@MIHM@Z DD imagerel $LN25+36
	DD	imagerel $LN25+321
	DD	imagerel $chain$0$?AddCircle@ImDrawList@@QEAAXAEBUImVec2@@MIHM@Z
pdata	ENDS
;	COMDAT pdata
pdata	SEGMENT
$pdata$1$?AddCircle@ImDrawList@@QEAAXAEBUImVec2@@MIHM@Z DD imagerel $LN25+321
	DD	imagerel $LN25+322
	DD	imagerel $chain$1$?AddCircle@ImDrawList@@QEAAXAEBUImVec2@@MIHM@Z
pdata	ENDS
;	COMDAT pdata
pdata	SEGMENT
$pdata$2$?AddCircle@ImDrawList@@QEAAXAEBUImVec2@@MIHM@Z DD imagerel $LN25+322
	DD	imagerel $LN25+379
	DD	imagerel $chain$2$?AddCircle@ImDrawList@@QEAAXAEBUImVec2@@MIHM@Z
pdata	ENDS
;	COMDAT pdata
pdata	SEGMENT
$pdata$?AddCircleFilled@ImDrawList@@QEAAXAEBUImVec2@@MIH@Z DD imagerel $LN25
	DD	imagerel $LN25+36
	DD	imagerel $unwind$?AddCircleFilled@ImDrawList@@QEAAXAEBUImVec2@@MIH@Z
pdata	ENDS
;	COMDAT pdata
pdata	SEGMENT
$pdata$0$?AddCircleFilled@ImDrawList@@QEAAXAEBUImVec2@@MIH@Z DD imagerel $LN25+36
	DD	imagerel $LN25+311
	DD	imagerel $chain$0$?AddCircleFilled@ImDrawList@@QEAAXAEBUImVec2@@MIH@Z
pdata	ENDS
;	COMDAT pdata
pdata	SEGMENT
$pdata$1$?AddCircleFilled@ImDrawList@@QEAAXAEBUImVec2@@MIH@Z DD imagerel $LN25+311
	DD	imagerel $LN25+312
	DD	imagerel $chain$1$?AddCircleFilled@ImDrawList@@QEAAXAEBUImVec2@@MIH@Z
pdata	ENDS
;	COMDAT pdata
pdata	SEGMENT
$pdata$?AddNgon@ImDrawList@@QEAAXAEBUImVec2@@MIHM@Z DD imagerel $LN9
	DD	imagerel $LN9+159
	DD	imagerel $unwind$?AddNgon@ImDrawList@@QEAAXAEBUImVec2@@MIHM@Z
pdata	ENDS
;	COMDAT pdata
pdata	SEGMENT
$pdata$?AddNgonFilled@ImDrawList@@QEAAXAEBUImVec2@@MIH@Z DD imagerel $LN9
	DD	imagerel $LN9+130
	DD	imagerel $unwind$?AddNgonFilled@ImDrawList@@QEAAXAEBUImVec2@@MIH@Z
pdata	ENDS
;	COMDAT pdata
pdata	SEGMENT
$pdata$?AddText@ImDrawList@@QEAAXAEBUImVec2@@IPEBD1@Z DD imagerel $LN40
	DD	imagerel $LN40+90
	DD	imagerel $unwind$?AddText@ImDrawList@@QEAAXAEBUImVec2@@IPEBD1@Z
pdata	ENDS
;	COMDAT pdata
pdata	SEGMENT
$pdata$1$?AddText@ImDrawList@@QEAAXAEBUImVec2@@IPEBD1@Z DD imagerel $LN40+90
	DD	imagerel $LN40+321
	DD	imagerel $chain$1$?AddText@ImDrawList@@QEAAXAEBUImVec2@@IPEBD1@Z
pdata	ENDS
;	COMDAT pdata
pdata	SEGMENT
$pdata$2$?AddText@ImDrawList@@QEAAXAEBUImVec2@@IPEBD1@Z DD imagerel $LN40+321
	DD	imagerel $LN40+343
	DD	imagerel $chain$2$?AddText@ImDrawList@@QEAAXAEBUImVec2@@IPEBD1@Z
pdata	ENDS
;	COMDAT pdata
pdata	SEGMENT
$pdata$?AddText@ImDrawList@@QEAAXPEBUImFont@@MAEBUImVec2@@IPEBD2MPEBUImVec4@@@Z DD imagerel $LN39
	DD	imagerel $LN39+53
	DD	imagerel $unwind$?AddText@ImDrawList@@QEAAXPEBUImFont@@MAEBUImVec2@@IPEBD2MPEBUImVec4@@@Z
pdata	ENDS
;	COMDAT pdata
pdata	SEGMENT
$pdata$1$?AddText@ImDrawList@@QEAAXPEBUImFont@@MAEBUImVec2@@IPEBD2MPEBUImVec4@@@Z DD imagerel $LN39+53
	DD	imagerel $LN39+464
	DD	imagerel $chain$1$?AddText@ImDrawList@@QEAAXPEBUImFont@@MAEBUImVec2@@IPEBD2MPEBUImVec4@@@Z
pdata	ENDS
;	COMDAT pdata
pdata	SEGMENT
$pdata$2$?AddText@ImDrawList@@QEAAXPEBUImFont@@MAEBUImVec2@@IPEBD2MPEBUImVec4@@@Z DD imagerel $LN39+464
	DD	imagerel $LN39+487
	DD	imagerel $chain$2$?AddText@ImDrawList@@QEAAXPEBUImFont@@MAEBUImVec2@@IPEBD2MPEBUImVec4@@@Z
pdata	ENDS
;	COMDAT pdata
pdata	SEGMENT
$pdata$?AddPolyline@ImDrawList@@QEAAXPEBUImVec2@@HI_NM@Z DD imagerel $LN223
	DD	imagerel $LN223+3507
	DD	imagerel $unwind$?AddPolyline@ImDrawList@@QEAAXPEBUImVec2@@HI_NM@Z
pdata	ENDS
;	COMDAT pdata
pdata	SEGMENT
$pdata$?AddConvexPolyFilled@ImDrawList@@QEAAXPEBUImVec2@@HI@Z DD imagerel $LN70
	DD	imagerel $LN70+1531
	DD	imagerel $unwind$?AddConvexPolyFilled@ImDrawList@@QEAAXPEBUImVec2@@HI@Z
pdata	ENDS
;	COMDAT pdata
pdata	SEGMENT
$pdata$?AddBezierCurve@ImDrawList@@QEAAXAEBUImVec2@@000IMH@Z DD imagerel $LN7
	DD	imagerel $LN7+136
	DD	imagerel $unwind$?AddBezierCurve@ImDrawList@@QEAAXAEBUImVec2@@000IMH@Z
pdata	ENDS
;	COMDAT pdata
pdata	SEGMENT
$pdata$?AddImage@ImDrawList@@QEAAXPEAXAEBUImVec2@@111I@Z DD imagerel $LN15
	DD	imagerel $LN15+53
	DD	imagerel $unwind$?AddImage@ImDrawList@@QEAAXPEAXAEBUImVec2@@111I@Z
pdata	ENDS
;	COMDAT pdata
pdata	SEGMENT
$pdata$0$?AddImage@ImDrawList@@QEAAXPEAXAEBUImVec2@@111I@Z DD imagerel $LN15+53
	DD	imagerel $LN15+186
	DD	imagerel $chain$0$?AddImage@ImDrawList@@QEAAXPEAXAEBUImVec2@@111I@Z
pdata	ENDS
;	COMDAT pdata
pdata	SEGMENT
$pdata$1$?AddImage@ImDrawList@@QEAAXPEAXAEBUImVec2@@111I@Z DD imagerel $LN15+186
	DD	imagerel $LN15+214
	DD	imagerel $chain$1$?AddImage@ImDrawList@@QEAAXPEAXAEBUImVec2@@111I@Z
pdata	ENDS
;	COMDAT pdata
pdata	SEGMENT
$pdata$?AddImageQuad@ImDrawList@@QEAAXPEAXAEBUImVec2@@1111111I@Z DD imagerel $LN17
	DD	imagerel $LN17+53
	DD	imagerel $unwind$?AddImageQuad@ImDrawList@@QEAAXPEAXAEBUImVec2@@1111111I@Z
pdata	ENDS
;	COMDAT pdata
pdata	SEGMENT
$pdata$0$?AddImageQuad@ImDrawList@@QEAAXPEAXAEBUImVec2@@1111111I@Z DD imagerel $LN17+53
	DD	imagerel $LN17+397
	DD	imagerel $chain$0$?AddImageQuad@ImDrawList@@QEAAXPEAXAEBUImVec2@@1111111I@Z
pdata	ENDS
;	COMDAT pdata
pdata	SEGMENT
$pdata$1$?AddImageQuad@ImDrawList@@QEAAXPEAXAEBUImVec2@@1111111I@Z DD imagerel $LN17+397
	DD	imagerel $LN17+425
	DD	imagerel $chain$1$?AddImageQuad@ImDrawList@@QEAAXPEAXAEBUImVec2@@1111111I@Z
pdata	ENDS
;	COMDAT pdata
pdata	SEGMENT
$pdata$?AddImageRounded@ImDrawList@@QEAAXPEAXAEBUImVec2@@111IMH@Z DD imagerel $LN17
	DD	imagerel $LN17+53
	DD	imagerel $unwind$?AddImageRounded@ImDrawList@@QEAAXPEAXAEBUImVec2@@111IMH@Z
pdata	ENDS
;	COMDAT pdata
pdata	SEGMENT
$pdata$0$?AddImageRounded@ImDrawList@@QEAAXPEAXAEBUImVec2@@111IMH@Z DD imagerel $LN17+53
	DD	imagerel $LN17+94
	DD	imagerel $chain$0$?AddImageRounded@ImDrawList@@QEAAXPEAXAEBUImVec2@@111IMH@Z
pdata	ENDS
;	COMDAT pdata
pdata	SEGMENT
$pdata$1$?AddImageRounded@ImDrawList@@QEAAXPEAXAEBUImVec2@@111IMH@Z DD imagerel $LN17+94
	DD	imagerel $LN17+262
	DD	imagerel $chain$1$?AddImageRounded@ImDrawList@@QEAAXPEAXAEBUImVec2@@111IMH@Z
pdata	ENDS
;	COMDAT pdata
pdata	SEGMENT
$pdata$2$?AddImageRounded@ImDrawList@@QEAAXPEAXAEBUImVec2@@111IMH@Z DD imagerel $LN17+262
	DD	imagerel $LN17+312
	DD	imagerel $chain$2$?AddImageRounded@ImDrawList@@QEAAXPEAXAEBUImVec2@@111IMH@Z
pdata	ENDS
;	COMDAT pdata
pdata	SEGMENT
$pdata$3$?AddImageRounded@ImDrawList@@QEAAXPEAXAEBUImVec2@@111IMH@Z DD imagerel $LN17+312
	DD	imagerel $LN17+332
	DD	imagerel $chain$3$?AddImageRounded@ImDrawList@@QEAAXPEAXAEBUImVec2@@111IMH@Z
pdata	ENDS
;	COMDAT pdata
pdata	SEGMENT
$pdata$?PathLineTo@ImDrawList@@QEAAXAEBUImVec2@@@Z DD imagerel $LN11
	DD	imagerel $LN11+100
	DD	imagerel $unwind$?PathLineTo@ImDrawList@@QEAAXAEBUImVec2@@@Z
pdata	ENDS
;	COMDAT pdata
pdata	SEGMENT
$pdata$?PathFillConvex@ImDrawList@@QEAAXI@Z DD imagerel $LN4
	DD	imagerel $LN4+47
	DD	imagerel $unwind$?PathFillConvex@ImDrawList@@QEAAXI@Z
pdata	ENDS
;	COMDAT pdata
pdata	SEGMENT
$pdata$?PathStroke@ImDrawList@@QEAAXI_NM@Z DD imagerel $LN4
	DD	imagerel $LN4+58
	DD	imagerel $unwind$?PathStroke@ImDrawList@@QEAAXI_NM@Z
pdata	ENDS
;	COMDAT pdata
pdata	SEGMENT
$pdata$?PathArcTo@ImDrawList@@QEAAXAEBUImVec2@@MMMH@Z DD imagerel $LN27
	DD	imagerel $LN27+62
	DD	imagerel $unwind$?PathArcTo@ImDrawList@@QEAAXAEBUImVec2@@MMMH@Z
pdata	ENDS
;	COMDAT pdata
pdata	SEGMENT
$pdata$1$?PathArcTo@ImDrawList@@QEAAXAEBUImVec2@@MMMH@Z DD imagerel $LN27+62
	DD	imagerel $LN27+111
	DD	imagerel $chain$1$?PathArcTo@ImDrawList@@QEAAXAEBUImVec2@@MMMH@Z
pdata	ENDS
;	COMDAT pdata
pdata	SEGMENT
$pdata$6$?PathArcTo@ImDrawList@@QEAAXAEBUImVec2@@MMMH@Z DD imagerel $LN27+111
	DD	imagerel $LN27+405
	DD	imagerel $chain$6$?PathArcTo@ImDrawList@@QEAAXAEBUImVec2@@MMMH@Z
pdata	ENDS
;	COMDAT pdata
pdata	SEGMENT
$pdata$7$?PathArcTo@ImDrawList@@QEAAXAEBUImVec2@@MMMH@Z DD imagerel $LN27+405
	DD	imagerel $LN27+421
	DD	imagerel $chain$7$?PathArcTo@ImDrawList@@QEAAXAEBUImVec2@@MMMH@Z
pdata	ENDS
;	COMDAT pdata
pdata	SEGMENT
$pdata$8$?PathArcTo@ImDrawList@@QEAAXAEBUImVec2@@MMMH@Z DD imagerel $LN27+421
	DD	imagerel $LN27+443
	DD	imagerel $chain$8$?PathArcTo@ImDrawList@@QEAAXAEBUImVec2@@MMMH@Z
pdata	ENDS
;	COMDAT pdata
pdata	SEGMENT
$pdata$?PathArcToFast@ImDrawList@@QEAAXAEBUImVec2@@MHH@Z DD imagerel $LN34
	DD	imagerel $LN34+101
	DD	imagerel $unwind$?PathArcToFast@ImDrawList@@QEAAXAEBUImVec2@@MHH@Z
pdata	ENDS
;	COMDAT pdata
pdata	SEGMENT
$pdata$1$?PathArcToFast@ImDrawList@@QEAAXAEBUImVec2@@MHH@Z DD imagerel $LN34+101
	DD	imagerel $LN34+329
	DD	imagerel $chain$1$?PathArcToFast@ImDrawList@@QEAAXAEBUImVec2@@MHH@Z
pdata	ENDS
;	COMDAT pdata
pdata	SEGMENT
$pdata$2$?PathArcToFast@ImDrawList@@QEAAXAEBUImVec2@@MHH@Z DD imagerel $LN34+329
	DD	imagerel $LN34+436
	DD	imagerel $chain$2$?PathArcToFast@ImDrawList@@QEAAXAEBUImVec2@@MHH@Z
pdata	ENDS
;	COMDAT pdata
pdata	SEGMENT
$pdata$?PathBezierCurveTo@ImDrawList@@QEAAXAEBUImVec2@@00H@Z DD imagerel $LN34
	DD	imagerel $LN34+233
	DD	imagerel $unwind$?PathBezierCurveTo@ImDrawList@@QEAAXAEBUImVec2@@00H@Z
pdata	ENDS
;	COMDAT pdata
pdata	SEGMENT
$pdata$2$?PathBezierCurveTo@ImDrawList@@QEAAXAEBUImVec2@@00H@Z DD imagerel $LN34+233
	DD	imagerel $LN34+297
	DD	imagerel $chain$2$?PathBezierCurveTo@ImDrawList@@QEAAXAEBUImVec2@@00H@Z
pdata	ENDS
;	COMDAT pdata
pdata	SEGMENT
$pdata$5$?PathBezierCurveTo@ImDrawList@@QEAAXAEBUImVec2@@00H@Z DD imagerel $LN34+297
	DD	imagerel $LN34+663
	DD	imagerel $chain$5$?PathBezierCurveTo@ImDrawList@@QEAAXAEBUImVec2@@00H@Z
pdata	ENDS
;	COMDAT pdata
pdata	SEGMENT
$pdata$6$?PathBezierCurveTo@ImDrawList@@QEAAXAEBUImVec2@@00H@Z DD imagerel $LN34+663
	DD	imagerel $LN34+688
	DD	imagerel $chain$6$?PathBezierCurveTo@ImDrawList@@QEAAXAEBUImVec2@@00H@Z
pdata	ENDS
;	COMDAT pdata
pdata	SEGMENT
$pdata$7$?PathBezierCurveTo@ImDrawList@@QEAAXAEBUImVec2@@00H@Z DD imagerel $LN34+688
	DD	imagerel $LN34+723
	DD	imagerel $chain$7$?PathBezierCurveTo@ImDrawList@@QEAAXAEBUImVec2@@00H@Z
pdata	ENDS
;	COMDAT pdata
pdata	SEGMENT
$pdata$?PathRect@ImDrawList@@QEAAXAEBUImVec2@@0MH@Z DD imagerel $LN81
	DD	imagerel $LN81+217
	DD	imagerel $unwind$?PathRect@ImDrawList@@QEAAXAEBUImVec2@@0MH@Z
pdata	ENDS
;	COMDAT pdata
pdata	SEGMENT
$pdata$1$?PathRect@ImDrawList@@QEAAXAEBUImVec2@@0MH@Z DD imagerel $LN81+217
	DD	imagerel $LN81+521
	DD	imagerel $chain$1$?PathRect@ImDrawList@@QEAAXAEBUImVec2@@0MH@Z
pdata	ENDS
;	COMDAT pdata
pdata	SEGMENT
$pdata$2$?PathRect@ImDrawList@@QEAAXAEBUImVec2@@0MH@Z DD imagerel $LN81+521
	DD	imagerel $LN81+525
	DD	imagerel $chain$2$?PathRect@ImDrawList@@QEAAXAEBUImVec2@@0MH@Z
pdata	ENDS
;	COMDAT pdata
pdata	SEGMENT
$pdata$3$?PathRect@ImDrawList@@QEAAXAEBUImVec2@@0MH@Z DD imagerel $LN81+525
	DD	imagerel $LN81+858
	DD	imagerel $chain$3$?PathRect@ImDrawList@@QEAAXAEBUImVec2@@0MH@Z
pdata	ENDS
;	COMDAT pdata
pdata	SEGMENT
$pdata$4$?PathRect@ImDrawList@@QEAAXAEBUImVec2@@0MH@Z DD imagerel $LN81+858
	DD	imagerel $LN81+882
	DD	imagerel $chain$4$?PathRect@ImDrawList@@QEAAXAEBUImVec2@@0MH@Z
pdata	ENDS
;	COMDAT pdata
pdata	SEGMENT
$pdata$?AddCallback@ImDrawList@@QEAAXP6AXPEBU1@PEBUImDrawCmd@@@ZPEAX@Z DD imagerel $LN14
	DD	imagerel $LN14+173
	DD	imagerel $unwind$?AddCallback@ImDrawList@@QEAAXP6AXPEBU1@PEBUImDrawCmd@@@ZPEAX@Z
pdata	ENDS
;	COMDAT pdata
pdata	SEGMENT
$pdata$?AddDrawCmd@ImDrawList@@QEAAXXZ DD imagerel $LN14
	DD	imagerel $LN14+180
	DD	imagerel $unwind$?AddDrawCmd@ImDrawList@@QEAAXXZ
pdata	ENDS
;	COMDAT pdata
pdata	SEGMENT
$pdata$?CloneOutput@ImDrawList@@QEBAPEAU1@XZ DD imagerel $LN23
	DD	imagerel $LN23+251
	DD	imagerel $unwind$?CloneOutput@ImDrawList@@QEBAPEAU1@XZ
pdata	ENDS
;	COMDAT pdata
pdata	SEGMENT
$pdata$?dtor$0@?0??CloneOutput@ImDrawList@@QEBAPEAU1@XZ@4HA DD imagerel ?dtor$0@?0??CloneOutput@ImDrawList@@QEBAPEAU1@XZ@4HA
	DD	imagerel ?dtor$0@?0??CloneOutput@ImDrawList@@QEBAPEAU1@XZ@4HA+35
	DD	imagerel $unwind$?dtor$0@?0??CloneOutput@ImDrawList@@QEBAPEAU1@XZ@4HA
pdata	ENDS
;	COMDAT pdata
pdata	SEGMENT
$pdata$?Clear@ImDrawList@@QEAAXXZ DD imagerel $LN29
	DD	imagerel $LN29+226
	DD	imagerel $unwind$?Clear@ImDrawList@@QEAAXXZ
pdata	ENDS
;	COMDAT pdata
pdata	SEGMENT
$pdata$?ClearFreeMemory@ImDrawList@@QEAAXXZ DD imagerel $LN22
	DD	imagerel $LN22+188
	DD	imagerel $unwind$?ClearFreeMemory@ImDrawList@@QEAAXXZ
pdata	ENDS
;	COMDAT pdata
pdata	SEGMENT
$pdata$?PrimReserve@ImDrawList@@QEAAXHH@Z DD imagerel $LN5
	DD	imagerel $LN5+163
	DD	imagerel $unwind$?PrimReserve@ImDrawList@@QEAAXHH@Z
pdata	ENDS
;	COMDAT pdata
pdata	SEGMENT
$pdata$?PrimUnreserve@ImDrawList@@QEAAXHH@Z DD imagerel $LN11
	DD	imagerel $LN11+131
	DD	imagerel $unwind$?PrimUnreserve@ImDrawList@@QEAAXHH@Z
pdata	ENDS
;	COMDAT pdata
pdata	SEGMENT
$pdata$?PrimRect@ImDrawList@@QEAAXAEBUImVec2@@0I@Z DD imagerel $LN8
	DD	imagerel $LN8+284
	DD	imagerel $unwind$?PrimRect@ImDrawList@@QEAAXAEBUImVec2@@0I@Z
pdata	ENDS
;	COMDAT pdata
pdata	SEGMENT
$pdata$?PrimRectUV@ImDrawList@@QEAAXAEBUImVec2@@000I@Z DD imagerel $LN12
	DD	imagerel $LN12+334
	DD	imagerel $unwind$?PrimRectUV@ImDrawList@@QEAAXAEBUImVec2@@000I@Z
pdata	ENDS
;	COMDAT pdata
pdata	SEGMENT
$pdata$?PrimQuadUV@ImDrawList@@QEAAXAEBUImVec2@@0000000I@Z DD imagerel $LN4
	DD	imagerel $LN4+261
	DD	imagerel $unwind$?PrimQuadUV@ImDrawList@@QEAAXAEBUImVec2@@0000000I@Z
pdata	ENDS
;	COMDAT pdata
pdata	SEGMENT
$pdata$?UpdateClipRect@ImDrawList@@QEAAXXZ DD imagerel $LN17
	DD	imagerel $LN17+236
	DD	imagerel $unwind$?UpdateClipRect@ImDrawList@@QEAAXXZ
pdata	ENDS
;	COMDAT pdata
pdata	SEGMENT
$pdata$?UpdateTextureID@ImDrawList@@QEAAXXZ DD imagerel $LN20
	DD	imagerel $LN20+283
	DD	imagerel $unwind$?UpdateTextureID@ImDrawList@@QEAAXXZ
pdata	ENDS
;	COMDAT pdata
pdata	SEGMENT
$pdata$?DeIndexAllBuffers@ImDrawData@@QEAAXXZ DD imagerel $LN65
	DD	imagerel $LN65+586
	DD	imagerel $unwind$?DeIndexAllBuffers@ImDrawData@@QEAAXXZ
pdata	ENDS
;	COMDAT pdata
pdata	SEGMENT
$pdata$?ScaleClipRects@ImDrawData@@QEAAXAEBUImVec2@@@Z DD imagerel $LN26
	DD	imagerel $LN26+27
	DD	imagerel $unwind$?ScaleClipRects@ImDrawData@@QEAAXAEBUImVec2@@@Z
pdata	ENDS
;	COMDAT pdata
pdata	SEGMENT
$pdata$3$?ScaleClipRects@ImDrawData@@QEAAXAEBUImVec2@@@Z DD imagerel $LN26+27
	DD	imagerel $LN26+226
	DD	imagerel $chain$3$?ScaleClipRects@ImDrawData@@QEAAXAEBUImVec2@@@Z
pdata	ENDS
;	COMDAT pdata
pdata	SEGMENT
$pdata$4$?ScaleClipRects@ImDrawData@@QEAAXAEBUImVec2@@@Z DD imagerel $LN26+226
	DD	imagerel $LN26+236
	DD	imagerel $chain$4$?ScaleClipRects@ImDrawData@@QEAAXAEBUImVec2@@@Z
pdata	ENDS
;	COMDAT pdata
pdata	SEGMENT
$pdata$??1?$ImVector@I@@QEAA@XZ DD imagerel $LN6
	DD	imagerel $LN6+24
	DD	imagerel $unwind$??1?$ImVector@I@@QEAA@XZ
pdata	ENDS
;	COMDAT pdata
pdata	SEGMENT
$pdata$??A?$ImVector@I@@QEAAAEAIH@Z DD imagerel $LN5
	DD	imagerel $LN5+65
	DD	imagerel $unwind$??A?$ImVector@I@@QEAAAEAIH@Z
pdata	ENDS
;	COMDAT pdata
pdata	SEGMENT
$pdata$??A?$ImVector@I@@QEBAAEBIH@Z DD imagerel $LN5
	DD	imagerel $LN5+65
	DD	imagerel $unwind$??A?$ImVector@I@@QEBAAEBIH@Z
pdata	ENDS
;	COMDAT pdata
pdata	SEGMENT
$pdata$?clear@?$ImVector@I@@QEAAXXZ DD imagerel $LN5
	DD	imagerel $LN5+44
	DD	imagerel $unwind$?clear@?$ImVector@I@@QEAAXXZ
pdata	ENDS
;	COMDAT pdata
pdata	SEGMENT
$pdata$?resize@?$ImVector@I@@QEAAXH@Z DD imagerel $LN16
	DD	imagerel $LN16+26
	DD	imagerel $unwind$?resize@?$ImVector@I@@QEAAXH@Z
pdata	ENDS
;	COMDAT pdata
pdata	SEGMENT
$pdata$1$?resize@?$ImVector@I@@QEAAXH@Z DD imagerel $LN16+26
	DD	imagerel $LN16+145
	DD	imagerel $chain$1$?resize@?$ImVector@I@@QEAAXH@Z
pdata	ENDS
;	COMDAT pdata
pdata	SEGMENT
$pdata$3$?resize@?$ImVector@I@@QEAAXH@Z DD imagerel $LN16+145
	DD	imagerel $LN16+163
	DD	imagerel $chain$3$?resize@?$ImVector@I@@QEAAXH@Z
pdata	ENDS
;	COMDAT pdata
pdata	SEGMENT
$pdata$4$?resize@?$ImVector@I@@QEAAXH@Z DD imagerel $LN16+163
	DD	imagerel $LN16+176
	DD	imagerel $chain$4$?resize@?$ImVector@I@@QEAAXH@Z
pdata	ENDS
;	COMDAT pdata
pdata	SEGMENT
$pdata$?reserve@?$ImVector@I@@QEAAXH@Z DD imagerel $LN6
	DD	imagerel $LN6+24
	DD	imagerel $unwind$?reserve@?$ImVector@I@@QEAAXH@Z
pdata	ENDS
;	COMDAT pdata
pdata	SEGMENT
$pdata$0$?reserve@?$ImVector@I@@QEAAXH@Z DD imagerel $LN6+24
	DD	imagerel $LN6+86
	DD	imagerel $chain$0$?reserve@?$ImVector@I@@QEAAXH@Z
pdata	ENDS
;	COMDAT pdata
pdata	SEGMENT
$pdata$1$?reserve@?$ImVector@I@@QEAAXH@Z DD imagerel $LN6+86
	DD	imagerel $LN6+97
	DD	imagerel $chain$1$?reserve@?$ImVector@I@@QEAAXH@Z
pdata	ENDS
;	COMDAT pdata
pdata	SEGMENT
$pdata$?GetBit@ImFontGlyphRangesBuilder@@QEBA_N_K@Z DD imagerel $LN7
	DD	imagerel $LN7+97
	DD	imagerel $unwind$?GetBit@ImFontGlyphRangesBuilder@@QEBA_N_K@Z
pdata	ENDS
;	COMDAT pdata
pdata	SEGMENT
$pdata$?SetBit@ImFontGlyphRangesBuilder@@QEAAX_K@Z DD imagerel $LN7
	DD	imagerel $LN7+94
	DD	imagerel $unwind$?SetBit@ImFontGlyphRangesBuilder@@QEAAX_K@Z
pdata	ENDS
;	COMDAT pdata
pdata	SEGMENT
$pdata$?AddChar@ImFontGlyphRangesBuilder@@QEAAXG@Z DD imagerel $LN9
	DD	imagerel $LN9+94
	DD	imagerel $unwind$?AddChar@ImFontGlyphRangesBuilder@@QEAAXG@Z
pdata	ENDS
;	COMDAT pdata
pdata	SEGMENT
$pdata$?AddText@ImFontGlyphRangesBuilder@@QEAAXPEBD0@Z DD imagerel $LN20
	DD	imagerel $LN20+180
	DD	imagerel $unwind$?AddText@ImFontGlyphRangesBuilder@@QEAAXPEBD0@Z
pdata	ENDS
;	COMDAT pdata
pdata	SEGMENT
$pdata$?AddRanges@ImFontGlyphRangesBuilder@@QEAAXPEBG@Z DD imagerel $LN27
	DD	imagerel $LN27+26
	DD	imagerel $unwind$?AddRanges@ImFontGlyphRangesBuilder@@QEAAXPEBG@Z
pdata	ENDS
;	COMDAT pdata
pdata	SEGMENT
$pdata$2$?AddRanges@ImFontGlyphRangesBuilder@@QEAAXPEBG@Z DD imagerel $LN27+26
	DD	imagerel $LN27+162
	DD	imagerel $chain$2$?AddRanges@ImFontGlyphRangesBuilder@@QEAAXPEBG@Z
pdata	ENDS
;	COMDAT pdata
pdata	SEGMENT
$pdata$3$?AddRanges@ImFontGlyphRangesBuilder@@QEAAXPEBG@Z DD imagerel $LN27+162
	DD	imagerel $LN27+174
	DD	imagerel $chain$3$?AddRanges@ImFontGlyphRangesBuilder@@QEAAXPEBG@Z
pdata	ENDS
;	COMDAT pdata
pdata	SEGMENT
$pdata$?BuildRanges@ImFontGlyphRangesBuilder@@QEAAXPEAU?$ImVector@G@@@Z DD imagerel $LN51
	DD	imagerel $LN51+492
	DD	imagerel $unwind$?BuildRanges@ImFontGlyphRangesBuilder@@QEAAXPEAU?$ImVector@G@@@Z
pdata	ENDS
;	COMDAT pdata
pdata	SEGMENT
$pdata$??1ImFontAtlas@@QEAA@XZ DD imagerel $LN28
	DD	imagerel $LN28+182
	DD	imagerel $unwind$??1ImFontAtlas@@QEAA@XZ
pdata	ENDS
;	COMDAT pdata
pdata	SEGMENT
$pdata$?AddFont@ImFontAtlas@@QEAAPEAUImFont@@PEBUImFontConfig@@@Z DD imagerel $LN68
	DD	imagerel $LN68+16
	DD	imagerel $unwind$?AddFont@ImFontAtlas@@QEAAPEAUImFont@@PEBUImFontConfig@@@Z
pdata	ENDS
;	COMDAT pdata
pdata	SEGMENT
$pdata$2$?AddFont@ImFontAtlas@@QEAAPEAUImFont@@PEBUImFontConfig@@@Z DD imagerel $LN68+16
	DD	imagerel $LN68+324
	DD	imagerel $chain$2$?AddFont@ImFontAtlas@@QEAAPEAUImFont@@PEBUImFontConfig@@@Z
pdata	ENDS
;	COMDAT pdata
pdata	SEGMENT
$pdata$3$?AddFont@ImFontAtlas@@QEAAPEAUImFont@@PEBUImFontConfig@@@Z DD imagerel $LN68+324
	DD	imagerel $LN68+386
	DD	imagerel $chain$3$?AddFont@ImFontAtlas@@QEAAPEAUImFont@@PEBUImFontConfig@@@Z
pdata	ENDS
;	COMDAT pdata
pdata	SEGMENT
$pdata$4$?AddFont@ImFontAtlas@@QEAAPEAUImFont@@PEBUImFontConfig@@@Z DD imagerel $LN68+386
	DD	imagerel $LN68+666
	DD	imagerel $chain$4$?AddFont@ImFontAtlas@@QEAAPEAUImFont@@PEBUImFontConfig@@@Z
pdata	ENDS
;	COMDAT pdata
pdata	SEGMENT
$pdata$5$?AddFont@ImFontAtlas@@QEAAPEAUImFont@@PEBUImFontConfig@@@Z DD imagerel $LN68+666
	DD	imagerel $LN68+834
	DD	imagerel $chain$5$?AddFont@ImFontAtlas@@QEAAPEAUImFont@@PEBUImFontConfig@@@Z
pdata	ENDS
;	COMDAT pdata
pdata	SEGMENT
$pdata$6$?AddFont@ImFontAtlas@@QEAAPEAUImFont@@PEBUImFontConfig@@@Z DD imagerel $LN68+834
	DD	imagerel $LN68+854
	DD	imagerel $chain$6$?AddFont@ImFontAtlas@@QEAAPEAUImFont@@PEBUImFontConfig@@@Z
pdata	ENDS
;	COMDAT pdata
pdata	SEGMENT
$pdata$7$?AddFont@ImFontAtlas@@QEAAPEAUImFont@@PEBUImFontConfig@@@Z DD imagerel $LN68+854
	DD	imagerel $LN68+931
	DD	imagerel $chain$7$?AddFont@ImFontAtlas@@QEAAPEAUImFont@@PEBUImFontConfig@@@Z
pdata	ENDS
;	COMDAT pdata
pdata	SEGMENT
$pdata$?AddFontDefault@ImFontAtlas@@QEAAPEAUImFont@@PEBUImFontConfig@@@Z DD imagerel $LN26
	DD	imagerel $LN26+495
	DD	imagerel $unwind$?AddFontDefault@ImFontAtlas@@QEAAPEAUImFont@@PEBUImFontConfig@@@Z
pdata	ENDS
;	COMDAT pdata
pdata	SEGMENT
$pdata$?AddFontFromFileTTF@ImFontAtlas@@QEAAPEAUImFont@@PEBDMPEBUImFontConfig@@PEBG@Z DD imagerel $LN31
	DD	imagerel $LN31+629
	DD	imagerel $unwind$?AddFontFromFileTTF@ImFontAtlas@@QEAAPEAUImFont@@PEBDMPEBUImFontConfig@@PEBG@Z
pdata	ENDS
;	COMDAT pdata
pdata	SEGMENT
$pdata$?AddFontFromMemoryTTF@ImFontAtlas@@QEAAPEAUImFont@@PEAXHMPEBUImFontConfig@@PEBG@Z DD imagerel $LN21
	DD	imagerel $LN21+498
	DD	imagerel $unwind$?AddFontFromMemoryTTF@ImFontAtlas@@QEAAPEAUImFont@@PEAXHMPEBUImFontConfig@@PEBG@Z
pdata	ENDS
;	COMDAT pdata
pdata	SEGMENT
$pdata$?AddFontFromMemoryCompressedTTF@ImFontAtlas@@QEAAPEAUImFont@@PEBXHMPEBUImFontConfig@@PEBG@Z DD imagerel $LN20
	DD	imagerel $LN20+536
	DD	imagerel $unwind$?AddFontFromMemoryCompressedTTF@ImFontAtlas@@QEAAPEAUImFont@@PEBXHMPEBUImFontConfig@@PEBG@Z
pdata	ENDS
;	COMDAT pdata
pdata	SEGMENT
$pdata$?AddFontFromMemoryCompressedBase85TTF@ImFontAtlas@@QEAAPEAUImFont@@PEBDMPEBUImFontConfig@@PEBG@Z DD imagerel $LN51
	DD	imagerel $LN51+771
	DD	imagerel $unwind$?AddFontFromMemoryCompressedBase85TTF@ImFontAtlas@@QEAAPEAUImFont@@PEBDMPEBUImFontConfig@@PEBG@Z
pdata	ENDS
;	COMDAT pdata
pdata	SEGMENT
$pdata$?ClearInputData@ImFontAtlas@@QEAAXXZ DD imagerel $LN66
	DD	imagerel $LN66+16
	DD	imagerel $unwind$?ClearInputData@ImFontAtlas@@QEAAXXZ
pdata	ENDS
;	COMDAT pdata
pdata	SEGMENT
$pdata$1$?ClearInputData@ImFontAtlas@@QEAAXXZ DD imagerel $LN66+16
	DD	imagerel $LN66+521
	DD	imagerel $chain$1$?ClearInputData@ImFontAtlas@@QEAAXXZ
pdata	ENDS
;	COMDAT pdata
pdata	SEGMENT
$pdata$2$?ClearInputData@ImFontAtlas@@QEAAXXZ DD imagerel $LN66+521
	DD	imagerel $LN66+578
	DD	imagerel $chain$2$?ClearInputData@ImFontAtlas@@QEAAXXZ
pdata	ENDS
;	COMDAT pdata
pdata	SEGMENT
$pdata$?ClearTexData@ImFontAtlas@@QEAAXXZ DD imagerel $LN9
	DD	imagerel $LN9+84
	DD	imagerel $unwind$?ClearTexData@ImFontAtlas@@QEAAXXZ
pdata	ENDS
;	COMDAT pdata
pdata	SEGMENT
$pdata$?ClearFonts@ImFontAtlas@@QEAAXXZ DD imagerel $LN53
	DD	imagerel $LN53+332
	DD	imagerel $unwind$?ClearFonts@ImFontAtlas@@QEAAXXZ
pdata	ENDS
;	COMDAT pdata
pdata	SEGMENT
$pdata$?Clear@ImFontAtlas@@QEAAXXZ DD imagerel $LN10
	DD	imagerel $LN10+96
	DD	imagerel $unwind$?Clear@ImFontAtlas@@QEAAXXZ
pdata	ENDS
;	COMDAT pdata
pdata	SEGMENT
$pdata$?Build@ImFontAtlas@@QEAA_NXZ DD imagerel $LN6
	DD	imagerel $LN6+53
	DD	imagerel $unwind$?Build@ImFontAtlas@@QEAA_NXZ
pdata	ENDS
;	COMDAT pdata
pdata	SEGMENT
$pdata$?GetTexDataAsAlpha8@ImFontAtlas@@QEAAXPEAPEAEPEAH11@Z DD imagerel $LN38
	DD	imagerel $LN38+523
	DD	imagerel $unwind$?GetTexDataAsAlpha8@ImFontAtlas@@QEAAXPEAPEAEPEAH11@Z
pdata	ENDS
;	COMDAT pdata
pdata	SEGMENT
$pdata$?GetTexDataAsRGBA32@ImFontAtlas@@QEAAXPEAPEAEPEAH11@Z DD imagerel $LN53
	DD	imagerel $LN53+45
	DD	imagerel $unwind$?GetTexDataAsRGBA32@ImFontAtlas@@QEAAXPEAPEAEPEAH11@Z
pdata	ENDS
;	COMDAT pdata
pdata	SEGMENT
$pdata$0$?GetTexDataAsRGBA32@ImFontAtlas@@QEAAXPEAPEAEPEAH11@Z DD imagerel $LN53+45
	DD	imagerel $LN53+52
	DD	imagerel $chain$0$?GetTexDataAsRGBA32@ImFontAtlas@@QEAAXPEAPEAEPEAH11@Z
pdata	ENDS
;	COMDAT pdata
pdata	SEGMENT
$pdata$3$?GetTexDataAsRGBA32@ImFontAtlas@@QEAAXPEAPEAEPEAH11@Z DD imagerel $LN53+52
	DD	imagerel $LN53+84
	DD	imagerel $chain$3$?GetTexDataAsRGBA32@ImFontAtlas@@QEAAXPEAPEAEPEAH11@Z
pdata	ENDS
;	COMDAT pdata
pdata	SEGMENT
$pdata$4$?GetTexDataAsRGBA32@ImFontAtlas@@QEAAXPEAPEAEPEAH11@Z DD imagerel $LN53+84
	DD	imagerel $LN53+567
	DD	imagerel $chain$4$?GetTexDataAsRGBA32@ImFontAtlas@@QEAAXPEAPEAEPEAH11@Z
pdata	ENDS
;	COMDAT pdata
pdata	SEGMENT
$pdata$5$?GetTexDataAsRGBA32@ImFontAtlas@@QEAAXPEAPEAEPEAH11@Z DD imagerel $LN53+567
	DD	imagerel $LN53+588
	DD	imagerel $chain$5$?GetTexDataAsRGBA32@ImFontAtlas@@QEAAXPEAPEAEPEAH11@Z
pdata	ENDS
;	COMDAT pdata
pdata	SEGMENT
$pdata$6$?GetTexDataAsRGBA32@ImFontAtlas@@QEAAXPEAPEAEPEAH11@Z DD imagerel $LN53+588
	DD	imagerel $LN53+607
	DD	imagerel $chain$6$?GetTexDataAsRGBA32@ImFontAtlas@@QEAAXPEAPEAEPEAH11@Z
pdata	ENDS
;	COMDAT pdata
pdata	SEGMENT
$pdata$7$?GetTexDataAsRGBA32@ImFontAtlas@@QEAAXPEAPEAEPEAH11@Z DD imagerel $LN53+607
	DD	imagerel $LN53+634
	DD	imagerel $chain$7$?GetTexDataAsRGBA32@ImFontAtlas@@QEAAXPEAPEAEPEAH11@Z
pdata	ENDS
;	COMDAT pdata
pdata	SEGMENT
$pdata$8$?GetTexDataAsRGBA32@ImFontAtlas@@QEAAXPEAPEAEPEAH11@Z DD imagerel $LN53+634
	DD	imagerel $LN53+662
	DD	imagerel $chain$8$?GetTexDataAsRGBA32@ImFontAtlas@@QEAAXPEAPEAEPEAH11@Z
pdata	ENDS
;	COMDAT pdata
pdata	SEGMENT
$pdata$?AddCustomRectRegular@ImFontAtlas@@QEAAHHH@Z DD imagerel $LN16
	DD	imagerel $LN16+165
	DD	imagerel $unwind$?AddCustomRectRegular@ImFontAtlas@@QEAAHHH@Z
pdata	ENDS
;	COMDAT pdata
pdata	SEGMENT
$pdata$?AddCustomRectFontGlyph@ImFontAtlas@@QEAAHPEAUImFont@@GHHMAEBUImVec2@@@Z DD imagerel $LN17
	DD	imagerel $LN17+250
	DD	imagerel $unwind$?AddCustomRectFontGlyph@ImFontAtlas@@QEAAHPEAUImFont@@GHHMAEBUImVec2@@@Z
pdata	ENDS
;	COMDAT pdata
pdata	SEGMENT
$pdata$?CalcCustomRectUV@ImFontAtlas@@QEBAXPEBUImFontAtlasCustomRect@@PEAUImVec2@@1@Z DD imagerel $LN13
	DD	imagerel $LN13+224
	DD	imagerel $unwind$?CalcCustomRectUV@ImFontAtlas@@QEBAXPEBUImFontAtlasCustomRect@@PEAUImVec2@@1@Z
pdata	ENDS
;	COMDAT pdata
pdata	SEGMENT
$pdata$?GetMouseCursorTexData@ImFontAtlas@@QEAA_NHPEAUImVec2@@0QEAU2@1@Z DD imagerel $LN38
	DD	imagerel $LN38+329
	DD	imagerel $unwind$?GetMouseCursorTexData@ImFontAtlas@@QEAA_NHPEAUImVec2@@0QEAU2@1@Z
pdata	ENDS
;	COMDAT pdata
pdata	SEGMENT
$pdata$??1?$ImVector@PEAUImFont@@@@QEAA@XZ DD imagerel $LN6
	DD	imagerel $LN6+24
	DD	imagerel $unwind$??1?$ImVector@PEAUImFont@@@@QEAA@XZ
pdata	ENDS
;	COMDAT pdata
pdata	SEGMENT
$pdata$??A?$ImVector@PEAUImFont@@@@QEAAAEAPEAUImFont@@H@Z DD imagerel $LN5
	DD	imagerel $LN5+65
	DD	imagerel $unwind$??A?$ImVector@PEAUImFont@@@@QEAAAEAPEAUImFont@@H@Z
pdata	ENDS
;	COMDAT pdata
pdata	SEGMENT
$pdata$?clear@?$ImVector@PEAUImFont@@@@QEAAXXZ DD imagerel $LN5
	DD	imagerel $LN5+44
	DD	imagerel $unwind$?clear@?$ImVector@PEAUImFont@@@@QEAAXXZ
pdata	ENDS
;	COMDAT pdata
pdata	SEGMENT
$pdata$?back@?$ImVector@PEAUImFont@@@@QEAAAEAPEAUImFont@@XZ DD imagerel $LN5
	DD	imagerel $LN5+62
	DD	imagerel $unwind$?back@?$ImVector@PEAUImFont@@@@QEAAAEAPEAUImFont@@XZ
pdata	ENDS
;	COMDAT pdata
pdata	SEGMENT
$pdata$?reserve@?$ImVector@PEAUImFont@@@@QEAAXH@Z DD imagerel $LN6
	DD	imagerel $LN6+24
	DD	imagerel $unwind$?reserve@?$ImVector@PEAUImFont@@@@QEAAXH@Z
pdata	ENDS
;	COMDAT pdata
pdata	SEGMENT
$pdata$0$?reserve@?$ImVector@PEAUImFont@@@@QEAAXH@Z DD imagerel $LN6+24
	DD	imagerel $LN6+86
	DD	imagerel $chain$0$?reserve@?$ImVector@PEAUImFont@@@@QEAAXH@Z
pdata	ENDS
;	COMDAT pdata
pdata	SEGMENT
$pdata$1$?reserve@?$ImVector@PEAUImFont@@@@QEAAXH@Z DD imagerel $LN6+86
	DD	imagerel $LN6+97
	DD	imagerel $chain$1$?reserve@?$ImVector@PEAUImFont@@@@QEAAXH@Z
pdata	ENDS
;	COMDAT pdata
pdata	SEGMENT
$pdata$?push_back@?$ImVector@PEAUImFont@@@@QEAAXAEBQEAUImFont@@@Z DD imagerel $LN14
	DD	imagerel $LN14+28
	DD	imagerel $unwind$?push_back@?$ImVector@PEAUImFont@@@@QEAAXAEBQEAUImFont@@@Z
pdata	ENDS
;	COMDAT pdata
pdata	SEGMENT
$pdata$0$?push_back@?$ImVector@PEAUImFont@@@@QEAAXAEBQEAUImFont@@@Z DD imagerel $LN14+28
	DD	imagerel $LN14+76
	DD	imagerel $chain$0$?push_back@?$ImVector@PEAUImFont@@@@QEAAXAEBQEAUImFont@@@Z
pdata	ENDS
;	COMDAT pdata
pdata	SEGMENT
$pdata$1$?push_back@?$ImVector@PEAUImFont@@@@QEAAXAEBQEAUImFont@@@Z DD imagerel $LN14+76
	DD	imagerel $LN14+136
	DD	imagerel $chain$1$?push_back@?$ImVector@PEAUImFont@@@@QEAAXAEBQEAUImFont@@@Z
pdata	ENDS
;	COMDAT pdata
pdata	SEGMENT
$pdata$2$?push_back@?$ImVector@PEAUImFont@@@@QEAAXAEBQEAUImFont@@@Z DD imagerel $LN14+136
	DD	imagerel $LN14+141
	DD	imagerel $chain$2$?push_back@?$ImVector@PEAUImFont@@@@QEAAXAEBQEAUImFont@@@Z
pdata	ENDS
;	COMDAT pdata
pdata	SEGMENT
$pdata$3$?push_back@?$ImVector@PEAUImFont@@@@QEAAXAEBQEAUImFont@@@Z DD imagerel $LN14+141
	DD	imagerel $LN14+169
	DD	imagerel $chain$3$?push_back@?$ImVector@PEAUImFont@@@@QEAAXAEBQEAUImFont@@@Z
pdata	ENDS
;	COMDAT pdata
pdata	SEGMENT
$pdata$??1?$ImVector@UImFontAtlasCustomRect@@@@QEAA@XZ DD imagerel $LN6
	DD	imagerel $LN6+24
	DD	imagerel $unwind$??1?$ImVector@UImFontAtlasCustomRect@@@@QEAA@XZ
pdata	ENDS
;	COMDAT pdata
pdata	SEGMENT
$pdata$??A?$ImVector@UImFontAtlasCustomRect@@@@QEAAAEAUImFontAtlasCustomRect@@H@Z DD imagerel $LN5
	DD	imagerel $LN5+68
	DD	imagerel $unwind$??A?$ImVector@UImFontAtlasCustomRect@@@@QEAAAEAUImFontAtlasCustomRect@@H@Z
pdata	ENDS
;	COMDAT pdata
pdata	SEGMENT
$pdata$?clear@?$ImVector@UImFontAtlasCustomRect@@@@QEAAXXZ DD imagerel $LN5
	DD	imagerel $LN5+44
	DD	imagerel $unwind$?clear@?$ImVector@UImFontAtlasCustomRect@@@@QEAAXXZ
pdata	ENDS
;	COMDAT pdata
pdata	SEGMENT
$pdata$?reserve@?$ImVector@UImFontAtlasCustomRect@@@@QEAAXH@Z DD imagerel $LN6
	DD	imagerel $LN6+24
	DD	imagerel $unwind$?reserve@?$ImVector@UImFontAtlasCustomRect@@@@QEAAXH@Z
pdata	ENDS
;	COMDAT pdata
pdata	SEGMENT
$pdata$0$?reserve@?$ImVector@UImFontAtlasCustomRect@@@@QEAAXH@Z DD imagerel $LN6+24
	DD	imagerel $LN6+86
	DD	imagerel $chain$0$?reserve@?$ImVector@UImFontAtlasCustomRect@@@@QEAAXH@Z
pdata	ENDS
;	COMDAT pdata
pdata	SEGMENT
$pdata$1$?reserve@?$ImVector@UImFontAtlasCustomRect@@@@QEAAXH@Z DD imagerel $LN6+86
	DD	imagerel $LN6+97
	DD	imagerel $chain$1$?reserve@?$ImVector@UImFontAtlasCustomRect@@@@QEAAXH@Z
pdata	ENDS
;	COMDAT pdata
pdata	SEGMENT
$pdata$?push_back@?$ImVector@UImFontAtlasCustomRect@@@@QEAAXAEBUImFontAtlasCustomRect@@@Z DD imagerel $LN14
	DD	imagerel $LN14+27
	DD	imagerel $unwind$?push_back@?$ImVector@UImFontAtlasCustomRect@@@@QEAAXAEBUImFontAtlasCustomRect@@@Z
pdata	ENDS
;	COMDAT pdata
pdata	SEGMENT
$pdata$0$?push_back@?$ImVector@UImFontAtlasCustomRect@@@@QEAAXAEBUImFontAtlasCustomRect@@@Z DD imagerel $LN14+27
	DD	imagerel $LN14+75
	DD	imagerel $chain$0$?push_back@?$ImVector@UImFontAtlasCustomRect@@@@QEAAXAEBUImFontAtlasCustomRect@@@Z
pdata	ENDS
;	COMDAT pdata
pdata	SEGMENT
$pdata$1$?push_back@?$ImVector@UImFontAtlasCustomRect@@@@QEAAXAEBUImFontAtlasCustomRect@@@Z DD imagerel $LN14+75
	DD	imagerel $LN14+135
	DD	imagerel $chain$1$?push_back@?$ImVector@UImFontAtlasCustomRect@@@@QEAAXAEBUImFontAtlasCustomRect@@@Z
pdata	ENDS
;	COMDAT pdata
pdata	SEGMENT
$pdata$2$?push_back@?$ImVector@UImFontAtlasCustomRect@@@@QEAAXAEBUImFontAtlasCustomRect@@@Z DD imagerel $LN14+135
	DD	imagerel $LN14+140
	DD	imagerel $chain$2$?push_back@?$ImVector@UImFontAtlasCustomRect@@@@QEAAXAEBUImFontAtlasCustomRect@@@Z
pdata	ENDS
;	COMDAT pdata
pdata	SEGMENT
$pdata$3$?push_back@?$ImVector@UImFontAtlasCustomRect@@@@QEAAXAEBUImFontAtlasCustomRect@@@Z DD imagerel $LN14+140
	DD	imagerel $LN14+181
	DD	imagerel $chain$3$?push_back@?$ImVector@UImFontAtlasCustomRect@@@@QEAAXAEBUImFontAtlasCustomRect@@@Z
pdata	ENDS
;	COMDAT pdata
pdata	SEGMENT
$pdata$??1?$ImVector@UImFontConfig@@@@QEAA@XZ DD imagerel $LN6
	DD	imagerel $LN6+24
	DD	imagerel $unwind$??1?$ImVector@UImFontConfig@@@@QEAA@XZ
pdata	ENDS
;	COMDAT pdata
pdata	SEGMENT
$pdata$??A?$ImVector@UImFontConfig@@@@QEAAAEAUImFontConfig@@H@Z DD imagerel $LN5
	DD	imagerel $LN5+68
	DD	imagerel $unwind$??A?$ImVector@UImFontConfig@@@@QEAAAEAUImFontConfig@@H@Z
pdata	ENDS
;	COMDAT pdata
pdata	SEGMENT
$pdata$?clear@?$ImVector@UImFontConfig@@@@QEAAXXZ DD imagerel $LN5
	DD	imagerel $LN5+44
	DD	imagerel $unwind$?clear@?$ImVector@UImFontConfig@@@@QEAAXXZ
pdata	ENDS
;	COMDAT pdata
pdata	SEGMENT
$pdata$?back@?$ImVector@UImFontConfig@@@@QEAAAEAUImFontConfig@@XZ DD imagerel $LN5
	DD	imagerel $LN5+65
	DD	imagerel $unwind$?back@?$ImVector@UImFontConfig@@@@QEAAAEAUImFontConfig@@XZ
pdata	ENDS
;	COMDAT pdata
pdata	SEGMENT
$pdata$?reserve@?$ImVector@UImFontConfig@@@@QEAAXH@Z DD imagerel $LN6
	DD	imagerel $LN6+28
	DD	imagerel $unwind$?reserve@?$ImVector@UImFontConfig@@@@QEAAXH@Z
pdata	ENDS
;	COMDAT pdata
pdata	SEGMENT
$pdata$0$?reserve@?$ImVector@UImFontConfig@@@@QEAAXH@Z DD imagerel $LN6+28
	DD	imagerel $LN6+89
	DD	imagerel $chain$0$?reserve@?$ImVector@UImFontConfig@@@@QEAAXH@Z
pdata	ENDS
;	COMDAT pdata
pdata	SEGMENT
$pdata$1$?reserve@?$ImVector@UImFontConfig@@@@QEAAXH@Z DD imagerel $LN6+89
	DD	imagerel $LN6+100
	DD	imagerel $chain$1$?reserve@?$ImVector@UImFontConfig@@@@QEAAXH@Z
pdata	ENDS
;	COMDAT pdata
pdata	SEGMENT
$pdata$?push_back@?$ImVector@UImFontConfig@@@@QEAAXAEBUImFontConfig@@@Z DD imagerel $LN14
	DD	imagerel $LN14+27
	DD	imagerel $unwind$?push_back@?$ImVector@UImFontConfig@@@@QEAAXAEBUImFontConfig@@@Z
pdata	ENDS
;	COMDAT pdata
pdata	SEGMENT
$pdata$0$?push_back@?$ImVector@UImFontConfig@@@@QEAAXAEBUImFontConfig@@@Z DD imagerel $LN14+27
	DD	imagerel $LN14+78
	DD	imagerel $chain$0$?push_back@?$ImVector@UImFontConfig@@@@QEAAXAEBUImFontConfig@@@Z
pdata	ENDS
;	COMDAT pdata
pdata	SEGMENT
$pdata$1$?push_back@?$ImVector@UImFontConfig@@@@QEAAXAEBUImFontConfig@@@Z DD imagerel $LN14+78
	DD	imagerel $LN14+141
	DD	imagerel $chain$1$?push_back@?$ImVector@UImFontConfig@@@@QEAAXAEBUImFontConfig@@@Z
pdata	ENDS
;	COMDAT pdata
pdata	SEGMENT
$pdata$2$?push_back@?$ImVector@UImFontConfig@@@@QEAAXAEBUImFontConfig@@@Z DD imagerel $LN14+141
	DD	imagerel $LN14+146
	DD	imagerel $chain$2$?push_back@?$ImVector@UImFontConfig@@@@QEAAXAEBUImFontConfig@@@Z
pdata	ENDS
;	COMDAT pdata
pdata	SEGMENT
$pdata$3$?push_back@?$ImVector@UImFontConfig@@@@QEAAXAEBUImFontConfig@@@Z DD imagerel $LN14+146
	DD	imagerel $LN14+260
	DD	imagerel $chain$3$?push_back@?$ImVector@UImFontConfig@@@@QEAAXAEBUImFontConfig@@@Z
pdata	ENDS
;	COMDAT pdata
pdata	SEGMENT
$pdata$??1?$ImVector@M@@QEAA@XZ DD imagerel $LN6
	DD	imagerel $LN6+24
	DD	imagerel $unwind$??1?$ImVector@M@@QEAA@XZ
pdata	ENDS
;	COMDAT pdata
pdata	SEGMENT
$pdata$??A?$ImVector@M@@QEAAAEAMH@Z DD imagerel $LN5
	DD	imagerel $LN5+65
	DD	imagerel $unwind$??A?$ImVector@M@@QEAAAEAMH@Z
pdata	ENDS
;	COMDAT pdata
pdata	SEGMENT
$pdata$?clear@?$ImVector@M@@QEAAXXZ DD imagerel $LN5
	DD	imagerel $LN5+44
	DD	imagerel $unwind$?clear@?$ImVector@M@@QEAAXXZ
pdata	ENDS
;	COMDAT pdata
pdata	SEGMENT
$pdata$?resize@?$ImVector@M@@QEAAXHAEBM@Z DD imagerel $LN24
	DD	imagerel $LN24+32
	DD	imagerel $unwind$?resize@?$ImVector@M@@QEAAXHAEBM@Z
pdata	ENDS
;	COMDAT pdata
pdata	SEGMENT
$pdata$0$?resize@?$ImVector@M@@QEAAXHAEBM@Z DD imagerel $LN24+32
	DD	imagerel $LN24+75
	DD	imagerel $chain$0$?resize@?$ImVector@M@@QEAAXHAEBM@Z
pdata	ENDS
;	COMDAT pdata
pdata	SEGMENT
$pdata$1$?resize@?$ImVector@M@@QEAAXHAEBM@Z DD imagerel $LN24+75
	DD	imagerel $LN24+133
	DD	imagerel $chain$1$?resize@?$ImVector@M@@QEAAXHAEBM@Z
pdata	ENDS
;	COMDAT pdata
pdata	SEGMENT
$pdata$2$?resize@?$ImVector@M@@QEAAXHAEBM@Z DD imagerel $LN24+133
	DD	imagerel $LN24+138
	DD	imagerel $chain$2$?resize@?$ImVector@M@@QEAAXHAEBM@Z
pdata	ENDS
;	COMDAT pdata
pdata	SEGMENT
$pdata$3$?resize@?$ImVector@M@@QEAAXHAEBM@Z DD imagerel $LN24+138
	DD	imagerel $LN24+197
	DD	imagerel $chain$3$?resize@?$ImVector@M@@QEAAXHAEBM@Z
pdata	ENDS
;	COMDAT pdata
pdata	SEGMENT
$pdata$?reserve@?$ImVector@M@@QEAAXH@Z DD imagerel $LN6
	DD	imagerel $LN6+24
	DD	imagerel $unwind$?reserve@?$ImVector@M@@QEAAXH@Z
pdata	ENDS
;	COMDAT pdata
pdata	SEGMENT
$pdata$0$?reserve@?$ImVector@M@@QEAAXH@Z DD imagerel $LN6+24
	DD	imagerel $LN6+86
	DD	imagerel $chain$0$?reserve@?$ImVector@M@@QEAAXH@Z
pdata	ENDS
;	COMDAT pdata
pdata	SEGMENT
$pdata$1$?reserve@?$ImVector@M@@QEAAXH@Z DD imagerel $LN6+86
	DD	imagerel $LN6+97
	DD	imagerel $chain$1$?reserve@?$ImVector@M@@QEAAXH@Z
pdata	ENDS
;	COMDAT pdata
pdata	SEGMENT
$pdata$??1?$ImVector@UImFontGlyph@@@@QEAA@XZ DD imagerel $LN6
	DD	imagerel $LN6+24
	DD	imagerel $unwind$??1?$ImVector@UImFontGlyph@@@@QEAA@XZ
pdata	ENDS
;	COMDAT pdata
pdata	SEGMENT
$pdata$??A?$ImVector@UImFontGlyph@@@@QEAAAEAUImFontGlyph@@H@Z DD imagerel $LN5
	DD	imagerel $LN5+69
	DD	imagerel $unwind$??A?$ImVector@UImFontGlyph@@@@QEAAAEAUImFontGlyph@@H@Z
pdata	ENDS
;	COMDAT pdata
pdata	SEGMENT
$pdata$?clear@?$ImVector@UImFontGlyph@@@@QEAAXXZ DD imagerel $LN5
	DD	imagerel $LN5+44
	DD	imagerel $unwind$?clear@?$ImVector@UImFontGlyph@@@@QEAAXXZ
pdata	ENDS
;	COMDAT pdata
pdata	SEGMENT
$pdata$?back@?$ImVector@UImFontGlyph@@@@QEAAAEAUImFontGlyph@@XZ DD imagerel $LN5
	DD	imagerel $LN5+66
	DD	imagerel $unwind$?back@?$ImVector@UImFontGlyph@@@@QEAAAEAUImFontGlyph@@XZ
pdata	ENDS
;	COMDAT pdata
pdata	SEGMENT
$pdata$?resize@?$ImVector@UImFontGlyph@@@@QEAAXH@Z DD imagerel $LN16
	DD	imagerel $LN16+26
	DD	imagerel $unwind$?resize@?$ImVector@UImFontGlyph@@@@QEAAXH@Z
pdata	ENDS
;	COMDAT pdata
pdata	SEGMENT
$pdata$1$?resize@?$ImVector@UImFontGlyph@@@@QEAAXH@Z DD imagerel $LN16+26
	DD	imagerel $LN16+153
	DD	imagerel $chain$1$?resize@?$ImVector@UImFontGlyph@@@@QEAAXH@Z
pdata	ENDS
;	COMDAT pdata
pdata	SEGMENT
$pdata$3$?resize@?$ImVector@UImFontGlyph@@@@QEAAXH@Z DD imagerel $LN16+153
	DD	imagerel $LN16+171
	DD	imagerel $chain$3$?resize@?$ImVector@UImFontGlyph@@@@QEAAXH@Z
pdata	ENDS
;	COMDAT pdata
pdata	SEGMENT
$pdata$4$?resize@?$ImVector@UImFontGlyph@@@@QEAAXH@Z DD imagerel $LN16+171
	DD	imagerel $LN16+184
	DD	imagerel $chain$4$?resize@?$ImVector@UImFontGlyph@@@@QEAAXH@Z
pdata	ENDS
;	COMDAT pdata
pdata	SEGMENT
$pdata$?reserve@?$ImVector@UImFontGlyph@@@@QEAAXH@Z DD imagerel $LN6
	DD	imagerel $LN6+25
	DD	imagerel $unwind$?reserve@?$ImVector@UImFontGlyph@@@@QEAAXH@Z
pdata	ENDS
;	COMDAT pdata
pdata	SEGMENT
$pdata$0$?reserve@?$ImVector@UImFontGlyph@@@@QEAAXH@Z DD imagerel $LN6+25
	DD	imagerel $LN6+91
	DD	imagerel $chain$0$?reserve@?$ImVector@UImFontGlyph@@@@QEAAXH@Z
pdata	ENDS
;	COMDAT pdata
pdata	SEGMENT
$pdata$1$?reserve@?$ImVector@UImFontGlyph@@@@QEAAXH@Z DD imagerel $LN6+91
	DD	imagerel $LN6+102
	DD	imagerel $chain$1$?reserve@?$ImVector@UImFontGlyph@@@@QEAAXH@Z
pdata	ENDS
;	COMDAT pdata
pdata	SEGMENT
$pdata$??1ImFont@@QEAA@XZ DD imagerel $LN18
	DD	imagerel $LN18+66
	DD	imagerel $unwind$??1ImFont@@QEAA@XZ
pdata	ENDS
;	COMDAT pdata
pdata	SEGMENT
$pdata$?CalcTextSizeA@ImFont@@QEBA?AUImVec2@@MMMPEBD0PEAPEBD@Z DD imagerel $LN62
	DD	imagerel $LN62+23
	DD	imagerel $unwind$?CalcTextSizeA@ImFont@@QEBA?AUImVec2@@MMMPEBD0PEAPEBD@Z
pdata	ENDS
;	COMDAT pdata
pdata	SEGMENT
$pdata$9$?CalcTextSizeA@ImFont@@QEBA?AUImVec2@@MMMPEBD0PEAPEBD@Z DD imagerel $LN62+23
	DD	imagerel $LN62+162
	DD	imagerel $chain$9$?CalcTextSizeA@ImFont@@QEBA?AUImVec2@@MMMPEBD0PEAPEBD@Z
pdata	ENDS
;	COMDAT pdata
pdata	SEGMENT
$pdata$10$?CalcTextSizeA@ImFont@@QEBA?AUImVec2@@MMMPEBD0PEAPEBD@Z DD imagerel $LN62+162
	DD	imagerel $LN62+473
	DD	imagerel $chain$10$?CalcTextSizeA@ImFont@@QEBA?AUImVec2@@MMMPEBD0PEAPEBD@Z
pdata	ENDS
;	COMDAT pdata
pdata	SEGMENT
$pdata$11$?CalcTextSizeA@ImFont@@QEBA?AUImVec2@@MMMPEBD0PEAPEBD@Z DD imagerel $LN62+473
	DD	imagerel $LN62+528
	DD	imagerel $chain$11$?CalcTextSizeA@ImFont@@QEBA?AUImVec2@@MMMPEBD0PEAPEBD@Z
pdata	ENDS
;	COMDAT pdata
pdata	SEGMENT
$pdata$12$?CalcTextSizeA@ImFont@@QEBA?AUImVec2@@MMMPEBD0PEAPEBD@Z DD imagerel $LN62+528
	DD	imagerel $LN62+546
	DD	imagerel $chain$12$?CalcTextSizeA@ImFont@@QEBA?AUImVec2@@MMMPEBD0PEAPEBD@Z
pdata	ENDS
;	COMDAT pdata
pdata	SEGMENT
$pdata$13$?CalcTextSizeA@ImFont@@QEBA?AUImVec2@@MMMPEBD0PEAPEBD@Z DD imagerel $LN62+546
	DD	imagerel $LN62+593
	DD	imagerel $chain$13$?CalcTextSizeA@ImFont@@QEBA?AUImVec2@@MMMPEBD0PEAPEBD@Z
pdata	ENDS
;	COMDAT pdata
pdata	SEGMENT
$pdata$14$?CalcTextSizeA@ImFont@@QEBA?AUImVec2@@MMMPEBD0PEAPEBD@Z DD imagerel $LN62+593
	DD	imagerel $LN62+609
	DD	imagerel $chain$14$?CalcTextSizeA@ImFont@@QEBA?AUImVec2@@MMMPEBD0PEAPEBD@Z
pdata	ENDS
;	COMDAT pdata
pdata	SEGMENT
$pdata$?CalcWordWrapPositionA@ImFont@@QEBAPEBDMPEBD0M@Z DD imagerel $LN44
	DD	imagerel $LN44+92
	DD	imagerel $unwind$?CalcWordWrapPositionA@ImFont@@QEBAPEBDMPEBD0M@Z
pdata	ENDS
;	COMDAT pdata
pdata	SEGMENT
$pdata$0$?CalcWordWrapPositionA@ImFont@@QEBAPEBDMPEBD0M@Z DD imagerel $LN44+92
	DD	imagerel $LN44+376
	DD	imagerel $chain$0$?CalcWordWrapPositionA@ImFont@@QEBAPEBDMPEBD0M@Z
pdata	ENDS
;	COMDAT pdata
pdata	SEGMENT
$pdata$1$?CalcWordWrapPositionA@ImFont@@QEBAPEBDMPEBD0M@Z DD imagerel $LN44+376
	DD	imagerel $LN44+422
	DD	imagerel $chain$1$?CalcWordWrapPositionA@ImFont@@QEBAPEBDMPEBD0M@Z
pdata	ENDS
;	COMDAT pdata
pdata	SEGMENT
$pdata$2$?CalcWordWrapPositionA@ImFont@@QEBAPEBDMPEBD0M@Z DD imagerel $LN44+422
	DD	imagerel $LN44+445
	DD	imagerel $chain$2$?CalcWordWrapPositionA@ImFont@@QEBAPEBDMPEBD0M@Z
pdata	ENDS
;	COMDAT pdata
pdata	SEGMENT
$pdata$3$?CalcWordWrapPositionA@ImFont@@QEBAPEBDMPEBD0M@Z DD imagerel $LN44+445
	DD	imagerel $LN44+450
	DD	imagerel $chain$3$?CalcWordWrapPositionA@ImFont@@QEBAPEBDMPEBD0M@Z
pdata	ENDS
;	COMDAT pdata
pdata	SEGMENT
$pdata$?RenderChar@ImFont@@QEBAXPEAUImDrawList@@MUImVec2@@IG@Z DD imagerel $LN30
	DD	imagerel $LN30+108
	DD	imagerel $unwind$?RenderChar@ImFont@@QEBAXPEAUImDrawList@@MUImVec2@@IG@Z
pdata	ENDS
;	COMDAT pdata
pdata	SEGMENT
$pdata$2$?RenderChar@ImFont@@QEBAXPEAUImDrawList@@MUImVec2@@IG@Z DD imagerel $LN30+108
	DD	imagerel $LN30+525
	DD	imagerel $chain$2$?RenderChar@ImFont@@QEBAXPEAUImDrawList@@MUImVec2@@IG@Z
pdata	ENDS
;	COMDAT pdata
pdata	SEGMENT
$pdata$3$?RenderChar@ImFont@@QEBAXPEAUImDrawList@@MUImVec2@@IG@Z DD imagerel $LN30+525
	DD	imagerel $LN30+545
	DD	imagerel $chain$3$?RenderChar@ImFont@@QEBAXPEAUImDrawList@@MUImVec2@@IG@Z
pdata	ENDS
;	COMDAT pdata
pdata	SEGMENT
$pdata$?RenderText@ImFont@@QEBAXPEAUImDrawList@@MUImVec2@@IAEBUImVec4@@PEBD3M_N@Z DD imagerel $LN90
	DD	imagerel $LN90+182
	DD	imagerel $unwind$?RenderText@ImFont@@QEBAXPEAUImDrawList@@MUImVec2@@IAEBUImVec4@@PEBD3M_N@Z
pdata	ENDS
;	COMDAT pdata
pdata	SEGMENT
$pdata$4$?RenderText@ImFont@@QEBAXPEAUImDrawList@@MUImVec2@@IAEBUImVec4@@PEBD3M_N@Z DD imagerel $LN90+182
	DD	imagerel $LN90+487
	DD	imagerel $chain$4$?RenderText@ImFont@@QEBAXPEAUImDrawList@@MUImVec2@@IAEBUImVec4@@PEBD3M_N@Z
pdata	ENDS
;	COMDAT pdata
pdata	SEGMENT
$pdata$6$?RenderText@ImFont@@QEBAXPEAUImDrawList@@MUImVec2@@IAEBUImVec4@@PEBD3M_N@Z DD imagerel $LN90+487
	DD	imagerel $LN90+559
	DD	imagerel $chain$6$?RenderText@ImFont@@QEBAXPEAUImDrawList@@MUImVec2@@IAEBUImVec4@@PEBD3M_N@Z
pdata	ENDS
;	COMDAT pdata
pdata	SEGMENT
$pdata$9$?RenderText@ImFont@@QEBAXPEAUImDrawList@@MUImVec2@@IAEBUImVec4@@PEBD3M_N@Z DD imagerel $LN90+559
	DD	imagerel $LN90+1517
	DD	imagerel $chain$9$?RenderText@ImFont@@QEBAXPEAUImDrawList@@MUImVec2@@IAEBUImVec4@@PEBD3M_N@Z
pdata	ENDS
;	COMDAT pdata
pdata	SEGMENT
$pdata$10$?RenderText@ImFont@@QEBAXPEAUImDrawList@@MUImVec2@@IAEBUImVec4@@PEBD3M_N@Z DD imagerel $LN90+1517
	DD	imagerel $LN90+1661
	DD	imagerel $chain$10$?RenderText@ImFont@@QEBAXPEAUImDrawList@@MUImVec2@@IAEBUImVec4@@PEBD3M_N@Z
pdata	ENDS
;	COMDAT pdata
pdata	SEGMENT
$pdata$11$?RenderText@ImFont@@QEBAXPEAUImDrawList@@MUImVec2@@IAEBUImVec4@@PEBD3M_N@Z DD imagerel $LN90+1661
	DD	imagerel $LN90+1701
	DD	imagerel $chain$11$?RenderText@ImFont@@QEBAXPEAUImDrawList@@MUImVec2@@IAEBUImVec4@@PEBD3M_N@Z
pdata	ENDS
;	COMDAT pdata
pdata	SEGMENT
$pdata$12$?RenderText@ImFont@@QEBAXPEAUImDrawList@@MUImVec2@@IAEBUImVec4@@PEBD3M_N@Z DD imagerel $LN90+1701
	DD	imagerel $LN90+1735
	DD	imagerel $chain$12$?RenderText@ImFont@@QEBAXPEAUImDrawList@@MUImVec2@@IAEBUImVec4@@PEBD3M_N@Z
pdata	ENDS
;	COMDAT pdata
pdata	SEGMENT
$pdata$?BuildLookupTable@ImFont@@QEAAXXZ DD imagerel $LN103
	DD	imagerel $LN103+22
	DD	imagerel $unwind$?BuildLookupTable@ImFont@@QEAAXXZ
pdata	ENDS
;	COMDAT pdata
pdata	SEGMENT
$pdata$0$?BuildLookupTable@ImFont@@QEAAXXZ DD imagerel $LN103+22
	DD	imagerel $LN103+29
	DD	imagerel $chain$0$?BuildLookupTable@ImFont@@QEAAXXZ
pdata	ENDS
;	COMDAT pdata
pdata	SEGMENT
$pdata$1$?BuildLookupTable@ImFont@@QEAAXXZ DD imagerel $LN103+29
	DD	imagerel $LN103+36
	DD	imagerel $chain$1$?BuildLookupTable@ImFont@@QEAAXXZ
pdata	ENDS
;	COMDAT pdata
pdata	SEGMENT
$pdata$3$?BuildLookupTable@ImFont@@QEAAXXZ DD imagerel $LN103+36
	DD	imagerel $LN103+874
	DD	imagerel $chain$3$?BuildLookupTable@ImFont@@QEAAXXZ
pdata	ENDS
;	COMDAT pdata
pdata	SEGMENT
$pdata$4$?BuildLookupTable@ImFont@@QEAAXXZ DD imagerel $LN103+874
	DD	imagerel $LN103+1048
	DD	imagerel $chain$4$?BuildLookupTable@ImFont@@QEAAXXZ
pdata	ENDS
;	COMDAT pdata
pdata	SEGMENT
$pdata$5$?BuildLookupTable@ImFont@@QEAAXXZ DD imagerel $LN103+1048
	DD	imagerel $LN103+1076
	DD	imagerel $chain$5$?BuildLookupTable@ImFont@@QEAAXXZ
pdata	ENDS
;	COMDAT pdata
pdata	SEGMENT
$pdata$6$?BuildLookupTable@ImFont@@QEAAXXZ DD imagerel $LN103+1076
	DD	imagerel $LN103+1183
	DD	imagerel $chain$6$?BuildLookupTable@ImFont@@QEAAXXZ
pdata	ENDS
;	COMDAT pdata
pdata	SEGMENT
$pdata$?ClearOutputData@ImFont@@QEAAXXZ DD imagerel $LN13
	DD	imagerel $LN13+114
	DD	imagerel $unwind$?ClearOutputData@ImFont@@QEAAXXZ
pdata	ENDS
;	COMDAT pdata
pdata	SEGMENT
$pdata$?GrowIndex@ImFont@@QEAAXH@Z DD imagerel $LN44
	DD	imagerel $LN44+68
	DD	imagerel $unwind$?GrowIndex@ImFont@@QEAAXH@Z
pdata	ENDS
;	COMDAT pdata
pdata	SEGMENT
$pdata$2$?GrowIndex@ImFont@@QEAAXH@Z DD imagerel $LN44+68
	DD	imagerel $LN44+332
	DD	imagerel $chain$2$?GrowIndex@ImFont@@QEAAXH@Z
pdata	ENDS
;	COMDAT pdata
pdata	SEGMENT
$pdata$3$?GrowIndex@ImFont@@QEAAXH@Z DD imagerel $LN44+332
	DD	imagerel $LN44+376
	DD	imagerel $chain$3$?GrowIndex@ImFont@@QEAAXH@Z
pdata	ENDS
;	COMDAT pdata
pdata	SEGMENT
$pdata$4$?GrowIndex@ImFont@@QEAAXH@Z DD imagerel $LN44+376
	DD	imagerel $LN44+383
	DD	imagerel $chain$4$?GrowIndex@ImFont@@QEAAXH@Z
pdata	ENDS
;	COMDAT pdata
pdata	SEGMENT
$pdata$?AddGlyph@ImFont@@QEAAXGMMMMMMMMM@Z DD imagerel $LN12
	DD	imagerel $LN12+423
	DD	imagerel $unwind$?AddGlyph@ImFont@@QEAAXGMMMMMMMMM@Z
pdata	ENDS
;	COMDAT pdata
pdata	SEGMENT
$pdata$?AddRemapChar@ImFont@@QEAAXGG_N@Z DD imagerel $LN17
	DD	imagerel $LN17+126
	DD	imagerel $unwind$?AddRemapChar@ImFont@@QEAAXGG_N@Z
pdata	ENDS
;	COMDAT pdata
pdata	SEGMENT
$pdata$0$?AddRemapChar@ImFont@@QEAAXGG_N@Z DD imagerel $LN17+126
	DD	imagerel $LN17+262
	DD	imagerel $chain$0$?AddRemapChar@ImFont@@QEAAXGG_N@Z
pdata	ENDS
;	COMDAT pdata
pdata	SEGMENT
$pdata$1$?AddRemapChar@ImFont@@QEAAXGG_N@Z DD imagerel $LN17+262
	DD	imagerel $LN17+293
	DD	imagerel $chain$1$?AddRemapChar@ImFont@@QEAAXGG_N@Z
pdata	ENDS
;	COMDAT pdata
pdata	SEGMENT
$pdata$??_GImFont@@QEAAPEAXI@Z DD imagerel $LN22
	DD	imagerel $LN22+100
	DD	imagerel $unwind$??_GImFont@@QEAAPEAXI@Z
pdata	ENDS
;	COMDAT pdata
pdata	SEGMENT
$pdata$?ImClamp@@YA?AUImVec2@@AEBU1@0U1@@Z DD imagerel ?ImClamp@@YA?AUImVec2@@AEBU1@0U1@@Z
	DD	imagerel ?ImClamp@@YA?AUImVec2@@AEBU1@0U1@@Z+74
	DD	imagerel $unwind$?ImClamp@@YA?AUImVec2@@AEBU1@0U1@@Z
pdata	ENDS
;	COMDAT pdata
pdata	SEGMENT
$pdata$?ImBezierCalc@@YA?AUImVec2@@AEBU1@000M@Z DD imagerel $LN6
	DD	imagerel $LN6+180
	DD	imagerel $unwind$?ImBezierCalc@@YA?AUImVec2@@AEBU1@000M@Z
pdata	ENDS
;	COMDAT pdata
pdata	SEGMENT
$pdata$?Create@ImBitVector@@QEAAXH@Z DD imagerel $LN4
	DD	imagerel $LN4+43
	DD	imagerel $unwind$?Create@ImBitVector@@QEAAXH@Z
pdata	ENDS
;	COMDAT pdata
pdata	SEGMENT
$pdata$?Clear@ImBitVector@@QEAAXXZ DD imagerel $LN7
	DD	imagerel $LN7+44
	DD	imagerel $unwind$?Clear@ImBitVector@@QEAAXXZ
pdata	ENDS
;	COMDAT pdata
pdata	SEGMENT
$pdata$?TestBit@ImBitVector@@QEBA_NH@Z DD imagerel $LN7
	DD	imagerel $LN7+86
	DD	imagerel $unwind$?TestBit@ImBitVector@@QEBA_NH@Z
pdata	ENDS
;	COMDAT pdata
pdata	SEGMENT
$pdata$?SetBit@ImBitVector@@QEAAXH@Z DD imagerel $LN7
	DD	imagerel $LN7+88
	DD	imagerel $unwind$?SetBit@ImBitVector@@QEAAXH@Z
pdata	ENDS
;	COMDAT pdata
pdata	SEGMENT
$pdata$??1ImBitVector@@QEAA@XZ DD imagerel $LN10
	DD	imagerel $LN10+24
	DD	imagerel $unwind$??1ImBitVector@@QEAA@XZ
pdata	ENDS
;	COMDAT pdata
pdata	SEGMENT
$pdata$??0ImDrawListSharedData@@QEAA@XZ DD imagerel $LN41
	DD	imagerel $LN41+276
	DD	imagerel $unwind$??0ImDrawListSharedData@@QEAA@XZ
pdata	ENDS
;	COMDAT pdata
pdata	SEGMENT
$pdata$?SetCircleSegmentMaxError@ImDrawListSharedData@@QEAAXM@Z DD imagerel $LN19
	DD	imagerel $LN19+25
	DD	imagerel $unwind$?SetCircleSegmentMaxError@ImDrawListSharedData@@QEAAXM@Z
pdata	ENDS
;	COMDAT pdata
pdata	SEGMENT
$pdata$4$?SetCircleSegmentMaxError@ImDrawListSharedData@@QEAAXM@Z DD imagerel $LN19+25
	DD	imagerel $LN19+202
	DD	imagerel $chain$4$?SetCircleSegmentMaxError@ImDrawListSharedData@@QEAAXM@Z
pdata	ENDS
;	COMDAT pdata
pdata	SEGMENT
$pdata$5$?SetCircleSegmentMaxError@ImDrawListSharedData@@QEAAXM@Z DD imagerel $LN19+202
	DD	imagerel $LN19+208
	DD	imagerel $chain$5$?SetCircleSegmentMaxError@ImDrawListSharedData@@QEAAXM@Z
pdata	ENDS
;	COMDAT pdata
pdata	SEGMENT
$pdata$??1?$ImVector@H@@QEAA@XZ DD imagerel $LN6
	DD	imagerel $LN6+24
	DD	imagerel $unwind$??1?$ImVector@H@@QEAA@XZ
pdata	ENDS
;	COMDAT pdata
pdata	SEGMENT
$pdata$??A?$ImVector@H@@QEAAAEAHH@Z DD imagerel $LN5
	DD	imagerel $LN5+65
	DD	imagerel $unwind$??A?$ImVector@H@@QEAAAEAHH@Z
pdata	ENDS
;	COMDAT pdata
pdata	SEGMENT
$pdata$?reserve@?$ImVector@H@@QEAAXH@Z DD imagerel $LN6
	DD	imagerel $LN6+24
	DD	imagerel $unwind$?reserve@?$ImVector@H@@QEAAXH@Z
pdata	ENDS
;	COMDAT pdata
pdata	SEGMENT
$pdata$0$?reserve@?$ImVector@H@@QEAAXH@Z DD imagerel $LN6+24
	DD	imagerel $LN6+86
	DD	imagerel $chain$0$?reserve@?$ImVector@H@@QEAAXH@Z
pdata	ENDS
;	COMDAT pdata
pdata	SEGMENT
$pdata$1$?reserve@?$ImVector@H@@QEAAXH@Z DD imagerel $LN6+86
	DD	imagerel $LN6+97
	DD	imagerel $chain$1$?reserve@?$ImVector@H@@QEAAXH@Z
pdata	ENDS
;	COMDAT pdata
pdata	SEGMENT
$pdata$?push_back@?$ImVector@H@@QEAAXAEBH@Z DD imagerel $LN9
	DD	imagerel $LN9+94
	DD	imagerel $unwind$?push_back@?$ImVector@H@@QEAAXAEBH@Z
pdata	ENDS
;	COMDAT pdata
pdata	SEGMENT
$pdata$?RenderColorRectWithAlphaCheckerboard@ImGui@@YAXPEAUImDrawList@@UImVec2@@1IM1MH@Z DD imagerel $LN59
	DD	imagerel $LN59+47
	DD	imagerel $unwind$?RenderColorRectWithAlphaCheckerboard@ImGui@@YAXPEAUImDrawList@@UImVec2@@1IM1MH@Z
pdata	ENDS
;	COMDAT pdata
pdata	SEGMENT
$pdata$4$?RenderColorRectWithAlphaCheckerboard@ImGui@@YAXPEAUImDrawList@@UImVec2@@1IM1MH@Z DD imagerel $LN59+47
	DD	imagerel $LN59+206
	DD	imagerel $chain$4$?RenderColorRectWithAlphaCheckerboard@ImGui@@YAXPEAUImDrawList@@UImVec2@@1IM1MH@Z
pdata	ENDS
;	COMDAT pdata
pdata	SEGMENT
$pdata$12$?RenderColorRectWithAlphaCheckerboard@ImGui@@YAXPEAUImDrawList@@UImVec2@@1IM1MH@Z DD imagerel $LN59+206
	DD	imagerel $LN59+677
	DD	imagerel $chain$12$?RenderColorRectWithAlphaCheckerboard@ImGui@@YAXPEAUImDrawList@@UImVec2@@1IM1MH@Z
pdata	ENDS
;	COMDAT pdata
pdata	SEGMENT
$pdata$13$?RenderColorRectWithAlphaCheckerboard@ImGui@@YAXPEAUImDrawList@@UImVec2@@1IM1MH@Z DD imagerel $LN59+677
	DD	imagerel $LN59+724
	DD	imagerel $chain$13$?RenderColorRectWithAlphaCheckerboard@ImGui@@YAXPEAUImDrawList@@UImVec2@@1IM1MH@Z
pdata	ENDS
;	COMDAT pdata
pdata	SEGMENT
$pdata$14$?RenderColorRectWithAlphaCheckerboard@ImGui@@YAXPEAUImDrawList@@UImVec2@@1IM1MH@Z DD imagerel $LN59+724
	DD	imagerel $LN59+775
	DD	imagerel $chain$14$?RenderColorRectWithAlphaCheckerboard@ImGui@@YAXPEAUImDrawList@@UImVec2@@1IM1MH@Z
pdata	ENDS
;	COMDAT pdata
pdata	SEGMENT
$pdata$?RenderArrow@ImGui@@YAXPEAUImDrawList@@UImVec2@@IHM@Z DD imagerel $LN105
	DD	imagerel $LN105+12
	DD	imagerel $unwind$?RenderArrow@ImGui@@YAXPEAUImDrawList@@UImVec2@@IHM@Z
pdata	ENDS
;	COMDAT pdata
pdata	SEGMENT
$pdata$7$?RenderArrow@ImGui@@YAXPEAUImDrawList@@UImVec2@@IHM@Z DD imagerel $LN105+12
	DD	imagerel $LN105+532
	DD	imagerel $chain$7$?RenderArrow@ImGui@@YAXPEAUImDrawList@@UImVec2@@IHM@Z
pdata	ENDS
;	COMDAT pdata
pdata	SEGMENT
$pdata$10$?RenderArrow@ImGui@@YAXPEAUImDrawList@@UImVec2@@IHM@Z DD imagerel $LN105+532
	DD	imagerel $LN105+813
	DD	imagerel $chain$10$?RenderArrow@ImGui@@YAXPEAUImDrawList@@UImVec2@@IHM@Z
pdata	ENDS
;	COMDAT pdata
pdata	SEGMENT
$pdata$8$?RenderArrow@ImGui@@YAXPEAUImDrawList@@UImVec2@@IHM@Z DD imagerel $LN105+813
	DD	imagerel $LN105+848
	DD	imagerel $chain$8$?RenderArrow@ImGui@@YAXPEAUImDrawList@@UImVec2@@IHM@Z
pdata	ENDS
;	COMDAT pdata
pdata	SEGMENT
$pdata$?RenderBullet@ImGui@@YAXPEAUImDrawList@@UImVec2@@I@Z DD imagerel $LN25
	DD	imagerel $LN25+133
	DD	imagerel $unwind$?RenderBullet@ImGui@@YAXPEAUImDrawList@@UImVec2@@I@Z
pdata	ENDS
;	COMDAT pdata
pdata	SEGMENT
$pdata$?RenderCheckMark@ImGui@@YAXPEAUImDrawList@@UImVec2@@IM@Z DD imagerel $LN47
	DD	imagerel $LN47+538
	DD	imagerel $unwind$?RenderCheckMark@ImGui@@YAXPEAUImDrawList@@UImVec2@@IM@Z
pdata	ENDS
;	COMDAT pdata
pdata	SEGMENT
$pdata$?RenderMouseCursor@ImGui@@YAXPEAUImDrawList@@UImVec2@@MHIII@Z DD imagerel $LN167
	DD	imagerel $LN167+59
	DD	imagerel $unwind$?RenderMouseCursor@ImGui@@YAXPEAUImDrawList@@UImVec2@@MHIII@Z
pdata	ENDS
;	COMDAT pdata
pdata	SEGMENT
$pdata$0$?RenderMouseCursor@ImGui@@YAXPEAUImDrawList@@UImVec2@@MHIII@Z DD imagerel $LN167+59
	DD	imagerel $LN167+128
	DD	imagerel $chain$0$?RenderMouseCursor@ImGui@@YAXPEAUImDrawList@@UImVec2@@MHIII@Z
pdata	ENDS
;	COMDAT pdata
pdata	SEGMENT
$pdata$1$?RenderMouseCursor@ImGui@@YAXPEAUImDrawList@@UImVec2@@MHIII@Z DD imagerel $LN167+128
	DD	imagerel $LN167+136
	DD	imagerel $chain$1$?RenderMouseCursor@ImGui@@YAXPEAUImDrawList@@UImVec2@@MHIII@Z
pdata	ENDS
;	COMDAT pdata
pdata	SEGMENT
$pdata$7$?RenderMouseCursor@ImGui@@YAXPEAUImDrawList@@UImVec2@@MHIII@Z DD imagerel $LN167+136
	DD	imagerel $LN167+764
	DD	imagerel $chain$7$?RenderMouseCursor@ImGui@@YAXPEAUImDrawList@@UImVec2@@MHIII@Z
pdata	ENDS
;	COMDAT pdata
pdata	SEGMENT
$pdata$8$?RenderMouseCursor@ImGui@@YAXPEAUImDrawList@@UImVec2@@MHIII@Z DD imagerel $LN167+764
	DD	imagerel $LN167+1072
	DD	imagerel $chain$8$?RenderMouseCursor@ImGui@@YAXPEAUImDrawList@@UImVec2@@MHIII@Z
pdata	ENDS
;	COMDAT pdata
pdata	SEGMENT
$pdata$9$?RenderMouseCursor@ImGui@@YAXPEAUImDrawList@@UImVec2@@MHIII@Z DD imagerel $LN167+1072
	DD	imagerel $LN167+1080
	DD	imagerel $chain$9$?RenderMouseCursor@ImGui@@YAXPEAUImDrawList@@UImVec2@@MHIII@Z
pdata	ENDS
;	COMDAT pdata
pdata	SEGMENT
$pdata$10$?RenderMouseCursor@ImGui@@YAXPEAUImDrawList@@UImVec2@@MHIII@Z DD imagerel $LN167+1080
	DD	imagerel $LN167+1112
	DD	imagerel $chain$10$?RenderMouseCursor@ImGui@@YAXPEAUImDrawList@@UImVec2@@MHIII@Z
pdata	ENDS
;	COMDAT pdata
pdata	SEGMENT
$pdata$?RenderArrowPointingAt@ImGui@@YAXPEAUImDrawList@@UImVec2@@1HI@Z DD imagerel $LN161
	DD	imagerel $LN161+693
	DD	imagerel $unwind$?RenderArrowPointingAt@ImGui@@YAXPEAUImDrawList@@UImVec2@@1HI@Z
pdata	ENDS
;	COMDAT pdata
pdata	SEGMENT
$pdata$?RenderRectFilledRangeH@ImGui@@YAXPEAUImDrawList@@AEBUImRect@@IMMM@Z DD imagerel $LN131
	DD	imagerel $LN131+50
	DD	imagerel $unwind$?RenderRectFilledRangeH@ImGui@@YAXPEAUImDrawList@@AEBUImRect@@IMMM@Z
pdata	ENDS
;	COMDAT pdata
pdata	SEGMENT
$pdata$6$?RenderRectFilledRangeH@ImGui@@YAXPEAUImDrawList@@AEBUImRect@@IMMM@Z DD imagerel $LN131+50
	DD	imagerel $LN131+261
	DD	imagerel $chain$6$?RenderRectFilledRangeH@ImGui@@YAXPEAUImDrawList@@AEBUImRect@@IMMM@Z
pdata	ENDS
;	COMDAT pdata
pdata	SEGMENT
$pdata$11$?RenderRectFilledRangeH@ImGui@@YAXPEAUImDrawList@@AEBUImRect@@IMMM@Z DD imagerel $LN131+261
	DD	imagerel $LN131+1597
	DD	imagerel $chain$11$?RenderRectFilledRangeH@ImGui@@YAXPEAUImDrawList@@AEBUImRect@@IMMM@Z
pdata	ENDS
;	COMDAT pdata
pdata	SEGMENT
$pdata$12$?RenderRectFilledRangeH@ImGui@@YAXPEAUImDrawList@@AEBUImRect@@IMMM@Z DD imagerel $LN131+1597
	DD	imagerel $LN131+1649
	DD	imagerel $chain$12$?RenderRectFilledRangeH@ImGui@@YAXPEAUImDrawList@@AEBUImRect@@IMMM@Z
pdata	ENDS
;	COMDAT pdata
pdata	SEGMENT
$pdata$13$?RenderRectFilledRangeH@ImGui@@YAXPEAUImDrawList@@AEBUImRect@@IMMM@Z DD imagerel $LN131+1649
	DD	imagerel $LN131+1670
	DD	imagerel $chain$13$?RenderRectFilledRangeH@ImGui@@YAXPEAUImDrawList@@AEBUImRect@@IMMM@Z
pdata	ENDS
;	COMDAT pdata
pdata	SEGMENT
$pdata$?ShadeVertsLinearColorGradientKeepAlpha@ImGui@@YAXPEAUImDrawList@@HHUImVec2@@1II@Z DD imagerel $LN56
	DD	imagerel $LN56+152
	DD	imagerel $unwind$?ShadeVertsLinearColorGradientKeepAlpha@ImGui@@YAXPEAUImDrawList@@HHUImVec2@@1II@Z
pdata	ENDS
;	COMDAT pdata
pdata	SEGMENT
$pdata$7$?ShadeVertsLinearColorGradientKeepAlpha@ImGui@@YAXPEAUImDrawList@@HHUImVec2@@1II@Z DD imagerel $LN56+152
	DD	imagerel $LN56+1168
	DD	imagerel $chain$7$?ShadeVertsLinearColorGradientKeepAlpha@ImGui@@YAXPEAUImDrawList@@HHUImVec2@@1II@Z
pdata	ENDS
;	COMDAT pdata
pdata	SEGMENT
$pdata$8$?ShadeVertsLinearColorGradientKeepAlpha@ImGui@@YAXPEAUImDrawList@@HHUImVec2@@1II@Z DD imagerel $LN56+1168
	DD	imagerel $LN56+1200
	DD	imagerel $chain$8$?ShadeVertsLinearColorGradientKeepAlpha@ImGui@@YAXPEAUImDrawList@@HHUImVec2@@1II@Z
pdata	ENDS
;	COMDAT pdata
pdata	SEGMENT
$pdata$?ShadeVertsLinearUV@ImGui@@YAXPEAUImDrawList@@HHAEBUImVec2@@111_N@Z DD imagerel $LN116
	DD	imagerel $LN116+1059
	DD	imagerel $unwind$?ShadeVertsLinearUV@ImGui@@YAXPEAUImDrawList@@HHAEBUImVec2@@111_N@Z
pdata	ENDS
;	COMDAT pdata
pdata	SEGMENT
$pdata$?ImFontAtlasBuildWithStbTruetype@@YA_NPEAUImFontAtlas@@@Z DD imagerel $LN596
	DD	imagerel $LN596+5673
	DD	imagerel $unwind$?ImFontAtlasBuildWithStbTruetype@@YA_NPEAUImFontAtlas@@@Z
pdata	ENDS
;	COMDAT pdata
pdata	SEGMENT
$pdata$?ImFontAtlasBuildInit@@YAXPEAUImFontAtlas@@@Z DD imagerel $LN8
	DD	imagerel $LN8+68
	DD	imagerel $unwind$?ImFontAtlasBuildInit@@YAXPEAUImFontAtlas@@@Z
pdata	ENDS
;	COMDAT pdata
pdata	SEGMENT
$pdata$?ImFontAtlasBuildSetupFont@@YAXPEAUImFontAtlas@@PEAUImFont@@PEAUImFontConfig@@MM@Z DD imagerel $LN6
	DD	imagerel $LN6+108
	DD	imagerel $unwind$?ImFontAtlasBuildSetupFont@@YAXPEAUImFontAtlas@@PEAUImFont@@PEAUImFontConfig@@MM@Z
pdata	ENDS
;	COMDAT pdata
pdata	SEGMENT
$pdata$?ImFontAtlasBuildPackCustomRects@@YAXPEAUImFontAtlas@@PEAX@Z DD imagerel $LN87
	DD	imagerel $LN87+920
	DD	imagerel $unwind$?ImFontAtlasBuildPackCustomRects@@YAXPEAUImFontAtlas@@PEAX@Z
pdata	ENDS
;	COMDAT pdata
pdata	SEGMENT
$pdata$?ImFontAtlasBuildFinish@@YAXPEAUImFontAtlas@@@Z DD imagerel $LN76
	DD	imagerel $LN76+48
	DD	imagerel $unwind$?ImFontAtlasBuildFinish@@YAXPEAUImFontAtlas@@@Z
pdata	ENDS
;	COMDAT pdata
pdata	SEGMENT
$pdata$2$?ImFontAtlasBuildFinish@@YAXPEAUImFontAtlas@@@Z DD imagerel $LN76+48
	DD	imagerel $LN76+453
	DD	imagerel $chain$2$?ImFontAtlasBuildFinish@@YAXPEAUImFontAtlas@@@Z
pdata	ENDS
;	COMDAT pdata
pdata	SEGMENT
$pdata$3$?ImFontAtlasBuildFinish@@YAXPEAUImFontAtlas@@@Z DD imagerel $LN76+453
	DD	imagerel $LN76+583
	DD	imagerel $chain$3$?ImFontAtlasBuildFinish@@YAXPEAUImFontAtlas@@@Z
pdata	ENDS
;	COMDAT pdata
pdata	SEGMENT
$pdata$4$?ImFontAtlasBuildFinish@@YAXPEAUImFontAtlas@@@Z DD imagerel $LN76+583
	DD	imagerel $LN76+739
	DD	imagerel $chain$4$?ImFontAtlasBuildFinish@@YAXPEAUImFontAtlas@@@Z
pdata	ENDS
;	COMDAT pdata
pdata	SEGMENT
$pdata$5$?ImFontAtlasBuildFinish@@YAXPEAUImFontAtlas@@@Z DD imagerel $LN76+739
	DD	imagerel $LN76+763
	DD	imagerel $chain$5$?ImFontAtlasBuildFinish@@YAXPEAUImFontAtlas@@@Z
pdata	ENDS
;	COMDAT pdata
pdata	SEGMENT
$pdata$?ImFontAtlasBuildMultiplyRectAlpha8@@YAXQEBEPEAEHHHHH@Z DD imagerel $LN18
	DD	imagerel $LN18+41
	DD	imagerel $unwind$?ImFontAtlasBuildMultiplyRectAlpha8@@YAXQEBEPEAEHHHHH@Z
pdata	ENDS
;	COMDAT pdata
pdata	SEGMENT
$pdata$0$?ImFontAtlasBuildMultiplyRectAlpha8@@YAXQEBEPEAEHHHHH@Z DD imagerel $LN18+41
	DD	imagerel $LN18+101
	DD	imagerel $chain$0$?ImFontAtlasBuildMultiplyRectAlpha8@@YAXQEBEPEAEHHHHH@Z
pdata	ENDS
;	COMDAT pdata
pdata	SEGMENT
$pdata$1$?ImFontAtlasBuildMultiplyRectAlpha8@@YAXQEBEPEAEHHHHH@Z DD imagerel $LN18+101
	DD	imagerel $LN18+103
	DD	imagerel $chain$1$?ImFontAtlasBuildMultiplyRectAlpha8@@YAXQEBEPEAEHHHHH@Z
pdata	ENDS
;	COMDAT pdata
pdata	SEGMENT
$pdata$stbrp_pack_rects DD imagerel stbrp_pack_rects
	DD	imagerel stbrp_pack_rects+20
	DD	imagerel $unwind$stbrp_pack_rects
pdata	ENDS
;	COMDAT pdata
pdata	SEGMENT
$pdata$0$stbrp_pack_rects DD imagerel stbrp_pack_rects+20
	DD	imagerel stbrp_pack_rects+105
	DD	imagerel $chain$0$stbrp_pack_rects
pdata	ENDS
;	COMDAT pdata
pdata	SEGMENT
$pdata$2$stbrp_pack_rects DD imagerel stbrp_pack_rects+105
	DD	imagerel stbrp_pack_rects+448
	DD	imagerel $chain$2$stbrp_pack_rects
pdata	ENDS
;	COMDAT pdata
pdata	SEGMENT
$pdata$3$stbrp_pack_rects DD imagerel stbrp_pack_rects+448
	DD	imagerel stbrp_pack_rects+483
	DD	imagerel $chain$3$stbrp_pack_rects
pdata	ENDS
;	COMDAT pdata
pdata	SEGMENT
$pdata$4$stbrp_pack_rects DD imagerel stbrp_pack_rects+483
	DD	imagerel stbrp_pack_rects+547
	DD	imagerel $chain$4$stbrp_pack_rects
pdata	ENDS
;	COMDAT pdata
pdata	SEGMENT
$pdata$stbrp_init_target DD imagerel stbrp_init_target
	DD	imagerel stbrp_init_target+24
	DD	imagerel $unwind$stbrp_init_target
pdata	ENDS
;	COMDAT pdata
pdata	SEGMENT
$pdata$0$stbrp_init_target DD imagerel stbrp_init_target+24
	DD	imagerel stbrp_init_target+141
	DD	imagerel $chain$0$stbrp_init_target
pdata	ENDS
;	COMDAT pdata
pdata	SEGMENT
$pdata$1$stbrp_init_target DD imagerel stbrp_init_target+141
	DD	imagerel stbrp_init_target+329
	DD	imagerel $chain$1$stbrp_init_target
pdata	ENDS
;	COMDAT pdata
pdata	SEGMENT
$pdata$2$stbrp_init_target DD imagerel stbrp_init_target+329
	DD	imagerel stbrp_init_target+345
	DD	imagerel $chain$2$stbrp_init_target
pdata	ENDS
;	COMDAT pdata
pdata	SEGMENT
$pdata$3$stbrp_init_target DD imagerel stbrp_init_target+345
	DD	imagerel stbrp_init_target+517
	DD	imagerel $chain$3$stbrp_init_target
pdata	ENDS
;	COMDAT pdata
pdata	SEGMENT
$pdata$?stbrp__skyline_find_min_y@@YAHPEAUstbrp_context@@PEAUstbrp_node@@HHPEAH@Z DD imagerel ?stbrp__skyline_find_min_y@@YAHPEAUstbrp_context@@PEAUstbrp_node@@HHPEAH@Z
	DD	imagerel ?stbrp__skyline_find_min_y@@YAHPEAUstbrp_context@@PEAUstbrp_node@@HHPEAH@Z+160
	DD	imagerel $unwind$?stbrp__skyline_find_min_y@@YAHPEAUstbrp_context@@PEAUstbrp_node@@HHPEAH@Z
pdata	ENDS
;	COMDAT pdata
pdata	SEGMENT
$pdata$0$?stbrp__skyline_find_min_y@@YAHPEAUstbrp_context@@PEAUstbrp_node@@HHPEAH@Z DD imagerel ?stbrp__skyline_find_min_y@@YAHPEAUstbrp_context@@PEAUstbrp_node@@HHPEAH@Z+160
	DD	imagerel ?stbrp__skyline_find_min_y@@YAHPEAUstbrp_context@@PEAUstbrp_node@@HHPEAH@Z+294
	DD	imagerel $chain$0$?stbrp__skyline_find_min_y@@YAHPEAUstbrp_context@@PEAUstbrp_node@@HHPEAH@Z
pdata	ENDS
;	COMDAT pdata
pdata	SEGMENT
$pdata$1$?stbrp__skyline_find_min_y@@YAHPEAUstbrp_context@@PEAUstbrp_node@@HHPEAH@Z DD imagerel ?stbrp__skyline_find_min_y@@YAHPEAUstbrp_context@@PEAUstbrp_node@@HHPEAH@Z+294
	DD	imagerel ?stbrp__skyline_find_min_y@@YAHPEAUstbrp_context@@PEAUstbrp_node@@HHPEAH@Z+325
	DD	imagerel $chain$1$?stbrp__skyline_find_min_y@@YAHPEAUstbrp_context@@PEAUstbrp_node@@HHPEAH@Z
pdata	ENDS
;	COMDAT pdata
pdata	SEGMENT
$pdata$?stbrp__skyline_find_best_pos@@YA?AUstbrp__findresult@@PEAUstbrp_context@@HH@Z DD imagerel ?stbrp__skyline_find_best_pos@@YA?AUstbrp__findresult@@PEAUstbrp_context@@HH@Z
	DD	imagerel ?stbrp__skyline_find_best_pos@@YA?AUstbrp__findresult@@PEAUstbrp_context@@HH@Z+146
	DD	imagerel $unwind$?stbrp__skyline_find_best_pos@@YA?AUstbrp__findresult@@PEAUstbrp_context@@HH@Z
pdata	ENDS
;	COMDAT pdata
pdata	SEGMENT
$pdata$1$?stbrp__skyline_find_best_pos@@YA?AUstbrp__findresult@@PEAUstbrp_context@@HH@Z DD imagerel ?stbrp__skyline_find_best_pos@@YA?AUstbrp__findresult@@PEAUstbrp_context@@HH@Z+146
	DD	imagerel ?stbrp__skyline_find_best_pos@@YA?AUstbrp__findresult@@PEAUstbrp_context@@HH@Z+712
	DD	imagerel $chain$1$?stbrp__skyline_find_best_pos@@YA?AUstbrp__findresult@@PEAUstbrp_context@@HH@Z
pdata	ENDS
;	COMDAT pdata
pdata	SEGMENT
$pdata$2$?stbrp__skyline_find_best_pos@@YA?AUstbrp__findresult@@PEAUstbrp_context@@HH@Z DD imagerel ?stbrp__skyline_find_best_pos@@YA?AUstbrp__findresult@@PEAUstbrp_context@@HH@Z+712
	DD	imagerel ?stbrp__skyline_find_best_pos@@YA?AUstbrp__findresult@@PEAUstbrp_context@@HH@Z+737
	DD	imagerel $chain$2$?stbrp__skyline_find_best_pos@@YA?AUstbrp__findresult@@PEAUstbrp_context@@HH@Z
pdata	ENDS
;	COMDAT pdata
pdata	SEGMENT
$pdata$?stbrp__skyline_pack_rectangle@@YA?AUstbrp__findresult@@PEAUstbrp_context@@HH@Z DD imagerel ?stbrp__skyline_pack_rectangle@@YA?AUstbrp__findresult@@PEAUstbrp_context@@HH@Z
	DD	imagerel ?stbrp__skyline_pack_rectangle@@YA?AUstbrp__findresult@@PEAUstbrp_context@@HH@Z+240
	DD	imagerel $unwind$?stbrp__skyline_pack_rectangle@@YA?AUstbrp__findresult@@PEAUstbrp_context@@HH@Z
pdata	ENDS
;	COMDAT pdata
pdata	SEGMENT
$pdata$stbtt_PackBegin DD imagerel stbtt_PackBegin
	DD	imagerel stbtt_PackBegin+264
	DD	imagerel $unwind$stbtt_PackBegin
pdata	ENDS
;	COMDAT pdata
pdata	SEGMENT
$pdata$stbtt_PackEnd DD imagerel stbtt_PackEnd
	DD	imagerel stbtt_PackEnd+32
	DD	imagerel $unwind$stbtt_PackEnd
pdata	ENDS
;	COMDAT pdata
pdata	SEGMENT
$pdata$stbtt_GetPackedQuad DD imagerel stbtt_GetPackedQuad
	DD	imagerel stbtt_GetPackedQuad+118
	DD	imagerel $unwind$stbtt_GetPackedQuad
pdata	ENDS
;	COMDAT pdata
pdata	SEGMENT
$pdata$0$stbtt_GetPackedQuad DD imagerel stbtt_GetPackedQuad+118
	DD	imagerel stbtt_GetPackedQuad+221
	DD	imagerel $chain$0$stbtt_GetPackedQuad
pdata	ENDS
;	COMDAT pdata
pdata	SEGMENT
$pdata$1$stbtt_GetPackedQuad DD imagerel stbtt_GetPackedQuad+221
	DD	imagerel stbtt_GetPackedQuad+399
	DD	imagerel $chain$1$stbtt_GetPackedQuad
pdata	ENDS
;	COMDAT pdata
pdata	SEGMENT
$pdata$stbtt_PackFontRangesRenderIntoRects DD imagerel stbtt_PackFontRangesRenderIntoRects
	DD	imagerel stbtt_PackFontRangesRenderIntoRects+62
	DD	imagerel $unwind$stbtt_PackFontRangesRenderIntoRects
pdata	ENDS
;	COMDAT pdata
pdata	SEGMENT
$pdata$14$stbtt_PackFontRangesRenderIntoRects DD imagerel stbtt_PackFontRangesRenderIntoRects+62
	DD	imagerel stbtt_PackFontRangesRenderIntoRects+1659
	DD	imagerel $chain$14$stbtt_PackFontRangesRenderIntoRects
pdata	ENDS
;	COMDAT pdata
pdata	SEGMENT
$pdata$15$stbtt_PackFontRangesRenderIntoRects DD imagerel stbtt_PackFontRangesRenderIntoRects+1659
	DD	imagerel stbtt_PackFontRangesRenderIntoRects+1688
	DD	imagerel $chain$15$stbtt_PackFontRangesRenderIntoRects
pdata	ENDS
;	COMDAT pdata
pdata	SEGMENT
$pdata$stbtt_GetFontOffsetForIndex DD imagerel stbtt_GetFontOffsetForIndex
	DD	imagerel stbtt_GetFontOffsetForIndex+209
	DD	imagerel $unwind$stbtt_GetFontOffsetForIndex
pdata	ENDS
;	COMDAT pdata
pdata	SEGMENT
$pdata$stbtt_FindGlyphIndex DD imagerel stbtt_FindGlyphIndex
	DD	imagerel stbtt_FindGlyphIndex+377
	DD	imagerel $unwind$stbtt_FindGlyphIndex
pdata	ENDS
;	COMDAT pdata
pdata	SEGMENT
$pdata$0$stbtt_FindGlyphIndex DD imagerel stbtt_FindGlyphIndex+377
	DD	imagerel stbtt_FindGlyphIndex+526
	DD	imagerel $chain$0$stbtt_FindGlyphIndex
pdata	ENDS
;	COMDAT pdata
pdata	SEGMENT
$pdata$1$stbtt_FindGlyphIndex DD imagerel stbtt_FindGlyphIndex+526
	DD	imagerel stbtt_FindGlyphIndex+993
	DD	imagerel $chain$1$stbtt_FindGlyphIndex
pdata	ENDS
;	COMDAT pdata
pdata	SEGMENT
$pdata$stbtt_GetFontVMetrics DD imagerel stbtt_GetFontVMetrics
	DD	imagerel stbtt_GetFontVMetrics+169
	DD	imagerel $unwind$stbtt_GetFontVMetrics
pdata	ENDS
;	COMDAT pdata
pdata	SEGMENT
$pdata$stbtt_GetGlyphHMetrics DD imagerel stbtt_GetGlyphHMetrics
	DD	imagerel stbtt_GetGlyphHMetrics+299
	DD	imagerel $unwind$stbtt_GetGlyphHMetrics
pdata	ENDS
;	COMDAT pdata
pdata	SEGMENT
$pdata$stbtt_GetGlyphBox DD imagerel stbtt_GetGlyphBox
	DD	imagerel stbtt_GetGlyphBox+381
	DD	imagerel $unwind$stbtt_GetGlyphBox
pdata	ENDS
;	COMDAT pdata
pdata	SEGMENT
$pdata$stbtt_GetGlyphShape DD imagerel stbtt_GetGlyphShape
	DD	imagerel stbtt_GetGlyphShape+45
	DD	imagerel $unwind$stbtt_GetGlyphShape
pdata	ENDS
;	COMDAT pdata
pdata	SEGMENT
$pdata$0$stbtt_GetGlyphShape DD imagerel stbtt_GetGlyphShape+45
	DD	imagerel stbtt_GetGlyphShape+222
	DD	imagerel $chain$0$stbtt_GetGlyphShape
pdata	ENDS
;	COMDAT pdata
pdata	SEGMENT
$pdata$1$stbtt_GetGlyphShape DD imagerel stbtt_GetGlyphShape+222
	DD	imagerel stbtt_GetGlyphShape+243
	DD	imagerel $chain$1$stbtt_GetGlyphShape
pdata	ENDS
;	COMDAT pdata
pdata	SEGMENT
$pdata$stbtt_MakeGlyphBitmapSubpixel DD imagerel stbtt_MakeGlyphBitmapSubpixel
	DD	imagerel stbtt_MakeGlyphBitmapSubpixel+52
	DD	imagerel $unwind$stbtt_MakeGlyphBitmapSubpixel
pdata	ENDS
;	COMDAT pdata
pdata	SEGMENT
$pdata$1$stbtt_MakeGlyphBitmapSubpixel DD imagerel stbtt_MakeGlyphBitmapSubpixel+52
	DD	imagerel stbtt_MakeGlyphBitmapSubpixel+400
	DD	imagerel $chain$1$stbtt_MakeGlyphBitmapSubpixel
pdata	ENDS
;	COMDAT pdata
pdata	SEGMENT
$pdata$2$stbtt_MakeGlyphBitmapSubpixel DD imagerel stbtt_MakeGlyphBitmapSubpixel+400
	DD	imagerel stbtt_MakeGlyphBitmapSubpixel+529
	DD	imagerel $chain$2$stbtt_MakeGlyphBitmapSubpixel
pdata	ENDS
;	COMDAT pdata
pdata	SEGMENT
$pdata$stbtt_GetGlyphBitmapBox DD imagerel stbtt_GetGlyphBitmapBox
	DD	imagerel stbtt_GetGlyphBitmapBox+81
	DD	imagerel $unwind$stbtt_GetGlyphBitmapBox
pdata	ENDS
;	COMDAT pdata
pdata	SEGMENT
$pdata$stbtt_GetGlyphBitmapBoxSubpixel DD imagerel stbtt_GetGlyphBitmapBoxSubpixel
	DD	imagerel stbtt_GetGlyphBitmapBoxSubpixel+255
	DD	imagerel $unwind$stbtt_GetGlyphBitmapBoxSubpixel
pdata	ENDS
;	COMDAT pdata
pdata	SEGMENT
$pdata$0$stbtt_GetGlyphBitmapBoxSubpixel DD imagerel stbtt_GetGlyphBitmapBoxSubpixel+255
	DD	imagerel stbtt_GetGlyphBitmapBoxSubpixel+449
	DD	imagerel $chain$0$stbtt_GetGlyphBitmapBoxSubpixel
pdata	ENDS
;	COMDAT pdata
pdata	SEGMENT
$pdata$1$stbtt_GetGlyphBitmapBoxSubpixel DD imagerel stbtt_GetGlyphBitmapBoxSubpixel+449
	DD	imagerel stbtt_GetGlyphBitmapBoxSubpixel+548
	DD	imagerel $chain$1$stbtt_GetGlyphBitmapBoxSubpixel
pdata	ENDS
;	COMDAT pdata
pdata	SEGMENT
$pdata$stbtt_Rasterize DD imagerel stbtt_Rasterize
	DD	imagerel stbtt_Rasterize+270
	DD	imagerel $unwind$stbtt_Rasterize
pdata	ENDS
;	COMDAT pdata
pdata	SEGMENT
$pdata$?stbtt__buf_seek@@YAXPEAUstbtt__buf@@H@Z DD imagerel ?stbtt__buf_seek@@YAXPEAUstbtt__buf@@H@Z
	DD	imagerel ?stbtt__buf_seek@@YAXPEAUstbtt__buf@@H@Z+91
	DD	imagerel $unwind$?stbtt__buf_seek@@YAXPEAUstbtt__buf@@H@Z
pdata	ENDS
;	COMDAT pdata
pdata	SEGMENT
$pdata$?stbtt__buf_skip@@YAXPEAUstbtt__buf@@H@Z DD imagerel ?stbtt__buf_skip@@YAXPEAUstbtt__buf@@H@Z
	DD	imagerel ?stbtt__buf_skip@@YAXPEAUstbtt__buf@@H@Z+94
	DD	imagerel $unwind$?stbtt__buf_skip@@YAXPEAUstbtt__buf@@H@Z
pdata	ENDS
;	COMDAT pdata
pdata	SEGMENT
$pdata$?stbtt__buf_get@@YAIPEAUstbtt__buf@@H@Z DD imagerel ?stbtt__buf_get@@YAIPEAUstbtt__buf@@H@Z
	DD	imagerel ?stbtt__buf_get@@YAIPEAUstbtt__buf@@H@Z+126
	DD	imagerel $unwind$?stbtt__buf_get@@YAIPEAUstbtt__buf@@H@Z
pdata	ENDS
;	COMDAT pdata
pdata	SEGMENT
$pdata$?stbtt__new_buf@@YA?AUstbtt__buf@@PEBX_K@Z DD imagerel ?stbtt__new_buf@@YA?AUstbtt__buf@@PEBX_K@Z
	DD	imagerel ?stbtt__new_buf@@YA?AUstbtt__buf@@PEBX_K@Z+91
	DD	imagerel $unwind$?stbtt__new_buf@@YA?AUstbtt__buf@@PEBX_K@Z
pdata	ENDS
;	COMDAT pdata
pdata	SEGMENT
$pdata$?stbtt__buf_range@@YA?AUstbtt__buf@@PEBU1@HH@Z DD imagerel ?stbtt__buf_range@@YA?AUstbtt__buf@@PEBU1@HH@Z
	DD	imagerel ?stbtt__buf_range@@YA?AUstbtt__buf@@PEBU1@HH@Z+80
	DD	imagerel $unwind$?stbtt__buf_range@@YA?AUstbtt__buf@@PEBU1@HH@Z
pdata	ENDS
;	COMDAT pdata
pdata	SEGMENT
$pdata$?stbtt__cff_get_index@@YA?AUstbtt__buf@@PEAU1@@Z DD imagerel ?stbtt__cff_get_index@@YA?AUstbtt__buf@@PEAU1@@Z
	DD	imagerel ?stbtt__cff_get_index@@YA?AUstbtt__buf@@PEAU1@@Z+26
	DD	imagerel $unwind$?stbtt__cff_get_index@@YA?AUstbtt__buf@@PEAU1@@Z
pdata	ENDS
;	COMDAT pdata
pdata	SEGMENT
$pdata$0$?stbtt__cff_get_index@@YA?AUstbtt__buf@@PEAU1@@Z DD imagerel ?stbtt__cff_get_index@@YA?AUstbtt__buf@@PEAU1@@Z+26
	DD	imagerel ?stbtt__cff_get_index@@YA?AUstbtt__buf@@PEAU1@@Z+95
	DD	imagerel $chain$0$?stbtt__cff_get_index@@YA?AUstbtt__buf@@PEAU1@@Z
pdata	ENDS
;	COMDAT pdata
pdata	SEGMENT
$pdata$1$?stbtt__cff_get_index@@YA?AUstbtt__buf@@PEAU1@@Z DD imagerel ?stbtt__cff_get_index@@YA?AUstbtt__buf@@PEAU1@@Z+95
	DD	imagerel ?stbtt__cff_get_index@@YA?AUstbtt__buf@@PEAU1@@Z+256
	DD	imagerel $chain$1$?stbtt__cff_get_index@@YA?AUstbtt__buf@@PEAU1@@Z
pdata	ENDS
;	COMDAT pdata
pdata	SEGMENT
$pdata$2$?stbtt__cff_get_index@@YA?AUstbtt__buf@@PEAU1@@Z DD imagerel ?stbtt__cff_get_index@@YA?AUstbtt__buf@@PEAU1@@Z+256
	DD	imagerel ?stbtt__cff_get_index@@YA?AUstbtt__buf@@PEAU1@@Z+334
	DD	imagerel $chain$2$?stbtt__cff_get_index@@YA?AUstbtt__buf@@PEAU1@@Z
pdata	ENDS
;	COMDAT pdata
pdata	SEGMENT
$pdata$3$?stbtt__cff_get_index@@YA?AUstbtt__buf@@PEAU1@@Z DD imagerel ?stbtt__cff_get_index@@YA?AUstbtt__buf@@PEAU1@@Z+334
	DD	imagerel ?stbtt__cff_get_index@@YA?AUstbtt__buf@@PEAU1@@Z+402
	DD	imagerel $chain$3$?stbtt__cff_get_index@@YA?AUstbtt__buf@@PEAU1@@Z
pdata	ENDS
;	COMDAT pdata
pdata	SEGMENT
$pdata$?stbtt__cff_int@@YAIPEAUstbtt__buf@@@Z DD imagerel ?stbtt__cff_int@@YAIPEAUstbtt__buf@@@Z
	DD	imagerel ?stbtt__cff_int@@YAIPEAUstbtt__buf@@@Z+348
	DD	imagerel $unwind$?stbtt__cff_int@@YAIPEAUstbtt__buf@@@Z
pdata	ENDS
;	COMDAT pdata
pdata	SEGMENT
$pdata$?stbtt__cff_skip_operand@@YAXPEAUstbtt__buf@@@Z DD imagerel ?stbtt__cff_skip_operand@@YAXPEAUstbtt__buf@@@Z
	DD	imagerel ?stbtt__cff_skip_operand@@YAXPEAUstbtt__buf@@@Z+232
	DD	imagerel $unwind$?stbtt__cff_skip_operand@@YAXPEAUstbtt__buf@@@Z
pdata	ENDS
;	COMDAT pdata
pdata	SEGMENT
$pdata$?stbtt__dict_get@@YA?AUstbtt__buf@@PEAU1@H@Z DD imagerel ?stbtt__dict_get@@YA?AUstbtt__buf@@PEAU1@H@Z
	DD	imagerel ?stbtt__dict_get@@YA?AUstbtt__buf@@PEAU1@H@Z+576
	DD	imagerel $unwind$?stbtt__dict_get@@YA?AUstbtt__buf@@PEAU1@H@Z
pdata	ENDS
;	COMDAT pdata
pdata	SEGMENT
$pdata$?stbtt__dict_get_ints@@YAXPEAUstbtt__buf@@HHPEAI@Z DD imagerel ?stbtt__dict_get_ints@@YAXPEAUstbtt__buf@@HHPEAI@Z
	DD	imagerel ?stbtt__dict_get_ints@@YAXPEAUstbtt__buf@@HHPEAI@Z+101
	DD	imagerel $unwind$?stbtt__dict_get_ints@@YAXPEAUstbtt__buf@@HHPEAI@Z
pdata	ENDS
;	COMDAT pdata
pdata	SEGMENT
$pdata$?stbtt__cff_index_count@@YAHPEAUstbtt__buf@@@Z DD imagerel ?stbtt__cff_index_count@@YAHPEAUstbtt__buf@@@Z
	DD	imagerel ?stbtt__cff_index_count@@YAHPEAUstbtt__buf@@@Z+139
	DD	imagerel $unwind$?stbtt__cff_index_count@@YAHPEAUstbtt__buf@@@Z
pdata	ENDS
;	COMDAT pdata
pdata	SEGMENT
$pdata$?stbtt__cff_index_get@@YA?AUstbtt__buf@@U1@H@Z DD imagerel ?stbtt__cff_index_get@@YA?AUstbtt__buf@@U1@H@Z
	DD	imagerel ?stbtt__cff_index_get@@YA?AUstbtt__buf@@U1@H@Z+420
	DD	imagerel $unwind$?stbtt__cff_index_get@@YA?AUstbtt__buf@@U1@H@Z
pdata	ENDS
;	COMDAT pdata
pdata	SEGMENT
$pdata$?stbtt__find_table@@YAIPEAEIPEBD@Z DD imagerel ?stbtt__find_table@@YAIPEAEIPEBD@Z
	DD	imagerel ?stbtt__find_table@@YAIPEAEIPEBD@Z+182
	DD	imagerel $unwind$?stbtt__find_table@@YAIPEAEIPEBD@Z
pdata	ENDS
;	COMDAT pdata
pdata	SEGMENT
$pdata$?stbtt_GetFontOffsetForIndex_internal@@YAHPEAEH@Z DD imagerel ?stbtt_GetFontOffsetForIndex_internal@@YAHPEAEH@Z
	DD	imagerel ?stbtt_GetFontOffsetForIndex_internal@@YAHPEAEH@Z+209
	DD	imagerel $unwind$?stbtt_GetFontOffsetForIndex_internal@@YAHPEAEH@Z
pdata	ENDS
;	COMDAT pdata
pdata	SEGMENT
$pdata$?stbtt__get_subrs@@YA?AUstbtt__buf@@U1@0@Z DD imagerel ?stbtt__get_subrs@@YA?AUstbtt__buf@@U1@0@Z
	DD	imagerel ?stbtt__get_subrs@@YA?AUstbtt__buf@@U1@0@Z+305
	DD	imagerel $unwind$?stbtt__get_subrs@@YA?AUstbtt__buf@@U1@0@Z
pdata	ENDS
;	COMDAT pdata
pdata	SEGMENT
$pdata$?stbtt_InitFont_internal@@YAHPEAUstbtt_fontinfo@@PEAEH@Z DD imagerel ?stbtt_InitFont_internal@@YAHPEAUstbtt_fontinfo@@PEAEH@Z
	DD	imagerel ?stbtt_InitFont_internal@@YAHPEAUstbtt_fontinfo@@PEAEH@Z+1407
	DD	imagerel $unwind$?stbtt_InitFont_internal@@YAHPEAUstbtt_fontinfo@@PEAEH@Z
pdata	ENDS
;	COMDAT pdata
pdata	SEGMENT
$pdata$?stbtt__GetGlyfOffset@@YAHPEBUstbtt_fontinfo@@H@Z DD imagerel ?stbtt__GetGlyfOffset@@YAHPEBUstbtt_fontinfo@@H@Z
	DD	imagerel ?stbtt__GetGlyfOffset@@YAHPEBUstbtt_fontinfo@@H@Z+290
	DD	imagerel $unwind$?stbtt__GetGlyfOffset@@YAHPEBUstbtt_fontinfo@@H@Z
pdata	ENDS
;	COMDAT pdata
pdata	SEGMENT
$pdata$?stbtt__GetGlyphInfoT2@@YAHPEBUstbtt_fontinfo@@HPEAH111@Z DD imagerel ?stbtt__GetGlyphInfoT2@@YAHPEBUstbtt_fontinfo@@HPEAH111@Z
	DD	imagerel ?stbtt__GetGlyphInfoT2@@YAHPEBUstbtt_fontinfo@@HPEAH111@Z+170
	DD	imagerel $unwind$?stbtt__GetGlyphInfoT2@@YAHPEBUstbtt_fontinfo@@HPEAH111@Z
pdata	ENDS
;	COMDAT pdata
pdata	SEGMENT
$pdata$?stbtt__close_shape@@YAHPEAUstbtt_vertex@@HHHHHHHHH@Z DD imagerel ?stbtt__close_shape@@YAHPEAUstbtt_vertex@@HHHHHHHHH@Z
	DD	imagerel ?stbtt__close_shape@@YAHPEAUstbtt_vertex@@HHHHHHHHH@Z+24
	DD	imagerel $unwind$?stbtt__close_shape@@YAHPEAUstbtt_vertex@@HHHHHHHHH@Z
pdata	ENDS
;	COMDAT pdata
pdata	SEGMENT
$pdata$0$?stbtt__close_shape@@YAHPEAUstbtt_vertex@@HHHHHHHHH@Z DD imagerel ?stbtt__close_shape@@YAHPEAUstbtt_vertex@@HHHHHHHHH@Z+24
	DD	imagerel ?stbtt__close_shape@@YAHPEAUstbtt_vertex@@HHHHHHHHH@Z+151
	DD	imagerel $chain$0$?stbtt__close_shape@@YAHPEAUstbtt_vertex@@HHHHHHHHH@Z
pdata	ENDS
;	COMDAT pdata
pdata	SEGMENT
$pdata$1$?stbtt__close_shape@@YAHPEAUstbtt_vertex@@HHHHHHHHH@Z DD imagerel ?stbtt__close_shape@@YAHPEAUstbtt_vertex@@HHHHHHHHH@Z+151
	DD	imagerel ?stbtt__close_shape@@YAHPEAUstbtt_vertex@@HHHHHHHHH@Z+240
	DD	imagerel $chain$1$?stbtt__close_shape@@YAHPEAUstbtt_vertex@@HHHHHHHHH@Z
pdata	ENDS
;	COMDAT pdata
pdata	SEGMENT
$pdata$?stbtt__GetGlyphShapeTT@@YAHPEBUstbtt_fontinfo@@HPEAPEAUstbtt_vertex@@@Z DD imagerel ?stbtt__GetGlyphShapeTT@@YAHPEBUstbtt_fontinfo@@HPEAPEAUstbtt_vertex@@@Z
	DD	imagerel ?stbtt__GetGlyphShapeTT@@YAHPEBUstbtt_fontinfo@@HPEAPEAUstbtt_vertex@@@Z+3222
	DD	imagerel $unwind$?stbtt__GetGlyphShapeTT@@YAHPEBUstbtt_fontinfo@@HPEAPEAUstbtt_vertex@@@Z
pdata	ENDS
;	COMDAT pdata
pdata	SEGMENT
$pdata$?stbtt__csctx_v@@YAXPEAUstbtt__csctx@@EHHHHHH@Z DD imagerel ?stbtt__csctx_v@@YAXPEAUstbtt__csctx@@EHHHHHH@Z
	DD	imagerel ?stbtt__csctx_v@@YAXPEAUstbtt__csctx@@EHHHHHH@Z+21
	DD	imagerel $unwind$?stbtt__csctx_v@@YAXPEAUstbtt__csctx@@EHHHHHH@Z
pdata	ENDS
;	COMDAT pdata
pdata	SEGMENT
$pdata$1$?stbtt__csctx_v@@YAXPEAUstbtt__csctx@@EHHHHHH@Z DD imagerel ?stbtt__csctx_v@@YAXPEAUstbtt__csctx@@EHHHHHH@Z+21
	DD	imagerel ?stbtt__csctx_v@@YAXPEAUstbtt__csctx@@EHHHHHH@Z+231
	DD	imagerel $chain$1$?stbtt__csctx_v@@YAXPEAUstbtt__csctx@@EHHHHHH@Z
pdata	ENDS
;	COMDAT pdata
pdata	SEGMENT
$pdata$3$?stbtt__csctx_v@@YAXPEAUstbtt__csctx@@EHHHHHH@Z DD imagerel ?stbtt__csctx_v@@YAXPEAUstbtt__csctx@@EHHHHHH@Z+231
	DD	imagerel ?stbtt__csctx_v@@YAXPEAUstbtt__csctx@@EHHHHHH@Z+246
	DD	imagerel $chain$3$?stbtt__csctx_v@@YAXPEAUstbtt__csctx@@EHHHHHH@Z
pdata	ENDS
;	COMDAT pdata
pdata	SEGMENT
$pdata$4$?stbtt__csctx_v@@YAXPEAUstbtt__csctx@@EHHHHHH@Z DD imagerel ?stbtt__csctx_v@@YAXPEAUstbtt__csctx@@EHHHHHH@Z+246
	DD	imagerel ?stbtt__csctx_v@@YAXPEAUstbtt__csctx@@EHHHHHH@Z+339
	DD	imagerel $chain$4$?stbtt__csctx_v@@YAXPEAUstbtt__csctx@@EHHHHHH@Z
pdata	ENDS
;	COMDAT pdata
pdata	SEGMENT
$pdata$?stbtt__csctx_rmove_to@@YAXPEAUstbtt__csctx@@MM@Z DD imagerel ?stbtt__csctx_rmove_to@@YAXPEAUstbtt__csctx@@MM@Z
	DD	imagerel ?stbtt__csctx_rmove_to@@YAXPEAUstbtt__csctx@@MM@Z+223
	DD	imagerel $unwind$?stbtt__csctx_rmove_to@@YAXPEAUstbtt__csctx@@MM@Z
pdata	ENDS
;	COMDAT pdata
pdata	SEGMENT
$pdata$?stbtt__csctx_rccurve_to@@YAXPEAUstbtt__csctx@@MMMMMM@Z DD imagerel ?stbtt__csctx_rccurve_to@@YAXPEAUstbtt__csctx@@MMMMMM@Z
	DD	imagerel ?stbtt__csctx_rccurve_to@@YAXPEAUstbtt__csctx@@MMMMMM@Z+145
	DD	imagerel $unwind$?stbtt__csctx_rccurve_to@@YAXPEAUstbtt__csctx@@MMMMMM@Z
pdata	ENDS
;	COMDAT pdata
pdata	SEGMENT
$pdata$?stbtt__get_subr@@YA?AUstbtt__buf@@U1@H@Z DD imagerel ?stbtt__get_subr@@YA?AUstbtt__buf@@U1@H@Z
	DD	imagerel ?stbtt__get_subr@@YA?AUstbtt__buf@@U1@H@Z+240
	DD	imagerel $unwind$?stbtt__get_subr@@YA?AUstbtt__buf@@U1@H@Z
pdata	ENDS
;	COMDAT pdata
pdata	SEGMENT
$pdata$?stbtt__cid_get_glyph_subrs@@YA?AUstbtt__buf@@PEBUstbtt_fontinfo@@H@Z DD imagerel ?stbtt__cid_get_glyph_subrs@@YA?AUstbtt__buf@@PEBUstbtt_fontinfo@@H@Z
	DD	imagerel ?stbtt__cid_get_glyph_subrs@@YA?AUstbtt__buf@@PEBUstbtt_fontinfo@@H@Z+509
	DD	imagerel $unwind$?stbtt__cid_get_glyph_subrs@@YA?AUstbtt__buf@@PEBUstbtt_fontinfo@@H@Z
pdata	ENDS
;	COMDAT pdata
pdata	SEGMENT
$pdata$?stbtt__run_charstring@@YAHPEBUstbtt_fontinfo@@HPEAUstbtt__csctx@@@Z DD imagerel ?stbtt__run_charstring@@YAHPEBUstbtt_fontinfo@@HPEAUstbtt__csctx@@@Z
	DD	imagerel ?stbtt__run_charstring@@YAHPEBUstbtt_fontinfo@@HPEAUstbtt__csctx@@@Z+3384
	DD	imagerel $unwind$?stbtt__run_charstring@@YAHPEBUstbtt_fontinfo@@HPEAUstbtt__csctx@@@Z
pdata	ENDS
;	COMDAT pdata
pdata	SEGMENT
$pdata$?stbtt__GetGlyphShapeT2@@YAHPEBUstbtt_fontinfo@@HPEAPEAUstbtt_vertex@@@Z DD imagerel ?stbtt__GetGlyphShapeT2@@YAHPEBUstbtt_fontinfo@@HPEAPEAUstbtt_vertex@@@Z
	DD	imagerel ?stbtt__GetGlyphShapeT2@@YAHPEBUstbtt_fontinfo@@HPEAPEAUstbtt_vertex@@@Z+214
	DD	imagerel $unwind$?stbtt__GetGlyphShapeT2@@YAHPEBUstbtt_fontinfo@@HPEAPEAUstbtt_vertex@@@Z
pdata	ENDS
;	COMDAT pdata
pdata	SEGMENT
$pdata$?stbtt__hheap_alloc@@YAPEAXPEAUstbtt__hheap@@_KPEAX@Z DD imagerel ?stbtt__hheap_alloc@@YAPEAXPEAUstbtt__hheap@@_KPEAX@Z
	DD	imagerel ?stbtt__hheap_alloc@@YAPEAXPEAUstbtt__hheap@@_KPEAX@Z+43
	DD	imagerel $unwind$?stbtt__hheap_alloc@@YAPEAXPEAUstbtt__hheap@@_KPEAX@Z
pdata	ENDS
;	COMDAT pdata
pdata	SEGMENT
$pdata$0$?stbtt__hheap_alloc@@YAPEAXPEAUstbtt__hheap@@_KPEAX@Z DD imagerel ?stbtt__hheap_alloc@@YAPEAXPEAUstbtt__hheap@@_KPEAX@Z+43
	DD	imagerel ?stbtt__hheap_alloc@@YAPEAXPEAUstbtt__hheap@@_KPEAX@Z+127
	DD	imagerel $chain$0$?stbtt__hheap_alloc@@YAPEAXPEAUstbtt__hheap@@_KPEAX@Z
pdata	ENDS
;	COMDAT pdata
pdata	SEGMENT
$pdata$2$?stbtt__hheap_alloc@@YAPEAXPEAUstbtt__hheap@@_KPEAX@Z DD imagerel ?stbtt__hheap_alloc@@YAPEAXPEAUstbtt__hheap@@_KPEAX@Z+127
	DD	imagerel ?stbtt__hheap_alloc@@YAPEAXPEAUstbtt__hheap@@_KPEAX@Z+175
	DD	imagerel $chain$2$?stbtt__hheap_alloc@@YAPEAXPEAUstbtt__hheap@@_KPEAX@Z
pdata	ENDS
;	COMDAT pdata
pdata	SEGMENT
$pdata$?stbtt__hheap_cleanup@@YAXPEAUstbtt__hheap@@PEAX@Z DD imagerel ?stbtt__hheap_cleanup@@YAXPEAUstbtt__hheap@@PEAX@Z
	DD	imagerel ?stbtt__hheap_cleanup@@YAXPEAUstbtt__hheap@@PEAX@Z+12
	DD	imagerel $unwind$?stbtt__hheap_cleanup@@YAXPEAUstbtt__hheap@@PEAX@Z
pdata	ENDS
;	COMDAT pdata
pdata	SEGMENT
$pdata$0$?stbtt__hheap_cleanup@@YAXPEAUstbtt__hheap@@PEAX@Z DD imagerel ?stbtt__hheap_cleanup@@YAXPEAUstbtt__hheap@@PEAX@Z+12
	DD	imagerel ?stbtt__hheap_cleanup@@YAXPEAUstbtt__hheap@@PEAX@Z+38
	DD	imagerel $chain$0$?stbtt__hheap_cleanup@@YAXPEAUstbtt__hheap@@PEAX@Z
pdata	ENDS
;	COMDAT pdata
pdata	SEGMENT
$pdata$1$?stbtt__hheap_cleanup@@YAXPEAUstbtt__hheap@@PEAX@Z DD imagerel ?stbtt__hheap_cleanup@@YAXPEAUstbtt__hheap@@PEAX@Z+38
	DD	imagerel ?stbtt__hheap_cleanup@@YAXPEAUstbtt__hheap@@PEAX@Z+43
	DD	imagerel $chain$1$?stbtt__hheap_cleanup@@YAXPEAUstbtt__hheap@@PEAX@Z
pdata	ENDS
;	COMDAT pdata
pdata	SEGMENT
$pdata$?stbtt__new_active@@YAPEAUstbtt__active_edge@@PEAUstbtt__hheap@@PEAUstbtt__edge@@HMPEAX@Z DD imagerel ?stbtt__new_active@@YAPEAUstbtt__active_edge@@PEAUstbtt__hheap@@PEAUstbtt__edge@@HMPEAX@Z
	DD	imagerel ?stbtt__new_active@@YAPEAUstbtt__active_edge@@PEAUstbtt__hheap@@PEAUstbtt__edge@@HMPEAX@Z+306
	DD	imagerel $unwind$?stbtt__new_active@@YAPEAUstbtt__active_edge@@PEAUstbtt__hheap@@PEAUstbtt__edge@@HMPEAX@Z
pdata	ENDS
;	COMDAT pdata
pdata	SEGMENT
$pdata$?stbtt__handle_clipped_edge@@YAXPEAMHPEAUstbtt__active_edge@@MMMM@Z DD imagerel ?stbtt__handle_clipped_edge@@YAXPEAMHPEAUstbtt__active_edge@@MMMM@Z
	DD	imagerel ?stbtt__handle_clipped_edge@@YAXPEAMHPEAUstbtt__active_edge@@MMMM@Z+181
	DD	imagerel $unwind$?stbtt__handle_clipped_edge@@YAXPEAMHPEAUstbtt__active_edge@@MMMM@Z
pdata	ENDS
;	COMDAT pdata
pdata	SEGMENT
$pdata$2$?stbtt__handle_clipped_edge@@YAXPEAMHPEAUstbtt__active_edge@@MMMM@Z DD imagerel ?stbtt__handle_clipped_edge@@YAXPEAMHPEAUstbtt__active_edge@@MMMM@Z+181
	DD	imagerel ?stbtt__handle_clipped_edge@@YAXPEAMHPEAUstbtt__active_edge@@MMMM@Z+639
	DD	imagerel $chain$2$?stbtt__handle_clipped_edge@@YAXPEAMHPEAUstbtt__active_edge@@MMMM@Z
pdata	ENDS
;	COMDAT pdata
pdata	SEGMENT
$pdata$3$?stbtt__handle_clipped_edge@@YAXPEAMHPEAUstbtt__active_edge@@MMMM@Z DD imagerel ?stbtt__handle_clipped_edge@@YAXPEAMHPEAUstbtt__active_edge@@MMMM@Z+639
	DD	imagerel ?stbtt__handle_clipped_edge@@YAXPEAMHPEAUstbtt__active_edge@@MMMM@Z+675
	DD	imagerel $chain$3$?stbtt__handle_clipped_edge@@YAXPEAMHPEAUstbtt__active_edge@@MMMM@Z
pdata	ENDS
;	COMDAT pdata
pdata	SEGMENT
$pdata$?stbtt__fill_active_edges_new@@YAXPEAM0HPEAUstbtt__active_edge@@M@Z DD imagerel ?stbtt__fill_active_edges_new@@YAXPEAM0HPEAUstbtt__active_edge@@M@Z
	DD	imagerel ?stbtt__fill_active_edges_new@@YAXPEAM0HPEAUstbtt__active_edge@@M@Z+80
	DD	imagerel $unwind$?stbtt__fill_active_edges_new@@YAXPEAM0HPEAUstbtt__active_edge@@M@Z
pdata	ENDS
;	COMDAT pdata
pdata	SEGMENT
$pdata$9$?stbtt__fill_active_edges_new@@YAXPEAM0HPEAUstbtt__active_edge@@M@Z DD imagerel ?stbtt__fill_active_edges_new@@YAXPEAM0HPEAUstbtt__active_edge@@M@Z+80
	DD	imagerel ?stbtt__fill_active_edges_new@@YAXPEAM0HPEAUstbtt__active_edge@@M@Z+1808
	DD	imagerel $chain$9$?stbtt__fill_active_edges_new@@YAXPEAM0HPEAUstbtt__active_edge@@M@Z
pdata	ENDS
;	COMDAT pdata
pdata	SEGMENT
$pdata$10$?stbtt__fill_active_edges_new@@YAXPEAM0HPEAUstbtt__active_edge@@M@Z DD imagerel ?stbtt__fill_active_edges_new@@YAXPEAM0HPEAUstbtt__active_edge@@M@Z+1808
	DD	imagerel ?stbtt__fill_active_edges_new@@YAXPEAM0HPEAUstbtt__active_edge@@M@Z+1839
	DD	imagerel $chain$10$?stbtt__fill_active_edges_new@@YAXPEAM0HPEAUstbtt__active_edge@@M@Z
pdata	ENDS
;	COMDAT pdata
pdata	SEGMENT
$pdata$?stbtt__rasterize_sorted_edges@@YAXPEAUstbtt__bitmap@@PEAUstbtt__edge@@HHHHPEAX@Z DD imagerel ?stbtt__rasterize_sorted_edges@@YAXPEAUstbtt__bitmap@@PEAUstbtt__edge@@HHHHPEAX@Z
	DD	imagerel ?stbtt__rasterize_sorted_edges@@YAXPEAUstbtt__bitmap@@PEAUstbtt__edge@@HHHHPEAX@Z+30
	DD	imagerel $unwind$?stbtt__rasterize_sorted_edges@@YAXPEAUstbtt__bitmap@@PEAUstbtt__edge@@HHHHPEAX@Z
pdata	ENDS
;	COMDAT pdata
pdata	SEGMENT
$pdata$0$?stbtt__rasterize_sorted_edges@@YAXPEAUstbtt__bitmap@@PEAUstbtt__edge@@HHHHPEAX@Z DD imagerel ?stbtt__rasterize_sorted_edges@@YAXPEAUstbtt__bitmap@@PEAUstbtt__edge@@HHHHPEAX@Z+30
	DD	imagerel ?stbtt__rasterize_sorted_edges@@YAXPEAUstbtt__bitmap@@PEAUstbtt__edge@@HHHHPEAX@Z+34
	DD	imagerel $chain$0$?stbtt__rasterize_sorted_edges@@YAXPEAUstbtt__bitmap@@PEAUstbtt__edge@@HHHHPEAX@Z
pdata	ENDS
;	COMDAT pdata
pdata	SEGMENT
$pdata$8$?stbtt__rasterize_sorted_edges@@YAXPEAUstbtt__bitmap@@PEAUstbtt__edge@@HHHHPEAX@Z DD imagerel ?stbtt__rasterize_sorted_edges@@YAXPEAUstbtt__bitmap@@PEAUstbtt__edge@@HHHHPEAX@Z+34
	DD	imagerel ?stbtt__rasterize_sorted_edges@@YAXPEAUstbtt__bitmap@@PEAUstbtt__edge@@HHHHPEAX@Z+210
	DD	imagerel $chain$8$?stbtt__rasterize_sorted_edges@@YAXPEAUstbtt__bitmap@@PEAUstbtt__edge@@HHHHPEAX@Z
pdata	ENDS
;	COMDAT pdata
pdata	SEGMENT
$pdata$15$?stbtt__rasterize_sorted_edges@@YAXPEAUstbtt__bitmap@@PEAUstbtt__edge@@HHHHPEAX@Z DD imagerel ?stbtt__rasterize_sorted_edges@@YAXPEAUstbtt__bitmap@@PEAUstbtt__edge@@HHHHPEAX@Z+210
	DD	imagerel ?stbtt__rasterize_sorted_edges@@YAXPEAUstbtt__bitmap@@PEAUstbtt__edge@@HHHHPEAX@Z+1119
	DD	imagerel $chain$15$?stbtt__rasterize_sorted_edges@@YAXPEAUstbtt__bitmap@@PEAUstbtt__edge@@HHHHPEAX@Z
pdata	ENDS
;	COMDAT pdata
pdata	SEGMENT
$pdata$16$?stbtt__rasterize_sorted_edges@@YAXPEAUstbtt__bitmap@@PEAUstbtt__edge@@HHHHPEAX@Z DD imagerel ?stbtt__rasterize_sorted_edges@@YAXPEAUstbtt__bitmap@@PEAUstbtt__edge@@HHHHPEAX@Z+1119
	DD	imagerel ?stbtt__rasterize_sorted_edges@@YAXPEAUstbtt__bitmap@@PEAUstbtt__edge@@HHHHPEAX@Z+1184
	DD	imagerel $chain$16$?stbtt__rasterize_sorted_edges@@YAXPEAUstbtt__bitmap@@PEAUstbtt__edge@@HHHHPEAX@Z
pdata	ENDS
;	COMDAT pdata
pdata	SEGMENT
$pdata$17$?stbtt__rasterize_sorted_edges@@YAXPEAUstbtt__bitmap@@PEAUstbtt__edge@@HHHHPEAX@Z DD imagerel ?stbtt__rasterize_sorted_edges@@YAXPEAUstbtt__bitmap@@PEAUstbtt__edge@@HHHHPEAX@Z+1184
	DD	imagerel ?stbtt__rasterize_sorted_edges@@YAXPEAUstbtt__bitmap@@PEAUstbtt__edge@@HHHHPEAX@Z+1234
	DD	imagerel $chain$17$?stbtt__rasterize_sorted_edges@@YAXPEAUstbtt__bitmap@@PEAUstbtt__edge@@HHHHPEAX@Z
pdata	ENDS
;	COMDAT pdata
pdata	SEGMENT
$pdata$18$?stbtt__rasterize_sorted_edges@@YAXPEAUstbtt__bitmap@@PEAUstbtt__edge@@HHHHPEAX@Z DD imagerel ?stbtt__rasterize_sorted_edges@@YAXPEAUstbtt__bitmap@@PEAUstbtt__edge@@HHHHPEAX@Z+1234
	DD	imagerel ?stbtt__rasterize_sorted_edges@@YAXPEAUstbtt__bitmap@@PEAUstbtt__edge@@HHHHPEAX@Z+1263
	DD	imagerel $chain$18$?stbtt__rasterize_sorted_edges@@YAXPEAUstbtt__bitmap@@PEAUstbtt__edge@@HHHHPEAX@Z
pdata	ENDS
;	COMDAT pdata
pdata	SEGMENT
$pdata$?stbtt__sort_edges_ins_sort@@YAXPEAUstbtt__edge@@H@Z DD imagerel ?stbtt__sort_edges_ins_sort@@YAXPEAUstbtt__edge@@H@Z
	DD	imagerel ?stbtt__sort_edges_ins_sort@@YAXPEAUstbtt__edge@@H@Z+31
	DD	imagerel $unwind$?stbtt__sort_edges_ins_sort@@YAXPEAUstbtt__edge@@H@Z
pdata	ENDS
;	COMDAT pdata
pdata	SEGMENT
$pdata$0$?stbtt__sort_edges_ins_sort@@YAXPEAUstbtt__edge@@H@Z DD imagerel ?stbtt__sort_edges_ins_sort@@YAXPEAUstbtt__edge@@H@Z+31
	DD	imagerel ?stbtt__sort_edges_ins_sort@@YAXPEAUstbtt__edge@@H@Z+192
	DD	imagerel $chain$0$?stbtt__sort_edges_ins_sort@@YAXPEAUstbtt__edge@@H@Z
pdata	ENDS
;	COMDAT pdata
pdata	SEGMENT
$pdata$1$?stbtt__sort_edges_ins_sort@@YAXPEAUstbtt__edge@@H@Z DD imagerel ?stbtt__sort_edges_ins_sort@@YAXPEAUstbtt__edge@@H@Z+192
	DD	imagerel ?stbtt__sort_edges_ins_sort@@YAXPEAUstbtt__edge@@H@Z+193
	DD	imagerel $chain$1$?stbtt__sort_edges_ins_sort@@YAXPEAUstbtt__edge@@H@Z
pdata	ENDS
;	COMDAT pdata
pdata	SEGMENT
$pdata$?stbtt__sort_edges_quicksort@@YAXPEAUstbtt__edge@@H@Z DD imagerel ?stbtt__sort_edges_quicksort@@YAXPEAUstbtt__edge@@H@Z
	DD	imagerel ?stbtt__sort_edges_quicksort@@YAXPEAUstbtt__edge@@H@Z+15
	DD	imagerel $unwind$?stbtt__sort_edges_quicksort@@YAXPEAUstbtt__edge@@H@Z
pdata	ENDS
;	COMDAT pdata
pdata	SEGMENT
$pdata$3$?stbtt__sort_edges_quicksort@@YAXPEAUstbtt__edge@@H@Z DD imagerel ?stbtt__sort_edges_quicksort@@YAXPEAUstbtt__edge@@H@Z+15
	DD	imagerel ?stbtt__sort_edges_quicksort@@YAXPEAUstbtt__edge@@H@Z+465
	DD	imagerel $chain$3$?stbtt__sort_edges_quicksort@@YAXPEAUstbtt__edge@@H@Z
pdata	ENDS
;	COMDAT pdata
pdata	SEGMENT
$pdata$4$?stbtt__sort_edges_quicksort@@YAXPEAUstbtt__edge@@H@Z DD imagerel ?stbtt__sort_edges_quicksort@@YAXPEAUstbtt__edge@@H@Z+465
	DD	imagerel ?stbtt__sort_edges_quicksort@@YAXPEAUstbtt__edge@@H@Z+466
	DD	imagerel $chain$4$?stbtt__sort_edges_quicksort@@YAXPEAUstbtt__edge@@H@Z
pdata	ENDS
;	COMDAT pdata
pdata	SEGMENT
$pdata$?stbtt__sort_edges@@YAXPEAUstbtt__edge@@H@Z DD imagerel ?stbtt__sort_edges@@YAXPEAUstbtt__edge@@H@Z
	DD	imagerel ?stbtt__sort_edges@@YAXPEAUstbtt__edge@@H@Z+192
	DD	imagerel $unwind$?stbtt__sort_edges@@YAXPEAUstbtt__edge@@H@Z
pdata	ENDS
;	COMDAT pdata
pdata	SEGMENT
$pdata$?stbtt__rasterize@@YAXPEAUstbtt__bitmap@@PEAUstbtt__point@@PEAHHMMMMHHHPEAX@Z DD imagerel ?stbtt__rasterize@@YAXPEAUstbtt__bitmap@@PEAUstbtt__point@@PEAHHMMMMHHHPEAX@Z
	DD	imagerel ?stbtt__rasterize@@YAXPEAUstbtt__bitmap@@PEAUstbtt__point@@PEAHHMMMMHHHPEAX@Z+304
	DD	imagerel $unwind$?stbtt__rasterize@@YAXPEAUstbtt__bitmap@@PEAUstbtt__point@@PEAHHMMMMHHHPEAX@Z
pdata	ENDS
;	COMDAT pdata
pdata	SEGMENT
$pdata$0$?stbtt__rasterize@@YAXPEAUstbtt__bitmap@@PEAUstbtt__point@@PEAHHMMMMHHHPEAX@Z DD imagerel ?stbtt__rasterize@@YAXPEAUstbtt__bitmap@@PEAUstbtt__point@@PEAHHMMMMHHHPEAX@Z+304
	DD	imagerel ?stbtt__rasterize@@YAXPEAUstbtt__bitmap@@PEAUstbtt__point@@PEAHHMMMMHHHPEAX@Z+315
	DD	imagerel $chain$0$?stbtt__rasterize@@YAXPEAUstbtt__bitmap@@PEAUstbtt__point@@PEAHHMMMMHHHPEAX@Z
pdata	ENDS
;	COMDAT pdata
pdata	SEGMENT
$pdata$1$?stbtt__rasterize@@YAXPEAUstbtt__bitmap@@PEAUstbtt__point@@PEAHHMMMMHHHPEAX@Z DD imagerel ?stbtt__rasterize@@YAXPEAUstbtt__bitmap@@PEAUstbtt__point@@PEAHHMMMMHHHPEAX@Z+315
	DD	imagerel ?stbtt__rasterize@@YAXPEAUstbtt__bitmap@@PEAUstbtt__point@@PEAHHMMMMHHHPEAX@Z+368
	DD	imagerel $chain$1$?stbtt__rasterize@@YAXPEAUstbtt__bitmap@@PEAUstbtt__point@@PEAHHMMMMHHHPEAX@Z
pdata	ENDS
;	COMDAT pdata
pdata	SEGMENT
$pdata$2$?stbtt__rasterize@@YAXPEAUstbtt__bitmap@@PEAUstbtt__point@@PEAHHMMMMHHHPEAX@Z DD imagerel ?stbtt__rasterize@@YAXPEAUstbtt__bitmap@@PEAUstbtt__point@@PEAHHMMMMHHHPEAX@Z+368
	DD	imagerel ?stbtt__rasterize@@YAXPEAUstbtt__bitmap@@PEAUstbtt__point@@PEAHHMMMMHHHPEAX@Z+666
	DD	imagerel $chain$2$?stbtt__rasterize@@YAXPEAUstbtt__bitmap@@PEAUstbtt__point@@PEAHHMMMMHHHPEAX@Z
pdata	ENDS
;	COMDAT pdata
pdata	SEGMENT
$pdata$3$?stbtt__rasterize@@YAXPEAUstbtt__bitmap@@PEAUstbtt__point@@PEAHHMMMMHHHPEAX@Z DD imagerel ?stbtt__rasterize@@YAXPEAUstbtt__bitmap@@PEAUstbtt__point@@PEAHHMMMMHHHPEAX@Z+666
	DD	imagerel ?stbtt__rasterize@@YAXPEAUstbtt__bitmap@@PEAUstbtt__point@@PEAHHMMMMHHHPEAX@Z+694
	DD	imagerel $chain$3$?stbtt__rasterize@@YAXPEAUstbtt__bitmap@@PEAUstbtt__point@@PEAHHMMMMHHHPEAX@Z
pdata	ENDS
;	COMDAT pdata
pdata	SEGMENT
$pdata$4$?stbtt__rasterize@@YAXPEAUstbtt__bitmap@@PEAUstbtt__point@@PEAHHMMMMHHHPEAX@Z DD imagerel ?stbtt__rasterize@@YAXPEAUstbtt__bitmap@@PEAUstbtt__point@@PEAHHMMMMHHHPEAX@Z+694
	DD	imagerel ?stbtt__rasterize@@YAXPEAUstbtt__bitmap@@PEAUstbtt__point@@PEAHHMMMMHHHPEAX@Z+880
	DD	imagerel $chain$4$?stbtt__rasterize@@YAXPEAUstbtt__bitmap@@PEAUstbtt__point@@PEAHHMMMMHHHPEAX@Z
pdata	ENDS
;	COMDAT pdata
pdata	SEGMENT
$pdata$5$?stbtt__rasterize@@YAXPEAUstbtt__bitmap@@PEAUstbtt__point@@PEAHHMMMMHHHPEAX@Z DD imagerel ?stbtt__rasterize@@YAXPEAUstbtt__bitmap@@PEAUstbtt__point@@PEAHHMMMMHHHPEAX@Z+880
	DD	imagerel ?stbtt__rasterize@@YAXPEAUstbtt__bitmap@@PEAUstbtt__point@@PEAHHMMMMHHHPEAX@Z+912
	DD	imagerel $chain$5$?stbtt__rasterize@@YAXPEAUstbtt__bitmap@@PEAUstbtt__point@@PEAHHMMMMHHHPEAX@Z
pdata	ENDS
;	COMDAT pdata
pdata	SEGMENT
$pdata$?stbtt__tesselate_curve@@YAHPEAUstbtt__point@@PEAHMMMMMMMH@Z DD imagerel ?stbtt__tesselate_curve@@YAHPEAUstbtt__point@@PEAHMMMMMMMH@Z
	DD	imagerel ?stbtt__tesselate_curve@@YAHPEAUstbtt__point@@PEAHMMMMMMMH@Z+220
	DD	imagerel $unwind$?stbtt__tesselate_curve@@YAHPEAUstbtt__point@@PEAHMMMMMMMH@Z
pdata	ENDS
;	COMDAT pdata
pdata	SEGMENT
$pdata$0$?stbtt__tesselate_curve@@YAHPEAUstbtt__point@@PEAHMMMMMMMH@Z DD imagerel ?stbtt__tesselate_curve@@YAHPEAUstbtt__point@@PEAHMMMMMMMH@Z+220
	DD	imagerel ?stbtt__tesselate_curve@@YAHPEAUstbtt__point@@PEAHMMMMMMMH@Z+431
	DD	imagerel $chain$0$?stbtt__tesselate_curve@@YAHPEAUstbtt__point@@PEAHMMMMMMMH@Z
pdata	ENDS
;	COMDAT pdata
pdata	SEGMENT
$pdata$1$?stbtt__tesselate_curve@@YAHPEAUstbtt__point@@PEAHMMMMMMMH@Z DD imagerel ?stbtt__tesselate_curve@@YAHPEAUstbtt__point@@PEAHMMMMMMMH@Z+431
	DD	imagerel ?stbtt__tesselate_curve@@YAHPEAUstbtt__point@@PEAHMMMMMMMH@Z+492
	DD	imagerel $chain$1$?stbtt__tesselate_curve@@YAHPEAUstbtt__point@@PEAHMMMMMMMH@Z
pdata	ENDS
;	COMDAT pdata
pdata	SEGMENT
$pdata$?stbtt__tesselate_cubic@@YAXPEAUstbtt__point@@PEAHMMMMMMMMMH@Z DD imagerel ?stbtt__tesselate_cubic@@YAXPEAUstbtt__point@@PEAHMMMMMMMMMH@Z
	DD	imagerel ?stbtt__tesselate_cubic@@YAXPEAUstbtt__point@@PEAHMMMMMMMMMH@Z+346
	DD	imagerel $unwind$?stbtt__tesselate_cubic@@YAXPEAUstbtt__point@@PEAHMMMMMMMMMH@Z
pdata	ENDS
;	COMDAT pdata
pdata	SEGMENT
$pdata$0$?stbtt__tesselate_cubic@@YAXPEAUstbtt__point@@PEAHMMMMMMMMMH@Z DD imagerel ?stbtt__tesselate_cubic@@YAXPEAUstbtt__point@@PEAHMMMMMMMMMH@Z+346
	DD	imagerel ?stbtt__tesselate_cubic@@YAXPEAUstbtt__point@@PEAHMMMMMMMMMH@Z+958
	DD	imagerel $chain$0$?stbtt__tesselate_cubic@@YAXPEAUstbtt__point@@PEAHMMMMMMMMMH@Z
pdata	ENDS
;	COMDAT pdata
pdata	SEGMENT
$pdata$1$?stbtt__tesselate_cubic@@YAXPEAUstbtt__point@@PEAHMMMMMMMMMH@Z DD imagerel ?stbtt__tesselate_cubic@@YAXPEAUstbtt__point@@PEAHMMMMMMMMMH@Z+958
	DD	imagerel ?stbtt__tesselate_cubic@@YAXPEAUstbtt__point@@PEAHMMMMMMMMMH@Z+1026
	DD	imagerel $chain$1$?stbtt__tesselate_cubic@@YAXPEAUstbtt__point@@PEAHMMMMMMMMMH@Z
pdata	ENDS
;	COMDAT pdata
pdata	SEGMENT
$pdata$?stbtt_FlattenCurves@@YAPEAUstbtt__point@@PEAUstbtt_vertex@@HMPEAPEAHPEAHPEAX@Z DD imagerel ?stbtt_FlattenCurves@@YAPEAUstbtt__point@@PEAUstbtt_vertex@@HMPEAPEAHPEAHPEAX@Z
	DD	imagerel ?stbtt_FlattenCurves@@YAPEAUstbtt__point@@PEAUstbtt_vertex@@HMPEAPEAHPEAHPEAX@Z+150
	DD	imagerel $unwind$?stbtt_FlattenCurves@@YAPEAUstbtt__point@@PEAUstbtt_vertex@@HMPEAPEAHPEAHPEAX@Z
pdata	ENDS
;	COMDAT pdata
pdata	SEGMENT
$pdata$4$?stbtt_FlattenCurves@@YAPEAUstbtt__point@@PEAUstbtt_vertex@@HMPEAPEAHPEAHPEAX@Z DD imagerel ?stbtt_FlattenCurves@@YAPEAUstbtt__point@@PEAUstbtt_vertex@@HMPEAPEAHPEAHPEAX@Z+150
	DD	imagerel ?stbtt_FlattenCurves@@YAPEAUstbtt__point@@PEAUstbtt_vertex@@HMPEAPEAHPEAHPEAX@Z+846
	DD	imagerel $chain$4$?stbtt_FlattenCurves@@YAPEAUstbtt__point@@PEAUstbtt_vertex@@HMPEAPEAHPEAHPEAX@Z
pdata	ENDS
;	COMDAT pdata
pdata	SEGMENT
$pdata$5$?stbtt_FlattenCurves@@YAPEAUstbtt__point@@PEAUstbtt_vertex@@HMPEAPEAHPEAHPEAX@Z DD imagerel ?stbtt_FlattenCurves@@YAPEAUstbtt__point@@PEAUstbtt_vertex@@HMPEAPEAHPEAHPEAX@Z+846
	DD	imagerel ?stbtt_FlattenCurves@@YAPEAUstbtt__point@@PEAUstbtt_vertex@@HMPEAPEAHPEAHPEAX@Z+870
	DD	imagerel $chain$5$?stbtt_FlattenCurves@@YAPEAUstbtt__point@@PEAUstbtt_vertex@@HMPEAPEAHPEAHPEAX@Z
pdata	ENDS
;	COMDAT pdata
pdata	SEGMENT
$pdata$6$?stbtt_FlattenCurves@@YAPEAUstbtt__point@@PEAUstbtt_vertex@@HMPEAPEAHPEAHPEAX@Z DD imagerel ?stbtt_FlattenCurves@@YAPEAUstbtt__point@@PEAUstbtt_vertex@@HMPEAPEAHPEAHPEAX@Z+870
	DD	imagerel ?stbtt_FlattenCurves@@YAPEAUstbtt__point@@PEAUstbtt_vertex@@HMPEAPEAHPEAHPEAX@Z+906
	DD	imagerel $chain$6$?stbtt_FlattenCurves@@YAPEAUstbtt__point@@PEAUstbtt_vertex@@HMPEAPEAHPEAHPEAX@Z
pdata	ENDS
;	COMDAT pdata
pdata	SEGMENT
$pdata$?stbtt__h_prefilter@@YAXPEAEHHHI@Z DD imagerel ?stbtt__h_prefilter@@YAXPEAEHHHI@Z
	DD	imagerel ?stbtt__h_prefilter@@YAXPEAEHHHI@Z+71
	DD	imagerel $unwind$?stbtt__h_prefilter@@YAXPEAEHHHI@Z
pdata	ENDS
;	COMDAT pdata
pdata	SEGMENT
$pdata$3$?stbtt__h_prefilter@@YAXPEAEHHHI@Z DD imagerel ?stbtt__h_prefilter@@YAXPEAEHHHI@Z+71
	DD	imagerel ?stbtt__h_prefilter@@YAXPEAEHHHI@Z+691
	DD	imagerel $chain$3$?stbtt__h_prefilter@@YAXPEAEHHHI@Z
pdata	ENDS
;	COMDAT pdata
pdata	SEGMENT
$pdata$4$?stbtt__h_prefilter@@YAXPEAEHHHI@Z DD imagerel ?stbtt__h_prefilter@@YAXPEAEHHHI@Z+691
	DD	imagerel ?stbtt__h_prefilter@@YAXPEAEHHHI@Z+716
	DD	imagerel $chain$4$?stbtt__h_prefilter@@YAXPEAEHHHI@Z
pdata	ENDS
;	COMDAT pdata
pdata	SEGMENT
$pdata$?stbtt__v_prefilter@@YAXPEAEHHHI@Z DD imagerel ?stbtt__v_prefilter@@YAXPEAEHHHI@Z
	DD	imagerel ?stbtt__v_prefilter@@YAXPEAEHHHI@Z+76
	DD	imagerel $unwind$?stbtt__v_prefilter@@YAXPEAEHHHI@Z
pdata	ENDS
;	COMDAT pdata
pdata	SEGMENT
$pdata$2$?stbtt__v_prefilter@@YAXPEAEHHHI@Z DD imagerel ?stbtt__v_prefilter@@YAXPEAEHHHI@Z+76
	DD	imagerel ?stbtt__v_prefilter@@YAXPEAEHHHI@Z+696
	DD	imagerel $chain$2$?stbtt__v_prefilter@@YAXPEAEHHHI@Z
pdata	ENDS
;	COMDAT pdata
pdata	SEGMENT
$pdata$3$?stbtt__v_prefilter@@YAXPEAEHHHI@Z DD imagerel ?stbtt__v_prefilter@@YAXPEAEHHHI@Z+696
	DD	imagerel ?stbtt__v_prefilter@@YAXPEAEHHHI@Z+722
	DD	imagerel $chain$3$?stbtt__v_prefilter@@YAXPEAEHHHI@Z
pdata	ENDS
;	COMDAT pdata
pdata	SEGMENT
$pdata$?PathBezierToCasteljau@@YAXPEAU?$ImVector@UImVec2@@@@MMMMMMMMMH@Z DD imagerel ?PathBezierToCasteljau@@YAXPEAU?$ImVector@UImVec2@@@@MMMMMMMMMH@Z
	DD	imagerel ?PathBezierToCasteljau@@YAXPEAU?$ImVector@UImVec2@@@@MMMMMMMMMH@Z+825
	DD	imagerel $unwind$?PathBezierToCasteljau@@YAXPEAU?$ImVector@UImVec2@@@@MMMMMMMMMH@Z
pdata	ENDS
;	COMDAT pdata
pdata	SEGMENT
$pdata$??$IM_DELETE@UImFont@@@@YAXPEAUImFont@@@Z DD imagerel $LN25
	DD	imagerel $LN25+78
	DD	imagerel $unwind$??$IM_DELETE@UImFont@@@@YAXPEAUImFont@@@Z
pdata	ENDS
;	COMDAT pdata
pdata	SEGMENT
$pdata$?stb_decompress@@YAIPEAEPEBEI@Z DD imagerel ?stb_decompress@@YAIPEAEPEBEI@Z
	DD	imagerel ?stb_decompress@@YAIPEAEPEBEI@Z+752
	DD	imagerel $unwind$?stb_decompress@@YAIPEAEPEBEI@Z
pdata	ENDS
;	COMDAT pdata
pdata	SEGMENT
$pdata$?Decode85@@YAXPEBEPEAE@Z DD imagerel ?Decode85@@YAXPEBEPEAE@Z
	DD	imagerel ?Decode85@@YAXPEBEPEAE@Z+198
	DD	imagerel $unwind$?Decode85@@YAXPEBEPEAE@Z
pdata	ENDS
;	COMDAT pdata
pdata	SEGMENT
$pdata$??1ImFontBuildSrcData@@QEAA@XZ DD imagerel $LN17
	DD	imagerel $LN17+51
	DD	imagerel $unwind$??1ImFontBuildSrcData@@QEAA@XZ
pdata	ENDS
;	COMDAT pdata
pdata	SEGMENT
$pdata$??_GImFontBuildSrcData@@QEAAPEAXI@Z DD imagerel $LN21
	DD	imagerel $LN21+85
	DD	imagerel $unwind$??_GImFontBuildSrcData@@QEAAPEAXI@Z
pdata	ENDS
;	COMDAT pdata
pdata	SEGMENT
$pdata$?UnpackBitVectorToFlatIndexList@@YAXPEBUImBitVector@@PEAU?$ImVector@H@@@Z DD imagerel ?UnpackBitVectorToFlatIndexList@@YAXPEBUImBitVector@@PEAU?$ImVector@H@@@Z
	DD	imagerel ?UnpackBitVectorToFlatIndexList@@YAXPEBUImBitVector@@PEAU?$ImVector@H@@@Z+44
	DD	imagerel $unwind$?UnpackBitVectorToFlatIndexList@@YAXPEBUImBitVector@@PEAU?$ImVector@H@@@Z
pdata	ENDS
;	COMDAT pdata
pdata	SEGMENT
$pdata$5$?UnpackBitVectorToFlatIndexList@@YAXPEBUImBitVector@@PEAU?$ImVector@H@@@Z DD imagerel ?UnpackBitVectorToFlatIndexList@@YAXPEBUImBitVector@@PEAU?$ImVector@H@@@Z+44
	DD	imagerel ?UnpackBitVectorToFlatIndexList@@YAXPEBUImBitVector@@PEAU?$ImVector@H@@@Z+317
	DD	imagerel $chain$5$?UnpackBitVectorToFlatIndexList@@YAXPEBUImBitVector@@PEAU?$ImVector@H@@@Z
pdata	ENDS
;	COMDAT pdata
pdata	SEGMENT
$pdata$6$?UnpackBitVectorToFlatIndexList@@YAXPEBUImBitVector@@PEAU?$ImVector@H@@@Z DD imagerel ?UnpackBitVectorToFlatIndexList@@YAXPEBUImBitVector@@PEAU?$ImVector@H@@@Z+317
	DD	imagerel ?UnpackBitVectorToFlatIndexList@@YAXPEBUImBitVector@@PEAU?$ImVector@H@@@Z+325
	DD	imagerel $chain$6$?UnpackBitVectorToFlatIndexList@@YAXPEBUImBitVector@@PEAU?$ImVector@H@@@Z
pdata	ENDS
;	COMDAT pdata
pdata	SEGMENT
$pdata$??1?$ImVector@UImFontBuildSrcData@@@@QEAA@XZ DD imagerel $LN6
	DD	imagerel $LN6+24
	DD	imagerel $unwind$??1?$ImVector@UImFontBuildSrcData@@@@QEAA@XZ
pdata	ENDS
;	COMDAT pdata
pdata	SEGMENT
$pdata$??A?$ImVector@UImFontBuildSrcData@@@@QEAAAEAUImFontBuildSrcData@@H@Z DD imagerel $LN5
	DD	imagerel $LN5+68
	DD	imagerel $unwind$??A?$ImVector@UImFontBuildSrcData@@@@QEAAAEAUImFontBuildSrcData@@H@Z
pdata	ENDS
;	COMDAT pdata
pdata	SEGMENT
$pdata$?resize@?$ImVector@UImFontBuildSrcData@@@@QEAAXH@Z DD imagerel $LN16
	DD	imagerel $LN16+26
	DD	imagerel $unwind$?resize@?$ImVector@UImFontBuildSrcData@@@@QEAAXH@Z
pdata	ENDS
;	COMDAT pdata
pdata	SEGMENT
$pdata$1$?resize@?$ImVector@UImFontBuildSrcData@@@@QEAAXH@Z DD imagerel $LN16+26
	DD	imagerel $LN16+151
	DD	imagerel $chain$1$?resize@?$ImVector@UImFontBuildSrcData@@@@QEAAXH@Z
pdata	ENDS
;	COMDAT pdata
pdata	SEGMENT
$pdata$3$?resize@?$ImVector@UImFontBuildSrcData@@@@QEAAXH@Z DD imagerel $LN16+151
	DD	imagerel $LN16+169
	DD	imagerel $chain$3$?resize@?$ImVector@UImFontBuildSrcData@@@@QEAAXH@Z
pdata	ENDS
;	COMDAT pdata
pdata	SEGMENT
$pdata$4$?resize@?$ImVector@UImFontBuildSrcData@@@@QEAAXH@Z DD imagerel $LN16+169
	DD	imagerel $LN16+182
	DD	imagerel $chain$4$?resize@?$ImVector@UImFontBuildSrcData@@@@QEAAXH@Z
pdata	ENDS
;	COMDAT pdata
pdata	SEGMENT
$pdata$?reserve@?$ImVector@UImFontBuildSrcData@@@@QEAAXH@Z DD imagerel $LN6
	DD	imagerel $LN6+28
	DD	imagerel $unwind$?reserve@?$ImVector@UImFontBuildSrcData@@@@QEAAXH@Z
pdata	ENDS
;	COMDAT pdata
pdata	SEGMENT
$pdata$0$?reserve@?$ImVector@UImFontBuildSrcData@@@@QEAAXH@Z DD imagerel $LN6+28
	DD	imagerel $LN6+89
	DD	imagerel $chain$0$?reserve@?$ImVector@UImFontBuildSrcData@@@@QEAAXH@Z
pdata	ENDS
;	COMDAT pdata
pdata	SEGMENT
$pdata$1$?reserve@?$ImVector@UImFontBuildSrcData@@@@QEAAXH@Z DD imagerel $LN6+89
	DD	imagerel $LN6+100
	DD	imagerel $chain$1$?reserve@?$ImVector@UImFontBuildSrcData@@@@QEAAXH@Z
pdata	ENDS
;	COMDAT pdata
pdata	SEGMENT
$pdata$??1?$ImVector@UImFontBuildDstData@@@@QEAA@XZ DD imagerel $LN6
	DD	imagerel $LN6+24
	DD	imagerel $unwind$??1?$ImVector@UImFontBuildDstData@@@@QEAA@XZ
pdata	ENDS
;	COMDAT pdata
pdata	SEGMENT
$pdata$??A?$ImVector@UImFontBuildDstData@@@@QEAAAEAUImFontBuildDstData@@H@Z DD imagerel $LN5
	DD	imagerel $LN5+68
	DD	imagerel $unwind$??A?$ImVector@UImFontBuildDstData@@@@QEAAAEAUImFontBuildDstData@@H@Z
pdata	ENDS
;	COMDAT pdata
pdata	SEGMENT
$pdata$?clear@?$ImVector@UImFontBuildDstData@@@@QEAAXXZ DD imagerel $LN5
	DD	imagerel $LN5+44
	DD	imagerel $unwind$?clear@?$ImVector@UImFontBuildDstData@@@@QEAAXXZ
pdata	ENDS
;	COMDAT pdata
pdata	SEGMENT
$pdata$?resize@?$ImVector@UImFontBuildDstData@@@@QEAAXH@Z DD imagerel $LN16
	DD	imagerel $LN16+26
	DD	imagerel $unwind$?resize@?$ImVector@UImFontBuildDstData@@@@QEAAXH@Z
pdata	ENDS
;	COMDAT pdata
pdata	SEGMENT
$pdata$1$?resize@?$ImVector@UImFontBuildDstData@@@@QEAAXH@Z DD imagerel $LN16+26
	DD	imagerel $LN16+145
	DD	imagerel $chain$1$?resize@?$ImVector@UImFontBuildDstData@@@@QEAAXH@Z
pdata	ENDS
;	COMDAT pdata
pdata	SEGMENT
$pdata$3$?resize@?$ImVector@UImFontBuildDstData@@@@QEAAXH@Z DD imagerel $LN16+145
	DD	imagerel $LN16+163
	DD	imagerel $chain$3$?resize@?$ImVector@UImFontBuildDstData@@@@QEAAXH@Z
pdata	ENDS
;	COMDAT pdata
pdata	SEGMENT
$pdata$4$?resize@?$ImVector@UImFontBuildDstData@@@@QEAAXH@Z DD imagerel $LN16+163
	DD	imagerel $LN16+176
	DD	imagerel $chain$4$?resize@?$ImVector@UImFontBuildDstData@@@@QEAAXH@Z
pdata	ENDS
;	COMDAT pdata
pdata	SEGMENT
$pdata$?reserve@?$ImVector@UImFontBuildDstData@@@@QEAAXH@Z DD imagerel $LN6
	DD	imagerel $LN6+24
	DD	imagerel $unwind$?reserve@?$ImVector@UImFontBuildDstData@@@@QEAAXH@Z
pdata	ENDS
;	COMDAT pdata
pdata	SEGMENT
$pdata$0$?reserve@?$ImVector@UImFontBuildDstData@@@@QEAAXH@Z DD imagerel $LN6+24
	DD	imagerel $LN6+86
	DD	imagerel $chain$0$?reserve@?$ImVector@UImFontBuildDstData@@@@QEAAXH@Z
pdata	ENDS
;	COMDAT pdata
pdata	SEGMENT
$pdata$1$?reserve@?$ImVector@UImFontBuildDstData@@@@QEAAXH@Z DD imagerel $LN6+86
	DD	imagerel $LN6+97
	DD	imagerel $chain$1$?reserve@?$ImVector@UImFontBuildDstData@@@@QEAAXH@Z
pdata	ENDS
;	COMDAT pdata
pdata	SEGMENT
$pdata$??1?$ImVector@Ustbrp_rect@@@@QEAA@XZ DD imagerel $LN6
	DD	imagerel $LN6+24
	DD	imagerel $unwind$??1?$ImVector@Ustbrp_rect@@@@QEAA@XZ
pdata	ENDS
;	COMDAT pdata
pdata	SEGMENT
$pdata$??A?$ImVector@Ustbrp_rect@@@@QEAAAEAUstbrp_rect@@H@Z DD imagerel $LN5
	DD	imagerel $LN5+68
	DD	imagerel $unwind$??A?$ImVector@Ustbrp_rect@@@@QEAAAEAUstbrp_rect@@H@Z
pdata	ENDS
;	COMDAT pdata
pdata	SEGMENT
$pdata$?clear@?$ImVector@Ustbrp_rect@@@@QEAAXXZ DD imagerel $LN5
	DD	imagerel $LN5+44
	DD	imagerel $unwind$?clear@?$ImVector@Ustbrp_rect@@@@QEAAXXZ
pdata	ENDS
;	COMDAT pdata
pdata	SEGMENT
$pdata$?resize@?$ImVector@Ustbrp_rect@@@@QEAAXH@Z DD imagerel $LN16
	DD	imagerel $LN16+26
	DD	imagerel $unwind$?resize@?$ImVector@Ustbrp_rect@@@@QEAAXH@Z
pdata	ENDS
;	COMDAT pdata
pdata	SEGMENT
$pdata$1$?resize@?$ImVector@Ustbrp_rect@@@@QEAAXH@Z DD imagerel $LN16+26
	DD	imagerel $LN16+145
	DD	imagerel $chain$1$?resize@?$ImVector@Ustbrp_rect@@@@QEAAXH@Z
pdata	ENDS
;	COMDAT pdata
pdata	SEGMENT
$pdata$3$?resize@?$ImVector@Ustbrp_rect@@@@QEAAXH@Z DD imagerel $LN16+145
	DD	imagerel $LN16+163
	DD	imagerel $chain$3$?resize@?$ImVector@Ustbrp_rect@@@@QEAAXH@Z
pdata	ENDS
;	COMDAT pdata
pdata	SEGMENT
$pdata$4$?resize@?$ImVector@Ustbrp_rect@@@@QEAAXH@Z DD imagerel $LN16+163
	DD	imagerel $LN16+176
	DD	imagerel $chain$4$?resize@?$ImVector@Ustbrp_rect@@@@QEAAXH@Z
pdata	ENDS
;	COMDAT pdata
pdata	SEGMENT
$pdata$?reserve@?$ImVector@Ustbrp_rect@@@@QEAAXH@Z DD imagerel $LN6
	DD	imagerel $LN6+24
	DD	imagerel $unwind$?reserve@?$ImVector@Ustbrp_rect@@@@QEAAXH@Z
pdata	ENDS
;	COMDAT pdata
pdata	SEGMENT
$pdata$0$?reserve@?$ImVector@Ustbrp_rect@@@@QEAAXH@Z DD imagerel $LN6+24
	DD	imagerel $LN6+86
	DD	imagerel $chain$0$?reserve@?$ImVector@Ustbrp_rect@@@@QEAAXH@Z
pdata	ENDS
;	COMDAT pdata
pdata	SEGMENT
$pdata$1$?reserve@?$ImVector@Ustbrp_rect@@@@QEAAXH@Z DD imagerel $LN6+86
	DD	imagerel $LN6+97
	DD	imagerel $chain$1$?reserve@?$ImVector@Ustbrp_rect@@@@QEAAXH@Z
pdata	ENDS
;	COMDAT pdata
pdata	SEGMENT
$pdata$??1?$ImVector@Ustbtt_packedchar@@@@QEAA@XZ DD imagerel $LN6
	DD	imagerel $LN6+24
	DD	imagerel $unwind$??1?$ImVector@Ustbtt_packedchar@@@@QEAA@XZ
pdata	ENDS
;	COMDAT pdata
pdata	SEGMENT
$pdata$??A?$ImVector@Ustbtt_packedchar@@@@QEAAAEAUstbtt_packedchar@@H@Z DD imagerel $LN5
	DD	imagerel $LN5+65
	DD	imagerel $unwind$??A?$ImVector@Ustbtt_packedchar@@@@QEAAAEAUstbtt_packedchar@@H@Z
pdata	ENDS
;	COMDAT pdata
pdata	SEGMENT
$pdata$?resize@?$ImVector@Ustbtt_packedchar@@@@QEAAXH@Z DD imagerel $LN16
	DD	imagerel $LN16+26
	DD	imagerel $unwind$?resize@?$ImVector@Ustbtt_packedchar@@@@QEAAXH@Z
pdata	ENDS
;	COMDAT pdata
pdata	SEGMENT
$pdata$1$?resize@?$ImVector@Ustbtt_packedchar@@@@QEAAXH@Z DD imagerel $LN16+26
	DD	imagerel $LN16+145
	DD	imagerel $chain$1$?resize@?$ImVector@Ustbtt_packedchar@@@@QEAAXH@Z
pdata	ENDS
;	COMDAT pdata
pdata	SEGMENT
$pdata$3$?resize@?$ImVector@Ustbtt_packedchar@@@@QEAAXH@Z DD imagerel $LN16+145
	DD	imagerel $LN16+163
	DD	imagerel $chain$3$?resize@?$ImVector@Ustbtt_packedchar@@@@QEAAXH@Z
pdata	ENDS
;	COMDAT pdata
pdata	SEGMENT
$pdata$4$?resize@?$ImVector@Ustbtt_packedchar@@@@QEAAXH@Z DD imagerel $LN16+163
	DD	imagerel $LN16+176
	DD	imagerel $chain$4$?resize@?$ImVector@Ustbtt_packedchar@@@@QEAAXH@Z
pdata	ENDS
;	COMDAT pdata
pdata	SEGMENT
$pdata$?reserve@?$ImVector@Ustbtt_packedchar@@@@QEAAXH@Z DD imagerel $LN6
	DD	imagerel $LN6+25
	DD	imagerel $unwind$?reserve@?$ImVector@Ustbtt_packedchar@@@@QEAAXH@Z
pdata	ENDS
;	COMDAT pdata
pdata	SEGMENT
$pdata$0$?reserve@?$ImVector@Ustbtt_packedchar@@@@QEAAXH@Z DD imagerel $LN6+25
	DD	imagerel $LN6+83
	DD	imagerel $chain$0$?reserve@?$ImVector@Ustbtt_packedchar@@@@QEAAXH@Z
pdata	ENDS
;	COMDAT pdata
pdata	SEGMENT
$pdata$1$?reserve@?$ImVector@Ustbtt_packedchar@@@@QEAAXH@Z DD imagerel $LN6+83
	DD	imagerel $LN6+94
	DD	imagerel $chain$1$?reserve@?$ImVector@Ustbtt_packedchar@@@@QEAAXH@Z
pdata	ENDS
;	COMDAT pdata
pdata	SEGMENT
$pdata$?ImFontAtlasBuildRenderDefaultTexData@@YAXPEAUImFontAtlas@@@Z DD imagerel ?ImFontAtlasBuildRenderDefaultTexData@@YAXPEAUImFontAtlas@@@Z
	DD	imagerel ?ImFontAtlasBuildRenderDefaultTexData@@YAXPEAUImFontAtlas@@@Z+186
	DD	imagerel $unwind$?ImFontAtlasBuildRenderDefaultTexData@@YAXPEAUImFontAtlas@@@Z
pdata	ENDS
;	COMDAT pdata
pdata	SEGMENT
$pdata$2$?ImFontAtlasBuildRenderDefaultTexData@@YAXPEAUImFontAtlas@@@Z DD imagerel ?ImFontAtlasBuildRenderDefaultTexData@@YAXPEAUImFontAtlas@@@Z+186
	DD	imagerel ?ImFontAtlasBuildRenderDefaultTexData@@YAXPEAUImFontAtlas@@@Z+1116
	DD	imagerel $chain$2$?ImFontAtlasBuildRenderDefaultTexData@@YAXPEAUImFontAtlas@@@Z
pdata	ENDS
;	COMDAT pdata
pdata	SEGMENT
$pdata$3$?ImFontAtlasBuildRenderDefaultTexData@@YAXPEAUImFontAtlas@@@Z DD imagerel ?ImFontAtlasBuildRenderDefaultTexData@@YAXPEAUImFontAtlas@@@Z+1116
	DD	imagerel ?ImFontAtlasBuildRenderDefaultTexData@@YAXPEAUImFontAtlas@@@Z+1289
	DD	imagerel $chain$3$?ImFontAtlasBuildRenderDefaultTexData@@YAXPEAUImFontAtlas@@@Z
pdata	ENDS
;	COMDAT pdata
pdata	SEGMENT
$pdata$?stb__match@@YAXPEBEI@Z DD imagerel ?stb__match@@YAXPEBEI@Z
	DD	imagerel ?stb__match@@YAXPEBEI@Z+181
	DD	imagerel $unwind$?stb__match@@YAXPEBEI@Z
pdata	ENDS
;	COMDAT pdata
pdata	SEGMENT
$pdata$?stb__lit@@YAXPEBEI@Z DD imagerel ?stb__lit@@YAXPEBEI@Z
	DD	imagerel ?stb__lit@@YAXPEBEI@Z+162
	DD	imagerel $unwind$?stb__lit@@YAXPEBEI@Z
pdata	ENDS
;	COMDAT pdata
pdata	SEGMENT
$pdata$?stb_decompress_token@@YAPEBEPEBE@Z DD imagerel ?stb_decompress_token@@YAPEBEPEBE@Z
	DD	imagerel ?stb_decompress_token@@YAPEBEPEBE@Z+583
	DD	imagerel $unwind$?stb_decompress_token@@YAPEBEPEBE@Z
pdata	ENDS
;	COMDAT pdata
pdata	SEGMENT
$pdata$?stb_adler32@@YAIIPEAEI@Z DD imagerel ?stb_adler32@@YAIIPEAEI@Z
	DD	imagerel ?stb_adler32@@YAIIPEAEI@Z+50
	DD	imagerel $unwind$?stb_adler32@@YAIIPEAEI@Z
pdata	ENDS
;	COMDAT pdata
pdata	SEGMENT
$pdata$0$?stb_adler32@@YAIIPEAEI@Z DD imagerel ?stb_adler32@@YAIIPEAEI@Z+50
	DD	imagerel ?stb_adler32@@YAIIPEAEI@Z+318
	DD	imagerel $chain$0$?stb_adler32@@YAIIPEAEI@Z
pdata	ENDS
;	COMDAT pdata
pdata	SEGMENT
$pdata$1$?stb_adler32@@YAIIPEAEI@Z DD imagerel ?stb_adler32@@YAIIPEAEI@Z+318
	DD	imagerel ?stb_adler32@@YAIIPEAEI@Z+332
	DD	imagerel $chain$1$?stb_adler32@@YAIIPEAEI@Z
pdata	ENDS
;	COMDAT __xmm@80000000800000008000000080000000
CONST	SEGMENT
__xmm@80000000800000008000000080000000 DB 00H, 00H, 00H, 080H, 00H, 00H, 00H
	DB	080H, 00H, 00H, 00H, 080H, 00H, 00H, 00H, 080H
CONST	ENDS
;	COMDAT __xmm@7fffffff7fffffff7fffffff7fffffff
CONST	SEGMENT
__xmm@7fffffff7fffffff7fffffff7fffffff DB 0ffH, 0ffH, 0ffH, 07fH, 0ffH, 0ffH
	DB	0ffH, 07fH, 0ffH, 0ffH, 0ffH, 07fH, 0ffH, 0ffH, 0ffH, 07fH
CONST	ENDS
;	COMDAT __xmm@4600000046000000c6000000c6000000
CONST	SEGMENT
__xmm@4600000046000000c6000000c6000000 DB 00H, 00H, 00H, 0c6H, 00H, 00H, 00H
	DB	0c6H, 00H, 00H, 00H, 'F', 00H, 00H, 00H, 'F'
CONST	ENDS
;	COMDAT __xmm@3f8000003f8000003f8000003f800000
CONST	SEGMENT
__xmm@3f8000003f8000003f8000003f800000 DB 00H, 00H, 080H, '?', 00H, 00H, 080H
	DB	'?', 00H, 00H, 080H, '?', 00H, 00H, 080H, '?'
CONST	ENDS
;	COMDAT __xmm@3f8000003f7ae1483f170a3d3e851eb8
CONST	SEGMENT
__xmm@3f8000003f7ae1483f170a3d3e851eb8 DB 0b8H, 01eH, 085H, '>=', 0aH, 017H
	DB	'?H', 0e1H, 'z?', 00H, 00H, 080H, '?'
CONST	ENDS
;	COMDAT __xmm@3f8000003f7ae1483f07ae143d75c28f
CONST	SEGMENT
__xmm@3f8000003f7ae1483f07ae143d75c28f DB 08fH, 0c2H, 'u=', 014H, 0aeH, 07H
	DB	'?H', 0e1H, 'z?', 00H, 00H, 080H, '?'
CONST	ENDS
;	COMDAT __xmm@3f8000003f75c28f3f75c28f3f75c28f
CONST	SEGMENT
__xmm@3f8000003f75c28f3f75c28f3f75c28f DB 08fH, 0c2H, 'u?', 08fH, 0c2H, 'u'
	DB	'?', 08fH, 0c2H, 'u?', 00H, 00H, 080H, '?'
CONST	ENDS
;	COMDAT __xmm@3f8000003f70a3d73f70a3d73f70a3d7
CONST	SEGMENT
__xmm@3f8000003f70a3d73f70a3d73f70a3d7 DB 0d7H, 0a3H, 'p?', 0d7H, 0a3H, 'p'
	DB	'?', 0d7H, 0a3H, 'p?', 00H, 00H, 080H, '?'
CONST	ENDS
;	COMDAT __xmm@3f8000003f6666663f6666663f666666
CONST	SEGMENT
__xmm@3f8000003f6666663f6666663f666666 DB 'fff?fff?fff?', 00H, 00H, 080H, '?'
CONST	ENDS
;	COMDAT __xmm@3f8000003f6666663f3333333f333333
CONST	SEGMENT
__xmm@3f8000003f6666663f3333333f333333 DB '333?333?fff?', 00H, 00H, 080H, '?'
CONST	ENDS
;	COMDAT __xmm@3f8000003f6147ae3f051eb83e75c28f
CONST	SEGMENT
__xmm@3f8000003f6147ae3f051eb83e75c28f DB 08fH, 0c2H, 'u>', 0b8H, 01eH, 05H
	DB	'?', 0aeH, 'Ga?', 00H, 00H, 080H, '?'
CONST	ENDS
;	COMDAT __xmm@3f8000003f5c28f63f5c28f63f5c28f6
CONST	SEGMENT
__xmm@3f8000003f5c28f63f5c28f63f5c28f6 DB 0f6H, '(\?', 0f6H, '(\?', 0f6H, '('
	DB	'\?', 00H, 00H, 080H, '?'
CONST	ENDS
;	COMDAT __xmm@3f8000003f51eb853f51eb853f51eb85
CONST	SEGMENT
__xmm@3f8000003f51eb853f51eb853f51eb85 DB 085H, 0ebH, 'Q?', 085H, 0ebH, 'Q'
	DB	'?', 085H, 0ebH, 'Q?', 00H, 00H, 080H, '?'
CONST	ENDS
;	COMDAT __xmm@3f8000003f4ccccd3f0a3d713eeb851f
CONST	SEGMENT
__xmm@3f8000003f4ccccd3f0a3d713eeb851f DB 01fH, 085H, 0ebH, '>q=', 0aH, '?'
	DB	0cdH, 0ccH, 'L?', 00H, 00H, 080H, '?'
CONST	ENDS
;	COMDAT __xmm@3f8000003f4ccccd3ee147ae3e0f5c29
CONST	SEGMENT
__xmm@3f8000003f4ccccd3ee147ae3e0f5c29 DB ')\', 0fH, '>', 0aeH, 'G', 0e1H
	DB	'>', 0cdH, 0ccH, 'L?', 00H, 00H, 080H, '?'
CONST	ENDS
;	COMDAT __xmm@3f8000003f4000003ecccccd3dcccccd
CONST	SEGMENT
__xmm@3f8000003f4000003ecccccd3dcccccd DB 0cdH, 0ccH, 0ccH, '=', 0cdH, 0ccH
	DB	0ccH, '>', 00H, 00H, '@?', 00H, 00H, 080H, '?'
CONST	ENDS
;	COMDAT __xmm@3f8000003f3333333f19999a3f19999a
CONST	SEGMENT
__xmm@3f8000003f3333333f19999a3f19999a DB 09aH, 099H, 019H, '?', 09aH, 099H
	DB	019H, '?333?', 00H, 00H, 080H, '?'
CONST	ENDS
;	COMDAT __xmm@3f8000003f1c28f63f1c28f63f1c28f6
CONST	SEGMENT
__xmm@3f8000003f1c28f63f1c28f63f1c28f6 DB 0f6H, '(', 01cH, '?', 0f6H, '(', 01cH
	DB	'?', 0f6H, '(', 01cH, '?', 00H, 00H, 080H, '?'
CONST	ENDS
;	COMDAT __xmm@3f8000003f19999a3f19999a3f19999a
CONST	SEGMENT
__xmm@3f8000003f19999a3f19999a3f19999a DB 09aH, 099H, 019H, '?', 09aH, 099H
	DB	019H, '?', 09aH, 099H, 019H, '?', 00H, 00H, 080H, '?'
CONST	ENDS
;	COMDAT __xmm@3f8000003f028f5c3f028f5c3f028f5c
CONST	SEGMENT
__xmm@3f8000003f028f5c3f028f5c3f028f5c DB '\', 08fH, 02H, '?\', 08fH, 02H
	DB	'?\', 08fH, 02H, '?', 00H, 00H, 080H, '?'
CONST	ENDS
;	COMDAT __xmm@3f8000003f0000003f0000003f000000
CONST	SEGMENT
__xmm@3f8000003f0000003f0000003f000000 DB 00H, 00H, 00H, '?', 00H, 00H, 00H
	DB	'?', 00H, 00H, 00H, '?', 00H, 00H, 080H, '?'
CONST	ENDS
;	COMDAT __xmm@3f8000003efae1483efae1483efae148
CONST	SEGMENT
__xmm@3f8000003efae1483efae1483efae148 DB 'H', 0e1H, 0faH, '>H', 0e1H, 0faH
	DB	'>H', 0e1H, 0faH, '>', 00H, 00H, 080H, '?'
CONST	ENDS
;	COMDAT __xmm@3f8000003ef5c28f3e947ae13e23d70a
CONST	SEGMENT
__xmm@3f8000003ef5c28f3e947ae13e23d70a DB 0aH, 0d7H, '#>', 0e1H, 'z', 094H
	DB	'>', 08fH, 0c2H, 0f5H, '>', 00H, 00H, 080H, '?'
CONST	ENDS
;	COMDAT __xmm@3f8000003ed1eb853ed1eb853ed1eb85
CONST	SEGMENT
__xmm@3f8000003ed1eb853ed1eb853ed1eb85 DB 085H, 0ebH, 0d1H, '>', 085H, 0ebH
	DB	0d1H, '>', 085H, 0ebH, 0d1H, '>', 00H, 00H, 080H, '?'
CONST	ENDS
;	COMDAT __xmm@3f8000003ec7ae143ec7ae143ec7ae14
CONST	SEGMENT
__xmm@3f8000003ec7ae143ec7ae143ec7ae14 DB 014H, 0aeH, 0c7H, '>', 014H, 0aeH
	DB	0c7H, '>', 014H, 0aeH, 0c7H, '>', 00H, 00H, 080H, '?'
CONST	ENDS
;	COMDAT __xmm@3f8000003eb333333edc28f63f800000
CONST	SEGMENT
__xmm@3f8000003eb333333edc28f63f800000 DB 00H, 00H, 080H, '?', 0f6H, '(', 0dcH
	DB	'>33', 0b3H, '>', 00H, 00H, 080H, '?'
CONST	ENDS
;	COMDAT __xmm@3f8000003e9eb8523e9eb8523e9eb852
CONST	SEGMENT
__xmm@3f8000003e9eb8523e9eb8523e9eb852 DB 'R', 0b8H, 09eH, '>R', 0b8H, 09eH
	DB	'>R', 0b8H, 09eH, '>', 00H, 00H, 080H, '?'
CONST	ENDS
;	COMDAT __xmm@3f8000003e0f5c293e0f5c293e0f5c29
CONST	SEGMENT
__xmm@3f8000003e0f5c293e0f5c293e0f5c29 DB ')\', 0fH, '>)\', 0fH, '>)\', 0fH
	DB	'>', 00H, 00H, 080H, '?'
CONST	ENDS
;	COMDAT __xmm@3f8000003d23d70a3d23d70a3d23d70a
CONST	SEGMENT
__xmm@3f8000003d23d70a3d23d70a3d23d70a DB 0aH, 0d7H, '#=', 0aH, 0d7H, '#='
	DB	0aH, 0d7H, '#=', 00H, 00H, 080H, '?'
CONST	ENDS
;	COMDAT __xmm@3f800000000000003f3333333f666666
CONST	SEGMENT
__xmm@3f800000000000003f3333333f666666 DB 'fff?333?', 00H, 00H, 00H, 00H, 00H
	DB	00H, 080H, '?'
CONST	ENDS
;	COMDAT __xmm@3f800000000000003f19999a3f800000
CONST	SEGMENT
__xmm@3f800000000000003f19999a3f800000 DB 00H, 00H, 080H, '?', 09aH, 099H
	DB	019H, '?', 00H, 00H, 00H, 00H, 00H, 00H, 080H, '?'
CONST	ENDS
;	COMDAT __xmm@3f800000000000003ee666663f800000
CONST	SEGMENT
__xmm@3f800000000000003ee666663f800000 DB 00H, 00H, 080H, '?ff', 0e6H, '>'
	DB	00H, 00H, 00H, 00H, 00H, 00H, 080H, '?'
CONST	ENDS
;	COMDAT __xmm@3f80000000000000000000003f800000
CONST	SEGMENT
__xmm@3f80000000000000000000003f800000 DB 00H, 00H, 080H, '?', 00H, 00H, 00H
	DB	00H, 00H, 00H, 00H, 00H, 00H, 00H, 080H, '?'
CONST	ENDS
;	COMDAT __xmm@3f800000000000000000000000000000
CONST	SEGMENT
__xmm@3f800000000000000000000000000000 DB 00H, 00H, 00H, 00H, 00H, 00H, 00H
	DB	00H, 00H, 00H, 00H, 00H, 00H, 00H, 080H, '?'
CONST	ENDS
;	COMDAT __xmm@3f7ae1483f8000003f8000003f800000
CONST	SEGMENT
__xmm@3f7ae1483f8000003f8000003f800000 DB 00H, 00H, 080H, '?', 00H, 00H, 080H
	DB	'?', 00H, 00H, 080H, '?H', 0e1H, 'z?'
CONST	ENDS
;	COMDAT __xmm@3f7333333f7ae1483f170a3d3e851eb8
CONST	SEGMENT
__xmm@3f7333333f7ae1483f170a3d3e851eb8 DB 0b8H, 01eH, 085H, '>=', 0aH, 017H
	DB	'?H', 0e1H, 'z?33s?'
CONST	ENDS
;	COMDAT __xmm@3f70a3d73da3d70a3da3d70a3da3d70a
CONST	SEGMENT
__xmm@3f70a3d73da3d70a3da3d70a3da3d70a DB 0aH, 0d7H, 0a3H, '=', 0aH, 0d7H
	DB	0a3H, '=', 0aH, 0d7H, 0a3H, '=', 0d7H, 0a3H, 'p?'
CONST	ENDS
;	COMDAT __xmm@3f70a3d73d75c28f3d75c28f3d75c28f
CONST	SEGMENT
__xmm@3f70a3d73d75c28f3d75c28f3d75c28f DB 08fH, 0c2H, 'u=', 08fH, 0c2H, 'u'
	DB	'=', 08fH, 0c2H, 'u=', 0d7H, 0a3H, 'p?'
CONST	ENDS
;	COMDAT __xmm@3f6b851f3e0f5c293de147ae3de147ae
CONST	SEGMENT
__xmm@3f6b851f3e0f5c293de147ae3de147ae DB 0aeH, 'G', 0e1H, '=', 0aeH, 'G', 0e1H
	DB	'=)\', 0fH, '>', 01fH, 085H, 'k?'
CONST	ENDS
;	COMDAT __xmm@3f6666663f8000003f51eb853f47ae14
CONST	SEGMENT
__xmm@3f6666663f8000003f51eb853f47ae14 DB 014H, 0aeH, 'G?', 085H, 0ebH, 'Q'
	DB	'?', 00H, 00H, 080H, '?fff?'
CONST	ENDS
;	COMDAT __xmm@3f666666000000003f8000003f800000
CONST	SEGMENT
__xmm@3f666666000000003f8000003f800000 DB 00H, 00H, 080H, '?', 00H, 00H, 080H
	DB	'?', 00H, 00H, 00H, 00H, 'fff?'
CONST	ENDS
;	COMDAT __xmm@3f5eb8523f2147ae3ea3d70a3ea3d70a
CONST	SEGMENT
__xmm@3f5eb8523f2147ae3ea3d70a3ea3d70a DB 0aH, 0d7H, 0a3H, '>', 0aH, 0d7H
	DB	0a3H, '>', 0aeH, 'G!?R', 0b8H, '^?'
CONST	ENDS
;	COMDAT __xmm@3f547ae13f0a3d713e8a3d713e8a3d71
CONST	SEGMENT
__xmm@3f547ae13f0a3d713e8a3d713e8a3d71 DB 'q=', 08aH, '>q=', 08aH, '>q=', 0aH
	DB	'?', 0e1H, 'zT?'
CONST	ENDS
;	COMDAT __xmm@3f4ccccd3f7ae1483f170a3d3e851eb8
CONST	SEGMENT
__xmm@3f4ccccd3f7ae1483f170a3d3e851eb8 DB 0b8H, 01eH, 085H, '>=', 0aH, 017H
	DB	'?H', 0e1H, 'z?', 0cdH, 0ccH, 'L?'
CONST	ENDS
;	COMDAT __xmm@3f4ccccd3f6666663ee666663ee66666
CONST	SEGMENT
__xmm@3f4ccccd3f6666663ee666663ee66666 DB 'ff', 0e6H, '>ff', 0e6H, '>fff?'
	DB	0cdH, 0ccH, 'L?'
CONST	ENDS
;	COMDAT __xmm@3f4ccccd3f5eb8523f07ae143f07ae14
CONST	SEGMENT
__xmm@3f4ccccd3f5eb8523f07ae143f07ae14 DB 014H, 0aeH, 07H, '?', 014H, 0aeH
	DB	07H, '?R', 0b8H, '^?', 0cdH, 0ccH, 'L?'
CONST	ENDS
;	COMDAT __xmm@3f4ccccd3f30a3d73f30a3d73f30a3d7
CONST	SEGMENT
__xmm@3f4ccccd3f30a3d73f30a3d73f30a3d7 DB 0d7H, 0a3H, '0?', 0d7H, 0a3H, '0'
	DB	'?', 0d7H, 0a3H, '0?', 0cdH, 0ccH, 'L?'
CONST	ENDS
;	COMDAT __xmm@3f4ccccd3f0ccccd3ecccccd3ecccccd
CONST	SEGMENT
__xmm@3f4ccccd3f0ccccd3ecccccd3ecccccd DB 0cdH, 0ccH, 0ccH, '>', 0cdH, 0ccH
	DB	0ccH, '>', 0cdH, 0ccH, 0cH, '?', 0cdH, 0ccH, 'L?'
CONST	ENDS
;	COMDAT __xmm@3f4ccccd3efae1483efae1483efae148
CONST	SEGMENT
__xmm@3f4ccccd3efae1483efae1483efae148 DB 'H', 0e1H, 0faH, '>H', 0e1H, 0faH
	DB	'>H', 0e1H, 0faH, '>', 0cdH, 0ccH, 'L?'
CONST	ENDS
;	COMDAT __xmm@3f4a3d713f35c28f3ef5c28f3ecccccd
CONST	SEGMENT
__xmm@3f4a3d713f35c28f3ef5c28f3ecccccd DB 0cdH, 0ccH, 0ccH, '>', 08fH, 0c2H
	DB	0f5H, '>', 08fH, 0c2H, '5?q=J?'
CONST	ENDS
;	COMDAT __xmm@3f47ae143f7ae1483f170a3d3e851eb8
CONST	SEGMENT
__xmm@3f47ae143f7ae1483f170a3d3e851eb8 DB 0b8H, 01eH, 085H, '>=', 0aH, 017H
	DB	'?H', 0e1H, 'z?', 014H, 0aeH, 'G?'
CONST	ENDS
;	COMDAT __xmm@3f47ae143f4ccccd3ee147ae3e0f5c29
CONST	SEGMENT
__xmm@3f47ae143f4ccccd3ee147ae3e0f5c29 DB ')\', 0fH, '>', 0aeH, 'G', 0e1H
	DB	'>', 0cdH, 0ccH, 'L?', 014H, 0aeH, 'G?'
CONST	ENDS
;	COMDAT __xmm@3f47ae143f4000003ecccccd3dcccccd
CONST	SEGMENT
__xmm@3f47ae143f4000003ecccccd3dcccccd DB 0cdH, 0ccH, 0ccH, '=', 0cdH, 0ccH
	DB	0ccH, '>', 00H, 00H, '@?', 014H, 0aeH, 'G?'
CONST	ENDS
;	COMDAT __xmm@3f3333333f8000003f8000003f800000
CONST	SEGMENT
__xmm@3f3333333f8000003f8000003f800000 DB 00H, 00H, 080H, '?', 00H, 00H, 080H
	DB	'?', 00H, 00H, 080H, '?333?'
CONST	ENDS
;	COMDAT __xmm@3f3333333f3333333f3333333f333333
CONST	SEGMENT
__xmm@3f3333333f3333333f3333333f333333 DB '333?333?333?333?'
CONST	ENDS
;	COMDAT __xmm@3f333333000000000000000000000000
CONST	SEGMENT
__xmm@3f333333000000000000000000000000 DB 00H, 00H, 00H, 00H, 00H, 00H, 00H
	DB	00H, 00H, 00H, 00H, 00H, '333?'
CONST	ENDS
;	COMDAT __xmm@3f30a3d73f23d70a3ed1eb853ed70a3d
CONST	SEGMENT
__xmm@3f30a3d73f23d70a3ed1eb853ed70a3d DB '=', 0aH, 0d7H, '>', 085H, 0ebH
	DB	0d1H, '>', 0aH, 0d7H, '#?', 0d7H, 0a3H, '0?'
CONST	ENDS
;	COMDAT __xmm@3f2b851f3f7ae1483f170a3d3e851eb8
CONST	SEGMENT
__xmm@3f2b851f3f7ae1483f170a3d3e851eb8 DB 0b8H, 01eH, 085H, '>=', 0aH, 017H
	DB	'?H', 0e1H, 'z?', 01fH, 085H, '+?'
CONST	ENDS
;	COMDAT __xmm@3f1eb8523f1c28f63ecccccd3eb33333
CONST	SEGMENT
__xmm@3f1eb8523f1c28f63ecccccd3eb33333 DB '33', 0b3H, '>', 0cdH, 0ccH, 0ccH
	DB	'>', 0f6H, '(', 01cH, '?R', 0b8H, 01eH, '?'
CONST	ENDS
;	COMDAT __xmm@3f1eb8523ec7ae143ec7ae143ec7ae14
CONST	SEGMENT
__xmm@3f1eb8523ec7ae143ec7ae143ec7ae14 DB 014H, 0aeH, 0c7H, '>', 014H, 0aeH
	DB	0c7H, '>', 014H, 0aeH, 0c7H, '>R', 0b8H, 01eH, '?'
CONST	ENDS
;	COMDAT __xmm@3f19999a3f8000003f51eb853f47ae14
CONST	SEGMENT
__xmm@3f19999a3f8000003f51eb853f47ae14 DB 014H, 0aeH, 'G?', 085H, 0ebH, 'Q'
	DB	'?', 00H, 00H, 080H, '?', 09aH, 099H, 019H, '?'
CONST	ENDS
;	COMDAT __xmm@3f19999a3f4ccccd3f0a3d713eeb851f
CONST	SEGMENT
__xmm@3f19999a3f4ccccd3f0a3d713eeb851f DB 01fH, 085H, 0ebH, '>q=', 0aH, '?'
	DB	0cdH, 0ccH, 'L?', 09aH, 099H, 019H, '?'
CONST	ENDS
;	COMDAT __xmm@3f19999a3f4ccccd3ec7ae143ed1eb85
CONST	SEGMENT
__xmm@3f19999a3f4ccccd3ec7ae143ed1eb85 DB 085H, 0ebH, 0d1H, '>', 014H, 0aeH
	DB	0c7H, '>', 0cdH, 0ccH, 'L?', 09aH, 099H, 019H, '?'
CONST	ENDS
;	COMDAT __xmm@3f19999a3f0000003f0000003f000000
CONST	SEGMENT
__xmm@3f19999a3f0000003f0000003f000000 DB 00H, 00H, 00H, '?', 00H, 00H, 00H
	DB	'?', 00H, 00H, 00H, '?', 09aH, 099H, 019H, '?'
CONST	ENDS
;	COMDAT __xmm@3f19999a3e99999a3e8000003e4ccccd
CONST	SEGMENT
__xmm@3f19999a3e99999a3e8000003e4ccccd DB 0cdH, 0ccH, 'L>', 00H, 00H, 080H
	DB	'>', 09aH, 099H, 099H, '>', 09aH, 099H, 019H, '?'
CONST	ENDS
;	COMDAT __xmm@3f0f5c293f4ccccd3f4ccccd3f4ccccd
CONST	SEGMENT
__xmm@3f0f5c293f4ccccd3f4ccccd3f4ccccd DB 0cdH, 0ccH, 'L?', 0cdH, 0ccH, 'L'
	DB	'?', 0cdH, 0ccH, 'L?)\', 0fH, '?'
CONST	ENDS
;	COMDAT __xmm@3f0a3d713ef5c28f3e947ae13e23d70a
CONST	SEGMENT
__xmm@3f0a3d713ef5c28f3e947ae13e23d70a DB 0aH, 0d7H, '#>', 0e1H, 'z', 094H
	DB	'>', 08fH, 0c2H, 0f5H, '>q=', 0aH, '?'
CONST	ENDS
;	COMDAT __xmm@3f07ae143f7ae1483f7ae1483f7ae148
CONST	SEGMENT
__xmm@3f07ae143f7ae1483f7ae1483f7ae148 DB 'H', 0e1H, 'z?H', 0e1H, 'z?H', 0e1H
	DB	'z?', 014H, 0aeH, 07H, '?'
CONST	ENDS
;	COMDAT __xmm@3f07ae143ca3d70a3ca3d70a3ca3d70a
CONST	SEGMENT
__xmm@3f07ae143ca3d70a3ca3d70a3ca3d70a DB 0aH, 0d7H, 0a3H, '<', 0aH, 0d7H
	DB	0a3H, '<', 0aH, 0d7H, 0a3H, '<', 014H, 0aeH, 07H, '?'
CONST	ENDS
;	COMDAT __xmm@3f028f5c3f8000003f8000003f800000
CONST	SEGMENT
__xmm@3f028f5c3f8000003f8000003f800000 DB 00H, 00H, 080H, '?', 00H, 00H, 080H
	DB	'?', 00H, 00H, 080H, '?\', 08fH, 02H, '?'
CONST	ENDS
;	COMDAT __xmm@3f028f5c000000000000000000000000
CONST	SEGMENT
__xmm@3f028f5c000000000000000000000000 DB 00H, 00H, 00H, 00H, 00H, 00H, 00H
	DB	00H, 00H, 00H, 00H, 00H, '\', 08fH, 02H, '?'
CONST	ENDS
;	COMDAT __xmm@3f0000003f6666663f6666663f666666
CONST	SEGMENT
__xmm@3f0000003f6666663f6666663f666666 DB 'fff?fff?fff?', 00H, 00H, 00H, '?'
CONST	ENDS
;	COMDAT __xmm@3f0000003f0000003f0000003f000000
CONST	SEGMENT
__xmm@3f0000003f0000003f0000003f000000 DB 00H, 00H, 00H, '?', 00H, 00H, 00H
	DB	'?', 00H, 00H, 00H, '?', 00H, 00H, 00H, '?'
CONST	ENDS
;	COMDAT __xmm@3f0000003f0000003edc28f63edc28f6
CONST	SEGMENT
__xmm@3f0000003f0000003edc28f63edc28f6 DB 0f6H, '(', 0dcH, '>', 0f6H, '(', 0dcH
	DB	'>', 00H, 00H, 00H, '?', 00H, 00H, 00H, '?'
CONST	ENDS
;	COMDAT __xmm@3ee666663f6666663ecccccd3ecccccd
CONST	SEGMENT
__xmm@3ee666663f6666663ecccccd3ecccccd DB 0cdH, 0ccH, 0ccH, '>', 0cdH, 0ccH
	DB	0ccH, '>fff?ff', 0e6H, '>'
CONST	ENDS
;	COMDAT __xmm@3ecccccd3f7ae1483f170a3d3e851eb8
CONST	SEGMENT
__xmm@3ecccccd3f7ae1483f170a3d3e851eb8 DB 0b8H, 01eH, 085H, '>=', 0aH, 017H
	DB	'?H', 0e1H, 'z?', 0cdH, 0ccH, 0ccH, '>'
CONST	ENDS
;	COMDAT __xmm@3ecccccd3f4ccccd3ecccccd3ecccccd
CONST	SEGMENT
__xmm@3ecccccd3f4ccccd3ecccccd3ecccccd DB 0cdH, 0ccH, 0ccH, '>', 0cdH, 0ccH
	DB	0ccH, '>', 0cdH, 0ccH, 'L?', 0cdH, 0ccH, 0ccH, '>'
CONST	ENDS
;	COMDAT __xmm@3ecccccd3f30a3d73ef0a3d73ef0a3d7
CONST	SEGMENT
__xmm@3ecccccd3f30a3d73ef0a3d73ef0a3d7 DB 0d7H, 0a3H, 0f0H, '>', 0d7H, 0a3H
	DB	0f0H, '>', 0d7H, 0a3H, '0?', 0cdH, 0ccH, 0ccH, '>'
CONST	ENDS
;	COMDAT __xmm@3ec7ae143edc28f63edc28f63edc28f6
CONST	SEGMENT
__xmm@3ec7ae143edc28f63edc28f63edc28f6 DB 0f6H, '(', 0dcH, '>', 0f6H, '(', 0dcH
	DB	'>', 0f6H, '(', 0dcH, '>', 014H, 0aeH, 0c7H, '>'
CONST	ENDS
;	COMDAT __xmm@3eb333333f8000000000000000000000
CONST	SEGMENT
__xmm@3eb333333f8000000000000000000000 DB 00H, 00H, 00H, 00H, 00H, 00H, 00H
	DB	00H, 00H, 00H, 080H, '?33', 0b3H, '>'
CONST	ENDS
;	COMDAT __xmm@3eb333333f7ae1483f170a3d3e851eb8
CONST	SEGMENT
__xmm@3eb333333f7ae1483f170a3d3e851eb8 DB 0b8H, 01eH, 085H, '>=', 0aH, 017H
	DB	'?H', 0e1H, 'z?33', 0b3H, '>'
CONST	ENDS
;	COMDAT __xmm@3eb333333f4ccccd3f4ccccd3f4ccccd
CONST	SEGMENT
__xmm@3eb333333f4ccccd3f4ccccd3f4ccccd DB 0cdH, 0ccH, 'L?', 0cdH, 0ccH, 'L'
	DB	'?', 0cdH, 0ccH, 'L?33', 0b3H, '>'
CONST	ENDS
;	COMDAT __xmm@3eb333333e4ccccd3e4ccccd3e4ccccd
CONST	SEGMENT
__xmm@3eb333333e4ccccd3e4ccccd3e4ccccd DB 0cdH, 0ccH, 'L>', 0cdH, 0ccH, 'L'
	DB	'>', 0cdH, 0ccH, 'L>33', 0b3H, '>'
CONST	ENDS
;	COMDAT __xmm@3e9eb8523f7ae1483f170a3d3e851eb8
CONST	SEGMENT
__xmm@3e9eb8523f7ae1483f170a3d3e851eb8 DB 0b8H, 01eH, 085H, '>=', 0aH, 017H
	DB	'?H', 0e1H, 'z?R', 0b8H, 09eH, '>'
CONST	ENDS
;	COMDAT __xmm@3e99999a3f8000003f8000003f800000
CONST	SEGMENT
__xmm@3e99999a3f8000003f8000003f800000 DB 00H, 00H, 080H, '?', 00H, 00H, 080H
	DB	'?', 00H, 00H, 080H, '?', 09aH, 099H, 099H, '>'
CONST	ENDS
;	COMDAT __xmm@3e99999a3f4ccccd3ecccccd3ecccccd
CONST	SEGMENT
__xmm@3e99999a3f4ccccd3ecccccd3ecccccd DB 0cdH, 0ccH, 0ccH, '>', 0cdH, 0ccH
	DB	0ccH, '>', 0cdH, 0ccH, 'L?', 09aH, 099H, 099H, '>'
CONST	ENDS
;	COMDAT __xmm@3e99999a000000000000000000000000
CONST	SEGMENT
__xmm@3e99999a000000000000000000000000 DB 00H, 00H, 00H, 00H, 00H, 00H, 00H
	DB	00H, 00H, 00H, 00H, 00H, 09aH, 099H, 099H, '>'
CONST	ENDS
;	COMDAT __xmm@3e8000003f7ae1483f170a3d3e851eb8
CONST	SEGMENT
__xmm@3e8000003f7ae1483f170a3d3e851eb8 DB 0b8H, 01eH, 085H, '>=', 0aH, 017H
	DB	'?H', 0e1H, 'z?', 00H, 00H, 080H, '>'
CONST	ENDS
;	COMDAT __xmm@3e4ccccd3f4ccccd3f4ccccd3f4ccccd
CONST	SEGMENT
__xmm@3e4ccccd3f4ccccd3f4ccccd3f4ccccd DB 0cdH, 0ccH, 'L?', 0cdH, 0ccH, 'L'
	DB	'?', 0cdH, 0ccH, 'L?', 0cdH, 0ccH, 'L>'
CONST	ENDS
;	COMDAT __xmm@3e4ccccd3f4ccccd3ecccccd3ecccccd
CONST	SEGMENT
__xmm@3e4ccccd3f4ccccd3ecccccd3ecccccd DB 0cdH, 0ccH, 0ccH, '>', 0cdH, 0ccH
	DB	0ccH, '>', 0cdH, 0ccH, 'L?', 0cdH, 0ccH, 'L>'
CONST	ENDS
;	COMDAT __xmm@3e4ccccd3e4ccccd3e4ccccd3e4ccccd
CONST	SEGMENT
__xmm@3e4ccccd3e4ccccd3e4ccccd3e4ccccd DB 0cdH, 0ccH, 'L>', 0cdH, 0ccH, 'L'
	DB	'>', 0cdH, 0ccH, 'L>', 0cdH, 0ccH, 'L>'
CONST	ENDS
;	COMDAT __xmm@3e23d70a3f8000003f8000003f800000
CONST	SEGMENT
__xmm@3e23d70a3f8000003f8000003f800000 DB 00H, 00H, 080H, '?', 00H, 00H, 080H
	DB	'?', 00H, 00H, 080H, '?', 0aH, 0d7H, '#>'
CONST	ENDS
;	COMDAT __xmm@00000003000000020000000100000000
CONST	SEGMENT
__xmm@00000003000000020000000100000000 DB 00H, 00H, 00H, 00H, 01H, 00H, 00H
	DB	00H, 02H, 00H, 00H, 00H, 03H, 00H, 00H, 00H
CONST	ENDS
;	COMDAT __xmm@00000001000000010000000100000001
CONST	SEGMENT
__xmm@00000001000000010000000100000001 DB 01H, 00H, 00H, 00H, 01H, 00H, 00H
	DB	00H, 01H, 00H, 00H, 00H, 01H, 00H, 00H, 00H
CONST	ENDS
;	COMDAT __real@bf800000
CONST	SEGMENT
__real@bf800000 DD 0bf800000r			; -1
CONST	ENDS
;	COMDAT __real@bf5db22d
CONST	SEGMENT
__real@bf5db22d DD 0bf5db22dr			; -0.866
CONST	ENDS
;	COMDAT __real@bf400000
CONST	SEGMENT
__real@bf400000 DD 0bf400000r			; -0.75
CONST	ENDS
;	COMDAT __real@7f7fffff
CONST	SEGMENT
__real@7f7fffff DD 07f7fffffr			; 3.40282e+38
CONST	ENDS
;	COMDAT __real@45333333
CONST	SEGMENT
__real@45333333 DD 045333333r			; 2867.2
CONST	ENDS
;	COMDAT __real@44b33333
CONST	SEGMENT
__real@44b33333 DD 044b33333r			; 1433.6
CONST	ENDS
;	COMDAT __real@44333333
CONST	SEGMENT
__real@44333333 DD 044333333r			; 716.8
CONST	ENDS
;	COMDAT __real@437f0000
CONST	SEGMENT
__real@437f0000 DD 0437f0000r			; 255
CONST	ENDS
;	COMDAT __real@42da0000
CONST	SEGMENT
__real@42da0000 DD 042da0000r			; 109
CONST	ENDS
;	COMDAT __real@41500000
CONST	SEGMENT
__real@41500000 DD 041500000r			; 13
CONST	ENDS
;	COMDAT __real@41400000
CONST	SEGMENT
__real@41400000 DD 041400000r			; 12
CONST	ENDS
;	COMDAT __real@40c90fdb
CONST	SEGMENT
__real@40c90fdb DD 040c90fdbr			; 6.28319
CONST	ENDS
;	COMDAT __real@40afede0
CONST	SEGMENT
__real@40afede0 DD 040afede0r			; 5.49779
CONST	ENDS
;	COMDAT __real@40a00000
CONST	SEGMENT
__real@40a00000 DD 040a00000r			; 5
CONST	ENDS
;	COMDAT __real@40800000
CONST	SEGMENT
__real@40800000 DD 040800000r			; 4
CONST	ENDS
;	COMDAT __real@40490fdb
CONST	SEGMENT
__real@40490fdb DD 040490fdbr			; 3.14159
CONST	ENDS
;	COMDAT __real@40400000
CONST	SEGMENT
__real@40400000 DD 040400000r			; 3
CONST	ENDS
;	COMDAT __real@3ffeb852
CONST	SEGMENT
__real@3ffeb852 DD 03ffeb852r			; 1.99
CONST	ENDS
;	COMDAT __real@3fc90fdb
CONST	SEGMENT
__real@3fc90fdb DD 03fc90fdbr			; 1.5708
CONST	ENDS
;	COMDAT __real@3f8147ae
CONST	SEGMENT
__real@3f8147ae DD 03f8147aer			; 1.01
CONST	ENDS
;	COMDAT __real@3f800000
CONST	SEGMENT
__real@3f800000 DD 03f800000r			; 1
CONST	ENDS
;	COMDAT __real@3f666666
CONST	SEGMENT
__real@3f666666 DD 03f666666r			; 0.9
CONST	ENDS
;	COMDAT __real@3f5db22d
CONST	SEGMENT
__real@3f5db22d DD 03f5db22dr			; 0.866
CONST	ENDS
;	COMDAT __real@3f4ccccd
CONST	SEGMENT
__real@3f4ccccd DD 03f4ccccdr			; 0.8
CONST	ENDS
;	COMDAT __real@3f400000
CONST	SEGMENT
__real@3f400000 DD 03f400000r			; 0.75
CONST	ENDS
;	COMDAT __real@3f19999a
CONST	SEGMENT
__real@3f19999a DD 03f19999ar			; 0.6
CONST	ENDS
;	COMDAT __real@3f000000
CONST	SEGMENT
__real@3f000000 DD 03f000000r			; 0.5
CONST	ENDS
;	COMDAT __real@3efae148
CONST	SEGMENT
__real@3efae148 DD 03efae148r			; 0.49
CONST	ENDS
;	COMDAT __real@3ecccccd
CONST	SEGMENT
__real@3ecccccd DD 03ecccccdr			; 0.4
CONST	ENDS
;	COMDAT __real@3eb33333
CONST	SEGMENT
__real@3eb33333 DD 03eb33333r			; 0.35
CONST	ENDS
;	COMDAT __real@3e800000
CONST	SEGMENT
__real@3e800000 DD 03e800000r			; 0.25
CONST	ENDS
;	COMDAT __real@3e4ccccd
CONST	SEGMENT
__real@3e4ccccd DD 03e4ccccdr			; 0.2
CONST	ENDS
;	COMDAT __real@38800000
CONST	SEGMENT
__real@38800000 DD 038800000r			; 6.10352e-05
CONST	ENDS
;	COMDAT __real@37800000
CONST	SEGMENT
__real@37800000 DD 037800000r			; 1.52588e-05
CONST	ENDS
;	COMDAT ??_C@_1DK@JJGEFOJO@?$AAi?$AAt?$AA?5?$AA?$DO?$AA?$DN?$AA?5?$AAD?$AAa?$AAt?$AAa?$AA?5?$AA?$CG?$AA?$CG?$AA?5?$AAi@
CONST	SEGMENT
??_C@_1DK@JJGEFOJO@?$AAi?$AAt?$AA?5?$AA?$DO?$AA?$DN?$AA?5?$AAD?$AAa?$AAt?$AAa?$AA?5?$AA?$CG?$AA?$CG?$AA?5?$AAi@ DB 'i'
	DB	00H, 't', 00H, ' ', 00H, '>', 00H, '=', 00H, ' ', 00H, 'D', 00H
	DB	'a', 00H, 't', 00H, 'a', 00H, ' ', 00H, '&', 00H, '&', 00H, ' '
	DB	00H, 'i', 00H, 't', 00H, ' ', 00H, '<', 00H, ' ', 00H, 'D', 00H
	DB	'a', 00H, 't', 00H, 'a', 00H, '+', 00H, 'S', 00H, 'i', 00H, 'z'
	DB	00H, 'e', 00H, 00H, 00H			; `string'
CONST	ENDS
;	COMDAT ??_C@_1CC@BPLGCGDC@?$AAn?$AAe?$AAw?$AA_?$AAs?$AAi?$AAz?$AAe?$AA?5?$AA?$DM?$AA?$DN?$AA?5?$AAS?$AAi?$AAz@
CONST	SEGMENT
??_C@_1CC@BPLGCGDC@?$AAn?$AAe?$AAw?$AA_?$AAs?$AAi?$AAz?$AAe?$AA?5?$AA?$DM?$AA?$DN?$AA?5?$AAS?$AAi?$AAz@ DB 'n'
	DB	00H, 'e', 00H, 'w', 00H, '_', 00H, 's', 00H, 'i', 00H, 'z', 00H
	DB	'e', 00H, ' ', 00H, '<', 00H, '=', 00H, ' ', 00H, 'S', 00H, 'i'
	DB	00H, 'z', 00H, 'e', 00H, 00H, 00H		; `string'
CONST	ENDS
;	COMDAT ??_C@_1BC@KCECIPDP@?$AAS?$AAi?$AAz?$AAe?$AA?5?$AA?$DO?$AA?5?$AA0@
CONST	SEGMENT
??_C@_1BC@KCECIPDP@?$AAS?$AAi?$AAz?$AAe?$AA?5?$AA?$DO?$AA?5?$AA0@ DB 'S', 00H
	DB	'i', 00H, 'z', 00H, 'e', 00H, ' ', 00H, '>', 00H, ' ', 00H, '0'
	DB	00H, 00H, 00H				; `string'
CONST	ENDS
;	COMDAT ??_C@_1BC@DCMHDKFO@?$AAi?$AA?5?$AA?$DM?$AA?5?$AAS?$AAi?$AAz?$AAe@
CONST	SEGMENT
??_C@_1BC@DCMHDKFO@?$AAi?$AA?5?$AA?$DM?$AA?5?$AAS?$AAi?$AAz?$AAe@ DB 'i', 00H
	DB	' ', 00H, '<', 00H, ' ', 00H, 'S', 00H, 'i', 00H, 'z', 00H, 'e'
	DB	00H, 00H, 00H				; `string'
CONST	ENDS
;	COMDAT ??_C@_1DG@EGIPGKEG@?$AAs?$AAt?$AAb?$AA_?$AA_?$AAd?$AAo?$AAu?$AAt?$AA?5?$AA?$DM?$AA?$DN?$AA?5?$AAo?$AAu@
CONST	SEGMENT
??_C@_1DG@EGIPGKEG@?$AAs?$AAt?$AAb?$AA_?$AA_?$AAd?$AAo?$AAu?$AAt?$AA?5?$AA?$DM?$AA?$DN?$AA?5?$AAo?$AAu@ DB 's'
	DB	00H, 't', 00H, 'b', 00H, '_', 00H, '_', 00H, 'd', 00H, 'o', 00H
	DB	'u', 00H, 't', 00H, ' ', 00H, '<', 00H, '=', 00H, ' ', 00H, 'o'
	DB	00H, 'u', 00H, 't', 00H, 'p', 00H, 'u', 00H, 't', 00H, ' ', 00H
	DB	'+', 00H, ' ', 00H, 'o', 00H, 'l', 00H, 'e', 00H, 'n', 00H, 00H
	DB	00H						; `string'
CONST	ENDS
;	COMDAT ??_C@_1DG@GCANDLHA@?$AAs?$AAt?$AAb?$AA_?$AA_?$AAd?$AAo?$AAu?$AAt?$AA?5?$AA?$DN?$AA?$DN?$AA?5?$AAo?$AAu@
CONST	SEGMENT
??_C@_1DG@GCANDLHA@?$AAs?$AAt?$AAb?$AA_?$AA_?$AAd?$AAo?$AAu?$AAt?$AA?5?$AA?$DN?$AA?$DN?$AA?5?$AAo?$AAu@ DB 's'
	DB	00H, 't', 00H, 'b', 00H, '_', 00H, '_', 00H, 'd', 00H, 'o', 00H
	DB	'u', 00H, 't', 00H, ' ', 00H, '=', 00H, '=', 00H, ' ', 00H, 'o'
	DB	00H, 'u', 00H, 't', 00H, 'p', 00H, 'u', 00H, 't', 00H, ' ', 00H
	DB	'+', 00H, ' ', 00H, 'o', 00H, 'l', 00H, 'e', 00H, 'n', 00H, 00H
	DB	00H						; `string'
CONST	ENDS
;	COMDAT ??_C@_1FC@IADGHEAH@?$AAs?$AAt?$AAb?$AA_?$AA_?$AAd?$AAo?$AAu?$AAt?$AA?5?$AA?$CL?$AA?5?$AAl?$AAe?$AAn@
CONST	SEGMENT
??_C@_1FC@IADGHEAH@?$AAs?$AAt?$AAb?$AA_?$AA_?$AAd?$AAo?$AAu?$AAt?$AA?5?$AA?$CL?$AA?5?$AAl?$AAe?$AAn@ DB 's'
	DB	00H, 't', 00H, 'b', 00H, '_', 00H, '_', 00H, 'd', 00H, 'o', 00H
	DB	'u', 00H, 't', 00H, ' ', 00H, '+', 00H, ' ', 00H, 'l', 00H, 'e'
	DB	00H, 'n', 00H, 'g', 00H, 't', 00H, 'h', 00H, ' ', 00H, '<', 00H
	DB	'=', 00H, ' ', 00H, 's', 00H, 't', 00H, 'b', 00H, '_', 00H, '_'
	DB	00H, 'b', 00H, 'a', 00H, 'r', 00H, 'r', 00H, 'i', 00H, 'e', 00H
	DB	'r', 00H, '_', 00H, 'o', 00H, 'u', 00H, 't', 00H, '_', 00H, 'e'
	DB	00H, 00H, 00H				; `string'
CONST	ENDS
;	COMDAT ??_C@_1JM@LKKCKIOL@?$AAm?$AAo?$AAu?$AAs?$AAe?$AA_?$AAc?$AAu?$AAr?$AAs?$AAo?$AAr?$AA?5?$AA?$DO?$AA?5@
CONST	SEGMENT
??_C@_1JM@LKKCKIOL@?$AAm?$AAo?$AAu?$AAs?$AAe?$AA_?$AAc?$AAu?$AAr?$AAs?$AAo?$AAr?$AA?5?$AA?$DO?$AA?5@ DB 'm'
	DB	00H, 'o', 00H, 'u', 00H, 's', 00H, 'e', 00H, '_', 00H, 'c', 00H
	DB	'u', 00H, 'r', 00H, 's', 00H, 'o', 00H, 'r', 00H, ' ', 00H, '>'
	DB	00H, ' ', 00H, 'I', 00H, 'm', 00H, 'G', 00H, 'u', 00H, 'i', 00H
	DB	'M', 00H, 'o', 00H, 'u', 00H, 's', 00H, 'e', 00H, 'C', 00H, 'u'
	DB	00H, 'r', 00H, 's', 00H, 'o', 00H, 'r', 00H, '_', 00H, 'N', 00H
	DB	'o', 00H, 'n', 00H, 'e', 00H, ' ', 00H, '&', 00H, '&', 00H, ' '
	DB	00H, 'm', 00H, 'o', 00H, 'u', 00H, 's', 00H, 'e', 00H, '_', 00H
	DB	'c', 00H, 'u', 00H, 'r', 00H, 's', 00H, 'o', 00H, 'r', 00H, ' '
	DB	00H, '<', 00H, ' ', 00H, 'I', 00H, 'm', 00H, 'G', 00H, 'u', 00H
	DB	'i', 00H, 'M', 00H, 'o', 00H, 'u', 00H, 's', 00H, 'e', 00H, 'C'
	DB	00H, 'u', 00H, 'r', 00H, 's', 00H, 'o', 00H, 'r', 00H, '_', 00H
	DB	'C', 00H, 'O', 00H, 'U', 00H, 'N', 00H, 'T', 00H, 00H, 00H ; `string'
CONST	ENDS
;	COMDAT ??_C@_1CK@OHOOGJPG@?$AAI?$AAn?$AAd?$AAe?$AAx?$AAL?$AAo?$AAo?$AAk?$AAu?$AAp?$AA?4?$AAS?$AAi?$AAz@
CONST	SEGMENT
??_C@_1CK@OHOOGJPG@?$AAI?$AAn?$AAd?$AAe?$AAx?$AAL?$AAo?$AAo?$AAk?$AAu?$AAp?$AA?4?$AAS?$AAi?$AAz@ DB 'I'
	DB	00H, 'n', 00H, 'd', 00H, 'e', 00H, 'x', 00H, 'L', 00H, 'o', 00H
	DB	'o', 00H, 'k', 00H, 'u', 00H, 'p', 00H, '.', 00H, 'S', 00H, 'i'
	DB	00H, 'z', 00H, 'e', 00H, ' ', 00H, '>', 00H, ' ', 00H, '0', 00H
	DB	00H, 00H					; `string'
CONST	ENDS
;	COMDAT ??_C@_1EO@HLFAHELG@?$AAI?$AAn?$AAd?$AAe?$AAx?$AAA?$AAd?$AAv?$AAa?$AAn?$AAc?$AAe?$AAX?$AA?4?$AAS@
CONST	SEGMENT
??_C@_1EO@HLFAHELG@?$AAI?$AAn?$AAd?$AAe?$AAx?$AAA?$AAd?$AAv?$AAa?$AAn?$AAc?$AAe?$AAX?$AA?4?$AAS@ DB 'I'
	DB	00H, 'n', 00H, 'd', 00H, 'e', 00H, 'x', 00H, 'A', 00H, 'd', 00H
	DB	'v', 00H, 'a', 00H, 'n', 00H, 'c', 00H, 'e', 00H, 'X', 00H, '.'
	DB	00H, 'S', 00H, 'i', 00H, 'z', 00H, 'e', 00H, ' ', 00H, '=', 00H
	DB	'=', 00H, ' ', 00H, 'I', 00H, 'n', 00H, 'd', 00H, 'e', 00H, 'x'
	DB	00H, 'L', 00H, 'o', 00H, 'o', 00H, 'k', 00H, 'u', 00H, 'p', 00H
	DB	'.', 00H, 'S', 00H, 'i', 00H, 'z', 00H, 'e', 00H, 00H, 00H ; `string'
CONST	ENDS
;	COMDAT ??_C@_1CK@FHBHHKB@?$AAG?$AAl?$AAy?$AAp?$AAh?$AAs?$AA?4?$AAS?$AAi?$AAz?$AAe?$AA?5?$AA?$DM?$AA?5?$AA0@
CONST	SEGMENT
??_C@_1CK@FHBHHKB@?$AAG?$AAl?$AAy?$AAp?$AAh?$AAs?$AA?4?$AAS?$AAi?$AAz?$AAe?$AA?5?$AA?$DM?$AA?5?$AA0@ DB 'G'
	DB	00H, 'l', 00H, 'y', 00H, 'p', 00H, 'h', 00H, 's', 00H, '.', 00H
	DB	'S', 00H, 'i', 00H, 'z', 00H, 'e', 00H, ' ', 00H, '<', 00H, ' '
	DB	00H, '0', 00H, 'x', 00H, 'F', 00H, 'F', 00H, 'F', 00H, 'F', 00H
	DB	00H, 00H					; `string'
CONST	ENDS
;	COMDAT ?ranges@?1??GetGlyphRangesVietnamese@ImFontAtlas@@QEAAPEBGXZ@4QBGB
CONST	SEGMENT
?ranges@?1??GetGlyphRangesVietnamese@ImFontAtlas@@QEAAPEBGXZ@4QBGB DW 020H ; `ImFontAtlas::GetGlyphRangesVietnamese'::`2'::ranges
	DW	0ffH
	DW	0102H
	DW	0103H
	DW	0110H
	DW	0111H
	DW	0128H
	DW	0129H
	DW	0168H
	DW	0169H
	DW	01a0H
	DW	01a1H
	DW	01afH
	DW	01b0H
	DW	01ea0H
	DW	01ef9H
	DW	00H
CONST	ENDS
;	COMDAT ?ranges@?1??GetGlyphRangesThai@ImFontAtlas@@QEAAPEBGXZ@4QBGB
CONST	SEGMENT
?ranges@?1??GetGlyphRangesThai@ImFontAtlas@@QEAAPEBGXZ@4QBGB DW 020H ; `ImFontAtlas::GetGlyphRangesThai'::`2'::ranges
	DW	0ffH
	DW	02010H
	DW	0205eH
	DW	0e00H
	DW	0e7fH
	DW	00H
CONST	ENDS
;	COMDAT ?ranges@?1??GetGlyphRangesCyrillic@ImFontAtlas@@QEAAPEBGXZ@4QBGB
CONST	SEGMENT
?ranges@?1??GetGlyphRangesCyrillic@ImFontAtlas@@QEAAPEBGXZ@4QBGB DW 020H ; `ImFontAtlas::GetGlyphRangesCyrillic'::`2'::ranges
	DW	0ffH
	DW	0400H
	DW	052fH
	DW	02de0H
	DW	02dffH
	DW	0a640H
	DW	0a69fH
	DW	00H
CONST	ENDS
;	COMDAT ?base_ranges@?1??GetGlyphRangesJapanese@ImFontAtlas@@QEAAPEBGXZ@4PAGA
_DATA	SEGMENT
?base_ranges@?1??GetGlyphRangesJapanese@ImFontAtlas@@QEAAPEBGXZ@4PAGA DW 020H ; `ImFontAtlas::GetGlyphRangesJapanese'::`2'::base_ranges
	DW	0ffH
	DW	03000H
	DW	030ffH
	DW	031f0H
	DW	031ffH
	DW	0ff00H
	DW	0ffefH
_DATA	ENDS
;	COMDAT ?accumulative_offsets_from_0x4E00@?1??GetGlyphRangesJapanese@ImFontAtlas@@QEAAPEBGXZ@4QBFB
CONST	SEGMENT
?accumulative_offsets_from_0x4E00@?1??GetGlyphRangesJapanese@ImFontAtlas@@QEAAPEBGXZ@4QBFB DW 00H ; `ImFontAtlas::GetGlyphRangesJapanese'::`2'::accumulative_offsets_from_0x4E00
	DW	01H
	DW	02H
	DW	04H
	DW	01H
	DW	01H
	DW	01H
	DW	01H
	DW	02H
	DW	01H
	DW	06H
	DW	02H
	DW	02H
	DW	01H
	DW	08H
	DW	05H
	DW	07H
	DW	0bH
	DW	01H
	DW	02H
	DW	0aH
	DW	0aH
	DW	08H
	DW	02H
	DW	04H
	DW	014H
	DW	02H
	DW	0bH
	DW	08H
	DW	02H
	DW	01H
	DW	02H
	DW	01H
	DW	06H
	DW	02H
	DW	01H
	DW	07H
	DW	05H
	DW	03H
	DW	07H
	DW	01H
	DW	01H
	DW	0dH
	DW	07H
	DW	09H
	DW	01H
	DW	04H
	DW	06H
	DW	01H
	DW	02H
	DW	01H
	DW	0aH
	DW	01H
	DW	01H
	DW	09H
	DW	02H
	DW	02H
	DW	04H
	DW	05H
	DW	06H
	DW	0eH
	DW	01H
	DW	01H
	DW	09H
	DW	03H
	DW	012H
	DW	05H
	DW	04H
	DW	02H
	DW	02H
	DW	0aH
	DW	07H
	DW	01H
	DW	01H
	DW	01H
	DW	03H
	DW	02H
	DW	04H
	DW	03H
	DW	017H
	DW	02H
	DW	0aH
	DW	0cH
	DW	02H
	DW	0eH
	DW	02H
	DW	04H
	DW	0dH
	DW	01H
	DW	06H
	DW	0aH
	DW	03H
	DW	01H
	DW	07H
	DW	0dH
	DW	06H
	DW	04H
	DW	0dH
	DW	05H
	DW	02H
	DW	03H
	DW	011H
	DW	02H
	DW	02H
	DW	05H
	DW	07H
	DW	06H
	DW	04H
	DW	01H
	DW	07H
	DW	0eH
	DW	010H
	DW	06H
	DW	0dH
	DW	09H
	DW	0fH
	DW	01H
	DW	01H
	DW	07H
	DW	010H
	DW	04H
	DW	07H
	DW	01H
	DW	013H
	DW	09H
	DW	02H
	DW	07H
	DW	0fH
	DW	02H
	DW	06H
	DW	05H
	DW	0dH
	DW	019H
	DW	04H
	DW	0eH
	DW	0dH
	DW	0bH
	DW	019H
	DW	01H
	DW	01H
	DW	01H
	DW	02H
	DW	01H
	DW	02H
	DW	02H
	DW	03H
	DW	0aH
	DW	0bH
	DW	03H
	DW	03H
	DW	01H
	DW	01H
	DW	04H
	DW	04H
	DW	02H
	DW	01H
	DW	04H
	DW	09H
	DW	01H
	DW	04H
	DW	03H
	DW	05H
	DW	05H
	DW	02H
	DW	07H
	DW	0cH
	DW	0bH
	DW	0fH
	DW	07H
	DW	010H
	DW	04H
	DW	05H
	DW	010H
	DW	02H
	DW	01H
	DW	01H
	DW	06H
	DW	03H
	DW	03H
	DW	01H
	DW	01H
	DW	02H
	DW	07H
	DW	06H
	DW	06H
	DW	07H
	DW	01H
	DW	04H
	DW	07H
	DW	06H
	DW	01H
	DW	01H
	DW	02H
	DW	01H
	DW	0cH
	DW	03H
	DW	03H
	DW	09H
	DW	05H
	DW	08H
	DW	01H
	DW	0bH
	DW	01H
	DW	02H
	DW	03H
	DW	012H
	DW	014H
	DW	04H
	DW	01H
	DW	03H
	DW	06H
	DW	01H
	DW	07H
	DW	03H
	DW	05H
	DW	05H
	DW	07H
	DW	02H
	DW	02H
	DW	0cH
	DW	03H
	DW	01H
	DW	04H
	DW	02H
	DW	03H
	DW	02H
	DW	03H
	DW	0bH
	DW	08H
	DW	07H
	DW	04H
	DW	011H
	DW	01H
	DW	09H
	DW	019H
	DW	01H
	DW	01H
	DW	04H
	DW	02H
	DW	02H
	DW	04H
	DW	01H
	DW	02H
	DW	07H
	DW	01H
	DW	01H
	DW	01H
	DW	03H
	DW	01H
	DW	02H
	DW	06H
	DW	010H
	DW	01H
	DW	02H
	DW	01H
	DW	01H
	DW	03H
	DW	0cH
	DW	014H
	DW	02H
	DW	05H
	DW	014H
	DW	08H
	DW	07H
	DW	06H
	DW	02H
	DW	01H
	DW	01H
	DW	01H
	DW	01H
	DW	06H
	DW	02H
	DW	01H
	DW	02H
	DW	0aH
	DW	01H
	DW	01H
	DW	06H
	DW	01H
	DW	03H
	DW	01H
	DW	02H
	DW	01H
	DW	04H
	DW	01H
	DW	0cH
	DW	04H
	DW	01H
	DW	03H
	DW	01H
	DW	01H
	DW	01H
	DW	01H
	DW	01H
	DW	0aH
	DW	04H
	DW	07H
	DW	05H
	DW	0dH
	DW	01H
	DW	0fH
	DW	01H
	DW	01H
	DW	01eH
	DW	0bH
	DW	09H
	DW	01H
	DW	0fH
	DW	026H
	DW	0eH
	DW	01H
	DW	020H
	DW	011H
	DW	014H
	DW	01H
	DW	09H
	DW	01fH
	DW	02H
	DW	015H
	DW	09H
	DW	04H
	DW	031H
	DW	016H
	DW	02H
	DW	01H
	DW	0dH
	DW	01H
	DW	0bH
	DW	02dH
	DW	023H
	DW	02bH
	DW	037H
	DW	0cH
	DW	013H
	DW	053H
	DW	01H
	DW	03H
	DW	02H
	DW	03H
	DW	0dH
	DW	02H
	DW	01H
	DW	07H
	DW	03H
	DW	012H
	DW	03H
	DW	0dH
	DW	08H
	DW	01H
	DW	08H
	DW	012H
	DW	05H
	DW	03H
	DW	07H
	DW	019H
	DW	018H
	DW	09H
	DW	018H
	DW	028H
	DW	03H
	DW	011H
	DW	018H
	DW	02H
	DW	01H
	DW	06H
	DW	02H
	DW	03H
	DW	010H
	DW	0fH
	DW	06H
	DW	07H
	DW	03H
	DW	0cH
	DW	01H
	DW	09H
	DW	07H
	DW	03H
	DW	03H
	DW	03H
	DW	0fH
	DW	015H
	DW	05H
	DW	010H
	DW	04H
	DW	05H
	DW	0cH
	DW	0bH
	DW	0bH
	DW	03H
	DW	06H
	DW	03H
	DW	02H
	DW	01fH
	DW	03H
	DW	02H
	DW	01H
	DW	01H
	DW	017H
	DW	06H
	DW	06H
	DW	01H
	DW	04H
	DW	02H
	DW	06H
	DW	05H
	DW	02H
	DW	01H
	DW	01H
	DW	03H
	DW	03H
	DW	016H
	DW	02H
	DW	06H
	DW	02H
	DW	03H
	DW	011H
	DW	03H
	DW	02H
	DW	04H
	DW	05H
	DW	01H
	DW	09H
	DW	05H
	DW	01H
	DW	01H
	DW	06H
	DW	0fH
	DW	0cH
	DW	03H
	DW	011H
	DW	02H
	DW	0eH
	DW	02H
	DW	08H
	DW	01H
	DW	017H
	DW	010H
	DW	04H
	DW	02H
	DW	017H
	DW	08H
	DW	0fH
	DW	017H
	DW	014H
	DW	0cH
	DW	019H
	DW	013H
	DW	02fH
	DW	0bH
	DW	015H
	DW	041H
	DW	02eH
	DW	04H
	DW	03H
	DW	01H
	DW	05H
	DW	06H
	DW	01H
	DW	02H
	DW	05H
	DW	01aH
	DW	02H
	DW	01H
	DW	01H
	DW	03H
	DW	0bH
	DW	01H
	DW	01H
	DW	01H
	DW	02H
	DW	01H
	DW	02H
	DW	03H
	DW	01H
	DW	01H
	DW	0aH
	DW	02H
	DW	03H
	DW	01H
	DW	01H
	DW	01H
	DW	03H
	DW	06H
	DW	03H
	DW	02H
	DW	02H
	DW	06H
	DW	06H
	DW	09H
	DW	02H
	DW	02H
	DW	02H
	DW	06H
	DW	02H
	DW	05H
	DW	0aH
	DW	02H
	DW	04H
	DW	01H
	DW	02H
	DW	01H
	DW	02H
	DW	02H
	DW	03H
	DW	01H
	DW	01H
	DW	03H
	DW	01H
	DW	02H
	DW	09H
	DW	017H
	DW	09H
	DW	02H
	DW	01H
	DW	01H
	DW	01H
	DW	01H
	DW	05H
	DW	03H
	DW	02H
	DW	01H
	DW	0aH
	DW	09H
	DW	06H
	DW	01H
	DW	0aH
	DW	02H
	DW	01fH
	DW	019H
	DW	03H
	DW	07H
	DW	05H
	DW	028H
	DW	01H
	DW	0fH
	DW	06H
	DW	011H
	DW	07H
	DW	01bH
	DW	0b4H
	DW	01H
	DW	03H
	DW	02H
	DW	02H
	DW	01H
	DW	01H
	DW	01H
	DW	06H
	DW	03H
	DW	0aH
	DW	07H
	DW	01H
	DW	03H
	DW	06H
	DW	011H
	DW	08H
	DW	06H
	DW	02H
	DW	02H
	DW	01H
	DW	03H
	DW	05H
	DW	05H
	DW	08H
	DW	010H
	DW	0eH
	DW	0fH
	DW	01H
	DW	01H
	DW	04H
	DW	01H
	DW	02H
	DW	01H
	DW	01H
	DW	01H
	DW	03H
	DW	02H
	DW	07H
	DW	05H
	DW	06H
	DW	02H
	DW	05H
	DW	0aH
	DW	01H
	DW	04H
	DW	02H
	DW	09H
	DW	01H
	DW	01H
	DW	0bH
	DW	06H
	DW	01H
	DW	02cH
	DW	01H
	DW	03H
	DW	07H
	DW	09H
	DW	05H
	DW	01H
	DW	03H
	DW	01H
	DW	01H
	DW	0aH
	DW	07H
	DW	01H
	DW	0aH
	DW	04H
	DW	02H
	DW	07H
	DW	015H
	DW	0fH
	DW	07H
	DW	02H
	DW	05H
	DW	01H
	DW	08H
	DW	03H
	DW	04H
	DW	01H
	DW	03H
	DW	01H
	DW	06H
	DW	01H
	DW	04H
	DW	02H
	DW	01H
	DW	04H
	DW	0aH
	DW	08H
	DW	01H
	DW	04H
	DW	05H
	DW	01H
	DW	05H
	DW	0aH
	DW	02H
	DW	07H
	DW	01H
	DW	0aH
	DW	01H
	DW	01H
	DW	03H
	DW	04H
	DW	0bH
	DW	0aH
	DW	01dH
	DW	04H
	DW	07H
	DW	03H
	DW	05H
	DW	02H
	DW	03H
	DW	021H
	DW	05H
	DW	02H
	DW	013H
	DW	03H
	DW	01H
	DW	04H
	DW	02H
	DW	06H
	DW	01fH
	DW	0bH
	DW	01H
	DW	03H
	DW	03H
	DW	03H
	DW	01H
	DW	08H
	DW	0aH
	DW	09H
	DW	0cH
	DW	0bH
	DW	0cH
	DW	08H
	DW	03H
	DW	0eH
	DW	08H
	DW	06H
	DW	0bH
	DW	01H
	DW	04H
	DW	029H
	DW	03H
	DW	01H
	DW	02H
	DW	07H
	DW	0dH
	DW	01H
	DW	05H
	DW	06H
	DW	02H
	DW	06H
	DW	0cH
	DW	0cH
	DW	016H
	DW	05H
	DW	09H
	DW	04H
	DW	08H
	DW	09H
	DW	09H
	DW	022H
	DW	06H
	DW	018H
	DW	01H
	DW	01H
	DW	014H
	DW	09H
	DW	09H
	DW	03H
	DW	04H
	DW	01H
	DW	07H
	DW	02H
	DW	02H
	DW	02H
	DW	06H
	DW	02H
	DW	01cH
	DW	05H
	DW	03H
	DW	06H
	DW	01H
	DW	04H
	DW	06H
	DW	07H
	DW	04H
	DW	02H
	DW	01H
	DW	04H
	DW	02H
	DW	0dH
	DW	06H
	DW	04H
	DW	04H
	DW	03H
	DW	01H
	DW	08H
	DW	08H
	DW	03H
	DW	02H
	DW	01H
	DW	05H
	DW	01H
	DW	02H
	DW	02H
	DW	03H
	DW	01H
	DW	0bH
	DW	0bH
	DW	07H
	DW	03H
	DW	06H
	DW	0aH
	DW	08H
	DW	06H
	DW	010H
	DW	010H
	DW	016H
	DW	07H
	DW	0cH
	DW	06H
	DW	015H
	DW	05H
	DW	04H
	DW	06H
	DW	06H
	DW	03H
	DW	06H
	DW	01H
	DW	03H
	DW	02H
	DW	01H
	DW	02H
	DW	08H
	DW	01dH
	DW	01H
	DW	0aH
	DW	01H
	DW	06H
	DW	0dH
	DW	06H
	DW	06H
	DW	013H
	DW	01fH
	DW	01H
	DW	0dH
	DW	04H
	DW	04H
	DW	016H
	DW	011H
	DW	01aH
	DW	021H
	DW	0aH
	DW	04H
	DW	0fH
	DW	0cH
	DW	019H
	DW	06H
	DW	043H
	DW	0aH
	DW	02H
	DW	03H
	DW	01H
	DW	06H
	DW	0aH
	DW	02H
	DW	06H
	DW	02H
	DW	09H
	DW	01H
	DW	09H
	DW	04H
	DW	04H
	DW	01H
	DW	02H
	DW	010H
	DW	02H
	DW	05H
	DW	09H
	DW	02H
	DW	03H
	DW	08H
	DW	01H
	DW	08H
	DW	03H
	DW	09H
	DW	04H
	DW	08H
	DW	06H
	DW	04H
	DW	08H
	DW	0bH
	DW	03H
	DW	02H
	DW	01H
	DW	01H
	DW	03H
	DW	01aH
	DW	01H
	DW	07H
	DW	05H
	DW	01H
	DW	0bH
	DW	01H
	DW	05H
	DW	03H
	DW	05H
	DW	02H
	DW	0dH
	DW	06H
	DW	027H
	DW	05H
	DW	01H
	DW	05H
	DW	02H
	DW	0bH
	DW	06H
	DW	0aH
	DW	05H
	DW	01H
	DW	0fH
	DW	05H
	DW	03H
	DW	06H
	DW	013H
	DW	015H
	DW	016H
	DW	02H
	DW	04H
	DW	01H
	DW	06H
	DW	01H
	DW	08H
	DW	01H
	DW	04H
	DW	08H
	DW	02H
	DW	04H
	DW	02H
	DW	02H
	DW	09H
	DW	02H
	DW	01H
	DW	01H
	DW	01H
	DW	04H
	DW	03H
	DW	06H
	DW	03H
	DW	0cH
	DW	07H
	DW	01H
	DW	0eH
	DW	02H
	DW	04H
	DW	0aH
	DW	02H
	DW	0dH
	DW	01H
	DW	011H
	DW	07H
	DW	03H
	DW	02H
	DW	01H
	DW	03H
	DW	02H
	DW	0dH
	DW	07H
	DW	0eH
	DW	0cH
	DW	03H
	DW	01H
	DW	01dH
	DW	02H
	DW	08H
	DW	09H
	DW	0fH
	DW	0eH
	DW	09H
	DW	0eH
	DW	01H
	DW	03H
	DW	01H
	DW	06H
	DW	05H
	DW	09H
	DW	0bH
	DW	03H
	DW	026H
	DW	02bH
	DW	014H
	DW	07H
	DW	07H
	DW	08H
	DW	05H
	DW	0fH
	DW	0cH
	DW	013H
	DW	0fH
	DW	051H
	DW	08H
	DW	07H
	DW	01H
	DW	05H
	DW	049H
	DW	0dH
	DW	025H
	DW	01cH
	DW	08H
	DW	08H
	DW	01H
	DW	0fH
	DW	012H
	DW	014H
	DW	0a5H
	DW	01cH
	DW	01H
	DW	06H
	DW	0bH
	DW	08H
	DW	04H
	DW	0eH
	DW	07H
	DW	0fH
	DW	01H
	DW	03H
	DW	03H
	DW	06H
	DW	04H
	DW	01H
	DW	07H
	DW	0eH
	DW	01H
	DW	01H
	DW	0bH
	DW	01eH
	DW	01H
	DW	05H
	DW	01H
	DW	04H
	DW	0eH
	DW	01H
	DW	04H
	DW	02H
	DW	07H
	DW	034H
	DW	02H
	DW	06H
	DW	01dH
	DW	03H
	DW	01H
	DW	09H
	DW	01H
	DW	015H
	DW	03H
	DW	05H
	DW	01H
	DW	01aH
	DW	03H
	DW	0bH
	DW	0eH
	DW	0bH
	DW	01H
	DW	011H
	DW	05H
	DW	01H
	DW	02H
	DW	01H
	DW	03H
	DW	02H
	DW	08H
	DW	01H
	DW	02H
	DW	09H
	DW	0cH
	DW	01H
	DW	01H
	DW	02H
	DW	03H
	DW	08H
	DW	03H
	DW	018H
	DW	0cH
	DW	07H
	DW	07H
	DW	05H
	DW	011H
	DW	03H
	DW	03H
	DW	03H
	DW	01H
	DW	017H
	DW	0aH
	DW	04H
	DW	04H
	DW	06H
	DW	03H
	DW	01H
	DW	010H
	DW	011H
	DW	016H
	DW	03H
	DW	0aH
	DW	015H
	DW	010H
	DW	010H
	DW	06H
	DW	04H
	DW	0aH
	DW	02H
	DW	01H
	DW	01H
	DW	02H
	DW	08H
	DW	08H
	DW	06H
	DW	05H
	DW	03H
	DW	03H
	DW	03H
	DW	027H
	DW	019H
	DW	0fH
	DW	01H
	DW	01H
	DW	010H
	DW	06H
	DW	07H
	DW	019H
	DW	0fH
	DW	06H
	DW	06H
	DW	0cH
	DW	01H
	DW	016H
	DW	0dH
	DW	01H
	DW	04H
	DW	09H
	DW	05H
	DW	0cH
	DW	02H
	DW	09H
	DW	01H
	DW	0cH
	DW	01cH
	DW	08H
	DW	03H
	DW	05H
	DW	0aH
	DW	016H
	DW	03cH
	DW	01H
	DW	02H
	DW	028H
	DW	04H
	DW	03dH
	DW	03fH
	DW	04H
	DW	01H
	DW	0dH
	DW	0cH
	DW	01H
	DW	04H
	DW	01fH
	DW	0cH
	DW	01H
	DW	0eH
	DW	059H
	DW	05H
	DW	010H
	DW	06H
	DW	01dH
	DW	0eH
	DW	02H
	DW	05H
	DW	031H
	DW	012H
	DW	012H
	DW	05H
	DW	01dH
	DW	021H
	DW	02fH
	DW	01H
	DW	011H
	DW	01H
	DW	013H
	DW	0cH
	DW	02H
	DW	09H
	DW	07H
	DW	027H
	DW	0cH
	DW	03H
	DW	07H
	DW	0cH
	DW	027H
	DW	03H
	DW	01H
	DW	02eH
	DW	04H
	DW	0cH
	DW	03H
	DW	08H
	DW	09H
	DW	05H
	DW	01fH
	DW	0fH
	DW	012H
	DW	03H
	DW	02H
	DW	02H
	DW	042H
	DW	013H
	DW	0dH
	DW	011H
	DW	05H
	DW	03H
	DW	02eH
	DW	07cH
	DW	0dH
	DW	039H
	DW	022H
	DW	02H
	DW	05H
	DW	04H
	DW	05H
	DW	08H
	DW	01H
	DW	01H
	DW	01H
	DW	04H
	DW	03H
	DW	01H
	DW	011H
	DW	05H
	DW	03H
	DW	05H
	DW	03H
	DW	01H
	DW	08H
	DW	05H
	DW	06H
	DW	03H
	DW	01bH
	DW	03H
	DW	01aH
	DW	07H
	DW	0cH
	DW	07H
	DW	02H
	DW	011H
	DW	03H
	DW	07H
	DW	012H
	DW	04eH
	DW	010H
	DW	04H
	DW	024H
	DW	01H
	DW	02H
	DW	01H
	DW	06H
	DW	02H
	DW	01H
	DW	027H
	DW	011H
	DW	07H
	DW	04H
	DW	0dH
	DW	04H
	DW	04H
	DW	04H
	DW	01H
	DW	0aH
	DW	04H
	DW	02H
	DW	04H
	DW	06H
	DW	03H
	DW	0aH
	DW	01H
	DW	013H
	DW	01H
	DW	01aH
	DW	02H
	DW	04H
	DW	021H
	DW	02H
	DW	049H
	DW	02fH
	DW	07H
	DW	03H
	DW	08H
	DW	02H
	DW	04H
	DW	0fH
	DW	012H
	DW	01H
	DW	01dH
	DW	02H
	DW	029H
	DW	0eH
	DW	01H
	DW	015H
	DW	010H
	DW	029H
	DW	07H
	DW	027H
	DW	019H
	DW	0dH
	DW	02cH
	DW	02H
	DW	02H
	DW	0aH
	DW	01H
	DW	0dH
	DW	07H
	DW	01H
	DW	07H
	DW	03H
	DW	05H
	DW	014H
	DW	04H
	DW	08H
	DW	02H
	DW	031H
	DW	01H
	DW	0aH
	DW	06H
	DW	01H
	DW	06H
	DW	07H
	DW	0aH
	DW	07H
	DW	0bH
	DW	010H
	DW	03H
	DW	0cH
	DW	014H
	DW	04H
	DW	0aH
	DW	03H
	DW	01H
	DW	02H
	DW	0bH
	DW	02H
	DW	01cH
	DW	09H
	DW	02H
	DW	04H
	DW	07H
	DW	02H
	DW	0fH
	DW	01H
	DW	01bH
	DW	01H
	DW	01cH
	DW	011H
	DW	04H
	DW	05H
	DW	0aH
	DW	07H
	DW	03H
	DW	018H
	DW	0aH
	DW	0bH
	DW	06H
	DW	01aH
	DW	03H
	DW	02H
	DW	07H
	DW	02H
	DW	02H
	DW	031H
	DW	010H
	DW	0aH
	DW	010H
	DW	0fH
	DW	04H
	DW	05H
	DW	01bH
	DW	03dH
	DW	01eH
	DW	0eH
	DW	026H
	DW	016H
	DW	02H
	DW	07H
	DW	05H
	DW	01H
	DW	03H
	DW	0cH
	DW	017H
	DW	018H
	DW	011H
	DW	011H
	DW	03H
	DW	03H
	DW	02H
	DW	04H
	DW	01H
	DW	06H
	DW	02H
	DW	07H
	DW	05H
	DW	01H
	DW	01H
	DW	05H
	DW	01H
	DW	01H
	DW	09H
	DW	04H
	DW	01H
	DW	03H
	DW	06H
	DW	01H
	DW	08H
	DW	02H
	DW	08H
	DW	04H
	DW	0eH
	DW	03H
	DW	05H
	DW	0bH
	DW	04H
	DW	01H
	DW	03H
	DW	020H
	DW	01H
	DW	013H
	DW	04H
	DW	01H
	DW	0dH
	DW	0bH
	DW	05H
	DW	02H
	DW	01H
	DW	08H
	DW	06H
	DW	08H
	DW	01H
	DW	06H
	DW	05H
	DW	0dH
	DW	03H
	DW	017H
	DW	0bH
	DW	05H
	DW	03H
	DW	010H
	DW	03H
	DW	09H
	DW	0aH
	DW	01H
	DW	018H
	DW	03H
	DW	0c6H
	DW	034H
	DW	04H
	DW	02H
	DW	02H
	DW	05H
	DW	0eH
	DW	05H
	DW	04H
	DW	016H
	DW	05H
	DW	014H
	DW	04H
	DW	0bH
	DW	06H
	DW	029H
	DW	01H
	DW	05H
	DW	02H
	DW	02H
	DW	0bH
	DW	05H
	DW	02H
	DW	01cH
	DW	023H
	DW	08H
	DW	016H
	DW	03H
	DW	012H
	DW	03H
	DW	0aH
	DW	07H
	DW	05H
	DW	03H
	DW	04H
	DW	01H
	DW	05H
	DW	03H
	DW	08H
	DW	09H
	DW	03H
	DW	06H
	DW	02H
	DW	010H
	DW	016H
	DW	04H
	DW	05H
	DW	05H
	DW	03H
	DW	03H
	DW	012H
	DW	017H
	DW	02H
	DW	06H
	DW	017H
	DW	05H
	DW	01bH
	DW	08H
	DW	01H
	DW	021H
	DW	02H
	DW	0cH
	DW	02bH
	DW	010H
	DW	05H
	DW	02H
	DW	03H
	DW	06H
	DW	01H
	DW	014H
	DW	04H
	DW	02H
	DW	09H
	DW	07H
	DW	01H
	DW	0bH
	DW	02H
	DW	0aH
	DW	03H
	DW	0eH
	DW	01fH
	DW	09H
	DW	03H
	DW	019H
	DW	012H
	DW	014H
	DW	02H
	DW	05H
	DW	05H
	DW	01aH
	DW	0eH
	DW	01H
	DW	0bH
	DW	011H
	DW	0cH
	DW	028H
	DW	013H
	DW	09H
	DW	06H
	DW	01fH
	DW	053H
	DW	02H
	DW	07H
	DW	09H
	DW	013H
	DW	04eH
	DW	0cH
	DW	0eH
	DW	015H
	DW	04cH
	DW	0cH
	DW	071H
	DW	04fH
	DW	022H
	DW	04H
	DW	01H
	DW	01H
	DW	03dH
	DW	012H
	DW	055H
	DW	0aH
	DW	02H
	DW	02H
	DW	0dH
	DW	01fH
	DW	0bH
	DW	032H
	DW	06H
	DW	021H
	DW	09fH
	DW	0b3H
	DW	06H
	DW	06H
	DW	07H
	DW	04H
	DW	04H
	DW	02H
	DW	04H
	DW	02H
	DW	05H
	DW	08H
	DW	07H
	DW	014H
	DW	020H
	DW	016H
	DW	01H
	DW	03H
	DW	0aH
	DW	06H
	DW	07H
	DW	01cH
	DW	05H
	DW	0aH
	DW	09H
	DW	02H
	DW	04dH
	DW	013H
	DW	0dH
	DW	02H
	DW	05H
	DW	01H
	DW	04H
	DW	04H
	DW	07H
	DW	04H
	DW	0dH
	DW	03H
	DW	09H
	DW	01fH
	DW	011H
	DW	03H
	DW	01aH
	DW	02H
	DW	06H
	DW	06H
	DW	05H
	DW	04H
	DW	01H
	DW	07H
	DW	0bH
	DW	03H
	DW	04H
	DW	02H
	DW	01H
	DW	06H
	DW	02H
	DW	014H
	DW	04H
	DW	01H
	DW	09H
	DW	02H
	DW	06H
	DW	03H
	DW	07H
	DW	01H
	DW	01H
	DW	01H
	DW	014H
	DW	02H
	DW	03H
	DW	01H
	DW	06H
	DW	02H
	DW	03H
	DW	06H
	DW	02H
	DW	04H
	DW	08H
	DW	01H
	DW	05H
	DW	0dH
	DW	08H
	DW	04H
	DW	0bH
	DW	017H
	DW	01H
	DW	0aH
	DW	06H
	DW	02H
	DW	01H
	DW	03H
	DW	015H
	DW	02H
	DW	02H
	DW	04H
	DW	018H
	DW	01fH
	DW	04H
	DW	0aH
	DW	0aH
	DW	02H
	DW	05H
	DW	0c0H
	DW	0fH
	DW	04H
	DW	010H
	DW	07H
	DW	09H
	DW	033H
	DW	01H
	DW	02H
	DW	01H
	DW	01H
	DW	05H
	DW	01H
	DW	01H
	DW	02H
	DW	01H
	DW	03H
	DW	05H
	DW	03H
	DW	01H
	DW	03H
	DW	04H
	DW	01H
	DW	03H
	DW	01H
	DW	03H
	DW	03H
	DW	09H
	DW	08H
	DW	01H
	DW	02H
	DW	02H
	DW	02H
	DW	04H
	DW	04H
	DW	012H
	DW	0cH
	DW	05cH
	DW	02H
	DW	0aH
	DW	04H
	DW	03H
	DW	0eH
	DW	05H
	DW	019H
	DW	010H
	DW	02aH
	DW	04H
	DW	0eH
	DW	04H
	DW	02H
	DW	015H
	DW	05H
	DW	07eH
	DW	01eH
	DW	01fH
	DW	02H
	DW	01H
	DW	05H
	DW	0dH
	DW	03H
	DW	016H
	DW	05H
	DW	06H
	DW	06H
	DW	014H
	DW	0cH
	DW	01H
	DW	0eH
	DW	0cH
	DW	057H
	DW	03H
	DW	013H
	DW	01H
	DW	08H
	DW	02H
	DW	09H
	DW	09H
	DW	03H
	DW	03H
	DW	017H
	DW	02H
	DW	03H
	DW	07H
	DW	06H
	DW	03H
	DW	01H
	DW	02H
	DW	03H
	DW	09H
	DW	01H
	DW	03H
	DW	01H
	DW	06H
	DW	03H
	DW	02H
	DW	01H
	DW	03H
	DW	0bH
	DW	03H
	DW	01H
	DW	06H
	DW	0aH
	DW	03H
	DW	02H
	DW	03H
	DW	01H
	DW	02H
	DW	01H
	DW	05H
	DW	01H
	DW	01H
	DW	0bH
	DW	03H
	DW	06H
	DW	04H
	DW	01H
	DW	07H
	DW	02H
	DW	01H
	DW	02H
	DW	05H
	DW	05H
	DW	022H
	DW	04H
	DW	0eH
	DW	012H
	DW	04H
	DW	013H
	DW	07H
	DW	05H
	DW	08H
	DW	02H
	DW	06H
	DW	04fH
	DW	01H
	DW	05H
	DW	02H
	DW	0eH
	DW	08H
	DW	02H
	DW	09H
	DW	02H
	DW	01H
	DW	024H
	DW	01cH
	DW	010H
	DW	04H
	DW	01H
	DW	01H
	DW	01H
	DW	02H
	DW	0cH
	DW	06H
	DW	02aH
	DW	027H
	DW	010H
	DW	017H
	DW	07H
	DW	0fH
	DW	0fH
	DW	03H
	DW	02H
	DW	0cH
	DW	07H
	DW	015H
	DW	040H
	DW	06H
	DW	09H
	DW	01cH
	DW	08H
	DW	0cH
	DW	03H
	DW	03H
	DW	029H
	DW	03bH
	DW	018H
	DW	033H
	DW	037H
	DW	039H
	DW	0126H
	DW	09H
	DW	09H
	DW	02H
	DW	06H
	DW	02H
	DW	0fH
	DW	01H
	DW	02H
	DW	0dH
	DW	026H
	DW	05aH
	DW	09H
	DW	09H
	DW	09H
	DW	03H
	DW	0bH
	DW	07H
	DW	01H
	DW	01H
	DW	01H
	DW	05H
	DW	06H
	DW	03H
	DW	02H
	DW	01H
	DW	02H
	DW	02H
	DW	03H
	DW	08H
	DW	01H
	DW	04H
	DW	04H
	DW	01H
	DW	05H
	DW	07H
	DW	01H
	DW	04H
	DW	03H
	DW	014H
	DW	04H
	DW	09H
	DW	01H
	DW	01H
	DW	01H
	DW	05H
	DW	05H
	DW	011H
	DW	01H
	DW	05H
	DW	02H
	DW	06H
	DW	02H
	DW	04H
	DW	01H
	DW	04H
	DW	05H
	DW	07H
	DW	03H
	DW	012H
	DW	0bH
	DW	0bH
	DW	020H
	DW	07H
	DW	05H
	DW	04H
	DW	07H
	DW	0bH
	DW	07fH
	DW	08H
	DW	04H
	DW	03H
	DW	03H
	DW	01H
	DW	0aH
	DW	01H
	DW	01H
	DW	06H
	DW	015H
	DW	0eH
	DW	01H
	DW	010H
	DW	01H
	DW	07H
	DW	01H
	DW	03H
	DW	06H
	DW	09H
	DW	041H
	DW	033H
	DW	04H
	DW	03H
	DW	0dH
	DW	03H
	DW	0aH
	DW	01H
	DW	01H
	DW	0cH
	DW	09H
	DW	015H
	DW	06eH
	DW	03H
	DW	013H
	DW	018H
	DW	01H
	DW	01H
	DW	0aH
	DW	03eH
	DW	04H
	DW	01H
	DW	01dH
	DW	02aH
	DW	04eH
	DW	01cH
	DW	014H
	DW	012H
	DW	052H
	DW	06H
	DW	03H
	DW	0fH
	DW	06H
	DW	054H
	DW	03aH
	DW	0fdH
	DW	0fH
	DW	09bH
	DW	0108H
	DW	0fH
	DW	015H
	DW	09H
	DW	0eH
	DW	07H
	DW	03aH
	DW	028H
	DW	027H
CONST	ENDS
;	COMDAT ?base_ranges@?1??GetGlyphRangesChineseSimplifiedCommon@ImFontAtlas@@QEAAPEBGXZ@4PAGA
_DATA	SEGMENT
?base_ranges@?1??GetGlyphRangesChineseSimplifiedCommon@ImFontAtlas@@QEAAPEBGXZ@4PAGA DW 020H ; `ImFontAtlas::GetGlyphRangesChineseSimplifiedCommon'::`2'::base_ranges
	DW	0ffH
	DW	02000H
	DW	0206fH
	DW	03000H
	DW	030ffH
	DW	031f0H
	DW	031ffH
	DW	0ff00H
	DW	0ffefH
_DATA	ENDS
;	COMDAT ?accumulative_offsets_from_0x4E00@?1??GetGlyphRangesChineseSimplifiedCommon@ImFontAtlas@@QEAAPEBGXZ@4QBFB
CONST	SEGMENT
?accumulative_offsets_from_0x4E00@?1??GetGlyphRangesChineseSimplifiedCommon@ImFontAtlas@@QEAAPEBGXZ@4QBFB DW 00H ; `ImFontAtlas::GetGlyphRangesChineseSimplifiedCommon'::`2'::accumulative_offsets_from_0x4E00
	DW	01H
	DW	02H
	DW	04H
	DW	01H
	DW	01H
	DW	01H
	DW	01H
	DW	02H
	DW	01H
	DW	03H
	DW	02H
	DW	01H
	DW	02H
	DW	02H
	DW	01H
	DW	01H
	DW	01H
	DW	01H
	DW	01H
	DW	05H
	DW	02H
	DW	01H
	DW	02H
	DW	03H
	DW	03H
	DW	03H
	DW	02H
	DW	02H
	DW	04H
	DW	01H
	DW	01H
	DW	01H
	DW	02H
	DW	01H
	DW	05H
	DW	02H
	DW	03H
	DW	01H
	DW	02H
	DW	01H
	DW	02H
	DW	01H
	DW	01H
	DW	02H
	DW	01H
	DW	01H
	DW	02H
	DW	02H
	DW	01H
	DW	04H
	DW	01H
	DW	01H
	DW	01H
	DW	01H
	DW	05H
	DW	0aH
	DW	01H
	DW	02H
	DW	013H
	DW	02H
	DW	01H
	DW	02H
	DW	01H
	DW	02H
	DW	01H
	DW	02H
	DW	01H
	DW	02H
	DW	01H
	DW	05H
	DW	01H
	DW	06H
	DW	03H
	DW	02H
	DW	01H
	DW	02H
	DW	02H
	DW	01H
	DW	01H
	DW	01H
	DW	04H
	DW	08H
	DW	05H
	DW	01H
	DW	01H
	DW	04H
	DW	01H
	DW	01H
	DW	03H
	DW	01H
	DW	02H
	DW	01H
	DW	05H
	DW	01H
	DW	02H
	DW	01H
	DW	01H
	DW	01H
	DW	0aH
	DW	01H
	DW	01H
	DW	05H
	DW	02H
	DW	04H
	DW	06H
	DW	01H
	DW	04H
	DW	02H
	DW	02H
	DW	02H
	DW	0cH
	DW	02H
	DW	01H
	DW	01H
	DW	06H
	DW	01H
	DW	01H
	DW	01H
	DW	04H
	DW	01H
	DW	01H
	DW	04H
	DW	06H
	DW	05H
	DW	01H
	DW	04H
	DW	02H
	DW	02H
	DW	04H
	DW	0aH
	DW	07H
	DW	01H
	DW	01H
	DW	04H
	DW	02H
	DW	04H
	DW	02H
	DW	01H
	DW	04H
	DW	03H
	DW	06H
	DW	0aH
	DW	0cH
	DW	05H
	DW	07H
	DW	02H
	DW	0eH
	DW	02H
	DW	09H
	DW	01H
	DW	01H
	DW	06H
	DW	07H
	DW	0aH
	DW	04H
	DW	07H
	DW	0dH
	DW	01H
	DW	05H
	DW	04H
	DW	08H
	DW	04H
	DW	01H
	DW	01H
	DW	02H
	DW	01cH
	DW	05H
	DW	06H
	DW	01H
	DW	01H
	DW	05H
	DW	02H
	DW	05H
	DW	014H
	DW	02H
	DW	02H
	DW	09H
	DW	08H
	DW	0bH
	DW	02H
	DW	09H
	DW	011H
	DW	01H
	DW	08H
	DW	06H
	DW	08H
	DW	01bH
	DW	04H
	DW	06H
	DW	09H
	DW	014H
	DW	0bH
	DW	01bH
	DW	06H
	DW	044H
	DW	02H
	DW	02H
	DW	01H
	DW	01H
	DW	01H
	DW	02H
	DW	01H
	DW	02H
	DW	02H
	DW	07H
	DW	06H
	DW	0bH
	DW	03H
	DW	03H
	DW	01H
	DW	01H
	DW	03H
	DW	01H
	DW	02H
	DW	01H
	DW	01H
	DW	01H
	DW	01H
	DW	01H
	DW	03H
	DW	01H
	DW	01H
	DW	08H
	DW	03H
	DW	04H
	DW	01H
	DW	05H
	DW	07H
	DW	02H
	DW	01H
	DW	04H
	DW	04H
	DW	08H
	DW	04H
	DW	02H
	DW	01H
	DW	02H
	DW	01H
	DW	01H
	DW	04H
	DW	05H
	DW	06H
	DW	03H
	DW	06H
	DW	02H
	DW	0cH
	DW	03H
	DW	01H
	DW	03H
	DW	09H
	DW	02H
	DW	04H
	DW	03H
	DW	04H
	DW	01H
	DW	05H
	DW	03H
	DW	03H
	DW	01H
	DW	03H
	DW	07H
	DW	01H
	DW	05H
	DW	01H
	DW	01H
	DW	01H
	DW	01H
	DW	02H
	DW	03H
	DW	04H
	DW	05H
	DW	02H
	DW	03H
	DW	02H
	DW	06H
	DW	01H
	DW	01H
	DW	02H
	DW	01H
	DW	07H
	DW	01H
	DW	07H
	DW	03H
	DW	04H
	DW	05H
	DW	0fH
	DW	02H
	DW	02H
	DW	01H
	DW	05H
	DW	03H
	DW	016H
	DW	013H
	DW	02H
	DW	01H
	DW	01H
	DW	01H
	DW	01H
	DW	02H
	DW	05H
	DW	01H
	DW	01H
	DW	01H
	DW	06H
	DW	01H
	DW	01H
	DW	0cH
	DW	08H
	DW	02H
	DW	09H
	DW	012H
	DW	016H
	DW	04H
	DW	01H
	DW	01H
	DW	05H
	DW	01H
	DW	010H
	DW	01H
	DW	02H
	DW	07H
	DW	0aH
	DW	0fH
	DW	01H
	DW	01H
	DW	06H
	DW	02H
	DW	04H
	DW	01H
	DW	02H
	DW	04H
	DW	01H
	DW	06H
	DW	01H
	DW	01H
	DW	03H
	DW	02H
	DW	04H
	DW	01H
	DW	06H
	DW	04H
	DW	05H
	DW	01H
	DW	02H
	DW	01H
	DW	01H
	DW	02H
	DW	01H
	DW	0aH
	DW	03H
	DW	01H
	DW	03H
	DW	02H
	DW	01H
	DW	09H
	DW	03H
	DW	02H
	DW	05H
	DW	07H
	DW	02H
	DW	013H
	DW	04H
	DW	03H
	DW	06H
	DW	01H
	DW	01H
	DW	01H
	DW	01H
	DW	01H
	DW	04H
	DW	03H
	DW	02H
	DW	01H
	DW	01H
	DW	01H
	DW	02H
	DW	05H
	DW	03H
	DW	01H
	DW	01H
	DW	01H
	DW	02H
	DW	02H
	DW	01H
	DW	01H
	DW	02H
	DW	01H
	DW	01H
	DW	02H
	DW	01H
	DW	03H
	DW	01H
	DW	01H
	DW	01H
	DW	03H
	DW	07H
	DW	01H
	DW	04H
	DW	01H
	DW	01H
	DW	02H
	DW	01H
	DW	01H
	DW	02H
	DW	01H
	DW	02H
	DW	04H
	DW	04H
	DW	03H
	DW	08H
	DW	01H
	DW	01H
	DW	01H
	DW	02H
	DW	01H
	DW	03H
	DW	05H
	DW	01H
	DW	03H
	DW	01H
	DW	03H
	DW	04H
	DW	06H
	DW	02H
	DW	02H
	DW	0eH
	DW	04H
	DW	06H
	DW	06H
	DW	0bH
	DW	09H
	DW	01H
	DW	0fH
	DW	03H
	DW	01H
	DW	01cH
	DW	05H
	DW	02H
	DW	05H
	DW	05H
	DW	03H
	DW	01H
	DW	03H
	DW	04H
	DW	05H
	DW	04H
	DW	06H
	DW	0eH
	DW	03H
	DW	02H
	DW	03H
	DW	05H
	DW	015H
	DW	02H
	DW	07H
	DW	014H
	DW	0aH
	DW	01H
	DW	02H
	DW	013H
	DW	02H
	DW	04H
	DW	01cH
	DW	01cH
	DW	02H
	DW	03H
	DW	02H
	DW	01H
	DW	0eH
	DW	04H
	DW	01H
	DW	01aH
	DW	01cH
	DW	02aH
	DW	0cH
	DW	028H
	DW	03H
	DW	034H
	DW	04fH
	DW	05H
	DW	0eH
	DW	011H
	DW	03H
	DW	02H
	DW	02H
	DW	0bH
	DW	03H
	DW	04H
	DW	06H
	DW	03H
	DW	01H
	DW	08H
	DW	02H
	DW	017H
	DW	04H
	DW	05H
	DW	08H
	DW	0aH
	DW	04H
	DW	02H
	DW	07H
	DW	03H
	DW	05H
	DW	01H
	DW	01H
	DW	06H
	DW	03H
	DW	01H
	DW	02H
	DW	02H
	DW	02H
	DW	05H
	DW	01cH
	DW	01H
	DW	01H
	DW	07H
	DW	07H
	DW	014H
	DW	05H
	DW	03H
	DW	01dH
	DW	03H
	DW	011H
	DW	01aH
	DW	01H
	DW	08H
	DW	04H
	DW	01bH
	DW	03H
	DW	06H
	DW	0bH
	DW	017H
	DW	05H
	DW	03H
	DW	04H
	DW	06H
	DW	0dH
	DW	018H
	DW	010H
	DW	06H
	DW	05H
	DW	0aH
	DW	019H
	DW	023H
	DW	07H
	DW	03H
	DW	02H
	DW	03H
	DW	03H
	DW	0eH
	DW	03H
	DW	06H
	DW	02H
	DW	06H
	DW	01H
	DW	04H
	DW	02H
	DW	03H
	DW	08H
	DW	02H
	DW	01H
	DW	01H
	DW	03H
	DW	03H
	DW	03H
	DW	04H
	DW	01H
	DW	01H
	DW	0dH
	DW	02H
	DW	02H
	DW	04H
	DW	05H
	DW	02H
	DW	01H
	DW	0eH
	DW	0eH
	DW	01H
	DW	02H
	DW	02H
	DW	01H
	DW	04H
	DW	05H
	DW	02H
	DW	03H
	DW	01H
	DW	0eH
	DW	03H
	DW	0cH
	DW	03H
	DW	011H
	DW	02H
	DW	010H
	DW	05H
	DW	01H
	DW	02H
	DW	01H
	DW	08H
	DW	09H
	DW	03H
	DW	013H
	DW	04H
	DW	02H
	DW	02H
	DW	04H
	DW	011H
	DW	019H
	DW	015H
	DW	014H
	DW	01cH
	DW	04bH
	DW	01H
	DW	0aH
	DW	01dH
	DW	067H
	DW	04H
	DW	01H
	DW	02H
	DW	01H
	DW	01H
	DW	04H
	DW	02H
	DW	04H
	DW	01H
	DW	02H
	DW	03H
	DW	018H
	DW	02H
	DW	02H
	DW	02H
	DW	01H
	DW	01H
	DW	02H
	DW	01H
	DW	03H
	DW	08H
	DW	01H
	DW	01H
	DW	01H
	DW	02H
	DW	01H
	DW	01H
	DW	03H
	DW	01H
	DW	01H
	DW	01H
	DW	06H
	DW	01H
	DW	05H
	DW	03H
	DW	01H
	DW	01H
	DW	01H
	DW	03H
	DW	04H
	DW	01H
	DW	01H
	DW	05H
	DW	02H
	DW	01H
	DW	05H
	DW	06H
	DW	0dH
	DW	09H
	DW	010H
	DW	01H
	DW	01H
	DW	01H
	DW	01H
	DW	03H
	DW	02H
	DW	03H
	DW	02H
	DW	04H
	DW	05H
	DW	02H
	DW	05H
	DW	02H
	DW	02H
	DW	03H
	DW	07H
	DW	0dH
	DW	07H
	DW	02H
	DW	02H
	DW	01H
	DW	01H
	DW	01H
	DW	01H
	DW	02H
	DW	03H
	DW	03H
	DW	02H
	DW	01H
	DW	06H
	DW	04H
	DW	09H
	DW	02H
	DW	01H
	DW	0eH
	DW	02H
	DW	0eH
	DW	02H
	DW	01H
	DW	012H
	DW	03H
	DW	04H
	DW	0eH
	DW	04H
	DW	0bH
	DW	029H
	DW	0fH
	DW	017H
	DW	0fH
	DW	017H
	DW	0b0H
	DW	01H
	DW	03H
	DW	04H
	DW	01H
	DW	01H
	DW	01H
	DW	01H
	DW	05H
	DW	03H
	DW	01H
	DW	02H
	DW	03H
	DW	07H
	DW	03H
	DW	01H
	DW	01H
	DW	02H
	DW	01H
	DW	02H
	DW	04H
	DW	04H
	DW	06H
	DW	02H
	DW	04H
	DW	01H
	DW	09H
	DW	07H
	DW	01H
	DW	0aH
	DW	05H
	DW	08H
	DW	010H
	DW	01dH
	DW	01H
	DW	01H
	DW	02H
	DW	02H
	DW	03H
	DW	01H
	DW	03H
	DW	05H
	DW	02H
	DW	04H
	DW	05H
	DW	04H
	DW	01H
	DW	01H
	DW	02H
	DW	02H
	DW	03H
	DW	03H
	DW	07H
	DW	01H
	DW	06H
	DW	0aH
	DW	01H
	DW	011H
	DW	01H
	DW	02cH
	DW	04H
	DW	06H
	DW	02H
	DW	01H
	DW	01H
	DW	06H
	DW	05H
	DW	04H
	DW	02H
	DW	0aH
	DW	01H
	DW	06H
	DW	09H
	DW	02H
	DW	08H
	DW	01H
	DW	018H
	DW	01H
	DW	02H
	DW	0dH
	DW	07H
	DW	08H
	DW	08H
	DW	02H
	DW	01H
	DW	04H
	DW	01H
	DW	03H
	DW	01H
	DW	03H
	DW	03H
	DW	05H
	DW	02H
	DW	05H
	DW	0aH
	DW	09H
	DW	04H
	DW	09H
	DW	0cH
	DW	02H
	DW	01H
	DW	06H
	DW	01H
	DW	0aH
	DW	01H
	DW	01H
	DW	07H
	DW	07H
	DW	04H
	DW	0aH
	DW	08H
	DW	03H
	DW	01H
	DW	0dH
	DW	04H
	DW	03H
	DW	01H
	DW	06H
	DW	01H
	DW	03H
	DW	05H
	DW	02H
	DW	01H
	DW	02H
	DW	011H
	DW	010H
	DW	05H
	DW	02H
	DW	010H
	DW	06H
	DW	01H
	DW	04H
	DW	02H
	DW	01H
	DW	03H
	DW	03H
	DW	06H
	DW	08H
	DW	05H
	DW	0bH
	DW	0bH
	DW	01H
	DW	03H
	DW	03H
	DW	02H
	DW	04H
	DW	06H
	DW	0aH
	DW	09H
	DW	05H
	DW	07H
	DW	04H
	DW	07H
	DW	04H
	DW	07H
	DW	01H
	DW	01H
	DW	04H
	DW	02H
	DW	01H
	DW	03H
	DW	06H
	DW	08H
	DW	07H
	DW	01H
	DW	06H
	DW	0bH
	DW	05H
	DW	05H
	DW	03H
	DW	018H
	DW	09H
	DW	04H
	DW	02H
	DW	07H
	DW	0dH
	DW	05H
	DW	01H
	DW	08H
	DW	052H
	DW	010H
	DW	03dH
	DW	01H
	DW	01H
	DW	01H
	DW	04H
	DW	02H
	DW	02H
	DW	010H
	DW	0aH
	DW	03H
	DW	08H
	DW	01H
	DW	01H
	DW	06H
	DW	04H
	DW	02H
	DW	01H
	DW	03H
	DW	01H
	DW	01H
	DW	01H
	DW	04H
	DW	03H
	DW	08H
	DW	04H
	DW	02H
	DW	02H
	DW	01H
	DW	01H
	DW	01H
	DW	01H
	DW	01H
	DW	06H
	DW	03H
	DW	05H
	DW	01H
	DW	01H
	DW	04H
	DW	06H
	DW	09H
	DW	02H
	DW	01H
	DW	01H
	DW	01H
	DW	02H
	DW	01H
	DW	07H
	DW	02H
	DW	01H
	DW	06H
	DW	01H
	DW	05H
	DW	04H
	DW	04H
	DW	03H
	DW	01H
	DW	08H
	DW	01H
	DW	03H
	DW	03H
	DW	01H
	DW	03H
	DW	02H
	DW	02H
	DW	02H
	DW	02H
	DW	03H
	DW	01H
	DW	06H
	DW	01H
	DW	02H
	DW	01H
	DW	02H
	DW	01H
	DW	03H
	DW	07H
	DW	01H
	DW	08H
	DW	02H
	DW	01H
	DW	02H
	DW	01H
	DW	05H
	DW	02H
	DW	05H
	DW	03H
	DW	05H
	DW	0aH
	DW	01H
	DW	02H
	DW	01H
	DW	01H
	DW	03H
	DW	02H
	DW	05H
	DW	0bH
	DW	03H
	DW	09H
	DW	03H
	DW	05H
	DW	01H
	DW	01H
	DW	05H
	DW	09H
	DW	01H
	DW	02H
	DW	01H
	DW	05H
	DW	07H
	DW	09H
	DW	09H
	DW	08H
	DW	01H
	DW	03H
	DW	03H
	DW	03H
	DW	06H
	DW	08H
	DW	02H
	DW	03H
	DW	02H
	DW	01H
	DW	01H
	DW	020H
	DW	06H
	DW	01H
	DW	02H
	DW	0fH
	DW	09H
	DW	03H
	DW	07H
	DW	0dH
	DW	01H
	DW	03H
	DW	0aH
	DW	0dH
	DW	02H
	DW	0eH
	DW	01H
	DW	0dH
	DW	0aH
	DW	02H
	DW	01H
	DW	03H
	DW	0aH
	DW	04H
	DW	0fH
	DW	02H
	DW	0fH
	DW	0fH
	DW	0aH
	DW	01H
	DW	03H
	DW	09H
	DW	06H
	DW	09H
	DW	020H
	DW	019H
	DW	01aH
	DW	02fH
	DW	07H
	DW	03H
	DW	02H
	DW	03H
	DW	01H
	DW	06H
	DW	03H
	DW	04H
	DW	03H
	DW	02H
	DW	08H
	DW	05H
	DW	04H
	DW	01H
	DW	09H
	DW	04H
	DW	02H
	DW	02H
	DW	013H
	DW	0aH
	DW	06H
	DW	02H
	DW	03H
	DW	08H
	DW	01H
	DW	02H
	DW	02H
	DW	04H
	DW	02H
	DW	01H
	DW	09H
	DW	04H
	DW	04H
	DW	04H
	DW	06H
	DW	04H
	DW	08H
	DW	09H
	DW	02H
	DW	03H
	DW	01H
	DW	01H
	DW	01H
	DW	01H
	DW	03H
	DW	05H
	DW	05H
	DW	01H
	DW	03H
	DW	08H
	DW	04H
	DW	06H
	DW	02H
	DW	01H
	DW	04H
	DW	0cH
	DW	01H
	DW	05H
	DW	03H
	DW	07H
	DW	0dH
	DW	02H
	DW	05H
	DW	08H
	DW	01H
	DW	06H
	DW	01H
	DW	02H
	DW	05H
	DW	0eH
	DW	06H
	DW	01H
	DW	05H
	DW	02H
	DW	04H
	DW	08H
	DW	0fH
	DW	05H
	DW	01H
	DW	017H
	DW	06H
	DW	03eH
	DW	02H
	DW	0aH
	DW	01H
	DW	01H
	DW	08H
	DW	01H
	DW	02H
	DW	02H
	DW	0aH
	DW	04H
	DW	02H
	DW	02H
	DW	09H
	DW	02H
	DW	01H
	DW	01H
	DW	03H
	DW	02H
	DW	03H
	DW	01H
	DW	05H
	DW	03H
	DW	03H
