; Listing generated by Microsoft (R) Optimizing Compiler Version 19.23.28106.4 

include listing.inc

INCLUDELIB MSVCRT
INCLUDELIB OLDNAMES

PUBLIC	??0ImVec4@@QEAA@XZ				; ImVec4::ImVec4
PUBLIC	??0?$ImVector@D@@QEAA@XZ			; ImVector<char>::ImVector<char>
PUBLIC	??1?$ImVector@D@@QEAA@XZ			; ImVector<char>::~ImVector<char>
PUBLIC	?begin@?$ImVector@D@@QEAAPEADXZ			; ImVector<char>::begin
PUBLIC	?_grow_capacity@?$ImVector@D@@QEBAHH@Z		; ImVector<char>::_grow_capacity
PUBLIC	?resize@?$ImVector@D@@QEAAXH@Z			; ImVector<char>::resize
PUBLIC	?reserve@?$ImVector@D@@QEAAXH@Z			; ImVector<char>::reserve
PUBLIC	??A?$ImVector@UImDrawCmd@@@@QEBAAEBUImDrawCmd@@H@Z ; ImVector<ImDrawCmd>::operator[]
PUBLIC	?ImGui_ImplOpenGL3_Init@@YA_NPEBD@Z		; ImGui_ImplOpenGL3_Init
PUBLIC	?ImGui_ImplOpenGL3_Shutdown@@YAXXZ		; ImGui_ImplOpenGL3_Shutdown
PUBLIC	?ImGui_ImplOpenGL3_NewFrame@@YAXXZ		; ImGui_ImplOpenGL3_NewFrame
PUBLIC	?ImGui_ImplOpenGL3_RenderDrawData@@YAXPEAUImDrawData@@@Z ; ImGui_ImplOpenGL3_RenderDrawData
PUBLIC	?ImGui_ImplOpenGL3_CreateFontsTexture@@YA_NXZ	; ImGui_ImplOpenGL3_CreateFontsTexture
PUBLIC	?ImGui_ImplOpenGL3_DestroyFontsTexture@@YAXXZ	; ImGui_ImplOpenGL3_DestroyFontsTexture
PUBLIC	?ImGui_ImplOpenGL3_CreateDeviceObjects@@YA_NXZ	; ImGui_ImplOpenGL3_CreateDeviceObjects
PUBLIC	?ImGui_ImplOpenGL3_DestroyDeviceObjects@@YAXXZ	; ImGui_ImplOpenGL3_DestroyDeviceObjects
PUBLIC	__local_stdio_printf_options
PUBLIC	__local_stdio_scanf_options
PUBLIC	_vfprintf_l
PUBLIC	fprintf
PUBLIC	_vsscanf_l
PUBLIC	sscanf
PUBLIC	??_C@_1DM@FHBHLGAJ@?$AAE?$AA?3?$AA?1?$AAr?$AAe?$AAp?$AAs?$AA?1?$AAo?$AAc?$AAo?$AAr?$AAn?$AAu?$AAt@ ; `string'
PUBLIC	?_OptionsStorage@?1??__local_stdio_printf_options@@9@4_KA ; `__local_stdio_printf_options'::`2'::_OptionsStorage
PUBLIC	?_OptionsStorage@?1??__local_stdio_scanf_options@@9@4_KA ; `__local_stdio_scanf_options'::`2'::_OptionsStorage
PUBLIC	??_C@_0BD@BIIFHGKK@imgui_impl_opengl3@		; `string'
PUBLIC	??_C@_0N@NPMABONB@?$CDversion?5130@		; `string'
PUBLIC	??_C@_1GM@NIOMMBKE@?$AAE?$AA?3?$AA?1?$AAr?$AAe?$AAp?$AAs?$AA?1?$AAo?$AAc?$AAo?$AAr?$AAn?$AAu?$AAt@ ; `string'
PUBLIC	??_C@_1MI@KHPFALPB@?$AA?$CI?$AAi?$AAn?$AAt?$AA?$CJ?$AAs?$AAt?$AAr?$AAl?$AAe?$AAn?$AA?$CI?$AAg?$AAl?$AAs@ ; `string'
PUBLIC	??_C@_01EEMJAFIK@?6@				; `string'
PUBLIC	??_C@_0EF@IOLHKAIK@ERROR?3?5ImGui_ImplOpenGL3_Create@ ; `string'
PUBLIC	??_C@_03OFAPEBGM@?$CFs?6@			; `string'
PUBLIC	??_C@_0FD@JIPAKNEL@ERROR?3?5ImGui_ImplOpenGL3_Create@ ; `string'
PUBLIC	??_C@_0M@GIPNOCDP@?$CDversion?5?$CFd@		; `string'
PUBLIC	??_C@_0PF@HLCKEEPJ@uniform?5mat4?5ProjMtx?$DL?6attribute@ ; `string'
PUBLIC	??_C@_0NI@FNJCCLKC@uniform?5mat4?5ProjMtx?$DL?6in?5vec2?5P@ ; `string'
PUBLIC	??_C@_0BDD@JFKDKIGE@precision?5mediump?5float?$DL?6layout@ ; `string'
PUBLIC	??_C@_0BBK@IIAKMGPG@layout?5?$CIlocation?5?$DN?50?$CJ?5in?5vec2?5P@ ; `string'
PUBLIC	??_C@_0MM@DPJDGIBF@?$CDifdef?5GL_ES?6?5?5?5?5precision?5medi@ ; `string'
PUBLIC	??_C@_0KA@HKFHPDID@uniform?5sampler2D?5Texture?$DL?6in?5v@ ; `string'
PUBLIC	??_C@_0MP@NIPCIBOH@precision?5mediump?5float?$DL?6unifor@ ; `string'
PUBLIC	??_C@_0LG@KGGNFOLP@in?5vec2?5Frag_UV?$DL?6in?5vec4?5Frag_C@ ; `string'
PUBLIC	??_C@_0O@FGFIIOKE@vertex?5shader@		; `string'
PUBLIC	??_C@_0BA@MDFBHBOK@fragment?5shader@		; `string'
PUBLIC	??_C@_0P@HEBBPOKI@shader?5program@		; `string'
PUBLIC	??_C@_07GKACAEDJ@Texture@			; `string'
PUBLIC	??_C@_07EDEMHDKD@ProjMtx@			; `string'
PUBLIC	??_C@_08GCJNLIKG@Position@			; `string'
PUBLIC	??_C@_02IGCIDAGE@UV@				; `string'
PUBLIC	??_C@_05PDOBBJNA@Color@				; `string'
PUBLIC	??_C@_1BC@DCMHDKFO@?$AAi?$AA?5?$AA?$DM?$AA?5?$AAS?$AAi?$AAz?$AAe@ ; `string'
PUBLIC	__real@3f800000
PUBLIC	__real@40000000
PUBLIC	__xmm@00000000bf8000000000000000000000
EXTRN	__std_terminate:PROC
EXTRN	__imp__wassert:PROC
EXTRN	?GetIO@ImGui@@YAAEAUImGuiIO@@XZ:PROC		; ImGui::GetIO
EXTRN	?MemAlloc@ImGui@@YAPEAX_K@Z:PROC		; ImGui::MemAlloc
EXTRN	?MemFree@ImGui@@YAXPEAX@Z:PROC			; ImGui::MemFree
EXTRN	?GetTexDataAsRGBA32@ImFontAtlas@@QEAAXPEAPEAEPEAH11@Z:PROC ; ImFontAtlas::GetTexDataAsRGBA32
EXTRN	__imp___acrt_iob_func:PROC
EXTRN	__imp___stdio_common_vfprintf:PROC
EXTRN	__imp___stdio_common_vsscanf:PROC
EXTRN	__CxxFrameHandler4:PROC
EXTRN	__GSHandlerCheck:PROC
EXTRN	__security_check_cookie:PROC
EXTRN	memcpy:PROC
EXTRN	glad_glPolygonMode:QWORD
EXTRN	glad_glScissor:QWORD
EXTRN	glad_glTexParameteri:QWORD
EXTRN	glad_glTexImage2D:QWORD
EXTRN	glad_glDisable:QWORD
EXTRN	glad_glEnable:QWORD
EXTRN	glad_glBlendFunc:QWORD
EXTRN	glad_glPixelStorei:QWORD
EXTRN	glad_glGetIntegerv:QWORD
EXTRN	glad_glIsEnabled:QWORD
EXTRN	glad_glViewport:QWORD
EXTRN	glad_glDrawElements:QWORD
EXTRN	glad_glBindTexture:QWORD
EXTRN	glad_glDeleteTextures:QWORD
EXTRN	glad_glGenTextures:QWORD
EXTRN	glad_glActiveTexture:QWORD
EXTRN	glad_glBlendFuncSeparate:QWORD
EXTRN	glad_glBlendEquation:QWORD
EXTRN	glad_glBindBuffer:QWORD
EXTRN	glad_glDeleteBuffers:QWORD
EXTRN	glad_glGenBuffers:QWORD
EXTRN	glad_glBufferData:QWORD
EXTRN	glad_glBlendEquationSeparate:QWORD
EXTRN	glad_glAttachShader:QWORD
EXTRN	glad_glCompileShader:QWORD
EXTRN	glad_glCreateProgram:QWORD
EXTRN	glad_glCreateShader:QWORD
EXTRN	glad_glDeleteProgram:QWORD
EXTRN	glad_glDeleteShader:QWORD
EXTRN	glad_glDetachShader:QWORD
EXTRN	glad_glEnableVertexAttribArray:QWORD
EXTRN	glad_glGetAttribLocation:QWORD
EXTRN	glad_glGetProgramiv:QWORD
EXTRN	glad_glGetProgramInfoLog:QWORD
EXTRN	glad_glGetShaderiv:QWORD
EXTRN	glad_glGetShaderInfoLog:QWORD
EXTRN	glad_glGetUniformLocation:QWORD
EXTRN	glad_glLinkProgram:QWORD
EXTRN	glad_glShaderSource:QWORD
EXTRN	glad_glUseProgram:QWORD
EXTRN	glad_glUniform1i:QWORD
EXTRN	glad_glUniformMatrix4fv:QWORD
EXTRN	glad_glVertexAttribPointer:QWORD
EXTRN	glad_glBindVertexArray:QWORD
EXTRN	glad_glDeleteVertexArrays:QWORD
EXTRN	glad_glGenVertexArrays:QWORD
EXTRN	glad_glDrawElementsBaseVertex:QWORD
EXTRN	glad_glBindSampler:QWORD
EXTRN	__security_cookie:QWORD
EXTRN	_fltused:DWORD
;	COMDAT ?_OptionsStorage@?1??__local_stdio_printf_options@@9@4_KA
_BSS	SEGMENT
?_OptionsStorage@?1??__local_stdio_printf_options@@9@4_KA DQ 01H DUP (?) ; `__local_stdio_printf_options'::`2'::_OptionsStorage
_BSS	ENDS
;	COMDAT ?_OptionsStorage@?1??__local_stdio_scanf_options@@9@4_KA
_BSS	SEGMENT
?_OptionsStorage@?1??__local_stdio_scanf_options@@9@4_KA DQ 01H DUP (?) ; `__local_stdio_scanf_options'::`2'::_OptionsStorage
_BSS	ENDS
_BSS	SEGMENT
?g_GlVersion@@3IA DD 01H DUP (?)			; g_GlVersion
?g_GlslVersionString@@3PADA DB 020H DUP (?)		; g_GlslVersionString
?g_FontTexture@@3IA DD 01H DUP (?)			; g_FontTexture
?g_ShaderHandle@@3IA DD 01H DUP (?)			; g_ShaderHandle
?g_VertHandle@@3IA DD 01H DUP (?)			; g_VertHandle
?g_FragHandle@@3IA DD 01H DUP (?)			; g_FragHandle
?g_AttribLocationTex@@3HA DD 01H DUP (?)		; g_AttribLocationTex
?g_AttribLocationProjMtx@@3HA DD 01H DUP (?)		; g_AttribLocationProjMtx
?g_AttribLocationVtxPos@@3HA DD 01H DUP (?)		; g_AttribLocationVtxPos
?g_AttribLocationVtxUV@@3HA DD 01H DUP (?)		; g_AttribLocationVtxUV
?g_AttribLocationVtxColor@@3HA DD 01H DUP (?)		; g_AttribLocationVtxColor
?g_VboHandle@@3IA DD 01H DUP (?)			; g_VboHandle
?g_ElementsHandle@@3IA DD 01H DUP (?)			; g_ElementsHandle
_BSS	ENDS
;	COMDAT pdata
pdata	SEGMENT
$pdata$??1?$ImVector@D@@QEAA@XZ DD imagerel $LN6
	DD	imagerel $LN6+24
	DD	imagerel $unwind$??1?$ImVector@D@@QEAA@XZ
pdata	ENDS
;	COMDAT pdata
pdata	SEGMENT
$pdata$?resize@?$ImVector@D@@QEAAXH@Z DD imagerel $LN16
	DD	imagerel $LN16+26
	DD	imagerel $unwind$?resize@?$ImVector@D@@QEAAXH@Z
pdata	ENDS
;	COMDAT pdata
pdata	SEGMENT
$pdata$1$?resize@?$ImVector@D@@QEAAXH@Z DD imagerel $LN16+26
	DD	imagerel $LN16+137
	DD	imagerel $chain$1$?resize@?$ImVector@D@@QEAAXH@Z
pdata	ENDS
;	COMDAT pdata
pdata	SEGMENT
$pdata$3$?resize@?$ImVector@D@@QEAAXH@Z DD imagerel $LN16+137
	DD	imagerel $LN16+155
	DD	imagerel $chain$3$?resize@?$ImVector@D@@QEAAXH@Z
pdata	ENDS
;	COMDAT pdata
pdata	SEGMENT
$pdata$4$?resize@?$ImVector@D@@QEAAXH@Z DD imagerel $LN16+155
	DD	imagerel $LN16+168
	DD	imagerel $chain$4$?resize@?$ImVector@D@@QEAAXH@Z
pdata	ENDS
;	COMDAT pdata
pdata	SEGMENT
$pdata$?reserve@?$ImVector@D@@QEAAXH@Z DD imagerel $LN6
	DD	imagerel $LN6+24
	DD	imagerel $unwind$?reserve@?$ImVector@D@@QEAAXH@Z
pdata	ENDS
;	COMDAT pdata
pdata	SEGMENT
$pdata$0$?reserve@?$ImVector@D@@QEAAXH@Z DD imagerel $LN6+24
	DD	imagerel $LN6+78
	DD	imagerel $chain$0$?reserve@?$ImVector@D@@QEAAXH@Z
pdata	ENDS
;	COMDAT pdata
pdata	SEGMENT
$pdata$1$?reserve@?$ImVector@D@@QEAAXH@Z DD imagerel $LN6+78
	DD	imagerel $LN6+89
	DD	imagerel $chain$1$?reserve@?$ImVector@D@@QEAAXH@Z
pdata	ENDS
;	COMDAT pdata
pdata	SEGMENT
$pdata$??A?$ImVector@UImDrawCmd@@@@QEBAAEBUImDrawCmd@@H@Z DD imagerel $LN5
	DD	imagerel $LN5+65
	DD	imagerel $unwind$??A?$ImVector@UImDrawCmd@@@@QEBAAEBUImDrawCmd@@H@Z
pdata	ENDS
;	COMDAT pdata
pdata	SEGMENT
$pdata$?ImGui_ImplOpenGL3_Init@@YA_NPEBD@Z DD imagerel $LN13
	DD	imagerel $LN13+258
	DD	imagerel $unwind$?ImGui_ImplOpenGL3_Init@@YA_NPEBD@Z
pdata	ENDS
;	COMDAT pdata
pdata	SEGMENT
$pdata$?ImGui_ImplOpenGL3_Shutdown@@YAXXZ DD imagerel $LN18
	DD	imagerel $LN18+220
	DD	imagerel $unwind$?ImGui_ImplOpenGL3_Shutdown@@YAXXZ
pdata	ENDS
;	COMDAT pdata
pdata	SEGMENT
$pdata$0$?ImGui_ImplOpenGL3_Shutdown@@YAXXZ DD imagerel $LN18+220
	DD	imagerel $LN18+273
	DD	imagerel $chain$0$?ImGui_ImplOpenGL3_Shutdown@@YAXXZ
pdata	ENDS
;	COMDAT pdata
pdata	SEGMENT
$pdata$1$?ImGui_ImplOpenGL3_Shutdown@@YAXXZ DD imagerel $LN18+273
	DD	imagerel $LN18+279
	DD	imagerel $chain$1$?ImGui_ImplOpenGL3_Shutdown@@YAXXZ
pdata	ENDS
;	COMDAT pdata
pdata	SEGMENT
$pdata$?ImGui_ImplOpenGL3_RenderDrawData@@YAXPEAUImDrawData@@@Z DD imagerel $LN43
	DD	imagerel $LN43+86
	DD	imagerel $unwind$?ImGui_ImplOpenGL3_RenderDrawData@@YAXPEAUImDrawData@@@Z
pdata	ENDS
;	COMDAT pdata
pdata	SEGMENT
$pdata$7$?ImGui_ImplOpenGL3_RenderDrawData@@YAXPEAUImDrawData@@@Z DD imagerel $LN43+86
	DD	imagerel $LN43+526
	DD	imagerel $chain$7$?ImGui_ImplOpenGL3_RenderDrawData@@YAXPEAUImDrawData@@@Z
pdata	ENDS
;	COMDAT pdata
pdata	SEGMENT
$pdata$8$?ImGui_ImplOpenGL3_RenderDrawData@@YAXPEAUImDrawData@@@Z DD imagerel $LN43+526
	DD	imagerel $LN43+993
	DD	imagerel $chain$8$?ImGui_ImplOpenGL3_RenderDrawData@@YAXPEAUImDrawData@@@Z
pdata	ENDS
;	COMDAT pdata
pdata	SEGMENT
$pdata$9$?ImGui_ImplOpenGL3_RenderDrawData@@YAXPEAUImDrawData@@@Z DD imagerel $LN43+993
	DD	imagerel $LN43+1174
	DD	imagerel $chain$9$?ImGui_ImplOpenGL3_RenderDrawData@@YAXPEAUImDrawData@@@Z
pdata	ENDS
;	COMDAT pdata
pdata	SEGMENT
$pdata$10$?ImGui_ImplOpenGL3_RenderDrawData@@YAXPEAUImDrawData@@@Z DD imagerel $LN43+1174
	DD	imagerel $LN43+1206
	DD	imagerel $chain$10$?ImGui_ImplOpenGL3_RenderDrawData@@YAXPEAUImDrawData@@@Z
pdata	ENDS
;	COMDAT pdata
pdata	SEGMENT
$pdata$11$?ImGui_ImplOpenGL3_RenderDrawData@@YAXPEAUImDrawData@@@Z DD imagerel $LN43+1206
	DD	imagerel $LN43+1238
	DD	imagerel $chain$11$?ImGui_ImplOpenGL3_RenderDrawData@@YAXPEAUImDrawData@@@Z
pdata	ENDS
;	COMDAT pdata
pdata	SEGMENT
$pdata$12$?ImGui_ImplOpenGL3_RenderDrawData@@YAXPEAUImDrawData@@@Z DD imagerel $LN43+1238
	DD	imagerel $LN43+1270
	DD	imagerel $chain$12$?ImGui_ImplOpenGL3_RenderDrawData@@YAXPEAUImDrawData@@@Z
pdata	ENDS
;	COMDAT pdata
pdata	SEGMENT
$pdata$13$?ImGui_ImplOpenGL3_RenderDrawData@@YAXPEAUImDrawData@@@Z DD imagerel $LN43+1270
	DD	imagerel $LN43+1366
	DD	imagerel $chain$13$?ImGui_ImplOpenGL3_RenderDrawData@@YAXPEAUImDrawData@@@Z
pdata	ENDS
;	COMDAT pdata
pdata	SEGMENT
$pdata$?ImGui_ImplOpenGL3_CreateFontsTexture@@YA_NXZ DD imagerel $LN4
	DD	imagerel $LN4+264
	DD	imagerel $unwind$?ImGui_ImplOpenGL3_CreateFontsTexture@@YA_NXZ
pdata	ENDS
;	COMDAT pdata
pdata	SEGMENT
$pdata$?ImGui_ImplOpenGL3_DestroyFontsTexture@@YAXXZ DD imagerel $LN5
	DD	imagerel $LN5+13
	DD	imagerel $unwind$?ImGui_ImplOpenGL3_DestroyFontsTexture@@YAXXZ
pdata	ENDS
;	COMDAT pdata
pdata	SEGMENT
$pdata$0$?ImGui_ImplOpenGL3_DestroyFontsTexture@@YAXXZ DD imagerel $LN5+13
	DD	imagerel $LN5+68
	DD	imagerel $chain$0$?ImGui_ImplOpenGL3_DestroyFontsTexture@@YAXXZ
pdata	ENDS
;	COMDAT pdata
pdata	SEGMENT
$pdata$1$?ImGui_ImplOpenGL3_DestroyFontsTexture@@YAXXZ DD imagerel $LN5+68
	DD	imagerel $LN5+73
	DD	imagerel $chain$1$?ImGui_ImplOpenGL3_DestroyFontsTexture@@YAXXZ
pdata	ENDS
;	COMDAT pdata
pdata	SEGMENT
$pdata$?ImGui_ImplOpenGL3_CreateDeviceObjects@@YA_NXZ DD imagerel $LN28
	DD	imagerel $LN28+1015
	DD	imagerel $unwind$?ImGui_ImplOpenGL3_CreateDeviceObjects@@YA_NXZ
pdata	ENDS
;	COMDAT pdata
pdata	SEGMENT
$pdata$?ImGui_ImplOpenGL3_DestroyDeviceObjects@@YAXXZ DD imagerel $LN16
	DD	imagerel $LN16+220
	DD	imagerel $unwind$?ImGui_ImplOpenGL3_DestroyDeviceObjects@@YAXXZ
pdata	ENDS
;	COMDAT pdata
pdata	SEGMENT
$pdata$0$?ImGui_ImplOpenGL3_DestroyDeviceObjects@@YAXXZ DD imagerel $LN16+220
	DD	imagerel $LN16+273
	DD	imagerel $chain$0$?ImGui_ImplOpenGL3_DestroyDeviceObjects@@YAXXZ
pdata	ENDS
;	COMDAT pdata
pdata	SEGMENT
$pdata$1$?ImGui_ImplOpenGL3_DestroyDeviceObjects@@YAXXZ DD imagerel $LN16+273
	DD	imagerel $LN16+279
	DD	imagerel $chain$1$?ImGui_ImplOpenGL3_DestroyDeviceObjects@@YAXXZ
pdata	ENDS
;	COMDAT pdata
pdata	SEGMENT
$pdata$_vfprintf_l DD imagerel $LN4
	DD	imagerel $LN4+81
	DD	imagerel $unwind$_vfprintf_l
pdata	ENDS
;	COMDAT pdata
pdata	SEGMENT
$pdata$fprintf DD imagerel $LN6
	DD	imagerel $LN6+69
	DD	imagerel $unwind$fprintf
pdata	ENDS
;	COMDAT pdata
pdata	SEGMENT
$pdata$_vsscanf_l DD imagerel $LN4
	DD	imagerel $LN4+90
	DD	imagerel $unwind$_vsscanf_l
pdata	ENDS
;	COMDAT pdata
pdata	SEGMENT
$pdata$sscanf DD imagerel $LN6
	DD	imagerel $LN6+82
	DD	imagerel $unwind$sscanf
pdata	ENDS
;	COMDAT pdata
pdata	SEGMENT
$pdata$?ImGui_ImplOpenGL3_SetupRenderState@@YAXPEAUImDrawData@@HHI@Z DD imagerel ?ImGui_ImplOpenGL3_SetupRenderState@@YAXPEAUImDrawData@@HHI@Z
	DD	imagerel ?ImGui_ImplOpenGL3_SetupRenderState@@YAXPEAUImDrawData@@HHI@Z+669
	DD	imagerel $unwind$?ImGui_ImplOpenGL3_SetupRenderState@@YAXPEAUImDrawData@@HHI@Z
pdata	ENDS
;	COMDAT pdata
pdata	SEGMENT
$pdata$?CheckShader@@YA_NIPEBD@Z DD imagerel ?CheckShader@@YA_NIPEBD@Z
	DD	imagerel ?CheckShader@@YA_NIPEBD@Z+220
	DD	imagerel $unwind$?CheckShader@@YA_NIPEBD@Z
pdata	ENDS
;	COMDAT pdata
pdata	SEGMENT
$pdata$?CheckProgram@@YA_NIPEBD@Z DD imagerel ?CheckProgram@@YA_NIPEBD@Z
	DD	imagerel ?CheckProgram@@YA_NIPEBD@Z+227
	DD	imagerel $unwind$?CheckProgram@@YA_NIPEBD@Z
pdata	ENDS
;	COMDAT __xmm@00000000bf8000000000000000000000
CONST	SEGMENT
__xmm@00000000bf8000000000000000000000 DB 00H, 00H, 00H, 00H, 00H, 00H, 00H
	DB	00H, 00H, 00H, 080H, 0bfH, 00H, 00H, 00H, 00H
CONST	ENDS
;	COMDAT __real@40000000
CONST	SEGMENT
__real@40000000 DD 040000000r			; 2
CONST	ENDS
;	COMDAT __real@3f800000
CONST	SEGMENT
__real@3f800000 DD 03f800000r			; 1
CONST	ENDS
;	COMDAT ??_C@_1BC@DCMHDKFO@?$AAi?$AA?5?$AA?$DM?$AA?5?$AAS?$AAi?$AAz?$AAe@
CONST	SEGMENT
??_C@_1BC@DCMHDKFO@?$AAi?$AA?5?$AA?$DM?$AA?5?$AAS?$AAi?$AAz?$AAe@ DB 'i', 00H
	DB	' ', 00H, '<', 00H, ' ', 00H, 'S', 00H, 'i', 00H, 'z', 00H, 'e'
	DB	00H, 00H, 00H				; `string'
CONST	ENDS
;	COMDAT ??_C@_05PDOBBJNA@Color@
CONST	SEGMENT
??_C@_05PDOBBJNA@Color@ DB 'Color', 00H			; `string'
CONST	ENDS
;	COMDAT ??_C@_02IGCIDAGE@UV@
CONST	SEGMENT
??_C@_02IGCIDAGE@UV@ DB 'UV', 00H			; `string'
CONST	ENDS
;	COMDAT ??_C@_08GCJNLIKG@Position@
CONST	SEGMENT
??_C@_08GCJNLIKG@Position@ DB 'Position', 00H		; `string'
CONST	ENDS
;	COMDAT ??_C@_07EDEMHDKD@ProjMtx@
CONST	SEGMENT
??_C@_07EDEMHDKD@ProjMtx@ DB 'ProjMtx', 00H		; `string'
CONST	ENDS
;	COMDAT ??_C@_07GKACAEDJ@Texture@
CONST	SEGMENT
??_C@_07GKACAEDJ@Texture@ DB 'Texture', 00H		; `string'
CONST	ENDS
;	COMDAT ??_C@_0P@HEBBPOKI@shader?5program@
CONST	SEGMENT
??_C@_0P@HEBBPOKI@shader?5program@ DB 'shader program', 00H ; `string'
CONST	ENDS
;	COMDAT ??_C@_0BA@MDFBHBOK@fragment?5shader@
CONST	SEGMENT
??_C@_0BA@MDFBHBOK@fragment?5shader@ DB 'fragment shader', 00H ; `string'
CONST	ENDS
;	COMDAT ??_C@_0O@FGFIIOKE@vertex?5shader@
CONST	SEGMENT
??_C@_0O@FGFIIOKE@vertex?5shader@ DB 'vertex shader', 00H ; `string'
CONST	ENDS
;	COMDAT ??_C@_0LG@KGGNFOLP@in?5vec2?5Frag_UV?$DL?6in?5vec4?5Frag_C@
CONST	SEGMENT
??_C@_0LG@KGGNFOLP@in?5vec2?5Frag_UV?$DL?6in?5vec4?5Frag_C@ DB 'in vec2 F'
	DB	'rag_UV;', 0aH, 'in vec4 Frag_Color;', 0aH, 'uniform sampler2D'
	DB	' Texture;', 0aH, 'layout (location = 0) out vec4 Out_Color;', 0aH
	DB	'void main()', 0aH, '{', 0aH, '    Out_Color = Frag_Color * te'
	DB	'xture(Texture, Frag_UV.st);', 0aH, '}', 0aH, 00H ; `string'
CONST	ENDS
;	COMDAT ??_C@_0MP@NIPCIBOH@precision?5mediump?5float?$DL?6unifor@
CONST	SEGMENT
??_C@_0MP@NIPCIBOH@precision?5mediump?5float?$DL?6unifor@ DB 'precision m'
	DB	'ediump float;', 0aH, 'uniform sampler2D Texture;', 0aH, 'in v'
	DB	'ec2 Frag_UV;', 0aH, 'in vec4 Frag_Color;', 0aH, 'layout (loca'
	DB	'tion = 0) out vec4 Out_Color;', 0aH, 'void main()', 0aH, '{', 0aH
	DB	'    Out_Color = Frag_Color * texture(Texture, Frag_UV.st);', 0aH
	DB	'}', 0aH, 00H				; `string'
CONST	ENDS
;	COMDAT ??_C@_0KA@HKFHPDID@uniform?5sampler2D?5Texture?$DL?6in?5v@
CONST	SEGMENT
??_C@_0KA@HKFHPDID@uniform?5sampler2D?5Texture?$DL?6in?5v@ DB 'uniform sa'
	DB	'mpler2D Texture;', 0aH, 'in vec2 Frag_UV;', 0aH, 'in vec4 Fra'
	DB	'g_Color;', 0aH, 'out vec4 Out_Color;', 0aH, 'void main()', 0aH
	DB	'{', 0aH, '    Out_Color = Frag_Color * texture(Texture, Frag_'
	DB	'UV.st);', 0aH, '}', 0aH, 00H		; `string'
CONST	ENDS
;	COMDAT ??_C@_0MM@DPJDGIBF@?$CDifdef?5GL_ES?6?5?5?5?5precision?5medi@
CONST	SEGMENT
??_C@_0MM@DPJDGIBF@?$CDifdef?5GL_ES?6?5?5?5?5precision?5medi@ DB '#ifdef '
	DB	'GL_ES', 0aH, '    precision mediump float;', 0aH, '#endif', 0aH
	DB	'uniform sampler2D Texture;', 0aH, 'varying vec2 Frag_UV;', 0aH
	DB	'varying vec4 Frag_Color;', 0aH, 'void main()', 0aH, '{', 0aH, ' '
	DB	'   gl_FragColor = Frag_Color * texture2D(Texture, Frag_UV.st)'
	DB	';', 0aH, '}', 0aH, 00H			; `string'
CONST	ENDS
;	COMDAT ??_C@_0BBK@IIAKMGPG@layout?5?$CIlocation?5?$DN?50?$CJ?5in?5vec2?5P@
CONST	SEGMENT
??_C@_0BBK@IIAKMGPG@layout?5?$CIlocation?5?$DN?50?$CJ?5in?5vec2?5P@ DB 'l'
	DB	'ayout (location = 0) in vec2 Position;', 0aH, 'layout (locati'
	DB	'on = 1) in vec2 UV;', 0aH, 'layout (location = 2) in vec4 Col'
	DB	'or;', 0aH, 'uniform mat4 ProjMtx;', 0aH, 'out vec2 Frag_UV;', 0aH
	DB	'out vec4 Frag_Color;', 0aH, 'void main()', 0aH, '{', 0aH, '  '
	DB	'  Frag_UV = UV;', 0aH, '    Frag_Color = Color;', 0aH, '    g'
	DB	'l_Position = ProjMtx * vec4(Position.xy,0,1);', 0aH, '}', 0aH
	DB	00H						; `string'
CONST	ENDS
;	COMDAT ??_C@_0BDD@JFKDKIGE@precision?5mediump?5float?$DL?6layout@
CONST	SEGMENT
??_C@_0BDD@JFKDKIGE@precision?5mediump?5float?$DL?6layout@ DB 'precision '
	DB	'mediump float;', 0aH, 'layout (location = 0) in vec2 Position'
	DB	';', 0aH, 'layout (location = 1) in vec2 UV;', 0aH, 'layout (l'
	DB	'ocation = 2) in vec4 Color;', 0aH, 'uniform mat4 ProjMtx;', 0aH
	DB	'out vec2 Frag_UV;', 0aH, 'out vec4 Frag_Color;', 0aH, 'void m'
	DB	'ain()', 0aH, '{', 0aH, '    Frag_UV = UV;', 0aH, '    Frag_Co'
	DB	'lor = Color;', 0aH, '    gl_Position = ProjMtx * vec4(Positio'
	DB	'n.xy,0,1);', 0aH, '}', 0aH, 00H		; `string'
CONST	ENDS
;	COMDAT ??_C@_0NI@FNJCCLKC@uniform?5mat4?5ProjMtx?$DL?6in?5vec2?5P@
CONST	SEGMENT
??_C@_0NI@FNJCCLKC@uniform?5mat4?5ProjMtx?$DL?6in?5vec2?5P@ DB 'uniform m'
	DB	'at4 ProjMtx;', 0aH, 'in vec2 Position;', 0aH, 'in vec2 UV;', 0aH
	DB	'in vec4 Color;', 0aH, 'out vec2 Frag_UV;', 0aH, 'out vec4 Fra'
	DB	'g_Color;', 0aH, 'void main()', 0aH, '{', 0aH, '    Frag_UV = '
	DB	'UV;', 0aH, '    Frag_Color = Color;', 0aH, '    gl_Position ='
	DB	' ProjMtx * vec4(Position.xy,0,1);', 0aH, '}', 0aH, 00H ; `string'
CONST	ENDS
;	COMDAT ??_C@_0PF@HLCKEEPJ@uniform?5mat4?5ProjMtx?$DL?6attribute@
CONST	SEGMENT
??_C@_0PF@HLCKEEPJ@uniform?5mat4?5ProjMtx?$DL?6attribute@ DB 'uniform mat'
	DB	'4 ProjMtx;', 0aH, 'attribute vec2 Position;', 0aH, 'attribute'
	DB	' vec2 UV;', 0aH, 'attribute vec4 Color;', 0aH, 'varying vec2 '
	DB	'Frag_UV;', 0aH, 'varying vec4 Frag_Color;', 0aH, 'void main()'
	DB	0aH, '{', 0aH, '    Frag_UV = UV;', 0aH, '    Frag_Color = Col'
	DB	'or;', 0aH, '    gl_Position = ProjMtx * vec4(Position.xy,0,1)'
	DB	';', 0aH, '}', 0aH, 00H			; `string'
CONST	ENDS
;	COMDAT ??_C@_0M@GIPNOCDP@?$CDversion?5?$CFd@
CONST	SEGMENT
??_C@_0M@GIPNOCDP@?$CDversion?5?$CFd@ DB '#version %d', 00H ; `string'
CONST	ENDS
;	COMDAT ??_C@_0FD@JIPAKNEL@ERROR?3?5ImGui_ImplOpenGL3_Create@
CONST	SEGMENT
??_C@_0FD@JIPAKNEL@ERROR?3?5ImGui_ImplOpenGL3_Create@ DB 'ERROR: ImGui_Im'
	DB	'plOpenGL3_CreateDeviceObjects: failed to link %s! (with GLSL '
	DB	'''%s'')', 0aH, 00H				; `string'
CONST	ENDS
;	COMDAT ??_C@_03OFAPEBGM@?$CFs?6@
CONST	SEGMENT
??_C@_03OFAPEBGM@?$CFs?6@ DB '%s', 0aH, 00H		; `string'
CONST	ENDS
;	COMDAT ??_C@_0EF@IOLHKAIK@ERROR?3?5ImGui_ImplOpenGL3_Create@
CONST	SEGMENT
??_C@_0EF@IOLHKAIK@ERROR?3?5ImGui_ImplOpenGL3_Create@ DB 'ERROR: ImGui_Im'
	DB	'plOpenGL3_CreateDeviceObjects: failed to compile %s!', 0aH, 00H ; `string'
CONST	ENDS
;	COMDAT ??_C@_01EEMJAFIK@?6@
CONST	SEGMENT
??_C@_01EEMJAFIK@?6@ DB 0aH, 00H			; `string'
CONST	ENDS
;	COMDAT ??_C@_1MI@KHPFALPB@?$AA?$CI?$AAi?$AAn?$AAt?$AA?$CJ?$AAs?$AAt?$AAr?$AAl?$AAe?$AAn?$AA?$CI?$AAg?$AAl?$AAs@
CONST	SEGMENT
??_C@_1MI@KHPFALPB@?$AA?$CI?$AAi?$AAn?$AAt?$AA?$CJ?$AAs?$AAt?$AAr?$AAl?$AAe?$AAn?$AA?$CI?$AAg?$AAl?$AAs@ DB '('
	DB	00H, 'i', 00H, 'n', 00H, 't', 00H, ')', 00H, 's', 00H, 't', 00H
	DB	'r', 00H, 'l', 00H, 'e', 00H, 'n', 00H, '(', 00H, 'g', 00H, 'l'
	DB	00H, 's', 00H, 'l', 00H, '_', 00H, 'v', 00H, 'e', 00H, 'r', 00H
	DB	's', 00H, 'i', 00H, 'o', 00H, 'n', 00H, ')', 00H, ' ', 00H, '+'
	DB	00H, ' ', 00H, '2', 00H, ' ', 00H, '<', 00H, ' ', 00H, '(', 00H
	DB	'(', 00H, 'i', 00H, 'n', 00H, 't', 00H, ')', 00H, '(', 00H, 's'
	DB	00H, 'i', 00H, 'z', 00H, 'e', 00H, 'o', 00H, 'f', 00H, '(', 00H
	DB	'g', 00H, '_', 00H, 'G', 00H, 'l', 00H, 's', 00H, 'l', 00H, 'V'
	DB	00H, 'e', 00H, 'r', 00H, 's', 00H, 'i', 00H, 'o', 00H, 'n', 00H
	DB	'S', 00H, 't', 00H, 'r', 00H, 'i', 00H, 'n', 00H, 'g', 00H, ')'
	DB	00H, ' ', 00H, '/', 00H, ' ', 00H, 's', 00H, 'i', 00H, 'z', 00H
	DB	'e', 00H, 'o', 00H, 'f', 00H, '(', 00H, '*', 00H, 'g', 00H, '_'
	DB	00H, 'G', 00H, 'l', 00H, 's', 00H, 'l', 00H, 'V', 00H, 'e', 00H
	DB	'r', 00H, 's', 00H, 'i', 00H, 'o', 00H, 'n', 00H, 'S', 00H, 't'
	DB	00H, 'r', 00H, 'i', 00H, 'n', 00H, 'g', 00H, ')', 00H, ')', 00H
	DB	')', 00H, 00H, 00H				; `string'
CONST	ENDS
;	COMDAT ??_C@_1GM@NIOMMBKE@?$AAE?$AA?3?$AA?1?$AAr?$AAe?$AAp?$AAs?$AA?1?$AAo?$AAc?$AAo?$AAr?$AAn?$AAu?$AAt@
CONST	SEGMENT
??_C@_1GM@NIOMMBKE@?$AAE?$AA?3?$AA?1?$AAr?$AAe?$AAp?$AAs?$AA?1?$AAo?$AAc?$AAo?$AAr?$AAn?$AAu?$AAt@ DB 'E'
	DB	00H, ':', 00H, '/', 00H, 'r', 00H, 'e', 00H, 'p', 00H, 's', 00H
	DB	'/', 00H, 'o', 00H, 'c', 00H, 'o', 00H, 'r', 00H, 'n', 00H, 'u'
	DB	00H, 't', 00H, '/', 00H, 'i', 00H, 'm', 00H, 'g', 00H, 'u', 00H
	DB	'i', 00H, '/', 00H, 'e', 00H, 'x', 00H, 'a', 00H, 'm', 00H, 'p'
	DB	00H, 'l', 00H, 'e', 00H, 's', 00H, '\', 00H, 'i', 00H, 'm', 00H
	DB	'g', 00H, 'u', 00H, 'i', 00H, '_', 00H, 'i', 00H, 'm', 00H, 'p'
	DB	00H, 'l', 00H, '_', 00H, 'o', 00H, 'p', 00H, 'e', 00H, 'n', 00H
	DB	'g', 00H, 'l', 00H, '3', 00H, '.', 00H, 'c', 00H, 'p', 00H, 'p'
	DB	00H, 00H, 00H				; `string'
CONST	ENDS
;	COMDAT ??_C@_0N@NPMABONB@?$CDversion?5130@
CONST	SEGMENT
??_C@_0N@NPMABONB@?$CDversion?5130@ DB '#version 130', 00H ; `string'
CONST	ENDS
;	COMDAT ??_C@_0BD@BIIFHGKK@imgui_impl_opengl3@
CONST	SEGMENT
??_C@_0BD@BIIFHGKK@imgui_impl_opengl3@ DB 'imgui_impl_opengl3', 00H ; `string'
CONST	ENDS
;	COMDAT ??_C@_1DM@FHBHLGAJ@?$AAE?$AA?3?$AA?1?$AAr?$AAe?$AAp?$AAs?$AA?1?$AAo?$AAc?$AAo?$AAr?$AAn?$AAu?$AAt@
CONST	SEGMENT
??_C@_1DM@FHBHLGAJ@?$AAE?$AA?3?$AA?1?$AAr?$AAe?$AAp?$AAs?$AA?1?$AAo?$AAc?$AAo?$AAr?$AAn?$AAu?$AAt@ DB 'E'
	DB	00H, ':', 00H, '/', 00H, 'r', 00H, 'e', 00H, 'p', 00H, 's', 00H
	DB	'/', 00H, 'o', 00H, 'c', 00H, 'o', 00H, 'r', 00H, 'n', 00H, 'u'
	DB	00H, 't', 00H, '/', 00H, 'i', 00H, 'm', 00H, 'g', 00H, 'u', 00H
	DB	'i', 00H, '\', 00H, 'i', 00H, 'm', 00H, 'g', 00H, 'u', 00H, 'i'
	DB	00H, '.', 00H, 'h', 00H, 00H, 00H		; `string'
CONST	ENDS
;	COMDAT xdata
xdata	SEGMENT
$ip2state$?CheckProgram@@YA_NIPEBD@Z DB 08H
	DB	'P'
	DB	00H
	DB	0a8H
	DB	02H
	DB	082H
	DB	04H
	DB	01cH
	DB	00H
xdata	ENDS
;	COMDAT xdata
xdata	SEGMENT
$stateUnwindMap$?CheckProgram@@YA_NIPEBD@Z DB 04H
	DB	0aH
	DD	imagerel ??1?$ImVector@D@@QEAA@XZ
	DB	040H
	DB	03eH
	DD	imagerel __std_terminate
xdata	ENDS
;	COMDAT xdata
xdata	SEGMENT
$cppxdata$?CheckProgram@@YA_NIPEBD@Z DB 028H
	DD	imagerel $stateUnwindMap$?CheckProgram@@YA_NIPEBD@Z
	DD	imagerel $ip2state$?CheckProgram@@YA_NIPEBD@Z
xdata	ENDS
;	COMDAT xdata
xdata	SEGMENT
$unwind$?CheckProgram@@YA_NIPEBD@Z DD 060f11H
	DD	09640fH
	DD	08340fH
	DD	0700b520fH
	DD	imagerel __CxxFrameHandler4
	DD	imagerel $cppxdata$?CheckProgram@@YA_NIPEBD@Z
xdata	ENDS
;	COMDAT xdata
xdata	SEGMENT
$ip2state$?CheckShader@@YA_NIPEBD@Z DB 08H
	DB	'P'
	DB	00H
	DB	09aH
	DB	02H
	DB	082H
	DB	04H
	DB	01cH
	DB	00H
xdata	ENDS
;	COMDAT xdata
xdata	SEGMENT
$stateUnwindMap$?CheckShader@@YA_NIPEBD@Z DB 04H
	DB	0aH
	DD	imagerel ??1?$ImVector@D@@QEAA@XZ
	DB	040H
	DB	03eH
	DD	imagerel __std_terminate
xdata	ENDS
;	COMDAT xdata
xdata	SEGMENT
$cppxdata$?CheckShader@@YA_NIPEBD@Z DB 028H
	DD	imagerel $stateUnwindMap$?CheckShader@@YA_NIPEBD@Z
	DD	imagerel $ip2state$?CheckShader@@YA_NIPEBD@Z
xdata	ENDS
;	COMDAT xdata
xdata	SEGMENT
$unwind$?CheckShader@@YA_NIPEBD@Z DD 060f11H
	DD	09640fH
	DD	08340fH
	DD	0700b520fH
	DD	imagerel __CxxFrameHandler4
	DD	imagerel $cppxdata$?CheckShader@@YA_NIPEBD@Z
xdata	ENDS
;	COMDAT xdata
xdata	SEGMENT
$unwind$?ImGui_ImplOpenGL3_SetupRenderState@@YAXPEAUImDrawData@@HHI@Z DD 0a2a19H
	DD	096818H
	DD	0150110H
	DD	0e007f009H
	DD	060047005H
	DD	030025003H
	DD	imagerel __GSHandlerCheck
	DD	080H
xdata	ENDS
;	COMDAT xdata
xdata	SEGMENT
$unwind$sscanf DD 041601H
	DD	070125216H
	DD	030106011H
xdata	ENDS
;	COMDAT xdata
xdata	SEGMENT
$unwind$_vsscanf_l DD 081401H
	DD	0a6414H
	DD	095414H
	DD	083414H
	DD	070105214H
xdata	ENDS
;	COMDAT xdata
xdata	SEGMENT
$unwind$fprintf DD 041601H
	DD	070125216H
	DD	030106011H
xdata	ENDS
;	COMDAT xdata
xdata	SEGMENT
$unwind$_vfprintf_l DD 081401H
	DD	0a6414H
	DD	095414H
	DD	083414H
	DD	070105214H
xdata	ENDS
;	COMDAT xdata
xdata	SEGMENT
$chain$1$?ImGui_ImplOpenGL3_DestroyDeviceObjects@@YAXXZ DD 021H
	DD	imagerel $LN16
	DD	imagerel $LN16+220
	DD	imagerel $unwind$?ImGui_ImplOpenGL3_DestroyDeviceObjects@@YAXXZ
xdata	ENDS
;	COMDAT xdata
xdata	SEGMENT
$chain$0$?ImGui_ImplOpenGL3_DestroyDeviceObjects@@YAXXZ DD 020521H
	DD	063405H
	DD	imagerel $LN16
	DD	imagerel $LN16+220
	DD	imagerel $unwind$?ImGui_ImplOpenGL3_DestroyDeviceObjects@@YAXXZ
xdata	ENDS
;	COMDAT xdata
xdata	SEGMENT
$unwind$?ImGui_ImplOpenGL3_DestroyDeviceObjects@@YAXXZ DD 020601H
	DD	070023206H
xdata	ENDS
;	COMDAT xdata
xdata	SEGMENT
$ip2state$?ImGui_ImplOpenGL3_CreateDeviceObjects@@YA_NXZ DB 08H
	DB	'8'
	DB	00H
	DB	'=', 07H
	DB	02H
	DB	'|'
	DB	04H
	DB	01cH
	DB	00H
xdata	ENDS
;	COMDAT xdata
xdata	SEGMENT
$stateUnwindMap$?ImGui_ImplOpenGL3_CreateDeviceObjects@@YA_NXZ DB 04H
	DB	0aH
	DD	imagerel ??1?$ImVector@D@@QEAA@XZ
	DB	0c0H
	DB	03eH
	DD	imagerel __std_terminate
xdata	ENDS
;	COMDAT xdata
xdata	SEGMENT
$cppxdata$?ImGui_ImplOpenGL3_CreateDeviceObjects@@YA_NXZ DB 028H
	DD	imagerel $stateUnwindMap$?ImGui_ImplOpenGL3_CreateDeviceObjects@@YA_NXZ
	DD	imagerel $ip2state$?ImGui_ImplOpenGL3_CreateDeviceObjects@@YA_NXZ
xdata	ENDS
;	COMDAT xdata
xdata	SEGMENT
$unwind$?ImGui_ImplOpenGL3_CreateDeviceObjects@@YA_NXZ DD 071311H
	DD	0120113H
	DD	07005e007H
	DD	030036004H
	DD	05002H
	DD	imagerel __CxxFrameHandler4
	DD	imagerel $cppxdata$?ImGui_ImplOpenGL3_CreateDeviceObjects@@YA_NXZ
xdata	ENDS
;	COMDAT xdata
xdata	SEGMENT
$chain$1$?ImGui_ImplOpenGL3_DestroyFontsTexture@@YAXXZ DD 021H
	DD	imagerel $LN5
	DD	imagerel $LN5+13
	DD	imagerel $unwind$?ImGui_ImplOpenGL3_DestroyFontsTexture@@YAXXZ
xdata	ENDS
;	COMDAT xdata
xdata	SEGMENT
$chain$0$?ImGui_ImplOpenGL3_DestroyFontsTexture@@YAXXZ DD 020521H
	DD	043405H
	DD	imagerel $LN5
	DD	imagerel $LN5+13
	DD	imagerel $unwind$?ImGui_ImplOpenGL3_DestroyFontsTexture@@YAXXZ
xdata	ENDS
;	COMDAT xdata
xdata	SEGMENT
$unwind$?ImGui_ImplOpenGL3_DestroyFontsTexture@@YAXXZ DD 010401H
	DD	04204H
xdata	ENDS
;	COMDAT xdata
xdata	SEGMENT
$unwind$?ImGui_ImplOpenGL3_CreateFontsTexture@@YA_NXZ DD 020601H
	DD	030029206H
xdata	ENDS
;	COMDAT xdata
xdata	SEGMENT
$chain$13$?ImGui_ImplOpenGL3_RenderDrawData@@YAXPEAUImDrawData@@@Z DD 021H
	DD	imagerel $LN43
	DD	imagerel $LN43+86
	DD	imagerel $unwind$?ImGui_ImplOpenGL3_RenderDrawData@@YAXPEAUImDrawData@@@Z
xdata	ENDS
;	COMDAT xdata
xdata	SEGMENT
$chain$12$?ImGui_ImplOpenGL3_RenderDrawData@@YAXPEAUImDrawData@@@Z DD 020021H
	DD	0297400H
	DD	imagerel $LN43
	DD	imagerel $LN43+86
	DD	imagerel $unwind$?ImGui_ImplOpenGL3_RenderDrawData@@YAXPEAUImDrawData@@@Z
xdata	ENDS
;	COMDAT xdata
xdata	SEGMENT
$chain$11$?ImGui_ImplOpenGL3_RenderDrawData@@YAXPEAUImDrawData@@@Z DD 040021H
	DD	020e400H
	DD	0297400H
	DD	imagerel $LN43
	DD	imagerel $LN43+86
	DD	imagerel $unwind$?ImGui_ImplOpenGL3_RenderDrawData@@YAXPEAUImDrawData@@@Z
xdata	ENDS
;	COMDAT xdata
xdata	SEGMENT
$chain$10$?ImGui_ImplOpenGL3_RenderDrawData@@YAXPEAUImDrawData@@@Z DD 060021H
	DD	020e400H
	DD	0297400H
	DD	0286400H
	DD	imagerel $LN43
	DD	imagerel $LN43+86
	DD	imagerel $unwind$?ImGui_ImplOpenGL3_RenderDrawData@@YAXPEAUImDrawData@@@Z
xdata	ENDS
;	COMDAT xdata
xdata	SEGMENT
$chain$9$?ImGui_ImplOpenGL3_RenderDrawData@@YAXPEAUImDrawData@@@Z DD 021H
	DD	imagerel $LN43+86
	DD	imagerel $LN43+526
	DD	imagerel $chain$7$?ImGui_ImplOpenGL3_RenderDrawData@@YAXPEAUImDrawData@@@Z
xdata	ENDS
;	COMDAT xdata
xdata	SEGMENT
$chain$8$?ImGui_ImplOpenGL3_RenderDrawData@@YAXPEAUImDrawData@@@Z DD 020821H
	DD	0f6808H
	DD	imagerel $LN43+86
	DD	imagerel $LN43+526
	DD	imagerel $chain$7$?ImGui_ImplOpenGL3_RenderDrawData@@YAXPEAUImDrawData@@@Z
xdata	ENDS
;	COMDAT xdata
xdata	SEGMENT
$chain$7$?ImGui_ImplOpenGL3_RenderDrawData@@YAXPEAUImDrawData@@@Z DD 0102e21H
	DD	0ba82eH
	DD	0c9829H
	DD	0d8824H
	DD	0e781fH
	DD	020e41aH
	DD	0297416H
	DD	028640dH
	DD	0273404H
	DD	imagerel $LN43
	DD	imagerel $LN43+86
	DD	imagerel $unwind$?ImGui_ImplOpenGL3_RenderDrawData@@YAXPEAUImDrawData@@@Z
xdata	ENDS
;	COMDAT xdata
xdata	SEGMENT
$unwind$?ImGui_ImplOpenGL3_RenderDrawData@@YAXPEAUImDrawData@@@Z DD 062319H
	DD	0210115H
	DD	0d008f00aH
	DD	05004c006H
	DD	imagerel __GSHandlerCheck
	DD	0a0H
xdata	ENDS
;	COMDAT xdata
xdata	SEGMENT
$chain$1$?ImGui_ImplOpenGL3_Shutdown@@YAXXZ DD 021H
	DD	imagerel $LN18
	DD	imagerel $LN18+220
	DD	imagerel $unwind$?ImGui_ImplOpenGL3_Shutdown@@YAXXZ
xdata	ENDS
;	COMDAT xdata
xdata	SEGMENT
$chain$0$?ImGui_ImplOpenGL3_Shutdown@@YAXXZ DD 020521H
	DD	063405H
	DD	imagerel $LN18
	DD	imagerel $LN18+220
	DD	imagerel $unwind$?ImGui_ImplOpenGL3_Shutdown@@YAXXZ
xdata	ENDS
;	COMDAT xdata
xdata	SEGMENT
$unwind$?ImGui_ImplOpenGL3_Shutdown@@YAXXZ DD 020601H
	DD	070023206H
xdata	ENDS
;	COMDAT xdata
xdata	SEGMENT
$unwind$?ImGui_ImplOpenGL3_Init@@YA_NPEBD@Z DD 040a01H
	DD	09340aH
	DD	07006320aH
xdata	ENDS
;	COMDAT xdata
xdata	SEGMENT
$unwind$??A?$ImVector@UImDrawCmd@@@@QEBAAEBUImDrawCmd@@H@Z DD 040a01H
	DD	06340aH
	DD	07006320aH
xdata	ENDS
;	COMDAT xdata
xdata	SEGMENT
$chain$1$?reserve@?$ImVector@D@@QEAAXH@Z DD 021H
	DD	imagerel $LN6
	DD	imagerel $LN6+24
	DD	imagerel $unwind$?reserve@?$ImVector@D@@QEAAXH@Z
xdata	ENDS
;	COMDAT xdata
xdata	SEGMENT
$chain$0$?reserve@?$ImVector@D@@QEAAXH@Z DD 020521H
	DD	066405H
	DD	imagerel $LN6
	DD	imagerel $LN6+24
	DD	imagerel $unwind$?reserve@?$ImVector@D@@QEAAXH@Z
xdata	ENDS
;	COMDAT xdata
xdata	SEGMENT
$unwind$?reserve@?$ImVector@D@@QEAAXH@Z DD 040a01H
	DD	07340aH
	DD	07006320aH
xdata	ENDS
;	COMDAT xdata
xdata	SEGMENT
$chain$4$?resize@?$ImVector@D@@QEAAXH@Z DD 021H
	DD	imagerel $LN16
	DD	imagerel $LN16+26
	DD	imagerel $unwind$?resize@?$ImVector@D@@QEAAXH@Z
xdata	ENDS
;	COMDAT xdata
xdata	SEGMENT
$chain$3$?resize@?$ImVector@D@@QEAAXH@Z DD 020021H
	DD	076400H
	DD	imagerel $LN16
	DD	imagerel $LN16+26
	DD	imagerel $unwind$?resize@?$ImVector@D@@QEAAXH@Z
xdata	ENDS
;	COMDAT xdata
xdata	SEGMENT
$chain$1$?resize@?$ImVector@D@@QEAAXH@Z DD 042c21H
	DD	06542cH
	DD	076405H
	DD	imagerel $LN16
	DD	imagerel $LN16+26
	DD	imagerel $unwind$?resize@?$ImVector@D@@QEAAXH@Z
xdata	ENDS
;	COMDAT xdata
xdata	SEGMENT
$unwind$?resize@?$ImVector@D@@QEAAXH@Z DD 040a01H
	DD	08340aH
	DD	07006320aH
xdata	ENDS
;	COMDAT xdata
xdata	SEGMENT
$ip2state$??1?$ImVector@D@@QEAA@XZ DB 02H
	DB	01aH
	DB	00H
xdata	ENDS
;	COMDAT xdata
xdata	SEGMENT
$cppxdata$??1?$ImVector@D@@QEAA@XZ DB 060H
	DD	imagerel $ip2state$??1?$ImVector@D@@QEAA@XZ
xdata	ENDS
;	COMDAT xdata
xdata	SEGMENT
$unwind$??1?$ImVector@D@@QEAA@XZ DD 010419H
	DD	04204H
	DD	imagerel __CxxFrameHandler4
	DD	imagerel $cppxdata$??1?$ImVector@D@@QEAA@XZ
xdata	ENDS
; Function compile flags: /Ogtpy
;	COMDAT ?CheckProgram@@YA_NIPEBD@Z
_TEXT	SEGMENT
buf$1 = 32
handle$ = 64
desc$ = 72
log_length$ = 80
status$ = 88
?CheckProgram@@YA_NIPEBD@Z PROC				; CheckProgram, COMDAT
; File E:\reps\ocornut\imgui\examples\imgui_impl_opengl3.cpp
; Line 470
	mov	QWORD PTR [rsp+8], rbx
	mov	QWORD PTR [rsp+16], rsi
	push	rdi
	sub	rsp, 48					; 00000030H
	mov	rbx, rdx
	mov	edi, ecx
; Line 471
	xor	esi, esi
	mov	DWORD PTR status$[rsp], esi
	mov	DWORD PTR log_length$[rsp], esi
; Line 472
	lea	r8, QWORD PTR status$[rsp]
	mov	edx, 35714				; 00008b82H
	call	QWORD PTR glad_glGetProgramiv
; Line 473
	lea	r8, QWORD PTR log_length$[rsp]
	mov	edx, 35716				; 00008b84H
	mov	ecx, edi
	call	QWORD PTR glad_glGetProgramiv
; Line 474
	cmp	BYTE PTR status$[rsp], sil
	jne	SHORT $LN2@CheckProgr
; Line 475
	lea	ecx, QWORD PTR [rsi+2]
	call	QWORD PTR __imp___acrt_iob_func
	mov	rcx, rax
	lea	r9, OFFSET FLAT:?g_GlslVersionString@@3PADA
	mov	r8, rbx
	lea	rdx, OFFSET FLAT:??_C@_0FD@JIPAKNEL@ERROR?3?5ImGui_ImplOpenGL3_Create@
	call	fprintf
$LN2@CheckProgr:
; Line 476
	mov	edx, DWORD PTR log_length$[rsp]
	cmp	edx, 1
	jle	SHORT $LN14@CheckProgr
; File E:\reps\ocornut\imgui\imgui.h
; Line 1317
	mov	QWORD PTR buf$1[rsp], rsi
	mov	QWORD PTR buf$1[rsp+8], rsi
; File E:\reps\ocornut\imgui\examples\imgui_impl_opengl3.cpp
; Line 479
	inc	edx
	lea	rcx, QWORD PTR buf$1[rsp]
	call	?resize@?$ImVector@D@@QEAAXH@Z		; ImVector<char>::resize
; Line 480
	mov	rbx, QWORD PTR buf$1[rsp+8]
	mov	r9, rbx
	xor	r8d, r8d
	mov	edx, DWORD PTR log_length$[rsp]
	mov	ecx, edi
	call	QWORD PTR glad_glGetProgramInfoLog
; Line 481
	mov	ecx, 2
	call	QWORD PTR __imp___acrt_iob_func
	mov	rcx, rax
	mov	r8, rbx
	lea	rdx, OFFSET FLAT:??_C@_03OFAPEBGM@?$CFs?6@
	call	fprintf
	npad	1
; File E:\reps\ocornut\imgui\imgui.h
; Line 1320
	test	rbx, rbx
	je	SHORT $LN13@CheckProgr
	mov	rcx, rbx
	call	?MemFree@ImGui@@YAXPEAX@Z		; ImGui::MemFree
	npad	1
$LN13@CheckProgr:
$LN14@CheckProgr:
; File E:\reps\ocornut\imgui\examples\imgui_impl_opengl3.cpp
; Line 483
	cmp	BYTE PTR status$[rsp], 1
	sete	al
; Line 484
	mov	rbx, QWORD PTR [rsp+64]
	mov	rsi, QWORD PTR [rsp+72]
	add	rsp, 48					; 00000030H
	pop	rdi
	ret	0
?CheckProgram@@YA_NIPEBD@Z ENDP				; CheckProgram
_TEXT	ENDS
;	COMDAT text$x
text$x	SEGMENT
buf$1 = 32
handle$ = 64
desc$ = 72
log_length$ = 80
status$ = 88
?dtor$0@?0??CheckProgram@@YA_NIPEBD@Z@4HA PROC		; `CheckProgram'::`1'::dtor$0
	lea	rcx, QWORD PTR buf$1[rdx]
	jmp	??1?$ImVector@D@@QEAA@XZ		; ImVector<char>::~ImVector<char>
?dtor$0@?0??CheckProgram@@YA_NIPEBD@Z@4HA ENDP		; `CheckProgram'::`1'::dtor$0
text$x	ENDS
; Function compile flags: /Ogtpy
;	COMDAT text$x
text$x	SEGMENT
buf$1 = 32
handle$ = 64
desc$ = 72
log_length$ = 80
status$ = 88
?dtor$0@?0??CheckProgram@@YA_NIPEBD@Z@4HA PROC		; `CheckProgram'::`1'::dtor$0
	lea	rcx, QWORD PTR buf$1[rdx]
	jmp	??1?$ImVector@D@@QEAA@XZ		; ImVector<char>::~ImVector<char>
?dtor$0@?0??CheckProgram@@YA_NIPEBD@Z@4HA ENDP		; `CheckProgram'::`1'::dtor$0
text$x	ENDS
; Function compile flags: /Ogtpy
;	COMDAT ?CheckShader@@YA_NIPEBD@Z
_TEXT	SEGMENT
buf$1 = 32
handle$ = 64
desc$ = 72
log_length$ = 80
status$ = 88
?CheckShader@@YA_NIPEBD@Z PROC				; CheckShader, COMDAT
; File E:\reps\ocornut\imgui\examples\imgui_impl_opengl3.cpp
; Line 452
	mov	QWORD PTR [rsp+8], rbx
	mov	QWORD PTR [rsp+16], rsi
	push	rdi
	sub	rsp, 48					; 00000030H
	mov	rbx, rdx
	mov	edi, ecx
; Line 453
	xor	esi, esi
	mov	DWORD PTR status$[rsp], esi
	mov	DWORD PTR log_length$[rsp], esi
; Line 454
	lea	r8, QWORD PTR status$[rsp]
	mov	edx, 35713				; 00008b81H
	call	QWORD PTR glad_glGetShaderiv
; Line 455
	lea	r8, QWORD PTR log_length$[rsp]
	mov	edx, 35716				; 00008b84H
	mov	ecx, edi
	call	QWORD PTR glad_glGetShaderiv
; Line 456
	cmp	BYTE PTR status$[rsp], sil
	jne	SHORT $LN2@CheckShade
; Line 457
	lea	ecx, QWORD PTR [rsi+2]
	call	QWORD PTR __imp___acrt_iob_func
	mov	rcx, rax
	mov	r8, rbx
	lea	rdx, OFFSET FLAT:??_C@_0EF@IOLHKAIK@ERROR?3?5ImGui_ImplOpenGL3_Create@
	call	fprintf
$LN2@CheckShade:
; Line 458
	mov	edx, DWORD PTR log_length$[rsp]
	cmp	edx, 1
	jle	SHORT $LN14@CheckShade
; File E:\reps\ocornut\imgui\imgui.h
; Line 1317
	mov	QWORD PTR buf$1[rsp], rsi
	mov	QWORD PTR buf$1[rsp+8], rsi
; File E:\reps\ocornut\imgui\examples\imgui_impl_opengl3.cpp
; Line 461
	inc	edx
	lea	rcx, QWORD PTR buf$1[rsp]
	call	?resize@?$ImVector@D@@QEAAXH@Z		; ImVector<char>::resize
; Line 462
	mov	rbx, QWORD PTR buf$1[rsp+8]
	mov	r9, rbx
	xor	r8d, r8d
	mov	edx, DWORD PTR log_length$[rsp]
	mov	ecx, edi
	call	QWORD PTR glad_glGetShaderInfoLog
; Line 463
	mov	ecx, 2
	call	QWORD PTR __imp___acrt_iob_func
	mov	rcx, rax
	mov	r8, rbx
	lea	rdx, OFFSET FLAT:??_C@_03OFAPEBGM@?$CFs?6@
	call	fprintf
	npad	1
; File E:\reps\ocornut\imgui\imgui.h
; Line 1320
	test	rbx, rbx
	je	SHORT $LN13@CheckShade
	mov	rcx, rbx
	call	?MemFree@ImGui@@YAXPEAX@Z		; ImGui::MemFree
	npad	1
$LN13@CheckShade:
$LN14@CheckShade:
; File E:\reps\ocornut\imgui\examples\imgui_impl_opengl3.cpp
; Line 465
	cmp	BYTE PTR status$[rsp], 1
	sete	al
; Line 466
	mov	rbx, QWORD PTR [rsp+64]
	mov	rsi, QWORD PTR [rsp+72]
	add	rsp, 48					; 00000030H
	pop	rdi
	ret	0
?CheckShader@@YA_NIPEBD@Z ENDP				; CheckShader
_TEXT	ENDS
;	COMDAT text$x
text$x	SEGMENT
buf$1 = 32
handle$ = 64
desc$ = 72
log_length$ = 80
status$ = 88
?dtor$0@?0??CheckShader@@YA_NIPEBD@Z@4HA PROC		; `CheckShader'::`1'::dtor$0
	lea	rcx, QWORD PTR buf$1[rdx]
	jmp	??1?$ImVector@D@@QEAA@XZ		; ImVector<char>::~ImVector<char>
?dtor$0@?0??CheckShader@@YA_NIPEBD@Z@4HA ENDP		; `CheckShader'::`1'::dtor$0
text$x	ENDS
; Function compile flags: /Ogtpy
;	COMDAT text$x
text$x	SEGMENT
buf$1 = 32
handle$ = 64
desc$ = 72
log_length$ = 80
status$ = 88
?dtor$0@?0??CheckShader@@YA_NIPEBD@Z@4HA PROC		; `CheckShader'::`1'::dtor$0
	lea	rcx, QWORD PTR buf$1[rdx]
	jmp	??1?$ImVector@D@@QEAA@XZ		; ImVector<char>::~ImVector<char>
?dtor$0@?0??CheckShader@@YA_NIPEBD@Z@4HA ENDP		; `CheckShader'::`1'::dtor$0
text$x	ENDS
; Function compile flags: /Ogtpy
;	COMDAT ?ImGui_ImplOpenGL3_SetupRenderState@@YAXPEAUImDrawData@@HHI@Z
_TEXT	SEGMENT
current_clip_origin$ = 48
ortho_projection$ = 64
__$ArrayPad$ = 128
draw_data$ = 224
fb_width$ = 232
fb_height$ = 240
vertex_array_object$ = 248
?ImGui_ImplOpenGL3_SetupRenderState@@YAXPEAUImDrawData@@HHI@Z PROC ; ImGui_ImplOpenGL3_SetupRenderState, COMDAT
; File E:\reps\ocornut\imgui\examples\imgui_impl_opengl3.cpp
; Line 223
	push	rbx
	push	rbp
	push	rsi
	push	rdi
	push	r14
	push	r15
	sub	rsp, 168				; 000000a8H
	movaps	XMMWORD PTR [rsp+144], xmm6
	mov	rax, QWORD PTR __security_cookie
	xor	rax, rsp
	mov	QWORD PTR __$ArrayPad$[rsp], rax
	mov	rbp, rcx
	mov	r14d, r9d
; Line 225
	mov	ecx, 3042				; 00000be2H
	mov	esi, r8d
	mov	edi, edx
	call	QWORD PTR glad_glEnable
; Line 226
	mov	ecx, 32774				; 00008006H
	call	QWORD PTR glad_glBlendEquation
; Line 227
	mov	edx, 771				; 00000303H
	lea	ecx, QWORD PTR [rdx-1]
	call	QWORD PTR glad_glBlendFunc
; Line 228
	mov	ecx, 2884				; 00000b44H
	call	QWORD PTR glad_glDisable
; Line 229
	mov	ecx, 2929				; 00000b71H
	call	QWORD PTR glad_glDisable
; Line 230
	mov	ecx, 3089				; 00000c11H
	call	QWORD PTR glad_glEnable
; Line 232
	mov	edx, 6914				; 00001b02H
	mov	ecx, 1032				; 00000408H
	call	QWORD PTR glad_glPolygonMode
; Line 238
	xor	r15d, r15d
	lea	rdx, QWORD PTR current_clip_origin$[rsp]
	mov	ecx, 37724				; 0000935cH
	mov	DWORD PTR current_clip_origin$[rsp], r15d
	mov	bl, 1
	call	QWORD PTR glad_glGetIntegerv
; Line 239
	cmp	DWORD PTR current_clip_origin$[rsp], 36002 ; 00008ca2H
; Line 245
	mov	r9d, esi
	movzx	ebx, bl
	mov	r8d, edi
	cmove	ebx, r15d
	xor	edx, edx
	xor	ecx, ecx
	call	QWORD PTR glad_glViewport
; Line 248
	movss	xmm4, DWORD PTR [rbp+32]
	movss	xmm6, DWORD PTR [rbp+28]
; Line 249
	movaps	xmm3, xmm4
	movaps	xmm5, xmm6
	addss	xmm3, DWORD PTR [rbp+40]
	addss	xmm5, DWORD PTR [rbp+36]
; Line 250
	test	bl, bl
	jne	SHORT $LN3@ImGui_Impl
	movaps	xmm0, xmm4
	movaps	xmm4, xmm3
	movaps	xmm3, xmm0
$LN3@ImGui_Impl:
; Line 253
	movss	xmm2, DWORD PTR __real@40000000
	movaps	xmm1, xmm5
; Line 258
	mov	ecx, DWORD PTR ?g_ShaderHandle@@3IA
	subss	xmm1, xmm6
	movaps	xmm0, xmm2
	mov	QWORD PTR ortho_projection$[rsp+4], r15
	mov	QWORD PTR ortho_projection$[rsp+12], r15
	mov	QWORD PTR ortho_projection$[rsp+24], r15
	mov	DWORD PTR ortho_projection$[rsp+56], r15d
	divss	xmm0, xmm1
	movaps	xmm1, xmm5
	movss	DWORD PTR ortho_projection$[rsp], xmm0
	addss	xmm1, xmm6
	movaps	xmm0, xmm4
	subss	xmm6, xmm5
	subss	xmm0, xmm3
	divss	xmm1, xmm6
	divss	xmm2, xmm0
	movaps	xmm0, XMMWORD PTR __xmm@00000000bf8000000000000000000000
	movaps	XMMWORD PTR ortho_projection$[rsp+32], xmm0
	movaps	xmm0, xmm3
	addss	xmm0, xmm4
	movss	DWORD PTR ortho_projection$[rsp+20], xmm2
	subss	xmm3, xmm4
	movss	DWORD PTR ortho_projection$[rsp+48], xmm1
	divss	xmm0, xmm3
	movss	DWORD PTR ortho_projection$[rsp+52], xmm0
	movss	xmm0, DWORD PTR __real@3f800000
	movss	DWORD PTR ortho_projection$[rsp+60], xmm0
	call	QWORD PTR glad_glUseProgram
; Line 259
	mov	ecx, DWORD PTR ?g_AttribLocationTex@@3HA
	xor	edx, edx
	call	QWORD PTR glad_glUniform1i
; Line 260
	mov	ecx, DWORD PTR ?g_AttribLocationProjMtx@@3HA
	lea	r9, QWORD PTR ortho_projection$[rsp]
	xor	r8d, r8d
	lea	edx, QWORD PTR [r8+1]
	call	QWORD PTR glad_glUniformMatrix4fv
; Line 262
	xor	edx, edx
	xor	ecx, ecx
	call	QWORD PTR glad_glBindSampler
; Line 267
	mov	ecx, r14d
	call	QWORD PTR glad_glBindVertexArray
; Line 271
	mov	edx, DWORD PTR ?g_VboHandle@@3IA
	mov	ecx, 34962				; 00008892H
	call	QWORD PTR glad_glBindBuffer
; Line 272
	mov	edx, DWORD PTR ?g_ElementsHandle@@3IA
	mov	ecx, 34963				; 00008893H
	call	QWORD PTR glad_glBindBuffer
; Line 273
	mov	ecx, DWORD PTR ?g_AttribLocationVtxPos@@3HA
	call	QWORD PTR glad_glEnableVertexAttribArray
; Line 274
	mov	ecx, DWORD PTR ?g_AttribLocationVtxUV@@3HA
	call	QWORD PTR glad_glEnableVertexAttribArray
; Line 275
	mov	ecx, DWORD PTR ?g_AttribLocationVtxColor@@3HA
	call	QWORD PTR glad_glEnableVertexAttribArray
; Line 276
	mov	ecx, DWORD PTR ?g_AttribLocationVtxPos@@3HA
	xor	r9d, r9d
	mov	QWORD PTR [rsp+40], r15
	mov	r8d, 5126				; 00001406H
	mov	DWORD PTR [rsp+32], 20
	lea	edx, QWORD PTR [r9+2]
	call	QWORD PTR glad_glVertexAttribPointer
; Line 277
	mov	ecx, DWORD PTR ?g_AttribLocationVtxUV@@3HA
	xor	r9d, r9d
	mov	QWORD PTR [rsp+40], 8
	mov	r8d, 5126				; 00001406H
	mov	DWORD PTR [rsp+32], 20
	lea	edx, QWORD PTR [r9+2]
	call	QWORD PTR glad_glVertexAttribPointer
; Line 278
	mov	ecx, DWORD PTR ?g_AttribLocationVtxColor@@3HA
	mov	r9b, 1
	mov	edx, 4
	mov	QWORD PTR [rsp+40], 16
	mov	r8d, 5121				; 00001401H
	mov	DWORD PTR [rsp+32], 20
	call	QWORD PTR glad_glVertexAttribPointer
; Line 279
	mov	rcx, QWORD PTR __$ArrayPad$[rsp]
	xor	rcx, rsp
	call	__security_check_cookie
	movaps	xmm6, XMMWORD PTR [rsp+144]
	add	rsp, 168				; 000000a8H
	pop	r15
	pop	r14
	pop	rdi
	pop	rsi
	pop	rbp
	pop	rbx
	ret	0
?ImGui_ImplOpenGL3_SetupRenderState@@YAXPEAUImDrawData@@HHI@Z ENDP ; ImGui_ImplOpenGL3_SetupRenderState
_TEXT	ENDS
; Function compile flags: /Ogtpy
;	COMDAT sscanf
_TEXT	SEGMENT
_Buffer$ = 80
_Format$ = 88
sscanf	PROC						; COMDAT
; File C:\Program Files (x86)\Windows Kits\10\include\10.0.18362.0\ucrt\stdio.h
; Line 2270
$LN6:
	mov	QWORD PTR [rsp+16], rdx
	mov	QWORD PTR [rsp+24], r8
	mov	QWORD PTR [rsp+32], r9
	push	rbx
	push	rsi
	push	rdi
	sub	rsp, 48					; 00000030H
	mov	rbx, rdx
; Line 2273
	lea	rsi, QWORD PTR _Format$[rsp+8]
	mov	rdi, rcx
; Line 2176
	call	__local_stdio_scanf_options
	mov	QWORD PTR [rsp+40], rsi
	mov	r9, rbx
	mov	r8, -1
	mov	QWORD PTR [rsp+32], 0
	mov	rdx, rdi
	mov	rcx, QWORD PTR [rax]
	call	QWORD PTR __imp___stdio_common_vsscanf
; Line 2277
	add	rsp, 48					; 00000030H
	pop	rdi
	pop	rsi
	pop	rbx
	ret	0
sscanf	ENDP
_TEXT	ENDS
; Function compile flags: /Ogtpy
;	COMDAT _vsscanf_l
_TEXT	SEGMENT
_Buffer$ = 64
_Format$ = 72
_Locale$ = 80
_ArgList$ = 88
_vsscanf_l PROC						; COMDAT
; File C:\Program Files (x86)\Windows Kits\10\include\10.0.18362.0\ucrt\stdio.h
; Line 2175
$LN4:
	mov	QWORD PTR [rsp+8], rbx
	mov	QWORD PTR [rsp+16], rbp
	mov	QWORD PTR [rsp+24], rsi
	push	rdi
	sub	rsp, 48					; 00000030H
	mov	rbx, r9
	mov	rdi, r8
	mov	rsi, rdx
	mov	rbp, rcx
; Line 2176
	call	__local_stdio_scanf_options
	mov	QWORD PTR [rsp+40], rbx
	mov	r9, rsi
	mov	r8, -1
	mov	QWORD PTR [rsp+32], rdi
	mov	rdx, rbp
	mov	rcx, QWORD PTR [rax]
	call	QWORD PTR __imp___stdio_common_vsscanf
; Line 2179
	mov	rbx, QWORD PTR [rsp+64]
	mov	rbp, QWORD PTR [rsp+72]
	mov	rsi, QWORD PTR [rsp+80]
	add	rsp, 48					; 00000030H
	pop	rdi
	ret	0
_vsscanf_l ENDP
_TEXT	ENDS
; Function compile flags: /Ogtpy
;	COMDAT fprintf
_TEXT	SEGMENT
_Stream$ = 80
_Format$ = 88
fprintf	PROC						; COMDAT
; File C:\Program Files (x86)\Windows Kits\10\include\10.0.18362.0\ucrt\stdio.h
; Line 835
$LN6:
	mov	QWORD PTR [rsp+16], rdx
	mov	QWORD PTR [rsp+24], r8
	mov	QWORD PTR [rsp+32], r9
	push	rbx
	push	rsi
	push	rdi
	sub	rsp, 48					; 00000030H
	mov	rdi, rdx
; Line 838
	lea	rsi, QWORD PTR _Format$[rsp+8]
	mov	rbx, rcx
; Line 643
	call	__local_stdio_printf_options
	xor	r9d, r9d
	mov	QWORD PTR [rsp+32], rsi
	mov	r8, rdi
	mov	rdx, rbx
	mov	rcx, QWORD PTR [rax]
	call	QWORD PTR __imp___stdio_common_vfprintf
; Line 842
	add	rsp, 48					; 00000030H
	pop	rdi
	pop	rsi
	pop	rbx
	ret	0
fprintf	ENDP
_TEXT	ENDS
; Function compile flags: /Ogtpy
;	COMDAT _vfprintf_l
_TEXT	SEGMENT
_Stream$ = 64
_Format$ = 72
_Locale$ = 80
_ArgList$ = 88
_vfprintf_l PROC					; COMDAT
; File C:\Program Files (x86)\Windows Kits\10\include\10.0.18362.0\ucrt\stdio.h
; Line 642
$LN4:
	mov	QWORD PTR [rsp+8], rbx
	mov	QWORD PTR [rsp+16], rbp
	mov	QWORD PTR [rsp+24], rsi
	push	rdi
	sub	rsp, 48					; 00000030H
	mov	rbx, r9
	mov	rdi, r8
	mov	rsi, rdx
	mov	rbp, rcx
; Line 643
	call	__local_stdio_printf_options
	mov	r9, rdi
	mov	QWORD PTR [rsp+32], rbx
	mov	r8, rsi
	mov	rdx, rbp
	mov	rcx, QWORD PTR [rax]
	call	QWORD PTR __imp___stdio_common_vfprintf
; Line 644
	mov	rbx, QWORD PTR [rsp+64]
	mov	rbp, QWORD PTR [rsp+72]
	mov	rsi, QWORD PTR [rsp+80]
	add	rsp, 48					; 00000030H
	pop	rdi
	ret	0
_vfprintf_l ENDP
_TEXT	ENDS
; Function compile flags: /Ogtpy
;	COMDAT __local_stdio_scanf_options
_TEXT	SEGMENT
__local_stdio_scanf_options PROC			; COMDAT
; File C:\Program Files (x86)\Windows Kits\10\include\10.0.18362.0\ucrt\corecrt_stdio_config.h
; Line 98
	lea	rax, OFFSET FLAT:?_OptionsStorage@?1??__local_stdio_scanf_options@@9@4_KA ; `__local_stdio_scanf_options'::`2'::_OptionsStorage
; Line 99
	ret	0
__local_stdio_scanf_options ENDP
_TEXT	ENDS
; Function compile flags: /Ogtpy
;	COMDAT __local_stdio_printf_options
_TEXT	SEGMENT
__local_stdio_printf_options PROC			; COMDAT
; File C:\Program Files (x86)\Windows Kits\10\include\10.0.18362.0\ucrt\corecrt_stdio_config.h
; Line 88
	lea	rax, OFFSET FLAT:?_OptionsStorage@?1??__local_stdio_printf_options@@9@4_KA ; `__local_stdio_printf_options'::`2'::_OptionsStorage
; Line 89
	ret	0
__local_stdio_printf_options ENDP
_TEXT	ENDS
; Function compile flags: /Ogtpy
;	COMDAT ?ImGui_ImplOpenGL3_DestroyDeviceObjects@@YAXXZ
_TEXT	SEGMENT
?ImGui_ImplOpenGL3_DestroyDeviceObjects@@YAXXZ PROC	; ImGui_ImplOpenGL3_DestroyDeviceObjects, COMDAT
; File E:\reps\ocornut\imgui\examples\imgui_impl_opengl3.cpp
; Line 667
$LN16:
	push	rdi
	sub	rsp, 32					; 00000020H
; Line 668
	xor	edi, edi
	cmp	DWORD PTR ?g_VboHandle@@3IA, edi
	je	SHORT $LN2@ImGui_Impl
	lea	rdx, OFFSET FLAT:?g_VboHandle@@3IA
	lea	ecx, QWORD PTR [rdi+1]
	call	QWORD PTR glad_glDeleteBuffers
	mov	DWORD PTR ?g_VboHandle@@3IA, edi
$LN2@ImGui_Impl:
; Line 669
	cmp	DWORD PTR ?g_ElementsHandle@@3IA, edi
	je	SHORT $LN3@ImGui_Impl
	lea	rdx, OFFSET FLAT:?g_ElementsHandle@@3IA
	mov	ecx, 1
	call	QWORD PTR glad_glDeleteBuffers
	mov	DWORD PTR ?g_ElementsHandle@@3IA, edi
$LN3@ImGui_Impl:
; Line 670
	mov	ecx, DWORD PTR ?g_ShaderHandle@@3IA
	mov	eax, DWORD PTR ?g_VertHandle@@3IA
	test	ecx, ecx
	je	SHORT $LN5@ImGui_Impl
	test	eax, eax
	je	SHORT $LN4@ImGui_Impl
	mov	edx, eax
	call	QWORD PTR glad_glDetachShader
	mov	ecx, DWORD PTR ?g_ShaderHandle@@3IA
	mov	eax, DWORD PTR ?g_VertHandle@@3IA
$LN4@ImGui_Impl:
; Line 671
	test	ecx, ecx
	je	SHORT $LN5@ImGui_Impl
	mov	edx, DWORD PTR ?g_FragHandle@@3IA
	test	edx, edx
	je	SHORT $LN5@ImGui_Impl
	call	QWORD PTR glad_glDetachShader
	mov	ecx, DWORD PTR ?g_ShaderHandle@@3IA
	mov	eax, DWORD PTR ?g_VertHandle@@3IA
$LN5@ImGui_Impl:
; Line 672
	test	eax, eax
	je	SHORT $LN6@ImGui_Impl
	mov	ecx, eax
	call	QWORD PTR glad_glDeleteShader
	mov	ecx, DWORD PTR ?g_ShaderHandle@@3IA
	mov	DWORD PTR ?g_VertHandle@@3IA, edi
$LN6@ImGui_Impl:
; Line 673
	mov	edx, DWORD PTR ?g_FragHandle@@3IA
	test	edx, edx
	je	SHORT $LN7@ImGui_Impl
	mov	ecx, edx
	call	QWORD PTR glad_glDeleteShader
	mov	ecx, DWORD PTR ?g_ShaderHandle@@3IA
	mov	DWORD PTR ?g_FragHandle@@3IA, edi
$LN7@ImGui_Impl:
; Line 674
	test	ecx, ecx
	je	SHORT $LN8@ImGui_Impl
	call	QWORD PTR glad_glDeleteProgram
	mov	DWORD PTR ?g_ShaderHandle@@3IA, edi
$LN8@ImGui_Impl:
; Line 441
	cmp	DWORD PTR ?g_FontTexture@@3IA, edi
	je	SHORT $LN11@ImGui_Impl
; Line 443
	mov	QWORD PTR [rsp+48], rbx
	call	?GetIO@ImGui@@YAAEAUImGuiIO@@XZ		; ImGui::GetIO
; Line 444
	lea	rdx, OFFSET FLAT:?g_FontTexture@@3IA
	mov	ecx, 1
	mov	rbx, rax
	call	QWORD PTR glad_glDeleteTextures
; Line 445
	mov	rax, QWORD PTR [rbx+160]
; Line 446
	mov	rbx, QWORD PTR [rsp+48]
	mov	QWORD PTR [rax+8], rdi
	mov	DWORD PTR ?g_FontTexture@@3IA, edi
$LN11@ImGui_Impl:
; Line 677
	add	rsp, 32					; 00000020H
	pop	rdi
	ret	0
?ImGui_ImplOpenGL3_DestroyDeviceObjects@@YAXXZ ENDP	; ImGui_ImplOpenGL3_DestroyDeviceObjects
_TEXT	ENDS
; Function compile flags: /Ogtpy
;	COMDAT ?ImGui_ImplOpenGL3_CreateDeviceObjects@@YA_NXZ
_TEXT	SEGMENT
last_texture$ = 80
last_array_buffer$ = 84
last_vertex_array$ = 88
pixels$1 = 96
buf$2 = 96
vertex_shader_with_version$ = 112
fragment_shader_with_version$ = 128
height$3 = 192
log_length$4 = 192
glsl_version$ = 200
width$5 = 208
status$6 = 208
last_texture$7 = 216
?ImGui_ImplOpenGL3_CreateDeviceObjects@@YA_NXZ PROC	; ImGui_ImplOpenGL3_CreateDeviceObjects, COMDAT
; File E:\reps\ocornut\imgui\examples\imgui_impl_opengl3.cpp
; Line 487
$LN28:
	push	rbp
	push	rbx
	push	rsi
	push	rdi
	push	r14
	lea	rbp, QWORD PTR [rsp-55]
	sub	rsp, 144				; 00000090H
; Line 490
	lea	rdx, QWORD PTR last_texture$[rbp-89]
	mov	ecx, 32873				; 00008069H
	call	QWORD PTR glad_glGetIntegerv
; Line 491
	lea	rdx, QWORD PTR last_array_buffer$[rbp-89]
	mov	ecx, 34964				; 00008894H
	call	QWORD PTR glad_glGetIntegerv
; Line 494
	lea	rdx, QWORD PTR last_vertex_array$[rbp-89]
	mov	ecx, 34229				; 000085b5H
	call	QWORD PTR glad_glGetIntegerv
; Line 498
	mov	DWORD PTR glsl_version$[rbp-89], 130	; 00000082H
; Line 499
	lea	r8, QWORD PTR glsl_version$[rbp-89]
	lea	rdx, OFFSET FLAT:??_C@_0M@GIPNOCDP@?$CDversion?5?$CFd@
	lea	r14, OFFSET FLAT:?g_GlslVersionString@@3PADA
	mov	rcx, r14
	call	sscanf
; Line 604
	mov	eax, DWORD PTR glsl_version$[rbp-89]
	cmp	eax, 130				; 00000082H
	jge	SHORT $LN2@ImGui_Impl
; Line 606
	lea	rax, OFFSET FLAT:??_C@_0PF@HLCKEEPJ@uniform?5mat4?5ProjMtx?$DL?6attribute@
; Line 607
	lea	rbx, OFFSET FLAT:??_C@_0MM@DPJDGIBF@?$CDifdef?5GL_ES?6?5?5?5?5precision?5medi@
; Line 608
	jmp	SHORT $LN7@ImGui_Impl
$LN2@ImGui_Impl:
; Line 609
	cmp	eax, 410				; 0000019aH
	jl	SHORT $LN4@ImGui_Impl
; Line 611
	lea	rax, OFFSET FLAT:??_C@_0BBK@IIAKMGPG@layout?5?$CIlocation?5?$DN?50?$CJ?5in?5vec2?5P@
; Line 612
	lea	rbx, OFFSET FLAT:??_C@_0LG@KGGNFOLP@in?5vec2?5Frag_UV?$DL?6in?5vec4?5Frag_C@
; Line 613
	jmp	SHORT $LN7@ImGui_Impl
$LN4@ImGui_Impl:
; Line 614
	cmp	eax, 300				; 0000012cH
	jne	SHORT $LN6@ImGui_Impl
; Line 616
	lea	rax, OFFSET FLAT:??_C@_0BDD@JFKDKIGE@precision?5mediump?5float?$DL?6layout@
; Line 617
	lea	rbx, OFFSET FLAT:??_C@_0MP@NIPCIBOH@precision?5mediump?5float?$DL?6unifor@
; Line 618
	jmp	SHORT $LN7@ImGui_Impl
$LN6@ImGui_Impl:
; Line 621
	lea	rax, OFFSET FLAT:??_C@_0NI@FNJCCLKC@uniform?5mat4?5ProjMtx?$DL?6in?5vec2?5P@
; Line 622
	lea	rbx, OFFSET FLAT:??_C@_0KA@HKFHPDID@uniform?5sampler2D?5Texture?$DL?6in?5v@
$LN7@ImGui_Impl:
; Line 626
	mov	QWORD PTR vertex_shader_with_version$[rbp-89], r14
	mov	QWORD PTR vertex_shader_with_version$[rbp-81], rax
; Line 627
	mov	ecx, 35633				; 00008b31H
	call	QWORD PTR glad_glCreateShader
	mov	DWORD PTR ?g_VertHandle@@3IA, eax
; Line 628
	xor	r9d, r9d
	lea	r8, QWORD PTR vertex_shader_with_version$[rbp-89]
	lea	edx, QWORD PTR [r9+2]
	mov	ecx, eax
	call	QWORD PTR glad_glShaderSource
; Line 629
	mov	ecx, DWORD PTR ?g_VertHandle@@3IA
	call	QWORD PTR glad_glCompileShader
; Line 630
	lea	rdx, OFFSET FLAT:??_C@_0O@FGFIIOKE@vertex?5shader@
	mov	ecx, DWORD PTR ?g_VertHandle@@3IA
	call	?CheckShader@@YA_NIPEBD@Z		; CheckShader
; Line 632
	mov	QWORD PTR fragment_shader_with_version$[rbp-89], r14
	mov	QWORD PTR fragment_shader_with_version$[rbp-81], rbx
; Line 633
	mov	ecx, 35632				; 00008b30H
	call	QWORD PTR glad_glCreateShader
	mov	DWORD PTR ?g_FragHandle@@3IA, eax
; Line 634
	xor	r9d, r9d
	lea	r8, QWORD PTR fragment_shader_with_version$[rbp-89]
	lea	edx, QWORD PTR [r9+2]
	mov	ecx, eax
	call	QWORD PTR glad_glShaderSource
; Line 635
	mov	ecx, DWORD PTR ?g_FragHandle@@3IA
	call	QWORD PTR glad_glCompileShader
; Line 636
	lea	rdx, OFFSET FLAT:??_C@_0BA@MDFBHBOK@fragment?5shader@
	mov	ecx, DWORD PTR ?g_FragHandle@@3IA
	call	?CheckShader@@YA_NIPEBD@Z		; CheckShader
; Line 638
	call	QWORD PTR glad_glCreateProgram
	mov	DWORD PTR ?g_ShaderHandle@@3IA, eax
; Line 639
	mov	edx, DWORD PTR ?g_VertHandle@@3IA
	mov	ecx, eax
	call	QWORD PTR glad_glAttachShader
; Line 640
	mov	edx, DWORD PTR ?g_FragHandle@@3IA
	mov	ecx, DWORD PTR ?g_ShaderHandle@@3IA
	call	QWORD PTR glad_glAttachShader
; Line 641
	mov	ecx, DWORD PTR ?g_ShaderHandle@@3IA
	call	QWORD PTR glad_glLinkProgram
; Line 642
	mov	edi, DWORD PTR ?g_ShaderHandle@@3IA
; Line 471
	xor	esi, esi
	mov	DWORD PTR status$6[rbp-89], esi
	mov	DWORD PTR log_length$4[rbp-89], esi
; Line 472
	lea	r8, QWORD PTR status$6[rbp-89]
	mov	edx, 35714				; 00008b82H
	mov	ecx, edi
	call	QWORD PTR glad_glGetProgramiv
; Line 473
	lea	r8, QWORD PTR log_length$4[rbp-89]
	mov	edx, 35716				; 00008b84H
	mov	ecx, edi
	call	QWORD PTR glad_glGetProgramiv
; Line 474
	cmp	BYTE PTR status$6[rbp-89], sil
	jne	SHORT $LN10@ImGui_Impl
; Line 475
	lea	ecx, QWORD PTR [rsi+2]
	call	QWORD PTR __imp___acrt_iob_func
	mov	rcx, rax
	mov	r9, r14
	lea	r8, OFFSET FLAT:??_C@_0P@HEBBPOKI@shader?5program@
	lea	rdx, OFFSET FLAT:??_C@_0FD@JIPAKNEL@ERROR?3?5ImGui_ImplOpenGL3_Create@
	call	fprintf
$LN10@ImGui_Impl:
; Line 476
	mov	edx, DWORD PTR log_length$4[rbp-89]
	cmp	edx, 1
	jle	SHORT $LN22@ImGui_Impl
; File E:\reps\ocornut\imgui\imgui.h
; Line 1317
	mov	QWORD PTR buf$2[rbp-89], rsi
	mov	QWORD PTR buf$2[rbp-81], rsi
; File E:\reps\ocornut\imgui\examples\imgui_impl_opengl3.cpp
; Line 479
	inc	edx
	lea	rcx, QWORD PTR buf$2[rbp-89]
	call	?resize@?$ImVector@D@@QEAAXH@Z		; ImVector<char>::resize
; Line 480
	mov	rbx, QWORD PTR buf$2[rbp-81]
	mov	r9, rbx
	xor	r8d, r8d
	mov	edx, DWORD PTR log_length$4[rbp-89]
	mov	ecx, edi
	call	QWORD PTR glad_glGetProgramInfoLog
; Line 481
	mov	ecx, 2
	call	QWORD PTR __imp___acrt_iob_func
	mov	rcx, rax
	mov	r8, rbx
	lea	rdx, OFFSET FLAT:??_C@_03OFAPEBGM@?$CFs?6@
	call	fprintf
	npad	1
; File E:\reps\ocornut\imgui\imgui.h
; Line 1320
	test	rbx, rbx
	je	SHORT $LN21@ImGui_Impl
	mov	rcx, rbx
	call	?MemFree@ImGui@@YAXPEAX@Z		; ImGui::MemFree
	npad	1
$LN21@ImGui_Impl:
$LN22@ImGui_Impl:
; File E:\reps\ocornut\imgui\examples\imgui_impl_opengl3.cpp
; Line 644
	lea	rdx, OFFSET FLAT:??_C@_07GKACAEDJ@Texture@
	mov	ecx, DWORD PTR ?g_ShaderHandle@@3IA
	call	QWORD PTR glad_glGetUniformLocation
	mov	DWORD PTR ?g_AttribLocationTex@@3HA, eax
; Line 645
	lea	rdx, OFFSET FLAT:??_C@_07EDEMHDKD@ProjMtx@
	mov	ecx, DWORD PTR ?g_ShaderHandle@@3IA
	call	QWORD PTR glad_glGetUniformLocation
	mov	DWORD PTR ?g_AttribLocationProjMtx@@3HA, eax
; Line 646
	lea	rdx, OFFSET FLAT:??_C@_08GCJNLIKG@Position@
	mov	ecx, DWORD PTR ?g_ShaderHandle@@3IA
	call	QWORD PTR glad_glGetAttribLocation
	mov	DWORD PTR ?g_AttribLocationVtxPos@@3HA, eax
; Line 647
	lea	rdx, OFFSET FLAT:??_C@_02IGCIDAGE@UV@
	mov	ecx, DWORD PTR ?g_ShaderHandle@@3IA
	call	QWORD PTR glad_glGetAttribLocation
	mov	DWORD PTR ?g_AttribLocationVtxUV@@3HA, eax
; Line 648
	lea	rdx, OFFSET FLAT:??_C@_05PDOBBJNA@Color@
	mov	ecx, DWORD PTR ?g_ShaderHandle@@3IA
	call	QWORD PTR glad_glGetAttribLocation
	mov	DWORD PTR ?g_AttribLocationVtxColor@@3HA, eax
; Line 651
	lea	rdx, OFFSET FLAT:?g_VboHandle@@3IA
	mov	ecx, 1
	call	QWORD PTR glad_glGenBuffers
; Line 652
	lea	rdx, OFFSET FLAT:?g_ElementsHandle@@3IA
	mov	ecx, 1
	call	QWORD PTR glad_glGenBuffers
; Line 413
	call	?GetIO@ImGui@@YAAEAUImGuiIO@@XZ		; ImGui::GetIO
	mov	rbx, rax
; Line 416
	mov	QWORD PTR [rsp+32], rsi
	lea	r9, QWORD PTR height$3[rbp-89]
	lea	r8, QWORD PTR width$5[rbp-89]
	lea	rdx, QWORD PTR pixels$1[rbp-89]
	mov	rcx, QWORD PTR [rax+160]
	call	?GetTexDataAsRGBA32@ImFontAtlas@@QEAAXPEAPEAEPEAH11@Z ; ImFontAtlas::GetTexDataAsRGBA32
; Line 420
	lea	rdx, QWORD PTR last_texture$7[rbp-89]
	mov	ecx, 32873				; 00008069H
	call	QWORD PTR glad_glGetIntegerv
; Line 421
	lea	rdx, OFFSET FLAT:?g_FontTexture@@3IA
	mov	ecx, 1
	call	QWORD PTR glad_glGenTextures
; Line 422
	mov	edx, DWORD PTR ?g_FontTexture@@3IA
	mov	ecx, 3553				; 00000de1H
	call	QWORD PTR glad_glBindTexture
; Line 423
	mov	edx, 10241				; 00002801H
	mov	ecx, 3553				; 00000de1H
	mov	r8d, 9729				; 00002601H
	call	QWORD PTR glad_glTexParameteri
; Line 424
	mov	edx, 10240				; 00002800H
	mov	ecx, 3553				; 00000de1H
	mov	r8d, 9729				; 00002601H
	call	QWORD PTR glad_glTexParameteri
; Line 426
	xor	edx, edx
	mov	ecx, 3314				; 00000cf2H
	call	QWORD PTR glad_glPixelStorei
; Line 428
	mov	rax, QWORD PTR pixels$1[rbp-89]
	mov	QWORD PTR [rsp+64], rax
	mov	DWORD PTR [rsp+56], 5121		; 00001401H
	mov	DWORD PTR [rsp+48], 6408		; 00001908H
	mov	DWORD PTR [rsp+40], esi
	mov	eax, DWORD PTR height$3[rbp-89]
	mov	DWORD PTR [rsp+32], eax
	mov	r9d, DWORD PTR width$5[rbp-89]
	xor	edx, edx
	mov	ecx, 3553				; 00000de1H
	mov	r8d, 6408				; 00001908H
	call	QWORD PTR glad_glTexImage2D
; Line 431
	mov	edx, DWORD PTR ?g_FontTexture@@3IA
	mov	rax, QWORD PTR [rbx+160]
	mov	QWORD PTR [rax+8], rdx
; Line 434
	mov	edx, DWORD PTR last_texture$7[rbp-89]
	mov	ecx, 3553				; 00000de1H
	call	QWORD PTR glad_glBindTexture
; Line 657
	mov	edx, DWORD PTR last_texture$[rbp-89]
	mov	ecx, 3553				; 00000de1H
	call	QWORD PTR glad_glBindTexture
; Line 658
	mov	edx, DWORD PTR last_array_buffer$[rbp-89]
	mov	ecx, 34962				; 00008892H
	call	QWORD PTR glad_glBindBuffer
; Line 660
	mov	ecx, DWORD PTR last_vertex_array$[rbp-89]
	call	QWORD PTR glad_glBindVertexArray
; Line 663
	mov	al, 1
; Line 664
	add	rsp, 144				; 00000090H
	pop	r14
	pop	rdi
	pop	rsi
	pop	rbx
	pop	rbp
	ret	0
?ImGui_ImplOpenGL3_CreateDeviceObjects@@YA_NXZ ENDP	; ImGui_ImplOpenGL3_CreateDeviceObjects
_TEXT	ENDS
;	COMDAT text$x
text$x	SEGMENT
last_texture$ = 80
last_array_buffer$ = 84
last_vertex_array$ = 88
pixels$1 = 96
buf$2 = 96
vertex_shader_with_version$ = 112
fragment_shader_with_version$ = 128
height$3 = 192
log_length$4 = 192
glsl_version$ = 200
width$5 = 208
status$6 = 208
last_texture$7 = 216
?dtor$0@?0??ImGui_ImplOpenGL3_CreateDeviceObjects@@YA_NXZ@4HA PROC ; `ImGui_ImplOpenGL3_CreateDeviceObjects'::`1'::dtor$0
	lea	rcx, QWORD PTR buf$2[rdx]
	jmp	??1?$ImVector@D@@QEAA@XZ		; ImVector<char>::~ImVector<char>
?dtor$0@?0??ImGui_ImplOpenGL3_CreateDeviceObjects@@YA_NXZ@4HA ENDP ; `ImGui_ImplOpenGL3_CreateDeviceObjects'::`1'::dtor$0
text$x	ENDS
; Function compile flags: /Ogtpy
;	COMDAT text$x
text$x	SEGMENT
last_texture$ = 80
last_array_buffer$ = 84
last_vertex_array$ = 88
pixels$1 = 96
buf$2 = 96
vertex_shader_with_version$ = 112
fragment_shader_with_version$ = 128
height$3 = 192
log_length$4 = 192
glsl_version$ = 200
width$5 = 208
status$6 = 208
last_texture$7 = 216
?dtor$0@?0??ImGui_ImplOpenGL3_CreateDeviceObjects@@YA_NXZ@4HA PROC ; `ImGui_ImplOpenGL3_CreateDeviceObjects'::`1'::dtor$0
	lea	rcx, QWORD PTR buf$2[rdx]
	jmp	??1?$ImVector@D@@QEAA@XZ		; ImVector<char>::~ImVector<char>
?dtor$0@?0??ImGui_ImplOpenGL3_CreateDeviceObjects@@YA_NXZ@4HA ENDP ; `ImGui_ImplOpenGL3_CreateDeviceObjects'::`1'::dtor$0
text$x	ENDS
; Function compile flags: /Ogtpy
;	COMDAT ?ImGui_ImplOpenGL3_DestroyFontsTexture@@YAXXZ
_TEXT	SEGMENT
?ImGui_ImplOpenGL3_DestroyFontsTexture@@YAXXZ PROC	; ImGui_ImplOpenGL3_DestroyFontsTexture, COMDAT
; File E:\reps\ocornut\imgui\examples\imgui_impl_opengl3.cpp
; Line 440
$LN5:
	sub	rsp, 40					; 00000028H
; Line 441
	cmp	DWORD PTR ?g_FontTexture@@3IA, 0
	je	SHORT $LN2@ImGui_Impl
; Line 443
	mov	QWORD PTR [rsp+32], rbx
	call	?GetIO@ImGui@@YAAEAUImGuiIO@@XZ		; ImGui::GetIO
; Line 444
	lea	rdx, OFFSET FLAT:?g_FontTexture@@3IA
	mov	ecx, 1
	mov	rbx, rax
	call	QWORD PTR glad_glDeleteTextures
; Line 445
	mov	rax, QWORD PTR [rbx+160]
	xor	ecx, ecx
; Line 446
	mov	rbx, QWORD PTR [rsp+32]
	mov	QWORD PTR [rax+8], rcx
	mov	DWORD PTR ?g_FontTexture@@3IA, ecx
$LN2@ImGui_Impl:
; Line 448
	add	rsp, 40					; 00000028H
	ret	0
?ImGui_ImplOpenGL3_DestroyFontsTexture@@YAXXZ ENDP	; ImGui_ImplOpenGL3_DestroyFontsTexture
_TEXT	ENDS
; Function compile flags: /Ogtpy
;	COMDAT ?ImGui_ImplOpenGL3_CreateFontsTexture@@YA_NXZ
_TEXT	SEGMENT
height$ = 96
width$ = 104
last_texture$ = 112
pixels$ = 120
?ImGui_ImplOpenGL3_CreateFontsTexture@@YA_NXZ PROC	; ImGui_ImplOpenGL3_CreateFontsTexture, COMDAT
; File E:\reps\ocornut\imgui\examples\imgui_impl_opengl3.cpp
; Line 411
$LN4:
	push	rbx
	sub	rsp, 80					; 00000050H
; Line 413
	call	?GetIO@ImGui@@YAAEAUImGuiIO@@XZ		; ImGui::GetIO
; Line 416
	lea	r9, QWORD PTR height$[rsp]
	mov	QWORD PTR [rsp+32], 0
	lea	r8, QWORD PTR width$[rsp]
	mov	rbx, rax
	lea	rdx, QWORD PTR pixels$[rsp]
	mov	rcx, QWORD PTR [rax+160]
	call	?GetTexDataAsRGBA32@ImFontAtlas@@QEAAXPEAPEAEPEAH11@Z ; ImFontAtlas::GetTexDataAsRGBA32
; Line 420
	lea	rdx, QWORD PTR last_texture$[rsp]
	mov	ecx, 32873				; 00008069H
	call	QWORD PTR glad_glGetIntegerv
; Line 421
	lea	rdx, OFFSET FLAT:?g_FontTexture@@3IA
	mov	ecx, 1
	call	QWORD PTR glad_glGenTextures
; Line 422
	mov	edx, DWORD PTR ?g_FontTexture@@3IA
	mov	ecx, 3553				; 00000de1H
	call	QWORD PTR glad_glBindTexture
; Line 423
	mov	edx, 10241				; 00002801H
	mov	ecx, 3553				; 00000de1H
	mov	r8d, 9729				; 00002601H
	call	QWORD PTR glad_glTexParameteri
; Line 424
	mov	edx, 10240				; 00002800H
	mov	ecx, 3553				; 00000de1H
	mov	r8d, 9729				; 00002601H
	call	QWORD PTR glad_glTexParameteri
; Line 426
	xor	edx, edx
	mov	ecx, 3314				; 00000cf2H
	call	QWORD PTR glad_glPixelStorei
; Line 428
	mov	rax, QWORD PTR pixels$[rsp]
	xor	edx, edx
	mov	r9d, DWORD PTR width$[rsp]
	mov	ecx, 3553				; 00000de1H
	mov	QWORD PTR [rsp+64], rax
	mov	r8d, 6408				; 00001908H
	mov	eax, DWORD PTR height$[rsp]
	mov	DWORD PTR [rsp+56], 5121		; 00001401H
	mov	DWORD PTR [rsp+48], 6408		; 00001908H
	mov	DWORD PTR [rsp+40], 0
	mov	DWORD PTR [rsp+32], eax
	call	QWORD PTR glad_glTexImage2D
; Line 431
	mov	edx, DWORD PTR ?g_FontTexture@@3IA
; Line 434
	mov	ecx, 3553				; 00000de1H
	mov	rax, QWORD PTR [rbx+160]
	mov	QWORD PTR [rax+8], rdx
	mov	edx, DWORD PTR last_texture$[rsp]
	call	QWORD PTR glad_glBindTexture
; Line 436
	mov	al, 1
; Line 437
	add	rsp, 80					; 00000050H
	pop	rbx
	ret	0
?ImGui_ImplOpenGL3_CreateFontsTexture@@YA_NXZ ENDP	; ImGui_ImplOpenGL3_CreateFontsTexture
_TEXT	ENDS
; Function compile flags: /Ogtpy
;	COMDAT ?ImGui_ImplOpenGL3_RenderDrawData@@YAXPEAUImDrawData@@@Z
_TEXT	SEGMENT
last_enable_scissor_test$1$ = 48
last_enable_cull_face$1$ = 49
last_enable_depth_test$1$ = 50
last_enable_blend$1$ = 51
vertex_array_object$ = 52
n$1$ = 56
last_program$ = 60
last_texture$ = 64
last_sampler$ = 68
last_active_texture$ = 72
last_vertex_array_object$ = 76
last_array_buffer$ = 80
last_blend_equation_alpha$ = 84
last_blend_equation_rgb$ = 88
last_blend_dst_alpha$ = 92
last_blend_src_alpha$ = 96
last_blend_dst_rgb$ = 100
last_blend_src_rgb$ = 104
tv707 = 112
last_polygon_mode$ = 120
last_viewport$ = 128
last_scissor_box$ = 144
__$ArrayPad$ = 160
draw_data$ = 304
?ImGui_ImplOpenGL3_RenderDrawData@@YAXPEAUImDrawData@@@Z PROC ; ImGui_ImplOpenGL3_RenderDrawData, COMDAT
; File E:\reps\ocornut\imgui\examples\imgui_impl_opengl3.cpp
; Line 285
$LN43:
	mov	r11, rsp
	push	rbp
	push	r12
	push	r13
	push	r15
	lea	rbp, QWORD PTR [r11-40]
	sub	rsp, 264				; 00000108H
	mov	rax, QWORD PTR __security_cookie
	xor	rax, rsp
	mov	QWORD PTR __$ArrayPad$[rbp-256], rax
; Line 287
	movss	xmm0, DWORD PTR [rcx+36]
	mov	r13, rcx
	mulss	xmm0, DWORD PTR [rcx+44]
; Line 288
	movss	xmm1, DWORD PTR [rcx+48]
	mulss	xmm1, DWORD PTR [rcx+40]
	cvttss2si r12d, xmm0
	cvttss2si r15d, xmm1
; Line 289
	test	r12d, r12d
	jle	$LN9@ImGui_Impl
	test	r15d, r15d
	jle	$LN9@ImGui_Impl
; Line 293
	mov	QWORD PTR [r11+16], rbx
	lea	rdx, QWORD PTR last_active_texture$[rsp]
	mov	QWORD PTR [r11+24], rsi
	mov	ecx, 34016				; 000084e0H
	mov	QWORD PTR [r11+32], rdi
	mov	QWORD PTR [r11-40], r14
	movaps	XMMWORD PTR [r11-72], xmm7
	movaps	XMMWORD PTR [r11-88], xmm8
	movaps	XMMWORD PTR [r11-104], xmm9
	movaps	XMMWORD PTR [r11-120], xmm10
	call	QWORD PTR glad_glGetIntegerv
; Line 294
	mov	ecx, 33984				; 000084c0H
	call	QWORD PTR glad_glActiveTexture
; Line 295
	lea	rdx, QWORD PTR last_program$[rsp]
	mov	ecx, 35725				; 00008b8dH
	call	QWORD PTR glad_glGetIntegerv
; Line 296
	lea	rdx, QWORD PTR last_texture$[rsp]
	mov	ecx, 32873				; 00008069H
	call	QWORD PTR glad_glGetIntegerv
; Line 298
	lea	rdx, QWORD PTR last_sampler$[rsp]
	mov	ecx, 35097				; 00008919H
	call	QWORD PTR glad_glGetIntegerv
; Line 300
	lea	rdx, QWORD PTR last_array_buffer$[rsp]
	mov	ecx, 34964				; 00008894H
	call	QWORD PTR glad_glGetIntegerv
; Line 302
	lea	rdx, QWORD PTR last_vertex_array_object$[rsp]
	mov	ecx, 34229				; 000085b5H
	call	QWORD PTR glad_glGetIntegerv
; Line 305
	lea	rdx, QWORD PTR last_polygon_mode$[rsp]
	mov	ecx, 2880				; 00000b40H
	call	QWORD PTR glad_glGetIntegerv
; Line 307
	lea	rdx, QWORD PTR last_viewport$[rbp-256]
	mov	ecx, 2978				; 00000ba2H
	call	QWORD PTR glad_glGetIntegerv
; Line 308
	lea	rdx, QWORD PTR last_scissor_box$[rbp-256]
	mov	ecx, 3088				; 00000c10H
	call	QWORD PTR glad_glGetIntegerv
; Line 309
	lea	rdx, QWORD PTR last_blend_src_rgb$[rsp]
	mov	ecx, 32969				; 000080c9H
	call	QWORD PTR glad_glGetIntegerv
; Line 310
	lea	rdx, QWORD PTR last_blend_dst_rgb$[rsp]
	mov	ecx, 32968				; 000080c8H
	call	QWORD PTR glad_glGetIntegerv
; Line 311
	lea	rdx, QWORD PTR last_blend_src_alpha$[rsp]
	mov	ecx, 32971				; 000080cbH
	call	QWORD PTR glad_glGetIntegerv
; Line 312
	lea	rdx, QWORD PTR last_blend_dst_alpha$[rsp]
	mov	ecx, 32970				; 000080caH
	call	QWORD PTR glad_glGetIntegerv
; Line 313
	lea	rdx, QWORD PTR last_blend_equation_rgb$[rsp]
	mov	ecx, 32777				; 00008009H
	call	QWORD PTR glad_glGetIntegerv
; Line 314
	lea	rdx, QWORD PTR last_blend_equation_alpha$[rsp]
	mov	ecx, 34877				; 0000883dH
	call	QWORD PTR glad_glGetIntegerv
; Line 315
	mov	ecx, 3042				; 00000be2H
	call	QWORD PTR glad_glIsEnabled
; Line 316
	mov	ecx, 2884				; 00000b44H
	mov	BYTE PTR last_enable_blend$1$[rsp], al
	call	QWORD PTR glad_glIsEnabled
; Line 317
	mov	ecx, 2929				; 00000b71H
	mov	BYTE PTR last_enable_cull_face$1$[rsp], al
	movzx	esi, al
	call	QWORD PTR glad_glIsEnabled
; Line 318
	mov	ecx, 3089				; 00000c11H
	mov	BYTE PTR last_enable_depth_test$1$[rsp], al
	movzx	r14d, al
	call	QWORD PTR glad_glIsEnabled
; Line 325
	lea	rdx, QWORD PTR vertex_array_object$[rsp]
	mov	DWORD PTR vertex_array_object$[rsp], 0
	mov	ecx, 1
	mov	BYTE PTR last_enable_scissor_test$1$[rsp], al
	movzx	edi, al
	call	QWORD PTR glad_glGenVertexArrays
; Line 327
	mov	r9d, DWORD PTR vertex_array_object$[rsp]
	mov	r8d, r15d
	mov	edx, r12d
	mov	rcx, r13
	call	?ImGui_ImplOpenGL3_SetupRenderState@@YAXPEAUImDrawData@@HHI@Z ; ImGui_ImplOpenGL3_SetupRenderState
; Line 330
	movss	xmm7, DWORD PTR [r13+28]
	movss	xmm8, DWORD PTR [r13+32]
; Line 331
	movss	xmm9, DWORD PTR [r13+44]
; Line 334
	xor	ebx, ebx
	movss	xmm10, DWORD PTR [r13+48]
	mov	DWORD PTR n$1$[rsp], ebx
	cmp	DWORD PTR [r13+16], ebx
	jle	$LN3@ImGui_Impl
	xor	ecx, ecx
	movaps	XMMWORD PTR [rsp+240], xmm6
	mov	QWORD PTR tv707[rsp], rcx
	xorps	xmm6, xmm6
	npad	2
$LL4@ImGui_Impl:
; Line 336
	mov	rax, QWORD PTR [r13+8]
; Line 339
	mov	r9d, 35040				; 000088e0H
	mov	rsi, QWORD PTR [rcx+rax]
	lea	ecx, QWORD PTR [r9-78]
	movsxd	rax, DWORD PTR [rsi+32]
	mov	r8, QWORD PTR [rsi+40]
	lea	rdx, QWORD PTR [rax+rax*4]
	shl	rdx, 2
	call	QWORD PTR glad_glBufferData
; Line 340
	movsxd	rdx, DWORD PTR [rsi+16]
	mov	r9d, 35040				; 000088e0H
	mov	r8, QWORD PTR [rsi+24]
	add	rdx, rdx
	lea	ecx, QWORD PTR [r9-77]
	call	QWORD PTR glad_glBufferData
; Line 342
	mov	eax, DWORD PTR [rsi]
	xor	edi, edi
	test	eax, eax
	jle	$LN2@ImGui_Impl
; Line 344
	xor	r14d, r14d
; File E:\reps\ocornut\imgui\imgui.h
; Line 1327
	cmp	edi, eax
	jl	SHORT $LN28@ImGui_Impl
	mov	r8d, 1327				; 0000052fH
	lea	rdx, OFFSET FLAT:??_C@_1DM@FHBHLGAJ@?$AAE?$AA?3?$AA?1?$AAr?$AAe?$AAp?$AAs?$AA?1?$AAo?$AAc?$AAo?$AAr?$AAn?$AAu?$AAt@
	lea	rcx, OFFSET FLAT:??_C@_1BC@DCMHDKFO@?$AAi?$AA?5?$AA?$DM?$AA?5?$AAS?$AAi?$AAz?$AAe@
	call	QWORD PTR __imp__wassert
$LN28@ImGui_Impl:
	mov	rbx, QWORD PTR [rsi+8]
	add	rbx, r14
; File E:\reps\ocornut\imgui\examples\imgui_impl_opengl3.cpp
; Line 345
	mov	rax, QWORD PTR [rbx+40]
	test	rax, rax
	je	SHORT $LN10@ImGui_Impl
; Line 349
	cmp	rax, -1
	jne	SHORT $LN12@ImGui_Impl
; Line 350
	mov	r9d, DWORD PTR vertex_array_object$[rsp]
	mov	r8d, r15d
	mov	edx, r12d
	mov	rcx, r13
	call	?ImGui_ImplOpenGL3_SetupRenderState@@YAXPEAUImDrawData@@HHI@Z ; ImGui_ImplOpenGL3_SetupRenderState
	jmp	$LN5@ImGui_Impl
$LN12@ImGui_Impl:
; Line 352
	mov	rdx, rbx
	mov	rcx, rsi
	call	rax
; Line 353
	jmp	$LN5@ImGui_Impl
$LN10@ImGui_Impl:
; Line 358
	movss	xmm3, DWORD PTR [rbx+4]
	xorps	xmm0, xmm0
; Line 359
	movss	xmm4, DWORD PTR [rbx+8]
	subss	xmm3, xmm7
; Line 360
	movss	xmm1, DWORD PTR [rbx+12]
	subss	xmm4, xmm8
; Line 361
	movss	xmm2, DWORD PTR [rbx+16]
	subss	xmm1, xmm7
; Line 363
	cvtsi2ss xmm0, r12d
	mulss	xmm3, xmm9
	subss	xmm2, xmm8
	mulss	xmm4, xmm10
	comiss	xmm0, xmm3
	mulss	xmm1, xmm9
	mulss	xmm2, xmm10
	jbe	$LN5@ImGui_Impl
	movd	xmm5, r15d
	cvtdq2ps xmm5, xmm5
	comiss	xmm5, xmm4
	jbe	SHORT $LN5@ImGui_Impl
	comiss	xmm1, xmm6
	jb	SHORT $LN5@ImGui_Impl
	comiss	xmm2, xmm6
	jb	SHORT $LN5@ImGui_Impl
; Line 366
	movaps	xmm0, xmm2
	subss	xmm1, xmm3
	subss	xmm0, xmm4
	subss	xmm5, xmm2
	cvttss2si ecx, xmm3
	cvttss2si r9d, xmm0
	cvttss2si r8d, xmm1
	cvttss2si edx, xmm5
	call	QWORD PTR glad_glScissor
; Line 369
	mov	edx, DWORD PTR [rbx+24]
	mov	ecx, 3553				; 00000de1H
	call	QWORD PTR glad_glBindTexture
; Line 371
	mov	r9d, DWORD PTR [rbx+36]
	mov	r8d, 5123				; 00001403H
	mov	edx, DWORD PTR [rbx]
	add	r9, r9
	cmp	DWORD PTR ?g_GlVersion@@3IA, 320	; 00000140H
	mov	ecx, 4
	jb	SHORT $LN15@ImGui_Impl
; Line 372
	mov	eax, DWORD PTR [rbx+32]
	mov	DWORD PTR [rsp+32], eax
	call	QWORD PTR glad_glDrawElementsBaseVertex
	jmp	SHORT $LN5@ImGui_Impl
$LN15@ImGui_Impl:
; Line 375
	call	QWORD PTR glad_glDrawElements
$LN5@ImGui_Impl:
; Line 342
	mov	eax, DWORD PTR [rsi]
	inc	edi
	add	r14, 56					; 00000038H
	cmp	edi, eax
	jl	$LN28@ImGui_Impl
	mov	ebx, DWORD PTR n$1$[rsp]
$LN2@ImGui_Impl:
; Line 334
	mov	rcx, QWORD PTR tv707[rsp]
	inc	ebx
	add	rcx, 8
	mov	DWORD PTR n$1$[rsp], ebx
	mov	QWORD PTR tv707[rsp], rcx
	cmp	ebx, DWORD PTR [r13+16]
	jl	$LL4@ImGui_Impl
	movzx	edi, BYTE PTR last_enable_scissor_test$1$[rsp]
	movzx	esi, BYTE PTR last_enable_cull_face$1$[rsp]
	movzx	r14d, BYTE PTR last_enable_depth_test$1$[rsp]
	movaps	xmm6, XMMWORD PTR [rsp+240]
$LN3@ImGui_Impl:
; Line 383
	lea	rdx, QWORD PTR vertex_array_object$[rsp]
	mov	ecx, 1
	call	QWORD PTR glad_glDeleteVertexArrays
; Line 387
	mov	ecx, DWORD PTR last_program$[rsp]
	call	QWORD PTR glad_glUseProgram
; Line 388
	mov	edx, DWORD PTR last_texture$[rsp]
	mov	ecx, 3553				; 00000de1H
	call	QWORD PTR glad_glBindTexture
; Line 390
	mov	edx, DWORD PTR last_sampler$[rsp]
	xor	ecx, ecx
	call	QWORD PTR glad_glBindSampler
; Line 392
	mov	ecx, DWORD PTR last_active_texture$[rsp]
	call	QWORD PTR glad_glActiveTexture
; Line 394
	mov	ecx, DWORD PTR last_vertex_array_object$[rsp]
	call	QWORD PTR glad_glBindVertexArray
; Line 396
	mov	edx, DWORD PTR last_array_buffer$[rsp]
	mov	ecx, 34962				; 00008892H
	call	QWORD PTR glad_glBindBuffer
; Line 397
	mov	edx, DWORD PTR last_blend_equation_alpha$[rsp]
	mov	ecx, DWORD PTR last_blend_equation_rgb$[rsp]
	call	QWORD PTR glad_glBlendEquationSeparate
; Line 398
	mov	r9d, DWORD PTR last_blend_dst_alpha$[rsp]
	mov	r8d, DWORD PTR last_blend_src_alpha$[rsp]
	mov	edx, DWORD PTR last_blend_dst_rgb$[rsp]
	mov	ecx, DWORD PTR last_blend_src_rgb$[rsp]
	call	QWORD PTR glad_glBlendFuncSeparate
; Line 399
	cmp	BYTE PTR last_enable_blend$1$[rsp], 0
	mov	ecx, 3042				; 00000be2H
	movaps	xmm10, XMMWORD PTR [rsp+176]
	movaps	xmm9, XMMWORD PTR [rsp+192]
	movaps	xmm8, XMMWORD PTR [rsp+208]
	movaps	xmm7, XMMWORD PTR [rsp+224]
	mov	rbx, QWORD PTR [rsp+312]
	je	SHORT $LN17@ImGui_Impl
	call	QWORD PTR glad_glEnable
	jmp	SHORT $LN18@ImGui_Impl
$LN17@ImGui_Impl:
	call	QWORD PTR glad_glDisable
$LN18@ImGui_Impl:
; Line 400
	test	sil, sil
	mov	ecx, 2884				; 00000b44H
	mov	rsi, QWORD PTR [rsp+320]
	je	SHORT $LN19@ImGui_Impl
	call	QWORD PTR glad_glEnable
	jmp	SHORT $LN20@ImGui_Impl
$LN19@ImGui_Impl:
	call	QWORD PTR glad_glDisable
$LN20@ImGui_Impl:
; Line 401
	test	r14b, r14b
	mov	ecx, 2929				; 00000b71H
	mov	r14, QWORD PTR [rsp+256]
	je	SHORT $LN21@ImGui_Impl
	call	QWORD PTR glad_glEnable
	jmp	SHORT $LN22@ImGui_Impl
$LN21@ImGui_Impl:
	call	QWORD PTR glad_glDisable
$LN22@ImGui_Impl:
; Line 402
	test	dil, dil
	mov	ecx, 3089				; 00000c11H
	mov	rdi, QWORD PTR [rsp+328]
	je	SHORT $LN23@ImGui_Impl
	call	QWORD PTR glad_glEnable
	jmp	SHORT $LN24@ImGui_Impl
$LN23@ImGui_Impl:
	call	QWORD PTR glad_glDisable
$LN24@ImGui_Impl:
; Line 404
	mov	edx, DWORD PTR last_polygon_mode$[rsp]
	mov	ecx, 1032				; 00000408H
	call	QWORD PTR glad_glPolygonMode
; Line 406
	mov	r9d, DWORD PTR last_viewport$[rbp-244]
	mov	r8d, DWORD PTR last_viewport$[rbp-248]
	mov	edx, DWORD PTR last_viewport$[rbp-252]
	mov	ecx, DWORD PTR last_viewport$[rbp-256]
	call	QWORD PTR glad_glViewport
; Line 407
	mov	r9d, DWORD PTR last_scissor_box$[rbp-244]
	mov	r8d, DWORD PTR last_scissor_box$[rbp-248]
	mov	edx, DWORD PTR last_scissor_box$[rbp-252]
	mov	ecx, DWORD PTR last_scissor_box$[rbp-256]
	call	QWORD PTR glad_glScissor
$LN9@ImGui_Impl:
; Line 408
	mov	rcx, QWORD PTR __$ArrayPad$[rbp-256]
	xor	rcx, rsp
	call	__security_check_cookie
	add	rsp, 264				; 00000108H
	pop	r15
	pop	r13
	pop	r12
	pop	rbp
	ret	0
?ImGui_ImplOpenGL3_RenderDrawData@@YAXPEAUImDrawData@@@Z ENDP ; ImGui_ImplOpenGL3_RenderDrawData
_TEXT	ENDS
; Function compile flags: /Ogtpy
;	COMDAT ?ImGui_ImplOpenGL3_NewFrame@@YAXXZ
_TEXT	SEGMENT
?ImGui_ImplOpenGL3_NewFrame@@YAXXZ PROC			; ImGui_ImplOpenGL3_NewFrame, COMDAT
; File E:\reps\ocornut\imgui\examples\imgui_impl_opengl3.cpp
; Line 218
	cmp	DWORD PTR ?g_ShaderHandle@@3IA, 0
	je	?ImGui_ImplOpenGL3_CreateDeviceObjects@@YA_NXZ ; ImGui_ImplOpenGL3_CreateDeviceObjects
$LN2@ImGui_Impl:
; Line 220
	ret	0
?ImGui_ImplOpenGL3_NewFrame@@YAXXZ ENDP			; ImGui_ImplOpenGL3_NewFrame
_TEXT	ENDS
; Function compile flags: /Ogtpy
;	COMDAT ?ImGui_ImplOpenGL3_Shutdown@@YAXXZ
_TEXT	SEGMENT
?ImGui_ImplOpenGL3_Shutdown@@YAXXZ PROC			; ImGui_ImplOpenGL3_Shutdown, COMDAT
; File E:\reps\ocornut\imgui\examples\imgui_impl_opengl3.cpp
; Line 212
$LN18:
	push	rdi
	sub	rsp, 32					; 00000020H
; Line 668
	xor	edi, edi
	cmp	DWORD PTR ?g_VboHandle@@3IA, edi
	je	SHORT $LN4@ImGui_Impl
	lea	rdx, OFFSET FLAT:?g_VboHandle@@3IA
	lea	ecx, QWORD PTR [rdi+1]
	call	QWORD PTR glad_glDeleteBuffers
	mov	DWORD PTR ?g_VboHandle@@3IA, edi
$LN4@ImGui_Impl:
; Line 669
	cmp	DWORD PTR ?g_ElementsHandle@@3IA, edi
	je	SHORT $LN5@ImGui_Impl
	lea	rdx, OFFSET FLAT:?g_ElementsHandle@@3IA
	mov	ecx, 1
	call	QWORD PTR glad_glDeleteBuffers
	mov	DWORD PTR ?g_ElementsHandle@@3IA, edi
$LN5@ImGui_Impl:
; Line 670
	mov	ecx, DWORD PTR ?g_ShaderHandle@@3IA
	mov	eax, DWORD PTR ?g_VertHandle@@3IA
	test	ecx, ecx
	je	SHORT $LN7@ImGui_Impl
	test	eax, eax
	je	SHORT $LN6@ImGui_Impl
	mov	edx, eax
	call	QWORD PTR glad_glDetachShader
	mov	ecx, DWORD PTR ?g_ShaderHandle@@3IA
	mov	eax, DWORD PTR ?g_VertHandle@@3IA
$LN6@ImGui_Impl:
; Line 671
	test	ecx, ecx
	je	SHORT $LN7@ImGui_Impl
	mov	edx, DWORD PTR ?g_FragHandle@@3IA
	test	edx, edx
	je	SHORT $LN7@ImGui_Impl
	call	QWORD PTR glad_glDetachShader
	mov	ecx, DWORD PTR ?g_ShaderHandle@@3IA
	mov	eax, DWORD PTR ?g_VertHandle@@3IA
$LN7@ImGui_Impl:
; Line 672
	test	eax, eax
	je	SHORT $LN8@ImGui_Impl
	mov	ecx, eax
	call	QWORD PTR glad_glDeleteShader
	mov	ecx, DWORD PTR ?g_ShaderHandle@@3IA
	mov	DWORD PTR ?g_VertHandle@@3IA, edi
$LN8@ImGui_Impl:
; Line 673
	mov	edx, DWORD PTR ?g_FragHandle@@3IA
	test	edx, edx
	je	SHORT $LN9@ImGui_Impl
	mov	ecx, edx
	call	QWORD PTR glad_glDeleteShader
	mov	ecx, DWORD PTR ?g_ShaderHandle@@3IA
	mov	DWORD PTR ?g_FragHandle@@3IA, edi
$LN9@ImGui_Impl:
; Line 674
	test	ecx, ecx
	je	SHORT $LN10@ImGui_Impl
	call	QWORD PTR glad_glDeleteProgram
	mov	DWORD PTR ?g_ShaderHandle@@3IA, edi
$LN10@ImGui_Impl:
; Line 441
	cmp	DWORD PTR ?g_FontTexture@@3IA, edi
	je	SHORT $LN13@ImGui_Impl
; Line 443
	mov	QWORD PTR [rsp+48], rbx
	call	?GetIO@ImGui@@YAAEAUImGuiIO@@XZ		; ImGui::GetIO
; Line 444
	lea	rdx, OFFSET FLAT:?g_FontTexture@@3IA
	mov	ecx, 1
	mov	rbx, rax
	call	QWORD PTR glad_glDeleteTextures
; Line 445
	mov	rax, QWORD PTR [rbx+160]
; Line 446
	mov	rbx, QWORD PTR [rsp+48]
	mov	QWORD PTR [rax+8], rdi
	mov	DWORD PTR ?g_FontTexture@@3IA, edi
$LN13@ImGui_Impl:
; Line 214
	add	rsp, 32					; 00000020H
	pop	rdi
	ret	0
?ImGui_ImplOpenGL3_Shutdown@@YAXXZ ENDP			; ImGui_ImplOpenGL3_Shutdown
_TEXT	ENDS
; Function compile flags: /Ogtpy
;	COMDAT ?ImGui_ImplOpenGL3_Init@@YA_NPEBD@Z
_TEXT	SEGMENT
major$ = 48
glsl_version$ = 48
minor$ = 56
current_texture$ = 64
?ImGui_ImplOpenGL3_Init@@YA_NPEBD@Z PROC		; ImGui_ImplOpenGL3_Init, COMDAT
; File E:\reps\ocornut\imgui\examples\imgui_impl_opengl3.cpp
; Line 141
$LN13:
	mov	QWORD PTR [rsp+32], rbx
	push	rdi
	sub	rsp, 32					; 00000020H
	mov	rdi, rcx
; Line 145
	lea	rdx, QWORD PTR major$[rsp]
	mov	ecx, 33307				; 0000821bH
	call	QWORD PTR glad_glGetIntegerv
; Line 146
	lea	rdx, QWORD PTR minor$[rsp]
	mov	ecx, 33308				; 0000821cH
	call	QWORD PTR glad_glGetIntegerv
; Line 147
	mov	eax, DWORD PTR major$[rsp]
	lea	edx, DWORD PTR [rax+rax*4]
	mov	eax, DWORD PTR minor$[rsp]
	lea	edx, DWORD PTR [rax+rdx*2]
	lea	eax, DWORD PTR [rdx+rdx*4]
	add	eax, eax
	mov	DWORD PTR ?g_GlVersion@@3IA, eax
; Line 153
	call	?GetIO@ImGui@@YAAEAUImGuiIO@@XZ		; ImGui::GetIO
; Line 156
	cmp	DWORD PTR ?g_GlVersion@@3IA, 320	; 00000140H
	lea	rcx, OFFSET FLAT:??_C@_0BD@BIIFHGKK@imgui_impl_opengl3@
	mov	QWORD PTR [rax+216], rcx
	jb	SHORT $LN2@ImGui_Impl
; Line 157
	or	DWORD PTR [rax+4], 8
$LN2@ImGui_Impl:
; Line 175
	test	rdi, rdi
	lea	rbx, OFFSET FLAT:??_C@_0N@NPMABONB@?$CDversion?5130@
	mov	rax, -1
	cmovne	rbx, rdi
	npad	2
$LL11@ImGui_Impl:
	inc	rax
	cmp	BYTE PTR [rbx+rax], 0
	jne	SHORT $LL11@ImGui_Impl
	add	eax, 2
	cmp	eax, 32					; 00000020H
	jl	SHORT $LN5@ImGui_Impl
	mov	r8d, 175				; 000000afH
	lea	rdx, OFFSET FLAT:??_C@_1GM@NIOMMBKE@?$AAE?$AA?3?$AA?1?$AAr?$AAe?$AAp?$AAs?$AA?1?$AAo?$AAc?$AAo?$AAr?$AAn?$AAu?$AAt@
	lea	rcx, OFFSET FLAT:??_C@_1MI@KHPFALPB@?$AA?$CI?$AAi?$AAn?$AAt?$AA?$CJ?$AAs?$AAt?$AAr?$AAl?$AAe?$AAn?$AA?$CI?$AAg?$AAl?$AAs@
	call	QWORD PTR __imp__wassert
$LN5@ImGui_Impl:
; Line 176
	lea	rcx, OFFSET FLAT:?g_GlslVersionString@@3PADA
	mov	rdx, rcx
	sub	rdx, rbx
	npad	8
$LL6@ImGui_Impl:
	movzx	eax, BYTE PTR [rbx]
	mov	BYTE PTR [rdx+rbx], al
	lea	rbx, QWORD PTR [rbx+1]
	test	al, al
	jne	SHORT $LL6@ImGui_Impl
; Line 177
	dec	rcx
$LL10@ImGui_Impl:
	cmp	BYTE PTR [rcx+1], 0
	lea	rcx, QWORD PTR [rcx+1]
	jne	SHORT $LL10@ImGui_Impl
	movzx	eax, WORD PTR ??_C@_01EEMJAFIK@?6@
; Line 206
	lea	rdx, QWORD PTR current_texture$[rsp]
	mov	WORD PTR [rcx], ax
	mov	ecx, 32873				; 00008069H
	call	QWORD PTR glad_glGetIntegerv
; Line 209
	mov	rbx, QWORD PTR [rsp+72]
	mov	al, 1
	add	rsp, 32					; 00000020H
	pop	rdi
	ret	0
?ImGui_ImplOpenGL3_Init@@YA_NPEBD@Z ENDP		; ImGui_ImplOpenGL3_Init
_TEXT	ENDS
; Function compile flags: /Ogtpy
;	COMDAT ??A?$ImVector@UImDrawCmd@@@@QEBAAEBUImDrawCmd@@H@Z
_TEXT	SEGMENT
this$ = 48
i$ = 56
??A?$ImVector@UImDrawCmd@@@@QEBAAEBUImDrawCmd@@H@Z PROC	; ImVector<ImDrawCmd>::operator[], COMDAT
; File E:\reps\ocornut\imgui\imgui.h
; Line 1327
$LN5:
	mov	QWORD PTR [rsp+8], rbx
	push	rdi
	sub	rsp, 32					; 00000020H
	movsxd	rbx, edx
	mov	rdi, rcx
	cmp	ebx, DWORD PTR [rcx]
	jl	SHORT $LN3@operator
	mov	r8d, 1327				; 0000052fH
	lea	rdx, OFFSET FLAT:??_C@_1DM@FHBHLGAJ@?$AAE?$AA?3?$AA?1?$AAr?$AAe?$AAp?$AAs?$AA?1?$AAo?$AAc?$AAo?$AAr?$AAn?$AAu?$AAt@
	lea	rcx, OFFSET FLAT:??_C@_1BC@DCMHDKFO@?$AAi?$AA?5?$AA?$DM?$AA?5?$AAS?$AAi?$AAz?$AAe@
	call	QWORD PTR __imp__wassert
$LN3@operator:
	imul	rax, rbx, 56				; 00000038H
	mov	rbx, QWORD PTR [rsp+48]
	add	rax, QWORD PTR [rdi+8]
	add	rsp, 32					; 00000020H
	pop	rdi
	ret	0
??A?$ImVector@UImDrawCmd@@@@QEBAAEBUImDrawCmd@@H@Z ENDP	; ImVector<ImDrawCmd>::operator[]
_TEXT	ENDS
; Function compile flags: /Ogtpy
;	COMDAT ?reserve@?$ImVector@D@@QEAAXH@Z
_TEXT	SEGMENT
this$ = 48
new_capacity$ = 56
?reserve@?$ImVector@D@@QEAAXH@Z PROC			; ImVector<char>::reserve, COMDAT
; File E:\reps\ocornut\imgui\imgui.h
; Line 1344
$LN6:
	mov	QWORD PTR [rsp+16], rbx
	push	rdi
	sub	rsp, 32					; 00000020H
	movsxd	rdi, edx
	mov	rbx, rcx
	cmp	edi, DWORD PTR [rcx+4]
	jle	SHORT $LN1@reserve
	mov	rcx, rdi
	mov	QWORD PTR [rsp+48], rsi
	call	?MemAlloc@ImGui@@YAPEAX_K@Z		; ImGui::MemAlloc
	mov	rdx, QWORD PTR [rbx+8]
	mov	rsi, rax
	test	rdx, rdx
	je	SHORT $LN3@reserve
	movsxd	r8, DWORD PTR [rbx]
	mov	rcx, rax
	call	memcpy
	mov	rcx, QWORD PTR [rbx+8]
	call	?MemFree@ImGui@@YAXPEAX@Z		; ImGui::MemFree
$LN3@reserve:
	mov	QWORD PTR [rbx+8], rsi
	mov	rsi, QWORD PTR [rsp+48]
	mov	DWORD PTR [rbx+4], edi
$LN1@reserve:
	mov	rbx, QWORD PTR [rsp+56]
	add	rsp, 32					; 00000020H
	pop	rdi
	ret	0
?reserve@?$ImVector@D@@QEAAXH@Z ENDP			; ImVector<char>::reserve
_TEXT	ENDS
; Function compile flags: /Ogtpy
;	COMDAT ?resize@?$ImVector@D@@QEAAXH@Z
_TEXT	SEGMENT
this$ = 48
new_size$ = 56
?resize@?$ImVector@D@@QEAAXH@Z PROC			; ImVector<char>::resize, COMDAT
; File E:\reps\ocornut\imgui\imgui.h
; Line 1341
$LN16:
	mov	QWORD PTR [rsp+24], rbx
	push	rdi
	sub	rsp, 32					; 00000020H
	mov	rbx, rcx
	mov	edi, edx
	mov	ecx, DWORD PTR [rcx+4]
	cmp	edx, ecx
	jle	$LN12@resize
; Line 1340
	mov	QWORD PTR [rsp+56], rsi
	test	ecx, ecx
	je	SHORT $LN6@resize
	mov	eax, ecx
	cdq
	sub	eax, edx
	sar	eax, 1
	add	eax, ecx
	jmp	SHORT $LN7@resize
$LN6@resize:
	mov	eax, 8
$LN7@resize:
	cmp	eax, edi
	mov	esi, edi
	cmovg	esi, eax
; Line 1344
	cmp	esi, ecx
	jle	SHORT $LN13@resize
	movsxd	rcx, esi
	mov	QWORD PTR [rsp+48], rbp
	call	?MemAlloc@ImGui@@YAPEAX_K@Z		; ImGui::MemAlloc
	mov	rdx, QWORD PTR [rbx+8]
	mov	rbp, rax
	test	rdx, rdx
	je	SHORT $LN10@resize
	movsxd	r8, DWORD PTR [rbx]
	mov	rcx, rax
	call	memcpy
	mov	rcx, QWORD PTR [rbx+8]
	call	?MemFree@ImGui@@YAXPEAX@Z		; ImGui::MemFree
$LN10@resize:
	mov	QWORD PTR [rbx+8], rbp
; Line 1341
	mov	rbp, QWORD PTR [rsp+48]
; Line 1344
	mov	DWORD PTR [rbx+4], esi
	mov	rsi, QWORD PTR [rsp+56]
; Line 1341
	mov	DWORD PTR [rbx], edi
	mov	rbx, QWORD PTR [rsp+64]
	add	rsp, 32					; 00000020H
	pop	rdi
	ret	0
$LN13@resize:
	mov	rsi, QWORD PTR [rsp+56]
	mov	DWORD PTR [rbx], edi
	mov	rbx, QWORD PTR [rsp+64]
	add	rsp, 32					; 00000020H
	pop	rdi
	ret	0
$LN12@resize:
	mov	DWORD PTR [rbx], edi
	mov	rbx, QWORD PTR [rsp+64]
	add	rsp, 32					; 00000020H
	pop	rdi
	ret	0
?resize@?$ImVector@D@@QEAAXH@Z ENDP			; ImVector<char>::resize
_TEXT	ENDS
; Function compile flags: /Ogtpy
;	COMDAT ?_grow_capacity@?$ImVector@D@@QEBAHH@Z
_TEXT	SEGMENT
this$ = 8
sz$ = 16
?_grow_capacity@?$ImVector@D@@QEBAHH@Z PROC		; ImVector<char>::_grow_capacity, COMDAT
; File E:\reps\ocornut\imgui\imgui.h
; Line 1340
	mov	r9d, DWORD PTR [rcx+4]
	mov	r8d, edx
	test	r9d, r9d
	je	SHORT $LN3@grow_capac
	mov	eax, r9d
	cdq
	sub	eax, edx
	sar	eax, 1
	add	eax, r9d
	cmp	eax, r8d
	cmovg	r8d, eax
	mov	eax, r8d
	ret	0
$LN3@grow_capac:
	mov	eax, 8
	cmp	eax, r8d
	cmovg	r8d, eax
	mov	eax, r8d
	ret	0
?_grow_capacity@?$ImVector@D@@QEBAHH@Z ENDP		; ImVector<char>::_grow_capacity
_TEXT	ENDS
; Function compile flags: /Ogtpy
;	COMDAT ?begin@?$ImVector@D@@QEAAPEADXZ
_TEXT	SEGMENT
this$ = 8
?begin@?$ImVector@D@@QEAAPEADXZ PROC			; ImVector<char>::begin, COMDAT
; File E:\reps\ocornut\imgui\imgui.h
; Line 1330
	mov	rax, QWORD PTR [rcx+8]
	ret	0
?begin@?$ImVector@D@@QEAAPEADXZ ENDP			; ImVector<char>::begin
_TEXT	ENDS
; Function compile flags: /Ogtpy
;	COMDAT ??1?$ImVector@D@@QEAA@XZ
_TEXT	SEGMENT
this$ = 48
??1?$ImVector@D@@QEAA@XZ PROC				; ImVector<char>::~ImVector<char>, COMDAT
; File E:\reps\ocornut\imgui\imgui.h
; Line 1320
$LN6:
	sub	rsp, 40					; 00000028H
	mov	rcx, QWORD PTR [rcx+8]
	test	rcx, rcx
	je	SHORT $LN2@ImVector
	call	?MemFree@ImGui@@YAXPEAX@Z		; ImGui::MemFree
	npad	1
$LN2@ImVector:
	add	rsp, 40					; 00000028H
	ret	0
??1?$ImVector@D@@QEAA@XZ ENDP				; ImVector<char>::~ImVector<char>
_TEXT	ENDS
; Function compile flags: /Ogtpy
;	COMDAT ??0?$ImVector@D@@QEAA@XZ
_TEXT	SEGMENT
this$ = 8
??0?$ImVector@D@@QEAA@XZ PROC				; ImVector<char>::ImVector<char>, COMDAT
; File E:\reps\ocornut\imgui\imgui.h
; Line 1317
	xor	eax, eax
	mov	QWORD PTR [rcx], rax
	mov	QWORD PTR [rcx+8], rax
	mov	rax, rcx
	ret	0
??0?$ImVector@D@@QEAA@XZ ENDP				; ImVector<char>::ImVector<char>
_TEXT	ENDS
; Function compile flags: /Ogtpy
;	COMDAT ??0ImVec4@@QEAA@XZ
_TEXT	SEGMENT
this$ = 8
??0ImVec4@@QEAA@XZ PROC					; ImVec4::ImVec4, COMDAT
; File E:\reps\ocornut\imgui\imgui.h
; Line 224
	xor	eax, eax
	mov	QWORD PTR [rcx+8], rax
	mov	QWORD PTR [rcx], rax
	mov	rax, rcx
	ret	0
??0ImVec4@@QEAA@XZ ENDP					; ImVec4::ImVec4
_TEXT	ENDS
END
