; Listing generated by Microsoft (R) Optimizing Compiler Version 19.23.28106.4 

include listing.inc

INCLUDELIB MSVCRT
INCLUDELIB OLDNAMES

PUBLIC	?vertex_shader_code_opengl@@3PEBDEB		; vertex_shader_code_opengl
PUBLIC	??_C@_0BNA@IJLFGMCA@?1?1?5?$CDversion?5300?5es?6?5?5?$CDversion?54@ ; `string'
PUBLIC	?fragment_shader_code_opengl@@3PEBDEB		; fragment_shader_code_opengl
PUBLIC	??_C@_0BAI@PFMDJIJN@?1?1?5?$CDversion?5300?5es?6?5?5?$CDversion?54@ ; `string'
PUBLIC	?window@@3PEAUGLFWwindow@@EA			; window
PUBLIC	?vk_surf@@3PEAUVkSurfaceKHR_T@@EA		; vk_surf
PUBLIC	?api@XGK@@3EA					; XGK::api
PUBLIC	?bez@@3PAMA					; bez
PUBLIC	?render_flag@@3EA				; render_flag
PUBLIC	?orbit@@3UOrbit@XGK@@A				; orbit
PUBLIC	?orbit_object@@3UObject@XGK@@A			; orbit_object
PUBLIC	?orbit_transition@@3UTransition@XGK@@A		; orbit_transition
PUBLIC	?orbit_view_mat_flag@@3EA			; orbit_view_mat_flag
PUBLIC	?vkGetInstanceProcAddr@@3P6AP6AXXZPEAUVkInstance_T@@PEBD@ZEA ; vkGetInstanceProcAddr
PUBLIC	?vkCreateInstance@@3P6A?AW4VkResult@@PEBUVkInstanceCreateInfo@@PEBUVkAllocationCallbacks@@PEAPEAUVkInstance_T@@@ZEA ; vkCreateInstance
PUBLIC	?vkEnumerateInstanceLayerProperties@@3P6A?AW4VkResult@@PEAIPEAUVkLayerProperties@@@ZEA ; vkEnumerateInstanceLayerProperties
PUBLIC	?vkEnumerateInstanceExtensionProperties@@3P6A?AW4VkResult@@PEBDPEAIPEAUVkExtensionProperties@@@ZEA ; vkEnumerateInstanceExtensionProperties
PUBLIC	?vkDestroyInstance@@3P6AXPEAUVkInstance_T@@PEBUVkAllocationCallbacks@@@ZEA ; vkDestroyInstance
PUBLIC	?vkEnumeratePhysicalDevices@@3P6A?AW4VkResult@@PEAUVkInstance_T@@PEAIPEAPEAUVkPhysicalDevice_T@@@ZEA ; vkEnumeratePhysicalDevices
PUBLIC	?vkEnumerateDeviceExtensionProperties@@3P6A?AW4VkResult@@PEAUVkPhysicalDevice_T@@PEBDPEAIPEAUVkExtensionProperties@@@ZEA ; vkEnumerateDeviceExtensionProperties
PUBLIC	?vkGetPhysicalDeviceProperties@@3P6AXPEAUVkPhysicalDevice_T@@PEAUVkPhysicalDeviceProperties@@@ZEA ; vkGetPhysicalDeviceProperties
PUBLIC	?vkGetPhysicalDeviceFeatures@@3P6AXPEAUVkPhysicalDevice_T@@PEAUVkPhysicalDeviceFeatures@@@ZEA ; vkGetPhysicalDeviceFeatures
PUBLIC	?vkGetPhysicalDeviceQueueFamilyProperties@@3P6AXPEAUVkPhysicalDevice_T@@PEAIPEAUVkQueueFamilyProperties@@@ZEA ; vkGetPhysicalDeviceQueueFamilyProperties
PUBLIC	?vkGetPhysicalDeviceMemoryProperties@@3P6AXPEAUVkPhysicalDevice_T@@PEAUVkPhysicalDeviceMemoryProperties@@@ZEA ; vkGetPhysicalDeviceMemoryProperties
PUBLIC	?vkGetPhysicalDeviceFormatProperties@@3P6AXPEAUVkPhysicalDevice_T@@W4VkFormat@@PEAUVkFormatProperties@@@ZEA ; vkGetPhysicalDeviceFormatProperties
PUBLIC	?vkGetDeviceProcAddr@@3P6AP6AXXZPEAUVkDevice_T@@PEBD@ZEA ; vkGetDeviceProcAddr
PUBLIC	?vkCreateDevice@@3P6A?AW4VkResult@@PEAUVkPhysicalDevice_T@@PEBUVkDeviceCreateInfo@@PEBUVkAllocationCallbacks@@PEAPEAUVkDevice_T@@@ZEA ; vkCreateDevice
PUBLIC	?vkCreateDebugReportCallbackEXT@@3P6A?AW4VkResult@@PEAUVkInstance_T@@PEBUVkDebugReportCallbackCreateInfoEXT@@PEBUVkAllocationCallbacks@@PEAPEAUVkDebugReportCallbackEXT_T@@@ZEA ; vkCreateDebugReportCallbackEXT
PUBLIC	?vkDestroyDebugReportCallbackEXT@@3P6AXPEAUVkInstance_T@@PEAUVkDebugReportCallbackEXT_T@@PEBUVkAllocationCallbacks@@@ZEA ; vkDestroyDebugReportCallbackEXT
PUBLIC	?vkCreateWin32SurfaceKHR@@3P6A?AW4VkResult@@PEAUVkInstance_T@@PEBUVkWin32SurfaceCreateInfoKHR@@PEBUVkAllocationCallbacks@@PEAPEAUVkSurfaceKHR_T@@@ZEA ; vkCreateWin32SurfaceKHR
PUBLIC	?vkGetPhysicalDeviceSurfaceSupportKHR@@3P6A?AW4VkResult@@PEAUVkPhysicalDevice_T@@IPEAUVkSurfaceKHR_T@@PEAI@ZEA ; vkGetPhysicalDeviceSurfaceSupportKHR
PUBLIC	?vkGetPhysicalDeviceSurfaceCapabilitiesKHR@@3P6A?AW4VkResult@@PEAUVkPhysicalDevice_T@@PEAUVkSurfaceKHR_T@@PEAUVkSurfaceCapabilitiesKHR@@@ZEA ; vkGetPhysicalDeviceSurfaceCapabilitiesKHR
PUBLIC	?vkGetPhysicalDeviceSurfaceFormatsKHR@@3P6A?AW4VkResult@@PEAUVkPhysicalDevice_T@@PEAUVkSurfaceKHR_T@@PEAIPEAUVkSurfaceFormatKHR@@@ZEA ; vkGetPhysicalDeviceSurfaceFormatsKHR
PUBLIC	?vkGetPhysicalDeviceSurfacePresentModesKHR@@3P6A?AW4VkResult@@PEAUVkPhysicalDevice_T@@PEAUVkSurfaceKHR_T@@PEAIPEAW4VkPresentModeKHR@@@ZEA ; vkGetPhysicalDeviceSurfacePresentModesKHR
PUBLIC	?vkDestroySurfaceKHR@@3P6AXPEAUVkInstance_T@@PEAUVkSurfaceKHR_T@@PEBUVkAllocationCallbacks@@@ZEA ; vkDestroySurfaceKHR
PUBLIC	?vkDeviceWaitIdle@@3P6A?AW4VkResult@@PEAUVkDevice_T@@@ZEA ; vkDeviceWaitIdle
PUBLIC	?vkDestroyDevice@@3P6AXPEAUVkDevice_T@@PEBUVkAllocationCallbacks@@@ZEA ; vkDestroyDevice
PUBLIC	?vkGetDeviceQueue@@3P6AXPEAUVkDevice_T@@IIPEAPEAUVkQueue_T@@@ZEA ; vkGetDeviceQueue
PUBLIC	?vkQueueSubmit@@3P6A?AW4VkResult@@PEAUVkQueue_T@@IPEBUVkSubmitInfo@@PEAUVkFence_T@@@ZEA ; vkQueueSubmit
PUBLIC	?vkQueuePresentKHR@@3P6A?AW4VkResult@@PEAUVkQueue_T@@PEBUVkPresentInfoKHR@@@ZEA ; vkQueuePresentKHR
PUBLIC	?vkQueueWaitIdle@@3P6A?AW4VkResult@@PEAUVkQueue_T@@@ZEA ; vkQueueWaitIdle
PUBLIC	?vkCreateSwapchainKHR@@3P6A?AW4VkResult@@PEAUVkDevice_T@@PEBUVkSwapchainCreateInfoKHR@@PEBUVkAllocationCallbacks@@PEAPEAUVkSwapchainKHR_T@@@ZEA ; vkCreateSwapchainKHR
PUBLIC	?vkGetSwapchainImagesKHR@@3P6A?AW4VkResult@@PEAUVkDevice_T@@PEAUVkSwapchainKHR_T@@PEAIPEAPEAUVkImage_T@@@ZEA ; vkGetSwapchainImagesKHR
PUBLIC	?vkAcquireNextImageKHR@@3P6A?AW4VkResult@@PEAUVkDevice_T@@PEAUVkSwapchainKHR_T@@_KPEAUVkSemaphore_T@@PEAUVkFence_T@@PEAI@ZEA ; vkAcquireNextImageKHR
PUBLIC	?vkDestroySwapchainKHR@@3P6AXPEAUVkDevice_T@@PEAUVkSwapchainKHR_T@@PEBUVkAllocationCallbacks@@@ZEA ; vkDestroySwapchainKHR
PUBLIC	?vkCreateImage@@3P6A?AW4VkResult@@PEAUVkDevice_T@@PEBUVkImageCreateInfo@@PEBUVkAllocationCallbacks@@PEAPEAUVkImage_T@@@ZEA ; vkCreateImage
PUBLIC	?vkDestroyImage@@3P6AXPEAUVkDevice_T@@PEAUVkImage_T@@PEBUVkAllocationCallbacks@@@ZEA ; vkDestroyImage
PUBLIC	?vkCreateImageView@@3P6A?AW4VkResult@@PEAUVkDevice_T@@PEBUVkImageViewCreateInfo@@PEBUVkAllocationCallbacks@@PEAPEAUVkImageView_T@@@ZEA ; vkCreateImageView
PUBLIC	?vkDestroyImageView@@3P6AXPEAUVkDevice_T@@PEAUVkImageView_T@@PEBUVkAllocationCallbacks@@@ZEA ; vkDestroyImageView
PUBLIC	?vkCreateRenderPass@@3P6A?AW4VkResult@@PEAUVkDevice_T@@PEBUVkRenderPassCreateInfo@@PEBUVkAllocationCallbacks@@PEAPEAUVkRenderPass_T@@@ZEA ; vkCreateRenderPass
PUBLIC	?vkDestroyRenderPass@@3P6AXPEAUVkDevice_T@@PEAUVkRenderPass_T@@PEBUVkAllocationCallbacks@@@ZEA ; vkDestroyRenderPass
PUBLIC	?vkCreateFramebuffer@@3P6A?AW4VkResult@@PEAUVkDevice_T@@PEBUVkFramebufferCreateInfo@@PEBUVkAllocationCallbacks@@PEAPEAUVkFramebuffer_T@@@ZEA ; vkCreateFramebuffer
PUBLIC	?vkDestroyFramebuffer@@3P6AXPEAUVkDevice_T@@PEAUVkFramebuffer_T@@PEBUVkAllocationCallbacks@@@ZEA ; vkDestroyFramebuffer
PUBLIC	?vkBeginCommandBuffer@@3P6A?AW4VkResult@@PEAUVkCommandBuffer_T@@PEBUVkCommandBufferBeginInfo@@@ZEA ; vkBeginCommandBuffer
PUBLIC	?vkCmdPipelineBarrier@@3P6AXPEAUVkCommandBuffer_T@@IIIIPEBUVkMemoryBarrier@@IPEBUVkBufferMemoryBarrier@@IPEBUVkImageMemoryBarrier@@@ZEA ; vkCmdPipelineBarrier
PUBLIC	?vkCmdClearColorImage@@3P6AXPEAUVkCommandBuffer_T@@PEAUVkImage_T@@W4VkImageLayout@@PEBTVkClearColorValue@@IPEBUVkImageSubresourceRange@@@ZEA ; vkCmdClearColorImage
PUBLIC	?vkCmdBeginRenderPass@@3P6AXPEAUVkCommandBuffer_T@@PEBUVkRenderPassBeginInfo@@W4VkSubpassContents@@@ZEA ; vkCmdBeginRenderPass
PUBLIC	?vkCmdBindPipeline@@3P6AXPEAUVkCommandBuffer_T@@W4VkPipelineBindPoint@@PEAUVkPipeline_T@@@ZEA ; vkCmdBindPipeline
PUBLIC	?vkCmdBindVertexBuffers@@3P6AXPEAUVkCommandBuffer_T@@IIPEBQEAUVkBuffer_T@@PEB_K@ZEA ; vkCmdBindVertexBuffers
PUBLIC	?vkCmdBindDescriptorSets@@3P6AXPEAUVkCommandBuffer_T@@W4VkPipelineBindPoint@@PEAUVkPipelineLayout_T@@IIPEBQEAUVkDescriptorSet_T@@IPEBI@ZEA ; vkCmdBindDescriptorSets
PUBLIC	?vkCmdDraw@@3P6AXPEAUVkCommandBuffer_T@@IIII@ZEA ; vkCmdDraw
PUBLIC	?vkCmdEndRenderPass@@3P6AXPEAUVkCommandBuffer_T@@@ZEA ; vkCmdEndRenderPass
PUBLIC	?vkEndCommandBuffer@@3P6A?AW4VkResult@@PEAUVkCommandBuffer_T@@@ZEA ; vkEndCommandBuffer
PUBLIC	?vkResetCommandBuffer@@3P6A?AW4VkResult@@PEAUVkCommandBuffer_T@@I@ZEA ; vkResetCommandBuffer
PUBLIC	?vkCreateCommandPool@@3P6A?AW4VkResult@@PEAUVkDevice_T@@PEBUVkCommandPoolCreateInfo@@PEBUVkAllocationCallbacks@@PEAPEAUVkCommandPool_T@@@ZEA ; vkCreateCommandPool
PUBLIC	?vkAllocateCommandBuffers@@3P6A?AW4VkResult@@PEAUVkDevice_T@@PEBUVkCommandBufferAllocateInfo@@PEAPEAUVkCommandBuffer_T@@@ZEA ; vkAllocateCommandBuffers
PUBLIC	?vkFreeCommandBuffers@@3P6AXPEAUVkDevice_T@@PEAUVkCommandPool_T@@IPEBQEAUVkCommandBuffer_T@@@ZEA ; vkFreeCommandBuffers
PUBLIC	?vkDestroyCommandPool@@3P6AXPEAUVkDevice_T@@PEAUVkCommandPool_T@@PEBUVkAllocationCallbacks@@@ZEA ; vkDestroyCommandPool
PUBLIC	?vkCreateSemaphore@@3P6A?AW4VkResult@@PEAUVkDevice_T@@PEBUVkSemaphoreCreateInfo@@PEBUVkAllocationCallbacks@@PEAPEAUVkSemaphore_T@@@ZEA ; vkCreateSemaphore
PUBLIC	?vkDestroySemaphore@@3P6AXPEAUVkDevice_T@@PEAUVkSemaphore_T@@PEBUVkAllocationCallbacks@@@ZEA ; vkDestroySemaphore
PUBLIC	?vkCreateFence@@3P6A?AW4VkResult@@PEAUVkDevice_T@@PEBUVkFenceCreateInfo@@PEBUVkAllocationCallbacks@@PEAPEAUVkFence_T@@@ZEA ; vkCreateFence
PUBLIC	?vkWaitForFences@@3P6A?AW4VkResult@@PEAUVkDevice_T@@IPEBQEAUVkFence_T@@I_K@ZEA ; vkWaitForFences
PUBLIC	?vkResetFences@@3P6A?AW4VkResult@@PEAUVkDevice_T@@IPEBQEAUVkFence_T@@@ZEA ; vkResetFences
PUBLIC	?vkDestroyFence@@3P6AXPEAUVkDevice_T@@PEAUVkFence_T@@PEBUVkAllocationCallbacks@@@ZEA ; vkDestroyFence
PUBLIC	?vkCreateShaderModule@@3P6A?AW4VkResult@@PEAUVkDevice_T@@PEBUVkShaderModuleCreateInfo@@PEBUVkAllocationCallbacks@@PEAPEAUVkShaderModule_T@@@ZEA ; vkCreateShaderModule
PUBLIC	?vkDestroyShaderModule@@3P6AXPEAUVkDevice_T@@PEAUVkShaderModule_T@@PEBUVkAllocationCallbacks@@@ZEA ; vkDestroyShaderModule
PUBLIC	?vkCreatePipelineLayout@@3P6A?AW4VkResult@@PEAUVkDevice_T@@PEBUVkPipelineLayoutCreateInfo@@PEBUVkAllocationCallbacks@@PEAPEAUVkPipelineLayout_T@@@ZEA ; vkCreatePipelineLayout
PUBLIC	?vkDestroyPipelineLayout@@3P6AXPEAUVkDevice_T@@PEAUVkPipelineLayout_T@@PEBUVkAllocationCallbacks@@@ZEA ; vkDestroyPipelineLayout
PUBLIC	?vkCreateGraphicsPipelines@@3P6A?AW4VkResult@@PEAUVkDevice_T@@PEAUVkPipelineCache_T@@IPEBUVkGraphicsPipelineCreateInfo@@PEBUVkAllocationCallbacks@@PEAPEAUVkPipeline_T@@@ZEA ; vkCreateGraphicsPipelines
PUBLIC	?vkDestroyPipeline@@3P6AXPEAUVkDevice_T@@PEAUVkPipeline_T@@PEBUVkAllocationCallbacks@@@ZEA ; vkDestroyPipeline
PUBLIC	?vkCreateBuffer@@3P6A?AW4VkResult@@PEAUVkDevice_T@@PEBUVkBufferCreateInfo@@PEBUVkAllocationCallbacks@@PEAPEAUVkBuffer_T@@@ZEA ; vkCreateBuffer
PUBLIC	?vkGetBufferMemoryRequirements@@3P6AXPEAUVkDevice_T@@PEAUVkBuffer_T@@PEAUVkMemoryRequirements@@@ZEA ; vkGetBufferMemoryRequirements
PUBLIC	?vkGetImageMemoryRequirements@@3P6AXPEAUVkDevice_T@@PEAUVkImage_T@@PEAUVkMemoryRequirements@@@ZEA ; vkGetImageMemoryRequirements
PUBLIC	?vkDestroyBuffer@@3P6AXPEAUVkDevice_T@@PEAUVkBuffer_T@@PEBUVkAllocationCallbacks@@@ZEA ; vkDestroyBuffer
PUBLIC	?vkAllocateMemory@@3P6A?AW4VkResult@@PEAUVkDevice_T@@PEBUVkMemoryAllocateInfo@@PEBUVkAllocationCallbacks@@PEAPEAUVkDeviceMemory_T@@@ZEA ; vkAllocateMemory
PUBLIC	?vkBindBufferMemory@@3P6A?AW4VkResult@@PEAUVkDevice_T@@PEAUVkBuffer_T@@PEAUVkDeviceMemory_T@@_K@ZEA ; vkBindBufferMemory
PUBLIC	?vkMapMemory@@3P6A?AW4VkResult@@PEAUVkDevice_T@@PEAUVkDeviceMemory_T@@_K2IPEAPEAX@ZEA ; vkMapMemory
PUBLIC	?vkFlushMappedMemoryRanges@@3P6A?AW4VkResult@@PEAUVkDevice_T@@IPEBUVkMappedMemoryRange@@@ZEA ; vkFlushMappedMemoryRanges
PUBLIC	?vkUnmapMemory@@3P6AXPEAUVkDevice_T@@PEAUVkDeviceMemory_T@@@ZEA ; vkUnmapMemory
PUBLIC	?vkFreeMemory@@3P6AXPEAUVkDevice_T@@PEAUVkDeviceMemory_T@@PEBUVkAllocationCallbacks@@@ZEA ; vkFreeMemory
PUBLIC	?vkBindImageMemory@@3P6A?AW4VkResult@@PEAUVkDevice_T@@PEAUVkImage_T@@PEAUVkDeviceMemory_T@@_K@ZEA ; vkBindImageMemory
PUBLIC	?vkCreateDescriptorPool@@3P6A?AW4VkResult@@PEAUVkDevice_T@@PEBUVkDescriptorPoolCreateInfo@@PEBUVkAllocationCallbacks@@PEAPEAUVkDescriptorPool_T@@@ZEA ; vkCreateDescriptorPool
PUBLIC	?vkDestroyDescriptorPool@@3P6AXPEAUVkDevice_T@@PEAUVkDescriptorPool_T@@PEBUVkAllocationCallbacks@@@ZEA ; vkDestroyDescriptorPool
PUBLIC	?vkCreateDescriptorSetLayout@@3P6A?AW4VkResult@@PEAUVkDevice_T@@PEBUVkDescriptorSetLayoutCreateInfo@@PEBUVkAllocationCallbacks@@PEAPEAUVkDescriptorSetLayout_T@@@ZEA ; vkCreateDescriptorSetLayout
PUBLIC	?vkUpdateDescriptorSets@@3P6AXPEAUVkDevice_T@@IPEBUVkWriteDescriptorSet@@IPEBUVkCopyDescriptorSet@@@ZEA ; vkUpdateDescriptorSets
PUBLIC	?vkAllocateDescriptorSets@@3P6A?AW4VkResult@@PEAUVkDevice_T@@PEBUVkDescriptorSetAllocateInfo@@PEAPEAUVkDescriptorSet_T@@@ZEA ; vkAllocateDescriptorSets
PUBLIC	?vkDestroyDescriptorSetLayout@@3P6AXPEAUVkDevice_T@@PEAUVkDescriptorSetLayout_T@@PEBUVkAllocationCallbacks@@@ZEA ; vkDestroyDescriptorSetLayout
PUBLIC	?hmodule@VULKAN@XGK@@3PEAUHINSTANCE__@@EA	; XGK::VULKAN::hmodule
_BSS	SEGMENT
?window@@3PEAUGLFWwindow@@EA DQ 01H DUP (?)		; window
?vk_surf@@3PEAUVkSurfaceKHR_T@@EA DQ 01H DUP (?)	; vk_surf
?api@XGK@@3EA DB 01H DUP (?)				; XGK::api
	ALIGN	4

?bez@@3PAMA DD	03e8H DUP (?)				; bez
?orbit@@3UOrbit@XGK@@A DB 0b0H DUP (?)			; orbit
?orbit_object@@3UObject@XGK@@A DB 080H DUP (?)		; orbit_object
?orbit_transition@@3UTransition@XGK@@A DB 030H DUP (?)	; orbit_transition
	ALIGN	8

?vkGetInstanceProcAddr@@3P6AP6AXXZPEAUVkInstance_T@@PEBD@ZEA DQ 01H DUP (?) ; vkGetInstanceProcAddr
?vkCreateInstance@@3P6A?AW4VkResult@@PEBUVkInstanceCreateInfo@@PEBUVkAllocationCallbacks@@PEAPEAUVkInstance_T@@@ZEA DQ 01H DUP (?) ; vkCreateInstance
?vkEnumerateInstanceLayerProperties@@3P6A?AW4VkResult@@PEAIPEAUVkLayerProperties@@@ZEA DQ 01H DUP (?) ; vkEnumerateInstanceLayerProperties
?vkEnumerateInstanceExtensionProperties@@3P6A?AW4VkResult@@PEBDPEAIPEAUVkExtensionProperties@@@ZEA DQ 01H DUP (?) ; vkEnumerateInstanceExtensionProperties
?vkDestroyInstance@@3P6AXPEAUVkInstance_T@@PEBUVkAllocationCallbacks@@@ZEA DQ 01H DUP (?) ; vkDestroyInstance
?vkEnumeratePhysicalDevices@@3P6A?AW4VkResult@@PEAUVkInstance_T@@PEAIPEAPEAUVkPhysicalDevice_T@@@ZEA DQ 01H DUP (?) ; vkEnumeratePhysicalDevices
?vkEnumerateDeviceExtensionProperties@@3P6A?AW4VkResult@@PEAUVkPhysicalDevice_T@@PEBDPEAIPEAUVkExtensionProperties@@@ZEA DQ 01H DUP (?) ; vkEnumerateDeviceExtensionProperties
?vkGetPhysicalDeviceProperties@@3P6AXPEAUVkPhysicalDevice_T@@PEAUVkPhysicalDeviceProperties@@@ZEA DQ 01H DUP (?) ; vkGetPhysicalDeviceProperties
?vkGetPhysicalDeviceFeatures@@3P6AXPEAUVkPhysicalDevice_T@@PEAUVkPhysicalDeviceFeatures@@@ZEA DQ 01H DUP (?) ; vkGetPhysicalDeviceFeatures
?vkGetPhysicalDeviceQueueFamilyProperties@@3P6AXPEAUVkPhysicalDevice_T@@PEAIPEAUVkQueueFamilyProperties@@@ZEA DQ 01H DUP (?) ; vkGetPhysicalDeviceQueueFamilyProperties
?vkGetPhysicalDeviceMemoryProperties@@3P6AXPEAUVkPhysicalDevice_T@@PEAUVkPhysicalDeviceMemoryProperties@@@ZEA DQ 01H DUP (?) ; vkGetPhysicalDeviceMemoryProperties
?vkGetPhysicalDeviceFormatProperties@@3P6AXPEAUVkPhysicalDevice_T@@W4VkFormat@@PEAUVkFormatProperties@@@ZEA DQ 01H DUP (?) ; vkGetPhysicalDeviceFormatProperties
?vkGetDeviceProcAddr@@3P6AP6AXXZPEAUVkDevice_T@@PEBD@ZEA DQ 01H DUP (?) ; vkGetDeviceProcAddr
?vkCreateDevice@@3P6A?AW4VkResult@@PEAUVkPhysicalDevice_T@@PEBUVkDeviceCreateInfo@@PEBUVkAllocationCallbacks@@PEAPEAUVkDevice_T@@@ZEA DQ 01H DUP (?) ; vkCreateDevice
?vkCreateDebugReportCallbackEXT@@3P6A?AW4VkResult@@PEAUVkInstance_T@@PEBUVkDebugReportCallbackCreateInfoEXT@@PEBUVkAllocationCallbacks@@PEAPEAUVkDebugReportCallbackEXT_T@@@ZEA DQ 01H DUP (?) ; vkCreateDebugReportCallbackEXT
?vkDestroyDebugReportCallbackEXT@@3P6AXPEAUVkInstance_T@@PEAUVkDebugReportCallbackEXT_T@@PEBUVkAllocationCallbacks@@@ZEA DQ 01H DUP (?) ; vkDestroyDebugReportCallbackEXT
?vkCreateWin32SurfaceKHR@@3P6A?AW4VkResult@@PEAUVkInstance_T@@PEBUVkWin32SurfaceCreateInfoKHR@@PEBUVkAllocationCallbacks@@PEAPEAUVkSurfaceKHR_T@@@ZEA DQ 01H DUP (?) ; vkCreateWin32SurfaceKHR
?vkGetPhysicalDeviceSurfaceSupportKHR@@3P6A?AW4VkResult@@PEAUVkPhysicalDevice_T@@IPEAUVkSurfaceKHR_T@@PEAI@ZEA DQ 01H DUP (?) ; vkGetPhysicalDeviceSurfaceSupportKHR
?vkGetPhysicalDeviceSurfaceCapabilitiesKHR@@3P6A?AW4VkResult@@PEAUVkPhysicalDevice_T@@PEAUVkSurfaceKHR_T@@PEAUVkSurfaceCapabilitiesKHR@@@ZEA DQ 01H DUP (?) ; vkGetPhysicalDeviceSurfaceCapabilitiesKHR
?vkGetPhysicalDeviceSurfaceFormatsKHR@@3P6A?AW4VkResult@@PEAUVkPhysicalDevice_T@@PEAUVkSurfaceKHR_T@@PEAIPEAUVkSurfaceFormatKHR@@@ZEA DQ 01H DUP (?) ; vkGetPhysicalDeviceSurfaceFormatsKHR
?vkGetPhysicalDeviceSurfacePresentModesKHR@@3P6A?AW4VkResult@@PEAUVkPhysicalDevice_T@@PEAUVkSurfaceKHR_T@@PEAIPEAW4VkPresentModeKHR@@@ZEA DQ 01H DUP (?) ; vkGetPhysicalDeviceSurfacePresentModesKHR
?vkDestroySurfaceKHR@@3P6AXPEAUVkInstance_T@@PEAUVkSurfaceKHR_T@@PEBUVkAllocationCallbacks@@@ZEA DQ 01H DUP (?) ; vkDestroySurfaceKHR
?vkDeviceWaitIdle@@3P6A?AW4VkResult@@PEAUVkDevice_T@@@ZEA DQ 01H DUP (?) ; vkDeviceWaitIdle
?vkDestroyDevice@@3P6AXPEAUVkDevice_T@@PEBUVkAllocationCallbacks@@@ZEA DQ 01H DUP (?) ; vkDestroyDevice
?vkGetDeviceQueue@@3P6AXPEAUVkDevice_T@@IIPEAPEAUVkQueue_T@@@ZEA DQ 01H DUP (?) ; vkGetDeviceQueue
?vkQueueSubmit@@3P6A?AW4VkResult@@PEAUVkQueue_T@@IPEBUVkSubmitInfo@@PEAUVkFence_T@@@ZEA DQ 01H DUP (?) ; vkQueueSubmit
?vkQueuePresentKHR@@3P6A?AW4VkResult@@PEAUVkQueue_T@@PEBUVkPresentInfoKHR@@@ZEA DQ 01H DUP (?) ; vkQueuePresentKHR
?vkQueueWaitIdle@@3P6A?AW4VkResult@@PEAUVkQueue_T@@@ZEA DQ 01H DUP (?) ; vkQueueWaitIdle
?vkCreateSwapchainKHR@@3P6A?AW4VkResult@@PEAUVkDevice_T@@PEBUVkSwapchainCreateInfoKHR@@PEBUVkAllocationCallbacks@@PEAPEAUVkSwapchainKHR_T@@@ZEA DQ 01H DUP (?) ; vkCreateSwapchainKHR
?vkGetSwapchainImagesKHR@@3P6A?AW4VkResult@@PEAUVkDevice_T@@PEAUVkSwapchainKHR_T@@PEAIPEAPEAUVkImage_T@@@ZEA DQ 01H DUP (?) ; vkGetSwapchainImagesKHR
?vkAcquireNextImageKHR@@3P6A?AW4VkResult@@PEAUVkDevice_T@@PEAUVkSwapchainKHR_T@@_KPEAUVkSemaphore_T@@PEAUVkFence_T@@PEAI@ZEA DQ 01H DUP (?) ; vkAcquireNextImageKHR
?vkDestroySwapchainKHR@@3P6AXPEAUVkDevice_T@@PEAUVkSwapchainKHR_T@@PEBUVkAllocationCallbacks@@@ZEA DQ 01H DUP (?) ; vkDestroySwapchainKHR
?vkCreateImage@@3P6A?AW4VkResult@@PEAUVkDevice_T@@PEBUVkImageCreateInfo@@PEBUVkAllocationCallbacks@@PEAPEAUVkImage_T@@@ZEA DQ 01H DUP (?) ; vkCreateImage
?vkDestroyImage@@3P6AXPEAUVkDevice_T@@PEAUVkImage_T@@PEBUVkAllocationCallbacks@@@ZEA DQ 01H DUP (?) ; vkDestroyImage
?vkCreateImageView@@3P6A?AW4VkResult@@PEAUVkDevice_T@@PEBUVkImageViewCreateInfo@@PEBUVkAllocationCallbacks@@PEAPEAUVkImageView_T@@@ZEA DQ 01H DUP (?) ; vkCreateImageView
?vkDestroyImageView@@3P6AXPEAUVkDevice_T@@PEAUVkImageView_T@@PEBUVkAllocationCallbacks@@@ZEA DQ 01H DUP (?) ; vkDestroyImageView
?vkCreateRenderPass@@3P6A?AW4VkResult@@PEAUVkDevice_T@@PEBUVkRenderPassCreateInfo@@PEBUVkAllocationCallbacks@@PEAPEAUVkRenderPass_T@@@ZEA DQ 01H DUP (?) ; vkCreateRenderPass
?vkDestroyRenderPass@@3P6AXPEAUVkDevice_T@@PEAUVkRenderPass_T@@PEBUVkAllocationCallbacks@@@ZEA DQ 01H DUP (?) ; vkDestroyRenderPass
?vkCreateFramebuffer@@3P6A?AW4VkResult@@PEAUVkDevice_T@@PEBUVkFramebufferCreateInfo@@PEBUVkAllocationCallbacks@@PEAPEAUVkFramebuffer_T@@@ZEA DQ 01H DUP (?) ; vkCreateFramebuffer
?vkDestroyFramebuffer@@3P6AXPEAUVkDevice_T@@PEAUVkFramebuffer_T@@PEBUVkAllocationCallbacks@@@ZEA DQ 01H DUP (?) ; vkDestroyFramebuffer
?vkBeginCommandBuffer@@3P6A?AW4VkResult@@PEAUVkCommandBuffer_T@@PEBUVkCommandBufferBeginInfo@@@ZEA DQ 01H DUP (?) ; vkBeginCommandBuffer
?vkCmdPipelineBarrier@@3P6AXPEAUVkCommandBuffer_T@@IIIIPEBUVkMemoryBarrier@@IPEBUVkBufferMemoryBarrier@@IPEBUVkImageMemoryBarrier@@@ZEA DQ 01H DUP (?) ; vkCmdPipelineBarrier
?vkCmdClearColorImage@@3P6AXPEAUVkCommandBuffer_T@@PEAUVkImage_T@@W4VkImageLayout@@PEBTVkClearColorValue@@IPEBUVkImageSubresourceRange@@@ZEA DQ 01H DUP (?) ; vkCmdClearColorImage
?vkCmdBeginRenderPass@@3P6AXPEAUVkCommandBuffer_T@@PEBUVkRenderPassBeginInfo@@W4VkSubpassContents@@@ZEA DQ 01H DUP (?) ; vkCmdBeginRenderPass
?vkCmdBindPipeline@@3P6AXPEAUVkCommandBuffer_T@@W4VkPipelineBindPoint@@PEAUVkPipeline_T@@@ZEA DQ 01H DUP (?) ; vkCmdBindPipeline
?vkCmdBindVertexBuffers@@3P6AXPEAUVkCommandBuffer_T@@IIPEBQEAUVkBuffer_T@@PEB_K@ZEA DQ 01H DUP (?) ; vkCmdBindVertexBuffers
?vkCmdBindDescriptorSets@@3P6AXPEAUVkCommandBuffer_T@@W4VkPipelineBindPoint@@PEAUVkPipelineLayout_T@@IIPEBQEAUVkDescriptorSet_T@@IPEBI@ZEA DQ 01H DUP (?) ; vkCmdBindDescriptorSets
?vkCmdDraw@@3P6AXPEAUVkCommandBuffer_T@@IIII@ZEA DQ 01H DUP (?) ; vkCmdDraw
?vkCmdEndRenderPass@@3P6AXPEAUVkCommandBuffer_T@@@ZEA DQ 01H DUP (?) ; vkCmdEndRenderPass
?vkEndCommandBuffer@@3P6A?AW4VkResult@@PEAUVkCommandBuffer_T@@@ZEA DQ 01H DUP (?) ; vkEndCommandBuffer
?vkResetCommandBuffer@@3P6A?AW4VkResult@@PEAUVkCommandBuffer_T@@I@ZEA DQ 01H DUP (?) ; vkResetCommandBuffer
?vkCreateCommandPool@@3P6A?AW4VkResult@@PEAUVkDevice_T@@PEBUVkCommandPoolCreateInfo@@PEBUVkAllocationCallbacks@@PEAPEAUVkCommandPool_T@@@ZEA DQ 01H DUP (?) ; vkCreateCommandPool
?vkAllocateCommandBuffers@@3P6A?AW4VkResult@@PEAUVkDevice_T@@PEBUVkCommandBufferAllocateInfo@@PEAPEAUVkCommandBuffer_T@@@ZEA DQ 01H DUP (?) ; vkAllocateCommandBuffers
?vkFreeCommandBuffers@@3P6AXPEAUVkDevice_T@@PEAUVkCommandPool_T@@IPEBQEAUVkCommandBuffer_T@@@ZEA DQ 01H DUP (?) ; vkFreeCommandBuffers
?vkDestroyCommandPool@@3P6AXPEAUVkDevice_T@@PEAUVkCommandPool_T@@PEBUVkAllocationCallbacks@@@ZEA DQ 01H DUP (?) ; vkDestroyCommandPool
?vkCreateSemaphore@@3P6A?AW4VkResult@@PEAUVkDevice_T@@PEBUVkSemaphoreCreateInfo@@PEBUVkAllocationCallbacks@@PEAPEAUVkSemaphore_T@@@ZEA DQ 01H DUP (?) ; vkCreateSemaphore
?vkDestroySemaphore@@3P6AXPEAUVkDevice_T@@PEAUVkSemaphore_T@@PEBUVkAllocationCallbacks@@@ZEA DQ 01H DUP (?) ; vkDestroySemaphore
?vkCreateFence@@3P6A?AW4VkResult@@PEAUVkDevice_T@@PEBUVkFenceCreateInfo@@PEBUVkAllocationCallbacks@@PEAPEAUVkFence_T@@@ZEA DQ 01H DUP (?) ; vkCreateFence
?vkWaitForFences@@3P6A?AW4VkResult@@PEAUVkDevice_T@@IPEBQEAUVkFence_T@@I_K@ZEA DQ 01H DUP (?) ; vkWaitForFences
?vkResetFences@@3P6A?AW4VkResult@@PEAUVkDevice_T@@IPEBQEAUVkFence_T@@@ZEA DQ 01H DUP (?) ; vkResetFences
?vkDestroyFence@@3P6AXPEAUVkDevice_T@@PEAUVkFence_T@@PEBUVkAllocationCallbacks@@@ZEA DQ 01H DUP (?) ; vkDestroyFence
?vkCreateShaderModule@@3P6A?AW4VkResult@@PEAUVkDevice_T@@PEBUVkShaderModuleCreateInfo@@PEBUVkAllocationCallbacks@@PEAPEAUVkShaderModule_T@@@ZEA DQ 01H DUP (?) ; vkCreateShaderModule
?vkDestroyShaderModule@@3P6AXPEAUVkDevice_T@@PEAUVkShaderModule_T@@PEBUVkAllocationCallbacks@@@ZEA DQ 01H DUP (?) ; vkDestroyShaderModule
?vkCreatePipelineLayout@@3P6A?AW4VkResult@@PEAUVkDevice_T@@PEBUVkPipelineLayoutCreateInfo@@PEBUVkAllocationCallbacks@@PEAPEAUVkPipelineLayout_T@@@ZEA DQ 01H DUP (?) ; vkCreatePipelineLayout
?vkDestroyPipelineLayout@@3P6AXPEAUVkDevice_T@@PEAUVkPipelineLayout_T@@PEBUVkAllocationCallbacks@@@ZEA DQ 01H DUP (?) ; vkDestroyPipelineLayout
?vkCreateGraphicsPipelines@@3P6A?AW4VkResult@@PEAUVkDevice_T@@PEAUVkPipelineCache_T@@IPEBUVkGraphicsPipelineCreateInfo@@PEBUVkAllocationCallbacks@@PEAPEAUVkPipeline_T@@@ZEA DQ 01H DUP (?) ; vkCreateGraphicsPipelines
?vkDestroyPipeline@@3P6AXPEAUVkDevice_T@@PEAUVkPipeline_T@@PEBUVkAllocationCallbacks@@@ZEA DQ 01H DUP (?) ; vkDestroyPipeline
?vkCreateBuffer@@3P6A?AW4VkResult@@PEAUVkDevice_T@@PEBUVkBufferCreateInfo@@PEBUVkAllocationCallbacks@@PEAPEAUVkBuffer_T@@@ZEA DQ 01H DUP (?) ; vkCreateBuffer
?vkGetBufferMemoryRequirements@@3P6AXPEAUVkDevice_T@@PEAUVkBuffer_T@@PEAUVkMemoryRequirements@@@ZEA DQ 01H DUP (?) ; vkGetBufferMemoryRequirements
?vkGetImageMemoryRequirements@@3P6AXPEAUVkDevice_T@@PEAUVkImage_T@@PEAUVkMemoryRequirements@@@ZEA DQ 01H DUP (?) ; vkGetImageMemoryRequirements
?vkDestroyBuffer@@3P6AXPEAUVkDevice_T@@PEAUVkBuffer_T@@PEBUVkAllocationCallbacks@@@ZEA DQ 01H DUP (?) ; vkDestroyBuffer
?vkAllocateMemory@@3P6A?AW4VkResult@@PEAUVkDevice_T@@PEBUVkMemoryAllocateInfo@@PEBUVkAllocationCallbacks@@PEAPEAUVkDeviceMemory_T@@@ZEA DQ 01H DUP (?) ; vkAllocateMemory
?vkBindBufferMemory@@3P6A?AW4VkResult@@PEAUVkDevice_T@@PEAUVkBuffer_T@@PEAUVkDeviceMemory_T@@_K@ZEA DQ 01H DUP (?) ; vkBindBufferMemory
?vkMapMemory@@3P6A?AW4VkResult@@PEAUVkDevice_T@@PEAUVkDeviceMemory_T@@_K2IPEAPEAX@ZEA DQ 01H DUP (?) ; vkMapMemory
?vkFlushMappedMemoryRanges@@3P6A?AW4VkResult@@PEAUVkDevice_T@@IPEBUVkMappedMemoryRange@@@ZEA DQ 01H DUP (?) ; vkFlushMappedMemoryRanges
?vkUnmapMemory@@3P6AXPEAUVkDevice_T@@PEAUVkDeviceMemory_T@@@ZEA DQ 01H DUP (?) ; vkUnmapMemory
?vkFreeMemory@@3P6AXPEAUVkDevice_T@@PEAUVkDeviceMemory_T@@PEBUVkAllocationCallbacks@@@ZEA DQ 01H DUP (?) ; vkFreeMemory
?vkBindImageMemory@@3P6A?AW4VkResult@@PEAUVkDevice_T@@PEAUVkImage_T@@PEAUVkDeviceMemory_T@@_K@ZEA DQ 01H DUP (?) ; vkBindImageMemory
?vkCreateDescriptorPool@@3P6A?AW4VkResult@@PEAUVkDevice_T@@PEBUVkDescriptorPoolCreateInfo@@PEBUVkAllocationCallbacks@@PEAPEAUVkDescriptorPool_T@@@ZEA DQ 01H DUP (?) ; vkCreateDescriptorPool
?vkDestroyDescriptorPool@@3P6AXPEAUVkDevice_T@@PEAUVkDescriptorPool_T@@PEBUVkAllocationCallbacks@@@ZEA DQ 01H DUP (?) ; vkDestroyDescriptorPool
?vkCreateDescriptorSetLayout@@3P6A?AW4VkResult@@PEAUVkDevice_T@@PEBUVkDescriptorSetLayoutCreateInfo@@PEBUVkAllocationCallbacks@@PEAPEAUVkDescriptorSetLayout_T@@@ZEA DQ 01H DUP (?) ; vkCreateDescriptorSetLayout
?vkUpdateDescriptorSets@@3P6AXPEAUVkDevice_T@@IPEBUVkWriteDescriptorSet@@IPEBUVkCopyDescriptorSet@@@ZEA DQ 01H DUP (?) ; vkUpdateDescriptorSets
?vkAllocateDescriptorSets@@3P6A?AW4VkResult@@PEAUVkDevice_T@@PEBUVkDescriptorSetAllocateInfo@@PEAPEAUVkDescriptorSet_T@@@ZEA DQ 01H DUP (?) ; vkAllocateDescriptorSets
?vkDestroyDescriptorSetLayout@@3P6AXPEAUVkDevice_T@@PEAUVkDescriptorSetLayout_T@@PEBUVkAllocationCallbacks@@@ZEA DQ 01H DUP (?) ; vkDestroyDescriptorSetLayout
?hmodule@VULKAN@XGK@@3PEAUHINSTANCE__@@EA DQ 01H DUP (?) ; XGK::VULKAN::hmodule
_BSS	ENDS
;	COMDAT ??_C@_0BAI@PFMDJIJN@?1?1?5?$CDversion?5300?5es?6?5?5?$CDversion?54@
CONST	SEGMENT
??_C@_0BAI@PFMDJIJN@?1?1?5?$CDversion?5300?5es?6?5?5?$CDversion?54@ DB '/'
	DB	'/ #version 300 es', 0aH, '  #version 440', 0aH, '  #extension'
	DB	' GL_ARB_separate_shader_objects : enable', 0aH, '  precision '
	DB	'highp float;', 0aH, 0aH, '  layout (location = 0) in vec3 col'
	DB	'or;', 0aH, 0aH, '  layout (location = 0) out vec4 output_colo'
	DB	'r;', 0aH, 0aH, '  void main (void) {', 0aH, '    output_color'
	DB	' = vec4(color, 1.0);', 0aH, '  }', 0aH, 00H	; `string'
CONST	ENDS
;	COMDAT ??_C@_0BNA@IJLFGMCA@?1?1?5?$CDversion?5300?5es?6?5?5?$CDversion?54@
CONST	SEGMENT
??_C@_0BNA@IJLFGMCA@?1?1?5?$CDversion?5300?5es?6?5?5?$CDversion?54@ DB '/'
	DB	'/ #version 300 es', 0aH, '  #version 440', 0aH, '  #extension'
	DB	' GL_ARB_separate_shader_objects : enable', 0aH, '  precision '
	DB	'highp float;', 0aH, 0aH, '  layout (location = 0) in vec3 ver'
	DB	'tex_data;', 0aH, 0aH, '  // out gl_PerVertex {', 0aH, '  //  '
	DB	' vec4 gl_Position;', 0aH, '  // };', 0aH, 0aH, '  layout (bin'
	DB	'ding = 0) uniform camera {', 0aH, '    mat4 view_mat;', 0aH, ' '
	DB	'   mat4 proj_mat;', 0aH, '  };', 0aH, 0aH, '  layout (locatio'
	DB	'n = 0) out vec3 color;', 0aH, 0aH, '  void main (void) {', 0aH
	DB	'    color = vertex_data;', 0aH, 0aH, '    gl_Position = proj_'
	DB	'mat * view_mat * vec4(vertex_data * 2.0, 1.0);', 0aH, '  }', 0aH
	DB	00H						; `string'
CONST	ENDS
_DATA	SEGMENT
?vertex_shader_code_opengl@@3PEBDEB DQ FLAT:??_C@_0BNA@IJLFGMCA@?1?1?5?$CDversion?5300?5es?6?5?5?$CDversion?54@ ; vertex_shader_code_opengl
?fragment_shader_code_opengl@@3PEBDEB DQ FLAT:??_C@_0BAI@PFMDJIJN@?1?1?5?$CDversion?5300?5es?6?5?5?$CDversion?54@ ; fragment_shader_code_opengl
?render_flag@@3EA DB 01H				; render_flag
?orbit_view_mat_flag@@3EA DB 01H			; orbit_view_mat_flag
_DATA	ENDS
CONST	SEGMENT
?fragment_shader_code_vulkan@@3QBIB DD 07230203H	; fragment_shader_code_vulkan
	DD	010000H
	DD	080007H
	DD	013H
	DD	00H
	DD	020011H
	DD	01H
	DD	06000bH
	DD	01H
	DD	04c534c47H
	DD	06474732eH
	DD	03035342eH
	DD	00H
	DD	03000eH
	DD	00H
	DD	01H
	DD	07000fH
	DD	04H
	DD	04H
	DD	06e69616dH
	DD	00H
	DD	09H
	DD	0cH
	DD	030010H
	DD	04H
	DD	07H
	DD	030003H
	DD	02H
	DD	01b8H
	DD	090004H
	DD	0415f4c47H
	DD	0735f4252H
	DD	072617065H
	DD	05f657461H
	DD	064616873H
	DD	06f5f7265H
	DD	063656a62H
	DD	07374H
	DD	040005H
	DD	04H
	DD	06e69616dH
	DD	00H
	DD	060005H
	DD	09H
	DD	07074756fH
	DD	0635f7475H
	DD	0726f6c6fH
	DD	00H
	DD	040005H
	DD	0cH
	DD	06f6c6f63H
	DD	072H
	DD	040047H
	DD	09H
	DD	01eH
	DD	00H
	DD	040047H
	DD	0cH
	DD	01eH
	DD	00H
	DD	020013H
	DD	02H
	DD	030021H
	DD	03H
	DD	02H
	DD	030016H
	DD	06H
	DD	020H
	DD	040017H
	DD	07H
	DD	06H
	DD	04H
	DD	040020H
	DD	08H
	DD	03H
	DD	07H
	DD	04003bH
	DD	08H
	DD	09H
	DD	03H
	DD	040017H
	DD	0aH
	DD	06H
	DD	03H
	DD	040020H
	DD	0bH
	DD	01H
	DD	0aH
	DD	04003bH
	DD	0bH
	DD	0cH
	DD	01H
	DD	04002bH
	DD	06H
	DD	0eH
	DD	03f800000H
	DD	050036H
	DD	02H
	DD	04H
	DD	00H
	DD	03H
	DD	0200f8H
	DD	05H
	DD	04003dH
	DD	0aH
	DD	0dH
	DD	0cH
	DD	050051H
	DD	06H
	DD	0fH
	DD	0dH
	DD	00H
	DD	050051H
	DD	06H
	DD	010H
	DD	0dH
	DD	01H
	DD	050051H
	DD	06H
	DD	011H
	DD	0dH
	DD	02H
	DD	070050H
	DD	07H
	DD	012H
	DD	0fH
	DD	010H
	DD	011H
	DD	0eH
	DD	03003eH
	DD	09H
	DD	012H
	DD	0100fdH
	DD	010038H
	ORG $+8
?vertex_shader_code_vulkan@@3QBIB DD 07230203H		; vertex_shader_code_vulkan
	DD	010000H
	DD	080007H
	DD	02cH
	DD	00H
	DD	020011H
	DD	01H
	DD	06000bH
	DD	01H
	DD	04c534c47H
	DD	06474732eH
	DD	03035342eH
	DD	00H
	DD	03000eH
	DD	00H
	DD	01H
	DD	08000fH
	DD	00H
	DD	04H
	DD	06e69616dH
	DD	00H
	DD	09H
	DD	0bH
	DD	013H
	DD	030003H
	DD	02H
	DD	01b8H
	DD	090004H
	DD	0415f4c47H
	DD	0735f4252H
	DD	072617065H
	DD	05f657461H
	DD	064616873H
	DD	06f5f7265H
	DD	063656a62H
	DD	07374H
	DD	040005H
	DD	04H
	DD	06e69616dH
	DD	00H
	DD	040005H
	DD	09H
	DD	06f6c6f63H
	DD	072H
	DD	050005H
	DD	0bH
	DD	074726576H
	DD	0645f7865H
	DD	0617461H
	DD	060005H
	DD	011H
	DD	0505f6c67H
	DD	065567265H
	DD	078657472H
	DD	00H
	DD	060006H
	DD	011H
	DD	00H
	DD	0505f6c67H
	DD	07469736fH
	DD	06e6f69H
	DD	070006H
	DD	011H
	DD	01H
	DD	0505f6c67H
	DD	0746e696fH
	DD	0657a6953H
	DD	00H
	DD	070006H
	DD	011H
	DD	02H
	DD	0435f6c67H
	DD	04470696cH
	DD	061747369H
	DD	065636eH
	DD	030005H
	DD	013H
	DD	00H
	DD	040005H
	DD	017H
	DD	0656d6163H
	DD	06172H
	DD	060006H
	DD	017H
	DD	00H
	DD	077656976H
	DD	074616d5fH
	DD	00H
	DD	060006H
	DD	017H
	DD	01H
	DD	06a6f7270H
	DD	074616d5fH
	DD	00H
	DD	030005H
	DD	019H
	DD	00H
	DD	040047H
	DD	09H
	DD	01eH
	DD	00H
	DD	040047H
	DD	0bH
	DD	01eH
	DD	00H
	DD	050048H
	DD	011H
	DD	00H
	DD	0bH
	DD	00H
	DD	050048H
	DD	011H
	DD	01H
	DD	0bH
	DD	01H
	DD	050048H
	DD	011H
	DD	02H
	DD	0bH
	DD	03H
	DD	030047H
	DD	011H
	DD	02H
	DD	040048H
	DD	017H
	DD	00H
	DD	05H
	DD	050048H
	DD	017H
	DD	00H
	DD	023H
	DD	00H
	DD	050048H
	DD	017H
	DD	00H
	DD	07H
	DD	010H
	DD	040048H
	DD	017H
	DD	01H
	DD	05H
	DD	050048H
	DD	017H
	DD	01H
	DD	023H
	DD	040H
	DD	050048H
	DD	017H
	DD	01H
	DD	07H
	DD	010H
	DD	030047H
	DD	017H
	DD	02H
	DD	040047H
	DD	019H
	DD	022H
	DD	00H
	DD	040047H
	DD	019H
	DD	021H
	DD	00H
	DD	020013H
	DD	02H
	DD	030021H
	DD	03H
	DD	02H
	DD	030016H
	DD	06H
	DD	020H
	DD	040017H
	DD	07H
	DD	06H
	DD	03H
	DD	040020H
	DD	08H
	DD	03H
	DD	07H
	DD	04003bH
	DD	08H
	DD	09H
	DD	03H
	DD	040020H
	DD	0aH
	DD	01H
	DD	07H
	DD	04003bH
	DD	0aH
	DD	0bH
	DD	01H
	DD	040017H
	DD	0dH
	DD	06H
	DD	04H
	DD	040015H
	DD	0eH
	DD	020H
	DD	00H
	DD	04002bH
	DD	0eH
	DD	0fH
	DD	01H
	DD	04001cH
	DD	010H
	DD	06H
	DD	0fH
	DD	05001eH
	DD	011H
	DD	0dH
	DD	06H
	DD	010H
	DD	040020H
	DD	012H
	DD	03H
	DD	011H
	DD	04003bH
	DD	012H
	DD	013H
	DD	03H
	DD	040015H
	DD	014H
	DD	020H
	DD	01H
	DD	04002bH
	DD	014H
	DD	015H
	DD	00H
	DD	040018H
	DD	016H
	DD	0dH
	DD	04H
	DD	04001eH
	DD	017H
	DD	016H
	DD	016H
	DD	040020H
	DD	018H
	DD	02H
	DD	017H
	DD	04003bH
	DD	018H
	DD	019H
	DD	02H
	DD	04002bH
	DD	014H
	DD	01aH
	DD	01H
	DD	040020H
	DD	01bH
	DD	02H
	DD	016H
	DD	04002bH
	DD	06H
	DD	022H
	DD	03f000000H
	DD	04002bH
	DD	06H
	DD	024H
	DD	03f800000H
	DD	040020H
	DD	02aH
	DD	03H
	DD	0dH
	DD	050036H
	DD	02H
	DD	04H
	DD	00H
	DD	03H
	DD	0200f8H
	DD	05H
	DD	04003dH
	DD	07H
	DD	0cH
	DD	0bH
	DD	03003eH
	DD	09H
	DD	0cH
	DD	050041H
	DD	01bH
	DD	01cH
	DD	019H
	DD	01aH
	DD	04003dH
	DD	016H
	DD	01dH
	DD	01cH
	DD	050041H
	DD	01bH
	DD	01eH
	DD	019H
	DD	015H
	DD	04003dH
	DD	016H
	DD	01fH
	DD	01eH
	DD	050092H
	DD	016H
	DD	020H
	DD	01dH
	DD	01fH
	DD	05008eH
	DD	07H
	DD	023H
	DD	0cH
	DD	022H
	DD	050051H
	DD	06H
	DD	025H
	DD	023H
	DD	00H
	DD	050051H
	DD	06H
	DD	026H
	DD	023H
	DD	01H
	DD	050051H
	DD	06H
	DD	027H
	DD	023H
	DD	02H
	DD	070050H
	DD	0dH
	DD	028H
	DD	025H
	DD	026H
	DD	027H
	DD	024H
	DD	050091H
	DD	0dH
	DD	029H
	DD	020H
	DD	028H
	DD	050041H
	DD	02aH
	DD	02bH
	DD	013H
	DD	015H
	DD	03003eH
	DD	02bH
	DD	029H
	DD	0100fdH
	DD	010038H
	ORG $+8
?vertices@@3QBMB DD 0bf800000r			; -1	; vertices
	DD	0bf800000r			; -1
	DD	0bf800000r			; -1
	DD	0bf800000r			; -1
	DD	0bf800000r			; -1
	DD	03f800000r			; 1
	DD	0bf800000r			; -1
	DD	03f800000r			; 1
	DD	03f800000r			; 1
	DD	03f800000r			; 1
	DD	03f800000r			; 1
	DD	0bf800000r			; -1
	DD	0bf800000r			; -1
	DD	0bf800000r			; -1
	DD	0bf800000r			; -1
	DD	0bf800000r			; -1
	DD	03f800000r			; 1
	DD	0bf800000r			; -1
	DD	03f800000r			; 1
	DD	0bf800000r			; -1
	DD	03f800000r			; 1
	DD	0bf800000r			; -1
	DD	0bf800000r			; -1
	DD	0bf800000r			; -1
	DD	03f800000r			; 1
	DD	0bf800000r			; -1
	DD	0bf800000r			; -1
	DD	03f800000r			; 1
	DD	03f800000r			; 1
	DD	0bf800000r			; -1
	DD	03f800000r			; 1
	DD	0bf800000r			; -1
	DD	0bf800000r			; -1
	DD	0bf800000r			; -1
	DD	0bf800000r			; -1
	DD	0bf800000r			; -1
	DD	0bf800000r			; -1
	DD	0bf800000r			; -1
	DD	0bf800000r			; -1
	DD	0bf800000r			; -1
	DD	03f800000r			; 1
	DD	03f800000r			; 1
	DD	0bf800000r			; -1
	DD	03f800000r			; 1
	DD	0bf800000r			; -1
	DD	03f800000r			; 1
	DD	0bf800000r			; -1
	DD	03f800000r			; 1
	DD	0bf800000r			; -1
	DD	0bf800000r			; -1
	DD	03f800000r			; 1
	DD	0bf800000r			; -1
	DD	0bf800000r			; -1
	DD	0bf800000r			; -1
	DD	0bf800000r			; -1
	DD	03f800000r			; 1
	DD	03f800000r			; 1
	DD	0bf800000r			; -1
	DD	0bf800000r			; -1
	DD	03f800000r			; 1
	DD	03f800000r			; 1
	DD	0bf800000r			; -1
	DD	03f800000r			; 1
	DD	03f800000r			; 1
	DD	03f800000r			; 1
	DD	03f800000r			; 1
	DD	03f800000r			; 1
	DD	0bf800000r			; -1
	DD	0bf800000r			; -1
	DD	03f800000r			; 1
	DD	03f800000r			; 1
	DD	0bf800000r			; -1
	DD	03f800000r			; 1
	DD	0bf800000r			; -1
	DD	0bf800000r			; -1
	DD	03f800000r			; 1
	DD	03f800000r			; 1
	DD	03f800000r			; 1
	DD	03f800000r			; 1
	DD	0bf800000r			; -1
	DD	03f800000r			; 1
	DD	03f800000r			; 1
	DD	03f800000r			; 1
	DD	03f800000r			; 1
	DD	03f800000r			; 1
	DD	03f800000r			; 1
	DD	0bf800000r			; -1
	DD	0bf800000r			; -1
	DD	03f800000r			; 1
	DD	0bf800000r			; -1
	DD	03f800000r			; 1
	DD	03f800000r			; 1
	DD	03f800000r			; 1
	DD	0bf800000r			; -1
	DD	03f800000r			; 1
	DD	0bf800000r			; -1
	DD	0bf800000r			; -1
	DD	03f800000r			; 1
	DD	03f800000r			; 1
	DD	03f800000r			; 1
	DD	03f800000r			; 1
	DD	03f800000r			; 1
	DD	0bf800000r			; -1
	DD	03f800000r			; 1
	DD	03f800000r			; 1
	DD	03f800000r			; 1
	DD	0bf800000r			; -1
	DD	03f800000r			; 1
CONST	ENDS
PUBLIC	??2@YAPEAX_KPEAX@Z				; operator new
PUBLIC	__local_stdio_printf_options
PUBLIC	_vfprintf_l
PUBLIC	fprintf
PUBLIC	??0exception@std@@QEAA@QEBDH@Z			; std::exception::exception
PUBLIC	??0exception@std@@QEAA@AEBV01@@Z		; std::exception::exception
PUBLIC	??1exception@std@@UEAA@XZ			; std::exception::~exception
PUBLIC	?what@exception@std@@UEBAPEBDXZ			; std::exception::what
PUBLIC	??_Gexception@std@@UEAAPEAXI@Z			; std::exception::`scalar deleting destructor'
PUBLIC	??0bad_alloc@std@@AEAA@QEBD@Z			; std::bad_alloc::bad_alloc
PUBLIC	??1bad_alloc@std@@UEAA@XZ			; std::bad_alloc::~bad_alloc
PUBLIC	??0bad_alloc@std@@QEAA@AEBV01@@Z		; std::bad_alloc::bad_alloc
PUBLIC	??_Gbad_alloc@std@@UEAAPEAXI@Z			; std::bad_alloc::`scalar deleting destructor'
PUBLIC	??0bad_array_new_length@std@@QEAA@XZ		; std::bad_array_new_length::bad_array_new_length
PUBLIC	??1bad_array_new_length@std@@UEAA@XZ		; std::bad_array_new_length::~bad_array_new_length
PUBLIC	??0bad_array_new_length@std@@QEAA@AEBV01@@Z	; std::bad_array_new_length::bad_array_new_length
PUBLIC	??_Gbad_array_new_length@std@@UEAAPEAXI@Z	; std::bad_array_new_length::`scalar deleting destructor'
PUBLIC	?_Throw_bad_array_new_length@std@@YAXXZ		; std::_Throw_bad_array_new_length
PUBLIC	?max@?$numeric_limits@_J@std@@SA_JXZ		; std::numeric_limits<__int64>::max
PUBLIC	?_Allocate@_Default_allocate_traits@std@@SAPEAX_K@Z ; std::_Default_allocate_traits::_Allocate
PUBLIC	?_Adjust_manually_vector_aligned@std@@YAXAEAPEAXAEA_K@Z ; std::_Adjust_manually_vector_aligned
PUBLIC	??$_Convert_size@_K@std@@YA_K_K@Z		; std::_Convert_size<unsigned __int64>
PUBLIC	?_Orphan_all@_Container_base0@std@@QEAAXXZ	; std::_Container_base0::_Orphan_all
PUBLIC	?_Swap_proxy_and_iterators@_Container_base0@std@@QEAAXAEAU12@@Z ; std::_Container_base0::_Swap_proxy_and_iterators
PUBLIC	?_Alloc_proxy@_Container_base0@std@@QEAAXAEBU_Fake_allocator@2@@Z ; std::_Container_base0::_Alloc_proxy
PUBLIC	??0_Fake_proxy_ptr_impl@std@@QEAA@AEBU_Fake_allocator@1@AEBU_Container_base0@1@@Z ; std::_Fake_proxy_ptr_impl::_Fake_proxy_ptr_impl
PUBLIC	?_Release@_Fake_proxy_ptr_impl@std@@QEAAXXZ	; std::_Fake_proxy_ptr_impl::_Release
PUBLIC	?length@?$_Narrow_char_traits@DH@std@@SA_KQEBD@Z ; std::_Narrow_char_traits<char,int>::length
PUBLIC	?eq_int_type@?$_Narrow_char_traits@DH@std@@SA_NAEBH0@Z ; std::_Narrow_char_traits<char,int>::eq_int_type
PUBLIC	?eof@?$_Narrow_char_traits@DH@std@@SAHXZ	; std::_Narrow_char_traits<char,int>::eof
PUBLIC	?_Check_C_return@std@@YAHH@Z			; std::_Check_C_return
PUBLIC	??1thread@std@@QEAA@XZ				; std::thread::~thread
PUBLIC	?joinable@thread@std@@QEBA_NXZ			; std::thread::joinable
PUBLIC	?join@thread@std@@QEAAXXZ			; std::thread::join
PUBLIC	??0_Mutex_base@std@@QEAA@H@Z			; std::_Mutex_base::_Mutex_base
PUBLIC	??1_Mutex_base@std@@QEAA@XZ			; std::_Mutex_base::~_Mutex_base
PUBLIC	?lock@_Mutex_base@std@@QEAAXXZ			; std::_Mutex_base::lock
PUBLIC	?unlock@_Mutex_base@std@@QEAAXXZ		; std::_Mutex_base::unlock
PUBLIC	?_Mymtx@_Mutex_base@std@@AEAAPEAU_Mtx_internal_imp_t@@XZ ; std::_Mutex_base::_Mymtx
PUBLIC	??0mutex@std@@QEAA@XZ				; std::mutex::mutex
PUBLIC	??1mutex@std@@QEAA@XZ				; std::mutex::~mutex
PUBLIC	?loadGlobalFunctions@VULKAN@XGK@@YAXXZ		; XGK::VULKAN::loadGlobalFunctions
PUBLIC	?loadSharedLibrary@VULKAN@XGK@@YAXXZ		; XGK::VULKAN::loadSharedLibrary
PUBLIC	?freeSharedLibrary@VULKAN@XGK@@YAXXZ		; XGK::VULKAN::freeSharedLibrary
PUBLIC	?loadInstanceFunctions@VULKAN@XGK@@YAXPEAUVkInstance_T@@@Z ; XGK::VULKAN::loadInstanceFunctions
PUBLIC	?loadDeviceFunctions@VULKAN@XGK@@YAXPEAUVkDevice_T@@@Z ; XGK::VULKAN::loadDeviceFunctions
PUBLIC	?AppI@VULKAN@XGK@@YA?AUVkApplicationInfo@@IPEBDI0IPEBX@Z ; XGK::VULKAN::AppI
PUBLIC	??0?$allocator@PEAUVkSurfaceKHR_T@@@std@@QEAA@XZ ; std::allocator<VkSurfaceKHR_T *>::allocator<VkSurfaceKHR_T *>
PUBLIC	?deallocate@?$allocator@PEAUVkSurfaceKHR_T@@@std@@QEAAXQEAPEAUVkSurfaceKHR_T@@_K@Z ; std::allocator<VkSurfaceKHR_T *>::deallocate
PUBLIC	?allocate@?$allocator@PEAUVkSurfaceKHR_T@@@std@@QEAAPEAPEAUVkSurfaceKHR_T@@_K@Z ; std::allocator<VkSurfaceKHR_T *>::allocate
PUBLIC	?max_size@?$_Default_allocator_traits@V?$allocator@PEAUVkSurfaceKHR_T@@@std@@@std@@SA_KAEBV?$allocator@PEAUVkSurfaceKHR_T@@@2@@Z ; std::_Default_allocator_traits<std::allocator<VkSurfaceKHR_T *> >::max_size
PUBLIC	??0?$vector@PEAUVkSurfaceKHR_T@@V?$allocator@PEAUVkSurfaceKHR_T@@@std@@@std@@QEAA@XZ ; std::vector<VkSurfaceKHR_T *,std::allocator<VkSurfaceKHR_T *> >::vector<VkSurfaceKHR_T *,std::allocator<VkSurfaceKHR_T *> >
PUBLIC	??1?$vector@PEAUVkSurfaceKHR_T@@V?$allocator@PEAUVkSurfaceKHR_T@@@std@@@std@@QEAA@XZ ; std::vector<VkSurfaceKHR_T *,std::allocator<VkSurfaceKHR_T *> >::~vector<VkSurfaceKHR_T *,std::allocator<VkSurfaceKHR_T *> >
PUBLIC	?push_back@?$vector@PEAUVkSurfaceKHR_T@@V?$allocator@PEAUVkSurfaceKHR_T@@@std@@@std@@QEAAXAEBQEAUVkSurfaceKHR_T@@@Z ; std::vector<VkSurfaceKHR_T *,std::allocator<VkSurfaceKHR_T *> >::push_back
PUBLIC	?size@?$vector@PEAUVkSurfaceKHR_T@@V?$allocator@PEAUVkSurfaceKHR_T@@@std@@@std@@QEBA_KXZ ; std::vector<VkSurfaceKHR_T *,std::allocator<VkSurfaceKHR_T *> >::size
PUBLIC	?max_size@?$vector@PEAUVkSurfaceKHR_T@@V?$allocator@PEAUVkSurfaceKHR_T@@@std@@@std@@QEBA_KXZ ; std::vector<VkSurfaceKHR_T *,std::allocator<VkSurfaceKHR_T *> >::max_size
PUBLIC	?capacity@?$vector@PEAUVkSurfaceKHR_T@@V?$allocator@PEAUVkSurfaceKHR_T@@@std@@@std@@QEBA_KXZ ; std::vector<VkSurfaceKHR_T *,std::allocator<VkSurfaceKHR_T *> >::capacity
PUBLIC	??A?$vector@PEAUVkSurfaceKHR_T@@V?$allocator@PEAUVkSurfaceKHR_T@@@std@@@std@@QEAAAEAPEAUVkSurfaceKHR_T@@_K@Z ; std::vector<VkSurfaceKHR_T *,std::allocator<VkSurfaceKHR_T *> >::operator[]
PUBLIC	?_Umove@?$vector@PEAUVkSurfaceKHR_T@@V?$allocator@PEAUVkSurfaceKHR_T@@@std@@@std@@AEAAPEAPEAUVkSurfaceKHR_T@@PEAPEAU3@00@Z ; std::vector<VkSurfaceKHR_T *,std::allocator<VkSurfaceKHR_T *> >::_Umove
PUBLIC	?_Umove_if_noexcept1@?$vector@PEAUVkSurfaceKHR_T@@V?$allocator@PEAUVkSurfaceKHR_T@@@std@@@std@@AEAAXPEAPEAUVkSurfaceKHR_T@@00U?$integral_constant@_N$00@2@@Z ; std::vector<VkSurfaceKHR_T *,std::allocator<VkSurfaceKHR_T *> >::_Umove_if_noexcept1
PUBLIC	?_Umove_if_noexcept@?$vector@PEAUVkSurfaceKHR_T@@V?$allocator@PEAUVkSurfaceKHR_T@@@std@@@std@@AEAAXPEAPEAUVkSurfaceKHR_T@@00@Z ; std::vector<VkSurfaceKHR_T *,std::allocator<VkSurfaceKHR_T *> >::_Umove_if_noexcept
PUBLIC	?_Destroy@?$vector@PEAUVkSurfaceKHR_T@@V?$allocator@PEAUVkSurfaceKHR_T@@@std@@@std@@AEAAXPEAPEAUVkSurfaceKHR_T@@0@Z ; std::vector<VkSurfaceKHR_T *,std::allocator<VkSurfaceKHR_T *> >::_Destroy
PUBLIC	?_Calculate_growth@?$vector@PEAUVkSurfaceKHR_T@@V?$allocator@PEAUVkSurfaceKHR_T@@@std@@@std@@AEBA_K_K@Z ; std::vector<VkSurfaceKHR_T *,std::allocator<VkSurfaceKHR_T *> >::_Calculate_growth
PUBLIC	?_Change_array@?$vector@PEAUVkSurfaceKHR_T@@V?$allocator@PEAUVkSurfaceKHR_T@@@std@@@std@@AEAAXQEAPEAUVkSurfaceKHR_T@@_K1@Z ; std::vector<VkSurfaceKHR_T *,std::allocator<VkSurfaceKHR_T *> >::_Change_array
PUBLIC	?_Tidy@?$vector@PEAUVkSurfaceKHR_T@@V?$allocator@PEAUVkSurfaceKHR_T@@@std@@@std@@AEAAXXZ ; std::vector<VkSurfaceKHR_T *,std::allocator<VkSurfaceKHR_T *> >::_Tidy
PUBLIC	?_Xlength@?$vector@PEAUVkSurfaceKHR_T@@V?$allocator@PEAUVkSurfaceKHR_T@@@std@@@std@@CAXXZ ; std::vector<VkSurfaceKHR_T *,std::allocator<VkSurfaceKHR_T *> >::_Xlength
PUBLIC	?_Orphan_range@?$vector@PEAUVkSurfaceKHR_T@@V?$allocator@PEAUVkSurfaceKHR_T@@@std@@@std@@AEBAXPEAPEAUVkSurfaceKHR_T@@0@Z ; std::vector<VkSurfaceKHR_T *,std::allocator<VkSurfaceKHR_T *> >::_Orphan_range
PUBLIC	?_Getal@?$vector@PEAUVkSurfaceKHR_T@@V?$allocator@PEAUVkSurfaceKHR_T@@@std@@@std@@AEAAAEAV?$allocator@PEAUVkSurfaceKHR_T@@@2@XZ ; std::vector<VkSurfaceKHR_T *,std::allocator<VkSurfaceKHR_T *> >::_Getal
PUBLIC	?_Getal@?$vector@PEAUVkSurfaceKHR_T@@V?$allocator@PEAUVkSurfaceKHR_T@@@std@@@std@@AEBAAEBV?$allocator@PEAUVkSurfaceKHR_T@@@2@XZ ; std::vector<VkSurfaceKHR_T *,std::allocator<VkSurfaceKHR_T *> >::_Getal
PUBLIC	??0?$_Vector_val@U?$_Simple_types@PEAUVkSurfaceKHR_T@@@std@@@std@@QEAA@XZ ; std::_Vector_val<std::_Simple_types<VkSurfaceKHR_T *> >::_Vector_val<std::_Simple_types<VkSurfaceKHR_T *> >
PUBLIC	?_Get_first@?$_Compressed_pair@V?$allocator@PEAUVkSurfaceKHR_T@@@std@@V?$_Vector_val@U?$_Simple_types@PEAUVkSurfaceKHR_T@@@std@@@2@$00@std@@QEAAAEAV?$allocator@PEAUVkSurfaceKHR_T@@@2@XZ ; std::_Compressed_pair<std::allocator<VkSurfaceKHR_T *>,std::_Vector_val<std::_Simple_types<VkSurfaceKHR_T *> >,1>::_Get_first
PUBLIC	?_Get_first@?$_Compressed_pair@V?$allocator@PEAUVkSurfaceKHR_T@@@std@@V?$_Vector_val@U?$_Simple_types@PEAUVkSurfaceKHR_T@@@std@@@2@$00@std@@QEBAAEBV?$allocator@PEAUVkSurfaceKHR_T@@@2@XZ ; std::_Compressed_pair<std::allocator<VkSurfaceKHR_T *>,std::_Vector_val<std::_Simple_types<VkSurfaceKHR_T *> >,1>::_Get_first
PUBLIC	?create@Instance@VULKAN@XGK@@QEAAXPEBUVkApplicationInfo@@IPEBQEBDI1IPEBXPEBUVkAllocationCallbacks@@@Z ; XGK::VULKAN::Instance::create
PUBLIC	?Win32SurfaceKHR@Instance@VULKAN@XGK@@QEAAPEAUVkSurfaceKHR_T@@PEAUHINSTANCE__@@PEAUHWND__@@IPEBXPEBUVkAllocationCallbacks@@@Z ; XGK::VULKAN::Instance::Win32SurfaceKHR
PUBLIC	?enumDevs@Instance@VULKAN@XGK@@QEAAXXZ		; XGK::VULKAN::Instance::enumDevs
PUBLIC	?destroy@Instance@VULKAN@XGK@@QEAAXXZ		; XGK::VULKAN::Instance::destroy
PUBLIC	??0Instance@VULKAN@XGK@@QEAA@XZ			; XGK::VULKAN::Instance::Instance
PUBLIC	??1Instance@VULKAN@XGK@@QEAA@XZ			; XGK::VULKAN::Instance::~Instance
PUBLIC	?DevQueueCI@VULKAN@XGK@@YA?AUVkDeviceQueueCreateInfo@@IIPEBMIPEBX@Z ; XGK::VULKAN::DevQueueCI
PUBLIC	?PplInputAsm@VULKAN@XGK@@YA?AUVkPipelineInputAssemblyStateCreateInfo@@W4VkPrimitiveTopology@@IIPEBX@Z ; XGK::VULKAN::PplInputAsm
PUBLIC	?PplTess@VULKAN@XGK@@YA?AUVkPipelineTessellationStateCreateInfo@@IIPEBX@Z ; XGK::VULKAN::PplTess
PUBLIC	?PplView@VULKAN@XGK@@YA?AUVkPipelineViewportStateCreateInfo@@IPEBUVkViewport@@IPEBUVkRect2D@@IPEBX@Z ; XGK::VULKAN::PplView
PUBLIC	?PplSample@VULKAN@XGK@@YA?AUVkPipelineMultisampleStateCreateInfo@@W4VkSampleCountFlagBits@@IMPEBIIIIPEBX@Z ; XGK::VULKAN::PplSample
PUBLIC	?PplRast@VULKAN@XGK@@YA?AUVkPipelineRasterizationStateCreateInfo@@IIW4VkPolygonMode@@IW4VkFrontFace@@IMMMMIPEBX@Z ; XGK::VULKAN::PplRast
PUBLIC	?PplDepthStenc@VULKAN@XGK@@YA?AUVkPipelineDepthStencilStateCreateInfo@@IIW4VkCompareOp@@IIUVkStencilOpState@@1MMIPEBX@Z ; XGK::VULKAN::PplDepthStenc
PUBLIC	?PplBlend@VULKAN@XGK@@YA?AUVkPipelineColorBlendStateCreateInfo@@IW4VkLogicOp@@IPEBUVkPipelineColorBlendAttachmentState@@MMMMIPEBX@Z ; XGK::VULKAN::PplBlend
PUBLIC	?PplDyn@VULKAN@XGK@@YA?AUVkPipelineDynamicStateCreateInfo@@IPEBW4VkDynamicState@@IPEBX@Z ; XGK::VULKAN::PplDyn
PUBLIC	?PplShader@VULKAN@XGK@@YA?AUVkPipelineShaderStageCreateInfo@@W4VkShaderStageFlagBits@@PEAUVkShaderModule_T@@PEBDPEBUVkSpecializationInfo@@IPEBX@Z ; XGK::VULKAN::PplShader
PUBLIC	?PplVertex@VULKAN@XGK@@YA?AUVkPipelineVertexInputStateCreateInfo@@IPEBUVkVertexInputBindingDescription@@IPEBUVkVertexInputAttributeDescription@@IPEBX@Z ; XGK::VULKAN::PplVertex
PUBLIC	?WriteDescrSet@VULKAN@XGK@@YA?AUVkWriteDescriptorSet@@PEAUVkDescriptorSet_T@@IIIW4VkDescriptorType@@PEBUVkDescriptorImageInfo@@PEBUVkDescriptorBufferInfo@@PEBQEAUVkBufferView_T@@PEBX@Z ; XGK::VULKAN::WriteDescrSet
PUBLIC	?CmdBufferBeginI@VULKAN@XGK@@YA?AUVkCommandBufferBeginInfo@@PEBUVkCommandBufferInheritanceInfo@@IPEBX@Z ; XGK::VULKAN::CmdBufferBeginI
PUBLIC	?RenderPassBeginI@VULKAN@XGK@@YA?AUVkRenderPassBeginInfo@@PEAUVkRenderPass_T@@PEAUVkFramebuffer_T@@UVkRect2D@@IPEBTVkClearValue@@PEBX@Z ; XGK::VULKAN::RenderPassBeginI
PUBLIC	?SubmitI@VULKAN@XGK@@YA?AUVkSubmitInfo@@IPEBQEAUVkSemaphore_T@@PEBIIPEBQEAUVkCommandBuffer_T@@I0PEBX@Z ; XGK::VULKAN::SubmitI
PUBLIC	?PresentI@VULKAN@XGK@@YA?AUVkPresentInfoKHR@@IPEBQEAUVkSemaphore_T@@IPEBQEAUVkSwapchainKHR_T@@PEBIPEAW4VkResult@@PEBX@Z ; XGK::VULKAN::PresentI
PUBLIC	??0?$allocator@PEAUVkRenderPass_T@@@std@@QEAA@XZ ; std::allocator<VkRenderPass_T *>::allocator<VkRenderPass_T *>
PUBLIC	?deallocate@?$allocator@PEAUVkRenderPass_T@@@std@@QEAAXQEAPEAUVkRenderPass_T@@_K@Z ; std::allocator<VkRenderPass_T *>::deallocate
PUBLIC	?allocate@?$allocator@PEAUVkRenderPass_T@@@std@@QEAAPEAPEAUVkRenderPass_T@@_K@Z ; std::allocator<VkRenderPass_T *>::allocate
PUBLIC	?max_size@?$_Default_allocator_traits@V?$allocator@PEAUVkRenderPass_T@@@std@@@std@@SA_KAEBV?$allocator@PEAUVkRenderPass_T@@@2@@Z ; std::_Default_allocator_traits<std::allocator<VkRenderPass_T *> >::max_size
PUBLIC	??0?$vector@PEAUVkRenderPass_T@@V?$allocator@PEAUVkRenderPass_T@@@std@@@std@@QEAA@XZ ; std::vector<VkRenderPass_T *,std::allocator<VkRenderPass_T *> >::vector<VkRenderPass_T *,std::allocator<VkRenderPass_T *> >
PUBLIC	??1?$vector@PEAUVkRenderPass_T@@V?$allocator@PEAUVkRenderPass_T@@@std@@@std@@QEAA@XZ ; std::vector<VkRenderPass_T *,std::allocator<VkRenderPass_T *> >::~vector<VkRenderPass_T *,std::allocator<VkRenderPass_T *> >
PUBLIC	?push_back@?$vector@PEAUVkRenderPass_T@@V?$allocator@PEAUVkRenderPass_T@@@std@@@std@@QEAAXAEBQEAUVkRenderPass_T@@@Z ; std::vector<VkRenderPass_T *,std::allocator<VkRenderPass_T *> >::push_back
PUBLIC	?size@?$vector@PEAUVkRenderPass_T@@V?$allocator@PEAUVkRenderPass_T@@@std@@@std@@QEBA_KXZ ; std::vector<VkRenderPass_T *,std::allocator<VkRenderPass_T *> >::size
PUBLIC	?max_size@?$vector@PEAUVkRenderPass_T@@V?$allocator@PEAUVkRenderPass_T@@@std@@@std@@QEBA_KXZ ; std::vector<VkRenderPass_T *,std::allocator<VkRenderPass_T *> >::max_size
PUBLIC	?capacity@?$vector@PEAUVkRenderPass_T@@V?$allocator@PEAUVkRenderPass_T@@@std@@@std@@QEBA_KXZ ; std::vector<VkRenderPass_T *,std::allocator<VkRenderPass_T *> >::capacity
PUBLIC	??A?$vector@PEAUVkRenderPass_T@@V?$allocator@PEAUVkRenderPass_T@@@std@@@std@@QEAAAEAPEAUVkRenderPass_T@@_K@Z ; std::vector<VkRenderPass_T *,std::allocator<VkRenderPass_T *> >::operator[]
PUBLIC	?_Umove@?$vector@PEAUVkRenderPass_T@@V?$allocator@PEAUVkRenderPass_T@@@std@@@std@@AEAAPEAPEAUVkRenderPass_T@@PEAPEAU3@00@Z ; std::vector<VkRenderPass_T *,std::allocator<VkRenderPass_T *> >::_Umove
PUBLIC	?_Umove_if_noexcept1@?$vector@PEAUVkRenderPass_T@@V?$allocator@PEAUVkRenderPass_T@@@std@@@std@@AEAAXPEAPEAUVkRenderPass_T@@00U?$integral_constant@_N$00@2@@Z ; std::vector<VkRenderPass_T *,std::allocator<VkRenderPass_T *> >::_Umove_if_noexcept1
PUBLIC	?_Umove_if_noexcept@?$vector@PEAUVkRenderPass_T@@V?$allocator@PEAUVkRenderPass_T@@@std@@@std@@AEAAXPEAPEAUVkRenderPass_T@@00@Z ; std::vector<VkRenderPass_T *,std::allocator<VkRenderPass_T *> >::_Umove_if_noexcept
PUBLIC	?_Destroy@?$vector@PEAUVkRenderPass_T@@V?$allocator@PEAUVkRenderPass_T@@@std@@@std@@AEAAXPEAPEAUVkRenderPass_T@@0@Z ; std::vector<VkRenderPass_T *,std::allocator<VkRenderPass_T *> >::_Destroy
PUBLIC	?_Calculate_growth@?$vector@PEAUVkRenderPass_T@@V?$allocator@PEAUVkRenderPass_T@@@std@@@std@@AEBA_K_K@Z ; std::vector<VkRenderPass_T *,std::allocator<VkRenderPass_T *> >::_Calculate_growth
PUBLIC	?_Change_array@?$vector@PEAUVkRenderPass_T@@V?$allocator@PEAUVkRenderPass_T@@@std@@@std@@AEAAXQEAPEAUVkRenderPass_T@@_K1@Z ; std::vector<VkRenderPass_T *,std::allocator<VkRenderPass_T *> >::_Change_array
PUBLIC	?_Tidy@?$vector@PEAUVkRenderPass_T@@V?$allocator@PEAUVkRenderPass_T@@@std@@@std@@AEAAXXZ ; std::vector<VkRenderPass_T *,std::allocator<VkRenderPass_T *> >::_Tidy
PUBLIC	?_Xlength@?$vector@PEAUVkRenderPass_T@@V?$allocator@PEAUVkRenderPass_T@@@std@@@std@@CAXXZ ; std::vector<VkRenderPass_T *,std::allocator<VkRenderPass_T *> >::_Xlength
PUBLIC	?_Orphan_range@?$vector@PEAUVkRenderPass_T@@V?$allocator@PEAUVkRenderPass_T@@@std@@@std@@AEBAXPEAPEAUVkRenderPass_T@@0@Z ; std::vector<VkRenderPass_T *,std::allocator<VkRenderPass_T *> >::_Orphan_range
PUBLIC	?_Getal@?$vector@PEAUVkRenderPass_T@@V?$allocator@PEAUVkRenderPass_T@@@std@@@std@@AEAAAEAV?$allocator@PEAUVkRenderPass_T@@@2@XZ ; std::vector<VkRenderPass_T *,std::allocator<VkRenderPass_T *> >::_Getal
PUBLIC	?_Getal@?$vector@PEAUVkRenderPass_T@@V?$allocator@PEAUVkRenderPass_T@@@std@@@std@@AEBAAEBV?$allocator@PEAUVkRenderPass_T@@@2@XZ ; std::vector<VkRenderPass_T *,std::allocator<VkRenderPass_T *> >::_Getal
PUBLIC	??0?$_Vector_val@U?$_Simple_types@PEAUVkRenderPass_T@@@std@@@std@@QEAA@XZ ; std::_Vector_val<std::_Simple_types<VkRenderPass_T *> >::_Vector_val<std::_Simple_types<VkRenderPass_T *> >
PUBLIC	?_Get_first@?$_Compressed_pair@V?$allocator@PEAUVkRenderPass_T@@@std@@V?$_Vector_val@U?$_Simple_types@PEAUVkRenderPass_T@@@std@@@2@$00@std@@QEAAAEAV?$allocator@PEAUVkRenderPass_T@@@2@XZ ; std::_Compressed_pair<std::allocator<VkRenderPass_T *>,std::_Vector_val<std::_Simple_types<VkRenderPass_T *> >,1>::_Get_first
PUBLIC	?_Get_first@?$_Compressed_pair@V?$allocator@PEAUVkRenderPass_T@@@std@@V?$_Vector_val@U?$_Simple_types@PEAUVkRenderPass_T@@@std@@@2@$00@std@@QEBAAEBV?$allocator@PEAUVkRenderPass_T@@@2@XZ ; std::_Compressed_pair<std::allocator<VkRenderPass_T *>,std::_Vector_val<std::_Simple_types<VkRenderPass_T *> >,1>::_Get_first
PUBLIC	??0?$allocator@PEAUVkSwapchainKHR_T@@@std@@QEAA@XZ ; std::allocator<VkSwapchainKHR_T *>::allocator<VkSwapchainKHR_T *>
PUBLIC	?deallocate@?$allocator@PEAUVkSwapchainKHR_T@@@std@@QEAAXQEAPEAUVkSwapchainKHR_T@@_K@Z ; std::allocator<VkSwapchainKHR_T *>::deallocate
PUBLIC	?allocate@?$allocator@PEAUVkSwapchainKHR_T@@@std@@QEAAPEAPEAUVkSwapchainKHR_T@@_K@Z ; std::allocator<VkSwapchainKHR_T *>::allocate
PUBLIC	?max_size@?$_Default_allocator_traits@V?$allocator@PEAUVkSwapchainKHR_T@@@std@@@std@@SA_KAEBV?$allocator@PEAUVkSwapchainKHR_T@@@2@@Z ; std::_Default_allocator_traits<std::allocator<VkSwapchainKHR_T *> >::max_size
PUBLIC	??0?$vector@PEAUVkSwapchainKHR_T@@V?$allocator@PEAUVkSwapchainKHR_T@@@std@@@std@@QEAA@XZ ; std::vector<VkSwapchainKHR_T *,std::allocator<VkSwapchainKHR_T *> >::vector<VkSwapchainKHR_T *,std::allocator<VkSwapchainKHR_T *> >
PUBLIC	??1?$vector@PEAUVkSwapchainKHR_T@@V?$allocator@PEAUVkSwapchainKHR_T@@@std@@@std@@QEAA@XZ ; std::vector<VkSwapchainKHR_T *,std::allocator<VkSwapchainKHR_T *> >::~vector<VkSwapchainKHR_T *,std::allocator<VkSwapchainKHR_T *> >
PUBLIC	?push_back@?$vector@PEAUVkSwapchainKHR_T@@V?$allocator@PEAUVkSwapchainKHR_T@@@std@@@std@@QEAAXAEBQEAUVkSwapchainKHR_T@@@Z ; std::vector<VkSwapchainKHR_T *,std::allocator<VkSwapchainKHR_T *> >::push_back
PUBLIC	?size@?$vector@PEAUVkSwapchainKHR_T@@V?$allocator@PEAUVkSwapchainKHR_T@@@std@@@std@@QEBA_KXZ ; std::vector<VkSwapchainKHR_T *,std::allocator<VkSwapchainKHR_T *> >::size
PUBLIC	?max_size@?$vector@PEAUVkSwapchainKHR_T@@V?$allocator@PEAUVkSwapchainKHR_T@@@std@@@std@@QEBA_KXZ ; std::vector<VkSwapchainKHR_T *,std::allocator<VkSwapchainKHR_T *> >::max_size
PUBLIC	?capacity@?$vector@PEAUVkSwapchainKHR_T@@V?$allocator@PEAUVkSwapchainKHR_T@@@std@@@std@@QEBA_KXZ ; std::vector<VkSwapchainKHR_T *,std::allocator<VkSwapchainKHR_T *> >::capacity
PUBLIC	??A?$vector@PEAUVkSwapchainKHR_T@@V?$allocator@PEAUVkSwapchainKHR_T@@@std@@@std@@QEAAAEAPEAUVkSwapchainKHR_T@@_K@Z ; std::vector<VkSwapchainKHR_T *,std::allocator<VkSwapchainKHR_T *> >::operator[]
PUBLIC	?_Umove@?$vector@PEAUVkSwapchainKHR_T@@V?$allocator@PEAUVkSwapchainKHR_T@@@std@@@std@@AEAAPEAPEAUVkSwapchainKHR_T@@PEAPEAU3@00@Z ; std::vector<VkSwapchainKHR_T *,std::allocator<VkSwapchainKHR_T *> >::_Umove
PUBLIC	?_Umove_if_noexcept1@?$vector@PEAUVkSwapchainKHR_T@@V?$allocator@PEAUVkSwapchainKHR_T@@@std@@@std@@AEAAXPEAPEAUVkSwapchainKHR_T@@00U?$integral_constant@_N$00@2@@Z ; std::vector<VkSwapchainKHR_T *,std::allocator<VkSwapchainKHR_T *> >::_Umove_if_noexcept1
PUBLIC	?_Umove_if_noexcept@?$vector@PEAUVkSwapchainKHR_T@@V?$allocator@PEAUVkSwapchainKHR_T@@@std@@@std@@AEAAXPEAPEAUVkSwapchainKHR_T@@00@Z ; std::vector<VkSwapchainKHR_T *,std::allocator<VkSwapchainKHR_T *> >::_Umove_if_noexcept
PUBLIC	?_Destroy@?$vector@PEAUVkSwapchainKHR_T@@V?$allocator@PEAUVkSwapchainKHR_T@@@std@@@std@@AEAAXPEAPEAUVkSwapchainKHR_T@@0@Z ; std::vector<VkSwapchainKHR_T *,std::allocator<VkSwapchainKHR_T *> >::_Destroy
PUBLIC	?_Calculate_growth@?$vector@PEAUVkSwapchainKHR_T@@V?$allocator@PEAUVkSwapchainKHR_T@@@std@@@std@@AEBA_K_K@Z ; std::vector<VkSwapchainKHR_T *,std::allocator<VkSwapchainKHR_T *> >::_Calculate_growth
PUBLIC	?_Change_array@?$vector@PEAUVkSwapchainKHR_T@@V?$allocator@PEAUVkSwapchainKHR_T@@@std@@@std@@AEAAXQEAPEAUVkSwapchainKHR_T@@_K1@Z ; std::vector<VkSwapchainKHR_T *,std::allocator<VkSwapchainKHR_T *> >::_Change_array
PUBLIC	?_Tidy@?$vector@PEAUVkSwapchainKHR_T@@V?$allocator@PEAUVkSwapchainKHR_T@@@std@@@std@@AEAAXXZ ; std::vector<VkSwapchainKHR_T *,std::allocator<VkSwapchainKHR_T *> >::_Tidy
PUBLIC	?_Xlength@?$vector@PEAUVkSwapchainKHR_T@@V?$allocator@PEAUVkSwapchainKHR_T@@@std@@@std@@CAXXZ ; std::vector<VkSwapchainKHR_T *,std::allocator<VkSwapchainKHR_T *> >::_Xlength
PUBLIC	?_Orphan_range@?$vector@PEAUVkSwapchainKHR_T@@V?$allocator@PEAUVkSwapchainKHR_T@@@std@@@std@@AEBAXPEAPEAUVkSwapchainKHR_T@@0@Z ; std::vector<VkSwapchainKHR_T *,std::allocator<VkSwapchainKHR_T *> >::_Orphan_range
PUBLIC	?_Getal@?$vector@PEAUVkSwapchainKHR_T@@V?$allocator@PEAUVkSwapchainKHR_T@@@std@@@std@@AEAAAEAV?$allocator@PEAUVkSwapchainKHR_T@@@2@XZ ; std::vector<VkSwapchainKHR_T *,std::allocator<VkSwapchainKHR_T *> >::_Getal
PUBLIC	?_Getal@?$vector@PEAUVkSwapchainKHR_T@@V?$allocator@PEAUVkSwapchainKHR_T@@@std@@@std@@AEBAAEBV?$allocator@PEAUVkSwapchainKHR_T@@@2@XZ ; std::vector<VkSwapchainKHR_T *,std::allocator<VkSwapchainKHR_T *> >::_Getal
PUBLIC	??0?$_Vector_val@U?$_Simple_types@PEAUVkSwapchainKHR_T@@@std@@@std@@QEAA@XZ ; std::_Vector_val<std::_Simple_types<VkSwapchainKHR_T *> >::_Vector_val<std::_Simple_types<VkSwapchainKHR_T *> >
PUBLIC	?_Get_first@?$_Compressed_pair@V?$allocator@PEAUVkSwapchainKHR_T@@@std@@V?$_Vector_val@U?$_Simple_types@PEAUVkSwapchainKHR_T@@@std@@@2@$00@std@@QEAAAEAV?$allocator@PEAUVkSwapchainKHR_T@@@2@XZ ; std::_Compressed_pair<std::allocator<VkSwapchainKHR_T *>,std::_Vector_val<std::_Simple_types<VkSwapchainKHR_T *> >,1>::_Get_first
PUBLIC	?_Get_first@?$_Compressed_pair@V?$allocator@PEAUVkSwapchainKHR_T@@@std@@V?$_Vector_val@U?$_Simple_types@PEAUVkSwapchainKHR_T@@@std@@@2@$00@std@@QEBAAEBV?$allocator@PEAUVkSwapchainKHR_T@@@2@XZ ; std::_Compressed_pair<std::allocator<VkSwapchainKHR_T *>,std::_Vector_val<std::_Simple_types<VkSwapchainKHR_T *> >,1>::_Get_first
PUBLIC	??0?$allocator@PEAUVkImageView_T@@@std@@QEAA@XZ	; std::allocator<VkImageView_T *>::allocator<VkImageView_T *>
PUBLIC	?deallocate@?$allocator@PEAUVkImageView_T@@@std@@QEAAXQEAPEAUVkImageView_T@@_K@Z ; std::allocator<VkImageView_T *>::deallocate
PUBLIC	?allocate@?$allocator@PEAUVkImageView_T@@@std@@QEAAPEAPEAUVkImageView_T@@_K@Z ; std::allocator<VkImageView_T *>::allocate
PUBLIC	?max_size@?$_Default_allocator_traits@V?$allocator@PEAUVkImageView_T@@@std@@@std@@SA_KAEBV?$allocator@PEAUVkImageView_T@@@2@@Z ; std::_Default_allocator_traits<std::allocator<VkImageView_T *> >::max_size
PUBLIC	??0?$vector@PEAUVkImageView_T@@V?$allocator@PEAUVkImageView_T@@@std@@@std@@QEAA@XZ ; std::vector<VkImageView_T *,std::allocator<VkImageView_T *> >::vector<VkImageView_T *,std::allocator<VkImageView_T *> >
PUBLIC	??0?$vector@PEAUVkImageView_T@@V?$allocator@PEAUVkImageView_T@@@std@@@std@@QEAA@_KAEBV?$allocator@PEAUVkImageView_T@@@1@@Z ; std::vector<VkImageView_T *,std::allocator<VkImageView_T *> >::vector<VkImageView_T *,std::allocator<VkImageView_T *> >
PUBLIC	??1?$vector@PEAUVkImageView_T@@V?$allocator@PEAUVkImageView_T@@@std@@@std@@QEAA@XZ ; std::vector<VkImageView_T *,std::allocator<VkImageView_T *> >::~vector<VkImageView_T *,std::allocator<VkImageView_T *> >
PUBLIC	?push_back@?$vector@PEAUVkImageView_T@@V?$allocator@PEAUVkImageView_T@@@std@@@std@@QEAAXAEBQEAUVkImageView_T@@@Z ; std::vector<VkImageView_T *,std::allocator<VkImageView_T *> >::push_back
PUBLIC	?size@?$vector@PEAUVkImageView_T@@V?$allocator@PEAUVkImageView_T@@@std@@@std@@QEBA_KXZ ; std::vector<VkImageView_T *,std::allocator<VkImageView_T *> >::size
PUBLIC	?max_size@?$vector@PEAUVkImageView_T@@V?$allocator@PEAUVkImageView_T@@@std@@@std@@QEBA_KXZ ; std::vector<VkImageView_T *,std::allocator<VkImageView_T *> >::max_size
PUBLIC	?capacity@?$vector@PEAUVkImageView_T@@V?$allocator@PEAUVkImageView_T@@@std@@@std@@QEBA_KXZ ; std::vector<VkImageView_T *,std::allocator<VkImageView_T *> >::capacity
PUBLIC	??A?$vector@PEAUVkImageView_T@@V?$allocator@PEAUVkImageView_T@@@std@@@std@@QEAAAEAPEAUVkImageView_T@@_K@Z ; std::vector<VkImageView_T *,std::allocator<VkImageView_T *> >::operator[]
PUBLIC	?_Ufill@?$vector@PEAUVkImageView_T@@V?$allocator@PEAUVkImageView_T@@@std@@@std@@AEAAPEAPEAUVkImageView_T@@PEAPEAU3@_KU_Value_init_tag@2@@Z ; std::vector<VkImageView_T *,std::allocator<VkImageView_T *> >::_Ufill
PUBLIC	?_Umove@?$vector@PEAUVkImageView_T@@V?$allocator@PEAUVkImageView_T@@@std@@@std@@AEAAPEAPEAUVkImageView_T@@PEAPEAU3@00@Z ; std::vector<VkImageView_T *,std::allocator<VkImageView_T *> >::_Umove
PUBLIC	?_Umove_if_noexcept1@?$vector@PEAUVkImageView_T@@V?$allocator@PEAUVkImageView_T@@@std@@@std@@AEAAXPEAPEAUVkImageView_T@@00U?$integral_constant@_N$00@2@@Z ; std::vector<VkImageView_T *,std::allocator<VkImageView_T *> >::_Umove_if_noexcept1
PUBLIC	?_Umove_if_noexcept@?$vector@PEAUVkImageView_T@@V?$allocator@PEAUVkImageView_T@@@std@@@std@@AEAAXPEAPEAUVkImageView_T@@00@Z ; std::vector<VkImageView_T *,std::allocator<VkImageView_T *> >::_Umove_if_noexcept
PUBLIC	?_Destroy@?$vector@PEAUVkImageView_T@@V?$allocator@PEAUVkImageView_T@@@std@@@std@@AEAAXPEAPEAUVkImageView_T@@0@Z ; std::vector<VkImageView_T *,std::allocator<VkImageView_T *> >::_Destroy
PUBLIC	?_Calculate_growth@?$vector@PEAUVkImageView_T@@V?$allocator@PEAUVkImageView_T@@@std@@@std@@AEBA_K_K@Z ; std::vector<VkImageView_T *,std::allocator<VkImageView_T *> >::_Calculate_growth
PUBLIC	?_Buy_raw@?$vector@PEAUVkImageView_T@@V?$allocator@PEAUVkImageView_T@@@std@@@std@@AEAAX_K@Z ; std::vector<VkImageView_T *,std::allocator<VkImageView_T *> >::_Buy_raw
PUBLIC	?_Buy_nonzero@?$vector@PEAUVkImageView_T@@V?$allocator@PEAUVkImageView_T@@@std@@@std@@AEAAX_K@Z ; std::vector<VkImageView_T *,std::allocator<VkImageView_T *> >::_Buy_nonzero
PUBLIC	?_Change_array@?$vector@PEAUVkImageView_T@@V?$allocator@PEAUVkImageView_T@@@std@@@std@@AEAAXQEAPEAUVkImageView_T@@_K1@Z ; std::vector<VkImageView_T *,std::allocator<VkImageView_T *> >::_Change_array
PUBLIC	?_Tidy@?$vector@PEAUVkImageView_T@@V?$allocator@PEAUVkImageView_T@@@std@@@std@@AEAAXXZ ; std::vector<VkImageView_T *,std::allocator<VkImageView_T *> >::_Tidy
PUBLIC	?_Xlength@?$vector@PEAUVkImageView_T@@V?$allocator@PEAUVkImageView_T@@@std@@@std@@CAXXZ ; std::vector<VkImageView_T *,std::allocator<VkImageView_T *> >::_Xlength
PUBLIC	?_Orphan_range@?$vector@PEAUVkImageView_T@@V?$allocator@PEAUVkImageView_T@@@std@@@std@@AEBAXPEAPEAUVkImageView_T@@0@Z ; std::vector<VkImageView_T *,std::allocator<VkImageView_T *> >::_Orphan_range
PUBLIC	?_Getal@?$vector@PEAUVkImageView_T@@V?$allocator@PEAUVkImageView_T@@@std@@@std@@AEAAAEAV?$allocator@PEAUVkImageView_T@@@2@XZ ; std::vector<VkImageView_T *,std::allocator<VkImageView_T *> >::_Getal
PUBLIC	?_Getal@?$vector@PEAUVkImageView_T@@V?$allocator@PEAUVkImageView_T@@@std@@@std@@AEBAAEBV?$allocator@PEAUVkImageView_T@@@2@XZ ; std::vector<VkImageView_T *,std::allocator<VkImageView_T *> >::_Getal
PUBLIC	??0?$_Vector_val@U?$_Simple_types@PEAUVkImageView_T@@@std@@@std@@QEAA@XZ ; std::_Vector_val<std::_Simple_types<VkImageView_T *> >::_Vector_val<std::_Simple_types<VkImageView_T *> >
PUBLIC	?_Get_first@?$_Compressed_pair@V?$allocator@PEAUVkImageView_T@@@std@@V?$_Vector_val@U?$_Simple_types@PEAUVkImageView_T@@@std@@@2@$00@std@@QEAAAEAV?$allocator@PEAUVkImageView_T@@@2@XZ ; std::_Compressed_pair<std::allocator<VkImageView_T *>,std::_Vector_val<std::_Simple_types<VkImageView_T *> >,1>::_Get_first
PUBLIC	?_Get_first@?$_Compressed_pair@V?$allocator@PEAUVkImageView_T@@@std@@V?$_Vector_val@U?$_Simple_types@PEAUVkImageView_T@@@std@@@2@$00@std@@QEBAAEBV?$allocator@PEAUVkImageView_T@@@2@XZ ; std::_Compressed_pair<std::allocator<VkImageView_T *>,std::_Vector_val<std::_Simple_types<VkImageView_T *> >,1>::_Get_first
PUBLIC	??0?$allocator@PEAUVkImage_T@@@std@@QEAA@XZ	; std::allocator<VkImage_T *>::allocator<VkImage_T *>
PUBLIC	?deallocate@?$allocator@PEAUVkImage_T@@@std@@QEAAXQEAPEAUVkImage_T@@_K@Z ; std::allocator<VkImage_T *>::deallocate
PUBLIC	?allocate@?$allocator@PEAUVkImage_T@@@std@@QEAAPEAPEAUVkImage_T@@_K@Z ; std::allocator<VkImage_T *>::allocate
PUBLIC	?max_size@?$_Default_allocator_traits@V?$allocator@PEAUVkImage_T@@@std@@@std@@SA_KAEBV?$allocator@PEAUVkImage_T@@@2@@Z ; std::_Default_allocator_traits<std::allocator<VkImage_T *> >::max_size
PUBLIC	??0?$vector@PEAUVkImage_T@@V?$allocator@PEAUVkImage_T@@@std@@@std@@QEAA@XZ ; std::vector<VkImage_T *,std::allocator<VkImage_T *> >::vector<VkImage_T *,std::allocator<VkImage_T *> >
PUBLIC	??0?$vector@PEAUVkImage_T@@V?$allocator@PEAUVkImage_T@@@std@@@std@@QEAA@_KAEBV?$allocator@PEAUVkImage_T@@@1@@Z ; std::vector<VkImage_T *,std::allocator<VkImage_T *> >::vector<VkImage_T *,std::allocator<VkImage_T *> >
PUBLIC	?_Move_construct@?$vector@PEAUVkImage_T@@V?$allocator@PEAUVkImage_T@@@std@@@std@@AEAAXAEAV12@U?$integral_constant@_N$00@2@@Z ; std::vector<VkImage_T *,std::allocator<VkImage_T *> >::_Move_construct
PUBLIC	??0?$vector@PEAUVkImage_T@@V?$allocator@PEAUVkImage_T@@@std@@@std@@QEAA@$$QEAV01@@Z ; std::vector<VkImage_T *,std::allocator<VkImage_T *> >::vector<VkImage_T *,std::allocator<VkImage_T *> >
PUBLIC	??1?$vector@PEAUVkImage_T@@V?$allocator@PEAUVkImage_T@@@std@@@std@@QEAA@XZ ; std::vector<VkImage_T *,std::allocator<VkImage_T *> >::~vector<VkImage_T *,std::allocator<VkImage_T *> >
PUBLIC	?push_back@?$vector@PEAUVkImage_T@@V?$allocator@PEAUVkImage_T@@@std@@@std@@QEAAXAEBQEAUVkImage_T@@@Z ; std::vector<VkImage_T *,std::allocator<VkImage_T *> >::push_back
PUBLIC	?data@?$vector@PEAUVkImage_T@@V?$allocator@PEAUVkImage_T@@@std@@@std@@QEAAPEAPEAUVkImage_T@@XZ ; std::vector<VkImage_T *,std::allocator<VkImage_T *> >::data
PUBLIC	?size@?$vector@PEAUVkImage_T@@V?$allocator@PEAUVkImage_T@@@std@@@std@@QEBA_KXZ ; std::vector<VkImage_T *,std::allocator<VkImage_T *> >::size
PUBLIC	?max_size@?$vector@PEAUVkImage_T@@V?$allocator@PEAUVkImage_T@@@std@@@std@@QEBA_KXZ ; std::vector<VkImage_T *,std::allocator<VkImage_T *> >::max_size
PUBLIC	?capacity@?$vector@PEAUVkImage_T@@V?$allocator@PEAUVkImage_T@@@std@@@std@@QEBA_KXZ ; std::vector<VkImage_T *,std::allocator<VkImage_T *> >::capacity
PUBLIC	??A?$vector@PEAUVkImage_T@@V?$allocator@PEAUVkImage_T@@@std@@@std@@QEAAAEAPEAUVkImage_T@@_K@Z ; std::vector<VkImage_T *,std::allocator<VkImage_T *> >::operator[]
PUBLIC	?_Ufill@?$vector@PEAUVkImage_T@@V?$allocator@PEAUVkImage_T@@@std@@@std@@AEAAPEAPEAUVkImage_T@@PEAPEAU3@_KU_Value_init_tag@2@@Z ; std::vector<VkImage_T *,std::allocator<VkImage_T *> >::_Ufill
PUBLIC	?_Umove@?$vector@PEAUVkImage_T@@V?$allocator@PEAUVkImage_T@@@std@@@std@@AEAAPEAPEAUVkImage_T@@PEAPEAU3@00@Z ; std::vector<VkImage_T *,std::allocator<VkImage_T *> >::_Umove
PUBLIC	?_Umove_if_noexcept1@?$vector@PEAUVkImage_T@@V?$allocator@PEAUVkImage_T@@@std@@@std@@AEAAXPEAPEAUVkImage_T@@00U?$integral_constant@_N$00@2@@Z ; std::vector<VkImage_T *,std::allocator<VkImage_T *> >::_Umove_if_noexcept1
PUBLIC	?_Umove_if_noexcept@?$vector@PEAUVkImage_T@@V?$allocator@PEAUVkImage_T@@@std@@@std@@AEAAXPEAPEAUVkImage_T@@00@Z ; std::vector<VkImage_T *,std::allocator<VkImage_T *> >::_Umove_if_noexcept
PUBLIC	?_Destroy@?$vector@PEAUVkImage_T@@V?$allocator@PEAUVkImage_T@@@std@@@std@@AEAAXPEAPEAUVkImage_T@@0@Z ; std::vector<VkImage_T *,std::allocator<VkImage_T *> >::_Destroy
PUBLIC	?_Calculate_growth@?$vector@PEAUVkImage_T@@V?$allocator@PEAUVkImage_T@@@std@@@std@@AEBA_K_K@Z ; std::vector<VkImage_T *,std::allocator<VkImage_T *> >::_Calculate_growth
PUBLIC	?_Buy_raw@?$vector@PEAUVkImage_T@@V?$allocator@PEAUVkImage_T@@@std@@@std@@AEAAX_K@Z ; std::vector<VkImage_T *,std::allocator<VkImage_T *> >::_Buy_raw
PUBLIC	?_Buy_nonzero@?$vector@PEAUVkImage_T@@V?$allocator@PEAUVkImage_T@@@std@@@std@@AEAAX_K@Z ; std::vector<VkImage_T *,std::allocator<VkImage_T *> >::_Buy_nonzero
PUBLIC	?_Change_array@?$vector@PEAUVkImage_T@@V?$allocator@PEAUVkImage_T@@@std@@@std@@AEAAXQEAPEAUVkImage_T@@_K1@Z ; std::vector<VkImage_T *,std::allocator<VkImage_T *> >::_Change_array
PUBLIC	?_Tidy@?$vector@PEAUVkImage_T@@V?$allocator@PEAUVkImage_T@@@std@@@std@@AEAAXXZ ; std::vector<VkImage_T *,std::allocator<VkImage_T *> >::_Tidy
PUBLIC	?_Xlength@?$vector@PEAUVkImage_T@@V?$allocator@PEAUVkImage_T@@@std@@@std@@CAXXZ ; std::vector<VkImage_T *,std::allocator<VkImage_T *> >::_Xlength
PUBLIC	?_Orphan_range@?$vector@PEAUVkImage_T@@V?$allocator@PEAUVkImage_T@@@std@@@std@@AEBAXPEAPEAUVkImage_T@@0@Z ; std::vector<VkImage_T *,std::allocator<VkImage_T *> >::_Orphan_range
PUBLIC	?_Getal@?$vector@PEAUVkImage_T@@V?$allocator@PEAUVkImage_T@@@std@@@std@@AEAAAEAV?$allocator@PEAUVkImage_T@@@2@XZ ; std::vector<VkImage_T *,std::allocator<VkImage_T *> >::_Getal
PUBLIC	?_Getal@?$vector@PEAUVkImage_T@@V?$allocator@PEAUVkImage_T@@@std@@@std@@AEBAAEBV?$allocator@PEAUVkImage_T@@@2@XZ ; std::vector<VkImage_T *,std::allocator<VkImage_T *> >::_Getal
PUBLIC	??0?$_Vector_val@U?$_Simple_types@PEAUVkImage_T@@@std@@@std@@QEAA@XZ ; std::_Vector_val<std::_Simple_types<VkImage_T *> >::_Vector_val<std::_Simple_types<VkImage_T *> >
PUBLIC	?_Take_contents@?$_Vector_val@U?$_Simple_types@PEAUVkImage_T@@@std@@@std@@QEAAXAEAV12@@Z ; std::_Vector_val<std::_Simple_types<VkImage_T *> >::_Take_contents
PUBLIC	?_Get_first@?$_Compressed_pair@V?$allocator@PEAUVkImage_T@@@std@@V?$_Vector_val@U?$_Simple_types@PEAUVkImage_T@@@std@@@2@$00@std@@QEAAAEAV?$allocator@PEAUVkImage_T@@@2@XZ ; std::_Compressed_pair<std::allocator<VkImage_T *>,std::_Vector_val<std::_Simple_types<VkImage_T *> >,1>::_Get_first
PUBLIC	?_Get_first@?$_Compressed_pair@V?$allocator@PEAUVkImage_T@@@std@@V?$_Vector_val@U?$_Simple_types@PEAUVkImage_T@@@std@@@2@$00@std@@QEBAAEBV?$allocator@PEAUVkImage_T@@@2@XZ ; std::_Compressed_pair<std::allocator<VkImage_T *>,std::_Vector_val<std::_Simple_types<VkImage_T *> >,1>::_Get_first
PUBLIC	??0?$allocator@PEAUVkDeviceMemory_T@@@std@@QEAA@XZ ; std::allocator<VkDeviceMemory_T *>::allocator<VkDeviceMemory_T *>
PUBLIC	?deallocate@?$allocator@PEAUVkDeviceMemory_T@@@std@@QEAAXQEAPEAUVkDeviceMemory_T@@_K@Z ; std::allocator<VkDeviceMemory_T *>::deallocate
PUBLIC	?allocate@?$allocator@PEAUVkDeviceMemory_T@@@std@@QEAAPEAPEAUVkDeviceMemory_T@@_K@Z ; std::allocator<VkDeviceMemory_T *>::allocate
PUBLIC	?max_size@?$_Default_allocator_traits@V?$allocator@PEAUVkDeviceMemory_T@@@std@@@std@@SA_KAEBV?$allocator@PEAUVkDeviceMemory_T@@@2@@Z ; std::_Default_allocator_traits<std::allocator<VkDeviceMemory_T *> >::max_size
PUBLIC	??0?$vector@PEAUVkDeviceMemory_T@@V?$allocator@PEAUVkDeviceMemory_T@@@std@@@std@@QEAA@XZ ; std::vector<VkDeviceMemory_T *,std::allocator<VkDeviceMemory_T *> >::vector<VkDeviceMemory_T *,std::allocator<VkDeviceMemory_T *> >
PUBLIC	??0?$vector@PEAUVkDeviceMemory_T@@V?$allocator@PEAUVkDeviceMemory_T@@@std@@@std@@QEAA@_KAEBV?$allocator@PEAUVkDeviceMemory_T@@@1@@Z ; std::vector<VkDeviceMemory_T *,std::allocator<VkDeviceMemory_T *> >::vector<VkDeviceMemory_T *,std::allocator<VkDeviceMemory_T *> >
PUBLIC	??1?$vector@PEAUVkDeviceMemory_T@@V?$allocator@PEAUVkDeviceMemory_T@@@std@@@std@@QEAA@XZ ; std::vector<VkDeviceMemory_T *,std::allocator<VkDeviceMemory_T *> >::~vector<VkDeviceMemory_T *,std::allocator<VkDeviceMemory_T *> >
PUBLIC	?push_back@?$vector@PEAUVkDeviceMemory_T@@V?$allocator@PEAUVkDeviceMemory_T@@@std@@@std@@QEAAXAEBQEAUVkDeviceMemory_T@@@Z ; std::vector<VkDeviceMemory_T *,std::allocator<VkDeviceMemory_T *> >::push_back
PUBLIC	?size@?$vector@PEAUVkDeviceMemory_T@@V?$allocator@PEAUVkDeviceMemory_T@@@std@@@std@@QEBA_KXZ ; std::vector<VkDeviceMemory_T *,std::allocator<VkDeviceMemory_T *> >::size
PUBLIC	?max_size@?$vector@PEAUVkDeviceMemory_T@@V?$allocator@PEAUVkDeviceMemory_T@@@std@@@std@@QEBA_KXZ ; std::vector<VkDeviceMemory_T *,std::allocator<VkDeviceMemory_T *> >::max_size
PUBLIC	?capacity@?$vector@PEAUVkDeviceMemory_T@@V?$allocator@PEAUVkDeviceMemory_T@@@std@@@std@@QEBA_KXZ ; std::vector<VkDeviceMemory_T *,std::allocator<VkDeviceMemory_T *> >::capacity
PUBLIC	??A?$vector@PEAUVkDeviceMemory_T@@V?$allocator@PEAUVkDeviceMemory_T@@@std@@@std@@QEAAAEAPEAUVkDeviceMemory_T@@_K@Z ; std::vector<VkDeviceMemory_T *,std::allocator<VkDeviceMemory_T *> >::operator[]
PUBLIC	?_Ufill@?$vector@PEAUVkDeviceMemory_T@@V?$allocator@PEAUVkDeviceMemory_T@@@std@@@std@@AEAAPEAPEAUVkDeviceMemory_T@@PEAPEAU3@_KU_Value_init_tag@2@@Z ; std::vector<VkDeviceMemory_T *,std::allocator<VkDeviceMemory_T *> >::_Ufill
PUBLIC	?_Umove@?$vector@PEAUVkDeviceMemory_T@@V?$allocator@PEAUVkDeviceMemory_T@@@std@@@std@@AEAAPEAPEAUVkDeviceMemory_T@@PEAPEAU3@00@Z ; std::vector<VkDeviceMemory_T *,std::allocator<VkDeviceMemory_T *> >::_Umove
PUBLIC	?_Umove_if_noexcept1@?$vector@PEAUVkDeviceMemory_T@@V?$allocator@PEAUVkDeviceMemory_T@@@std@@@std@@AEAAXPEAPEAUVkDeviceMemory_T@@00U?$integral_constant@_N$00@2@@Z ; std::vector<VkDeviceMemory_T *,std::allocator<VkDeviceMemory_T *> >::_Umove_if_noexcept1
PUBLIC	?_Umove_if_noexcept@?$vector@PEAUVkDeviceMemory_T@@V?$allocator@PEAUVkDeviceMemory_T@@@std@@@std@@AEAAXPEAPEAUVkDeviceMemory_T@@00@Z ; std::vector<VkDeviceMemory_T *,std::allocator<VkDeviceMemory_T *> >::_Umove_if_noexcept
PUBLIC	?_Destroy@?$vector@PEAUVkDeviceMemory_T@@V?$allocator@PEAUVkDeviceMemory_T@@@std@@@std@@AEAAXPEAPEAUVkDeviceMemory_T@@0@Z ; std::vector<VkDeviceMemory_T *,std::allocator<VkDeviceMemory_T *> >::_Destroy
PUBLIC	?_Calculate_growth@?$vector@PEAUVkDeviceMemory_T@@V?$allocator@PEAUVkDeviceMemory_T@@@std@@@std@@AEBA_K_K@Z ; std::vector<VkDeviceMemory_T *,std::allocator<VkDeviceMemory_T *> >::_Calculate_growth
PUBLIC	?_Buy_raw@?$vector@PEAUVkDeviceMemory_T@@V?$allocator@PEAUVkDeviceMemory_T@@@std@@@std@@AEAAX_K@Z ; std::vector<VkDeviceMemory_T *,std::allocator<VkDeviceMemory_T *> >::_Buy_raw
PUBLIC	?_Buy_nonzero@?$vector@PEAUVkDeviceMemory_T@@V?$allocator@PEAUVkDeviceMemory_T@@@std@@@std@@AEAAX_K@Z ; std::vector<VkDeviceMemory_T *,std::allocator<VkDeviceMemory_T *> >::_Buy_nonzero
PUBLIC	?_Change_array@?$vector@PEAUVkDeviceMemory_T@@V?$allocator@PEAUVkDeviceMemory_T@@@std@@@std@@AEAAXQEAPEAUVkDeviceMemory_T@@_K1@Z ; std::vector<VkDeviceMemory_T *,std::allocator<VkDeviceMemory_T *> >::_Change_array
PUBLIC	?_Tidy@?$vector@PEAUVkDeviceMemory_T@@V?$allocator@PEAUVkDeviceMemory_T@@@std@@@std@@AEAAXXZ ; std::vector<VkDeviceMemory_T *,std::allocator<VkDeviceMemory_T *> >::_Tidy
PUBLIC	?_Xlength@?$vector@PEAUVkDeviceMemory_T@@V?$allocator@PEAUVkDeviceMemory_T@@@std@@@std@@CAXXZ ; std::vector<VkDeviceMemory_T *,std::allocator<VkDeviceMemory_T *> >::_Xlength
PUBLIC	?_Orphan_range@?$vector@PEAUVkDeviceMemory_T@@V?$allocator@PEAUVkDeviceMemory_T@@@std@@@std@@AEBAXPEAPEAUVkDeviceMemory_T@@0@Z ; std::vector<VkDeviceMemory_T *,std::allocator<VkDeviceMemory_T *> >::_Orphan_range
PUBLIC	?_Getal@?$vector@PEAUVkDeviceMemory_T@@V?$allocator@PEAUVkDeviceMemory_T@@@std@@@std@@AEAAAEAV?$allocator@PEAUVkDeviceMemory_T@@@2@XZ ; std::vector<VkDeviceMemory_T *,std::allocator<VkDeviceMemory_T *> >::_Getal
PUBLIC	?_Getal@?$vector@PEAUVkDeviceMemory_T@@V?$allocator@PEAUVkDeviceMemory_T@@@std@@@std@@AEBAAEBV?$allocator@PEAUVkDeviceMemory_T@@@2@XZ ; std::vector<VkDeviceMemory_T *,std::allocator<VkDeviceMemory_T *> >::_Getal
PUBLIC	??0?$_Vector_val@U?$_Simple_types@PEAUVkDeviceMemory_T@@@std@@@std@@QEAA@XZ ; std::_Vector_val<std::_Simple_types<VkDeviceMemory_T *> >::_Vector_val<std::_Simple_types<VkDeviceMemory_T *> >
PUBLIC	?_Get_first@?$_Compressed_pair@V?$allocator@PEAUVkDeviceMemory_T@@@std@@V?$_Vector_val@U?$_Simple_types@PEAUVkDeviceMemory_T@@@std@@@2@$00@std@@QEAAAEAV?$allocator@PEAUVkDeviceMemory_T@@@2@XZ ; std::_Compressed_pair<std::allocator<VkDeviceMemory_T *>,std::_Vector_val<std::_Simple_types<VkDeviceMemory_T *> >,1>::_Get_first
PUBLIC	?_Get_first@?$_Compressed_pair@V?$allocator@PEAUVkDeviceMemory_T@@@std@@V?$_Vector_val@U?$_Simple_types@PEAUVkDeviceMemory_T@@@std@@@2@$00@std@@QEBAAEBV?$allocator@PEAUVkDeviceMemory_T@@@2@XZ ; std::_Compressed_pair<std::allocator<VkDeviceMemory_T *>,std::_Vector_val<std::_Simple_types<VkDeviceMemory_T *> >,1>::_Get_first
PUBLIC	??0?$allocator@PEAUVkFramebuffer_T@@@std@@QEAA@XZ ; std::allocator<VkFramebuffer_T *>::allocator<VkFramebuffer_T *>
PUBLIC	?deallocate@?$allocator@PEAUVkFramebuffer_T@@@std@@QEAAXQEAPEAUVkFramebuffer_T@@_K@Z ; std::allocator<VkFramebuffer_T *>::deallocate
PUBLIC	?allocate@?$allocator@PEAUVkFramebuffer_T@@@std@@QEAAPEAPEAUVkFramebuffer_T@@_K@Z ; std::allocator<VkFramebuffer_T *>::allocate
PUBLIC	?max_size@?$_Default_allocator_traits@V?$allocator@PEAUVkFramebuffer_T@@@std@@@std@@SA_KAEBV?$allocator@PEAUVkFramebuffer_T@@@2@@Z ; std::_Default_allocator_traits<std::allocator<VkFramebuffer_T *> >::max_size
PUBLIC	??0?$vector@PEAUVkFramebuffer_T@@V?$allocator@PEAUVkFramebuffer_T@@@std@@@std@@QEAA@XZ ; std::vector<VkFramebuffer_T *,std::allocator<VkFramebuffer_T *> >::vector<VkFramebuffer_T *,std::allocator<VkFramebuffer_T *> >
PUBLIC	??0?$vector@PEAUVkFramebuffer_T@@V?$allocator@PEAUVkFramebuffer_T@@@std@@@std@@QEAA@_KAEBV?$allocator@PEAUVkFramebuffer_T@@@1@@Z ; std::vector<VkFramebuffer_T *,std::allocator<VkFramebuffer_T *> >::vector<VkFramebuffer_T *,std::allocator<VkFramebuffer_T *> >
PUBLIC	??1?$vector@PEAUVkFramebuffer_T@@V?$allocator@PEAUVkFramebuffer_T@@@std@@@std@@QEAA@XZ ; std::vector<VkFramebuffer_T *,std::allocator<VkFramebuffer_T *> >::~vector<VkFramebuffer_T *,std::allocator<VkFramebuffer_T *> >
PUBLIC	?push_back@?$vector@PEAUVkFramebuffer_T@@V?$allocator@PEAUVkFramebuffer_T@@@std@@@std@@QEAAXAEBQEAUVkFramebuffer_T@@@Z ; std::vector<VkFramebuffer_T *,std::allocator<VkFramebuffer_T *> >::push_back
PUBLIC	?size@?$vector@PEAUVkFramebuffer_T@@V?$allocator@PEAUVkFramebuffer_T@@@std@@@std@@QEBA_KXZ ; std::vector<VkFramebuffer_T *,std::allocator<VkFramebuffer_T *> >::size
PUBLIC	?max_size@?$vector@PEAUVkFramebuffer_T@@V?$allocator@PEAUVkFramebuffer_T@@@std@@@std@@QEBA_KXZ ; std::vector<VkFramebuffer_T *,std::allocator<VkFramebuffer_T *> >::max_size
PUBLIC	?capacity@?$vector@PEAUVkFramebuffer_T@@V?$allocator@PEAUVkFramebuffer_T@@@std@@@std@@QEBA_KXZ ; std::vector<VkFramebuffer_T *,std::allocator<VkFramebuffer_T *> >::capacity
PUBLIC	??A?$vector@PEAUVkFramebuffer_T@@V?$allocator@PEAUVkFramebuffer_T@@@std@@@std@@QEAAAEAPEAUVkFramebuffer_T@@_K@Z ; std::vector<VkFramebuffer_T *,std::allocator<VkFramebuffer_T *> >::operator[]
PUBLIC	?_Ufill@?$vector@PEAUVkFramebuffer_T@@V?$allocator@PEAUVkFramebuffer_T@@@std@@@std@@AEAAPEAPEAUVkFramebuffer_T@@PEAPEAU3@_KU_Value_init_tag@2@@Z ; std::vector<VkFramebuffer_T *,std::allocator<VkFramebuffer_T *> >::_Ufill
PUBLIC	?_Umove@?$vector@PEAUVkFramebuffer_T@@V?$allocator@PEAUVkFramebuffer_T@@@std@@@std@@AEAAPEAPEAUVkFramebuffer_T@@PEAPEAU3@00@Z ; std::vector<VkFramebuffer_T *,std::allocator<VkFramebuffer_T *> >::_Umove
PUBLIC	?_Umove_if_noexcept1@?$vector@PEAUVkFramebuffer_T@@V?$allocator@PEAUVkFramebuffer_T@@@std@@@std@@AEAAXPEAPEAUVkFramebuffer_T@@00U?$integral_constant@_N$00@2@@Z ; std::vector<VkFramebuffer_T *,std::allocator<VkFramebuffer_T *> >::_Umove_if_noexcept1
PUBLIC	?_Umove_if_noexcept@?$vector@PEAUVkFramebuffer_T@@V?$allocator@PEAUVkFramebuffer_T@@@std@@@std@@AEAAXPEAPEAUVkFramebuffer_T@@00@Z ; std::vector<VkFramebuffer_T *,std::allocator<VkFramebuffer_T *> >::_Umove_if_noexcept
PUBLIC	?_Destroy@?$vector@PEAUVkFramebuffer_T@@V?$allocator@PEAUVkFramebuffer_T@@@std@@@std@@AEAAXPEAPEAUVkFramebuffer_T@@0@Z ; std::vector<VkFramebuffer_T *,std::allocator<VkFramebuffer_T *> >::_Destroy
PUBLIC	?_Calculate_growth@?$vector@PEAUVkFramebuffer_T@@V?$allocator@PEAUVkFramebuffer_T@@@std@@@std@@AEBA_K_K@Z ; std::vector<VkFramebuffer_T *,std::allocator<VkFramebuffer_T *> >::_Calculate_growth
PUBLIC	?_Buy_raw@?$vector@PEAUVkFramebuffer_T@@V?$allocator@PEAUVkFramebuffer_T@@@std@@@std@@AEAAX_K@Z ; std::vector<VkFramebuffer_T *,std::allocator<VkFramebuffer_T *> >::_Buy_raw
PUBLIC	?_Buy_nonzero@?$vector@PEAUVkFramebuffer_T@@V?$allocator@PEAUVkFramebuffer_T@@@std@@@std@@AEAAX_K@Z ; std::vector<VkFramebuffer_T *,std::allocator<VkFramebuffer_T *> >::_Buy_nonzero
PUBLIC	?_Change_array@?$vector@PEAUVkFramebuffer_T@@V?$allocator@PEAUVkFramebuffer_T@@@std@@@std@@AEAAXQEAPEAUVkFramebuffer_T@@_K1@Z ; std::vector<VkFramebuffer_T *,std::allocator<VkFramebuffer_T *> >::_Change_array
PUBLIC	?_Tidy@?$vector@PEAUVkFramebuffer_T@@V?$allocator@PEAUVkFramebuffer_T@@@std@@@std@@AEAAXXZ ; std::vector<VkFramebuffer_T *,std::allocator<VkFramebuffer_T *> >::_Tidy
PUBLIC	?_Xlength@?$vector@PEAUVkFramebuffer_T@@V?$allocator@PEAUVkFramebuffer_T@@@std@@@std@@CAXXZ ; std::vector<VkFramebuffer_T *,std::allocator<VkFramebuffer_T *> >::_Xlength
PUBLIC	?_Orphan_range@?$vector@PEAUVkFramebuffer_T@@V?$allocator@PEAUVkFramebuffer_T@@@std@@@std@@AEBAXPEAPEAUVkFramebuffer_T@@0@Z ; std::vector<VkFramebuffer_T *,std::allocator<VkFramebuffer_T *> >::_Orphan_range
PUBLIC	?_Getal@?$vector@PEAUVkFramebuffer_T@@V?$allocator@PEAUVkFramebuffer_T@@@std@@@std@@AEAAAEAV?$allocator@PEAUVkFramebuffer_T@@@2@XZ ; std::vector<VkFramebuffer_T *,std::allocator<VkFramebuffer_T *> >::_Getal
PUBLIC	?_Getal@?$vector@PEAUVkFramebuffer_T@@V?$allocator@PEAUVkFramebuffer_T@@@std@@@std@@AEBAAEBV?$allocator@PEAUVkFramebuffer_T@@@2@XZ ; std::vector<VkFramebuffer_T *,std::allocator<VkFramebuffer_T *> >::_Getal
PUBLIC	??0?$_Vector_val@U?$_Simple_types@PEAUVkFramebuffer_T@@@std@@@std@@QEAA@XZ ; std::_Vector_val<std::_Simple_types<VkFramebuffer_T *> >::_Vector_val<std::_Simple_types<VkFramebuffer_T *> >
PUBLIC	?_Get_first@?$_Compressed_pair@V?$allocator@PEAUVkFramebuffer_T@@@std@@V?$_Vector_val@U?$_Simple_types@PEAUVkFramebuffer_T@@@std@@@2@$00@std@@QEAAAEAV?$allocator@PEAUVkFramebuffer_T@@@2@XZ ; std::_Compressed_pair<std::allocator<VkFramebuffer_T *>,std::_Vector_val<std::_Simple_types<VkFramebuffer_T *> >,1>::_Get_first
PUBLIC	?_Get_first@?$_Compressed_pair@V?$allocator@PEAUVkFramebuffer_T@@@std@@V?$_Vector_val@U?$_Simple_types@PEAUVkFramebuffer_T@@@std@@@2@$00@std@@QEBAAEBV?$allocator@PEAUVkFramebuffer_T@@@2@XZ ; std::_Compressed_pair<std::allocator<VkFramebuffer_T *>,std::_Vector_val<std::_Simple_types<VkFramebuffer_T *> >,1>::_Get_first
PUBLIC	??0?$allocator@PEAUVkFence_T@@@std@@QEAA@XZ	; std::allocator<VkFence_T *>::allocator<VkFence_T *>
PUBLIC	?deallocate@?$allocator@PEAUVkFence_T@@@std@@QEAAXQEAPEAUVkFence_T@@_K@Z ; std::allocator<VkFence_T *>::deallocate
PUBLIC	?allocate@?$allocator@PEAUVkFence_T@@@std@@QEAAPEAPEAUVkFence_T@@_K@Z ; std::allocator<VkFence_T *>::allocate
PUBLIC	?max_size@?$_Default_allocator_traits@V?$allocator@PEAUVkFence_T@@@std@@@std@@SA_KAEBV?$allocator@PEAUVkFence_T@@@2@@Z ; std::_Default_allocator_traits<std::allocator<VkFence_T *> >::max_size
PUBLIC	??0?$vector@PEAUVkFence_T@@V?$allocator@PEAUVkFence_T@@@std@@@std@@QEAA@XZ ; std::vector<VkFence_T *,std::allocator<VkFence_T *> >::vector<VkFence_T *,std::allocator<VkFence_T *> >
PUBLIC	??0?$vector@PEAUVkFence_T@@V?$allocator@PEAUVkFence_T@@@std@@@std@@QEAA@_KAEBV?$allocator@PEAUVkFence_T@@@1@@Z ; std::vector<VkFence_T *,std::allocator<VkFence_T *> >::vector<VkFence_T *,std::allocator<VkFence_T *> >
PUBLIC	??1?$vector@PEAUVkFence_T@@V?$allocator@PEAUVkFence_T@@@std@@@std@@QEAA@XZ ; std::vector<VkFence_T *,std::allocator<VkFence_T *> >::~vector<VkFence_T *,std::allocator<VkFence_T *> >
PUBLIC	?push_back@?$vector@PEAUVkFence_T@@V?$allocator@PEAUVkFence_T@@@std@@@std@@QEAAXAEBQEAUVkFence_T@@@Z ; std::vector<VkFence_T *,std::allocator<VkFence_T *> >::push_back
PUBLIC	?size@?$vector@PEAUVkFence_T@@V?$allocator@PEAUVkFence_T@@@std@@@std@@QEBA_KXZ ; std::vector<VkFence_T *,std::allocator<VkFence_T *> >::size
PUBLIC	?max_size@?$vector@PEAUVkFence_T@@V?$allocator@PEAUVkFence_T@@@std@@@std@@QEBA_KXZ ; std::vector<VkFence_T *,std::allocator<VkFence_T *> >::max_size
PUBLIC	?capacity@?$vector@PEAUVkFence_T@@V?$allocator@PEAUVkFence_T@@@std@@@std@@QEBA_KXZ ; std::vector<VkFence_T *,std::allocator<VkFence_T *> >::capacity
PUBLIC	??A?$vector@PEAUVkFence_T@@V?$allocator@PEAUVkFence_T@@@std@@@std@@QEAAAEAPEAUVkFence_T@@_K@Z ; std::vector<VkFence_T *,std::allocator<VkFence_T *> >::operator[]
PUBLIC	?_Ufill@?$vector@PEAUVkFence_T@@V?$allocator@PEAUVkFence_T@@@std@@@std@@AEAAPEAPEAUVkFence_T@@PEAPEAU3@_KU_Value_init_tag@2@@Z ; std::vector<VkFence_T *,std::allocator<VkFence_T *> >::_Ufill
PUBLIC	?_Umove@?$vector@PEAUVkFence_T@@V?$allocator@PEAUVkFence_T@@@std@@@std@@AEAAPEAPEAUVkFence_T@@PEAPEAU3@00@Z ; std::vector<VkFence_T *,std::allocator<VkFence_T *> >::_Umove
PUBLIC	?_Umove_if_noexcept1@?$vector@PEAUVkFence_T@@V?$allocator@PEAUVkFence_T@@@std@@@std@@AEAAXPEAPEAUVkFence_T@@00U?$integral_constant@_N$00@2@@Z ; std::vector<VkFence_T *,std::allocator<VkFence_T *> >::_Umove_if_noexcept1
PUBLIC	?_Umove_if_noexcept@?$vector@PEAUVkFence_T@@V?$allocator@PEAUVkFence_T@@@std@@@std@@AEAAXPEAPEAUVkFence_T@@00@Z ; std::vector<VkFence_T *,std::allocator<VkFence_T *> >::_Umove_if_noexcept
PUBLIC	?_Destroy@?$vector@PEAUVkFence_T@@V?$allocator@PEAUVkFence_T@@@std@@@std@@AEAAXPEAPEAUVkFence_T@@0@Z ; std::vector<VkFence_T *,std::allocator<VkFence_T *> >::_Destroy
PUBLIC	?_Calculate_growth@?$vector@PEAUVkFence_T@@V?$allocator@PEAUVkFence_T@@@std@@@std@@AEBA_K_K@Z ; std::vector<VkFence_T *,std::allocator<VkFence_T *> >::_Calculate_growth
PUBLIC	?_Buy_raw@?$vector@PEAUVkFence_T@@V?$allocator@PEAUVkFence_T@@@std@@@std@@AEAAX_K@Z ; std::vector<VkFence_T *,std::allocator<VkFence_T *> >::_Buy_raw
PUBLIC	?_Buy_nonzero@?$vector@PEAUVkFence_T@@V?$allocator@PEAUVkFence_T@@@std@@@std@@AEAAX_K@Z ; std::vector<VkFence_T *,std::allocator<VkFence_T *> >::_Buy_nonzero
PUBLIC	?_Change_array@?$vector@PEAUVkFence_T@@V?$allocator@PEAUVkFence_T@@@std@@@std@@AEAAXQEAPEAUVkFence_T@@_K1@Z ; std::vector<VkFence_T *,std::allocator<VkFence_T *> >::_Change_array
PUBLIC	?_Tidy@?$vector@PEAUVkFence_T@@V?$allocator@PEAUVkFence_T@@@std@@@std@@AEAAXXZ ; std::vector<VkFence_T *,std::allocator<VkFence_T *> >::_Tidy
PUBLIC	?_Xlength@?$vector@PEAUVkFence_T@@V?$allocator@PEAUVkFence_T@@@std@@@std@@CAXXZ ; std::vector<VkFence_T *,std::allocator<VkFence_T *> >::_Xlength
PUBLIC	?_Orphan_range@?$vector@PEAUVkFence_T@@V?$allocator@PEAUVkFence_T@@@std@@@std@@AEBAXPEAPEAUVkFence_T@@0@Z ; std::vector<VkFence_T *,std::allocator<VkFence_T *> >::_Orphan_range
PUBLIC	?_Getal@?$vector@PEAUVkFence_T@@V?$allocator@PEAUVkFence_T@@@std@@@std@@AEAAAEAV?$allocator@PEAUVkFence_T@@@2@XZ ; std::vector<VkFence_T *,std::allocator<VkFence_T *> >::_Getal
PUBLIC	?_Getal@?$vector@PEAUVkFence_T@@V?$allocator@PEAUVkFence_T@@@std@@@std@@AEBAAEBV?$allocator@PEAUVkFence_T@@@2@XZ ; std::vector<VkFence_T *,std::allocator<VkFence_T *> >::_Getal
PUBLIC	??0?$_Vector_val@U?$_Simple_types@PEAUVkFence_T@@@std@@@std@@QEAA@XZ ; std::_Vector_val<std::_Simple_types<VkFence_T *> >::_Vector_val<std::_Simple_types<VkFence_T *> >
PUBLIC	?_Get_first@?$_Compressed_pair@V?$allocator@PEAUVkFence_T@@@std@@V?$_Vector_val@U?$_Simple_types@PEAUVkFence_T@@@std@@@2@$00@std@@QEAAAEAV?$allocator@PEAUVkFence_T@@@2@XZ ; std::_Compressed_pair<std::allocator<VkFence_T *>,std::_Vector_val<std::_Simple_types<VkFence_T *> >,1>::_Get_first
PUBLIC	?_Get_first@?$_Compressed_pair@V?$allocator@PEAUVkFence_T@@@std@@V?$_Vector_val@U?$_Simple_types@PEAUVkFence_T@@@std@@@2@$00@std@@QEBAAEBV?$allocator@PEAUVkFence_T@@@2@XZ ; std::_Compressed_pair<std::allocator<VkFence_T *>,std::_Vector_val<std::_Simple_types<VkFence_T *> >,1>::_Get_first
PUBLIC	??0?$allocator@PEAUVkSemaphore_T@@@std@@QEAA@XZ	; std::allocator<VkSemaphore_T *>::allocator<VkSemaphore_T *>
PUBLIC	?deallocate@?$allocator@PEAUVkSemaphore_T@@@std@@QEAAXQEAPEAUVkSemaphore_T@@_K@Z ; std::allocator<VkSemaphore_T *>::deallocate
PUBLIC	?allocate@?$allocator@PEAUVkSemaphore_T@@@std@@QEAAPEAPEAUVkSemaphore_T@@_K@Z ; std::allocator<VkSemaphore_T *>::allocate
PUBLIC	?max_size@?$_Default_allocator_traits@V?$allocator@PEAUVkSemaphore_T@@@std@@@std@@SA_KAEBV?$allocator@PEAUVkSemaphore_T@@@2@@Z ; std::_Default_allocator_traits<std::allocator<VkSemaphore_T *> >::max_size
PUBLIC	??0?$vector@PEAUVkSemaphore_T@@V?$allocator@PEAUVkSemaphore_T@@@std@@@std@@QEAA@XZ ; std::vector<VkSemaphore_T *,std::allocator<VkSemaphore_T *> >::vector<VkSemaphore_T *,std::allocator<VkSemaphore_T *> >
PUBLIC	??0?$vector@PEAUVkSemaphore_T@@V?$allocator@PEAUVkSemaphore_T@@@std@@@std@@QEAA@_KAEBV?$allocator@PEAUVkSemaphore_T@@@1@@Z ; std::vector<VkSemaphore_T *,std::allocator<VkSemaphore_T *> >::vector<VkSemaphore_T *,std::allocator<VkSemaphore_T *> >
PUBLIC	??1?$vector@PEAUVkSemaphore_T@@V?$allocator@PEAUVkSemaphore_T@@@std@@@std@@QEAA@XZ ; std::vector<VkSemaphore_T *,std::allocator<VkSemaphore_T *> >::~vector<VkSemaphore_T *,std::allocator<VkSemaphore_T *> >
PUBLIC	?push_back@?$vector@PEAUVkSemaphore_T@@V?$allocator@PEAUVkSemaphore_T@@@std@@@std@@QEAAXAEBQEAUVkSemaphore_T@@@Z ; std::vector<VkSemaphore_T *,std::allocator<VkSemaphore_T *> >::push_back
PUBLIC	?size@?$vector@PEAUVkSemaphore_T@@V?$allocator@PEAUVkSemaphore_T@@@std@@@std@@QEBA_KXZ ; std::vector<VkSemaphore_T *,std::allocator<VkSemaphore_T *> >::size
PUBLIC	?max_size@?$vector@PEAUVkSemaphore_T@@V?$allocator@PEAUVkSemaphore_T@@@std@@@std@@QEBA_KXZ ; std::vector<VkSemaphore_T *,std::allocator<VkSemaphore_T *> >::max_size
PUBLIC	?capacity@?$vector@PEAUVkSemaphore_T@@V?$allocator@PEAUVkSemaphore_T@@@std@@@std@@QEBA_KXZ ; std::vector<VkSemaphore_T *,std::allocator<VkSemaphore_T *> >::capacity
PUBLIC	??A?$vector@PEAUVkSemaphore_T@@V?$allocator@PEAUVkSemaphore_T@@@std@@@std@@QEAAAEAPEAUVkSemaphore_T@@_K@Z ; std::vector<VkSemaphore_T *,std::allocator<VkSemaphore_T *> >::operator[]
PUBLIC	?_Ufill@?$vector@PEAUVkSemaphore_T@@V?$allocator@PEAUVkSemaphore_T@@@std@@@std@@AEAAPEAPEAUVkSemaphore_T@@PEAPEAU3@_KU_Value_init_tag@2@@Z ; std::vector<VkSemaphore_T *,std::allocator<VkSemaphore_T *> >::_Ufill
PUBLIC	?_Umove@?$vector@PEAUVkSemaphore_T@@V?$allocator@PEAUVkSemaphore_T@@@std@@@std@@AEAAPEAPEAUVkSemaphore_T@@PEAPEAU3@00@Z ; std::vector<VkSemaphore_T *,std::allocator<VkSemaphore_T *> >::_Umove
PUBLIC	?_Umove_if_noexcept1@?$vector@PEAUVkSemaphore_T@@V?$allocator@PEAUVkSemaphore_T@@@std@@@std@@AEAAXPEAPEAUVkSemaphore_T@@00U?$integral_constant@_N$00@2@@Z ; std::vector<VkSemaphore_T *,std::allocator<VkSemaphore_T *> >::_Umove_if_noexcept1
PUBLIC	?_Umove_if_noexcept@?$vector@PEAUVkSemaphore_T@@V?$allocator@PEAUVkSemaphore_T@@@std@@@std@@AEAAXPEAPEAUVkSemaphore_T@@00@Z ; std::vector<VkSemaphore_T *,std::allocator<VkSemaphore_T *> >::_Umove_if_noexcept
PUBLIC	?_Destroy@?$vector@PEAUVkSemaphore_T@@V?$allocator@PEAUVkSemaphore_T@@@std@@@std@@AEAAXPEAPEAUVkSemaphore_T@@0@Z ; std::vector<VkSemaphore_T *,std::allocator<VkSemaphore_T *> >::_Destroy
PUBLIC	?_Calculate_growth@?$vector@PEAUVkSemaphore_T@@V?$allocator@PEAUVkSemaphore_T@@@std@@@std@@AEBA_K_K@Z ; std::vector<VkSemaphore_T *,std::allocator<VkSemaphore_T *> >::_Calculate_growth
PUBLIC	?_Buy_raw@?$vector@PEAUVkSemaphore_T@@V?$allocator@PEAUVkSemaphore_T@@@std@@@std@@AEAAX_K@Z ; std::vector<VkSemaphore_T *,std::allocator<VkSemaphore_T *> >::_Buy_raw
PUBLIC	?_Buy_nonzero@?$vector@PEAUVkSemaphore_T@@V?$allocator@PEAUVkSemaphore_T@@@std@@@std@@AEAAX_K@Z ; std::vector<VkSemaphore_T *,std::allocator<VkSemaphore_T *> >::_Buy_nonzero
PUBLIC	?_Change_array@?$vector@PEAUVkSemaphore_T@@V?$allocator@PEAUVkSemaphore_T@@@std@@@std@@AEAAXQEAPEAUVkSemaphore_T@@_K1@Z ; std::vector<VkSemaphore_T *,std::allocator<VkSemaphore_T *> >::_Change_array
PUBLIC	?_Tidy@?$vector@PEAUVkSemaphore_T@@V?$allocator@PEAUVkSemaphore_T@@@std@@@std@@AEAAXXZ ; std::vector<VkSemaphore_T *,std::allocator<VkSemaphore_T *> >::_Tidy
PUBLIC	?_Xlength@?$vector@PEAUVkSemaphore_T@@V?$allocator@PEAUVkSemaphore_T@@@std@@@std@@CAXXZ ; std::vector<VkSemaphore_T *,std::allocator<VkSemaphore_T *> >::_Xlength
PUBLIC	?_Orphan_range@?$vector@PEAUVkSemaphore_T@@V?$allocator@PEAUVkSemaphore_T@@@std@@@std@@AEBAXPEAPEAUVkSemaphore_T@@0@Z ; std::vector<VkSemaphore_T *,std::allocator<VkSemaphore_T *> >::_Orphan_range
PUBLIC	?_Getal@?$vector@PEAUVkSemaphore_T@@V?$allocator@PEAUVkSemaphore_T@@@std@@@std@@AEAAAEAV?$allocator@PEAUVkSemaphore_T@@@2@XZ ; std::vector<VkSemaphore_T *,std::allocator<VkSemaphore_T *> >::_Getal
PUBLIC	?_Getal@?$vector@PEAUVkSemaphore_T@@V?$allocator@PEAUVkSemaphore_T@@@std@@@std@@AEBAAEBV?$allocator@PEAUVkSemaphore_T@@@2@XZ ; std::vector<VkSemaphore_T *,std::allocator<VkSemaphore_T *> >::_Getal
PUBLIC	??0?$_Vector_val@U?$_Simple_types@PEAUVkSemaphore_T@@@std@@@std@@QEAA@XZ ; std::_Vector_val<std::_Simple_types<VkSemaphore_T *> >::_Vector_val<std::_Simple_types<VkSemaphore_T *> >
PUBLIC	?_Get_first@?$_Compressed_pair@V?$allocator@PEAUVkSemaphore_T@@@std@@V?$_Vector_val@U?$_Simple_types@PEAUVkSemaphore_T@@@std@@@2@$00@std@@QEAAAEAV?$allocator@PEAUVkSemaphore_T@@@2@XZ ; std::_Compressed_pair<std::allocator<VkSemaphore_T *>,std::_Vector_val<std::_Simple_types<VkSemaphore_T *> >,1>::_Get_first
PUBLIC	?_Get_first@?$_Compressed_pair@V?$allocator@PEAUVkSemaphore_T@@@std@@V?$_Vector_val@U?$_Simple_types@PEAUVkSemaphore_T@@@std@@@2@$00@std@@QEBAAEBV?$allocator@PEAUVkSemaphore_T@@@2@XZ ; std::_Compressed_pair<std::allocator<VkSemaphore_T *>,std::_Vector_val<std::_Simple_types<VkSemaphore_T *> >,1>::_Get_first
PUBLIC	??0?$allocator@PEAUVkBuffer_T@@@std@@QEAA@XZ	; std::allocator<VkBuffer_T *>::allocator<VkBuffer_T *>
PUBLIC	?deallocate@?$allocator@PEAUVkBuffer_T@@@std@@QEAAXQEAPEAUVkBuffer_T@@_K@Z ; std::allocator<VkBuffer_T *>::deallocate
PUBLIC	?allocate@?$allocator@PEAUVkBuffer_T@@@std@@QEAAPEAPEAUVkBuffer_T@@_K@Z ; std::allocator<VkBuffer_T *>::allocate
PUBLIC	?max_size@?$_Default_allocator_traits@V?$allocator@PEAUVkBuffer_T@@@std@@@std@@SA_KAEBV?$allocator@PEAUVkBuffer_T@@@2@@Z ; std::_Default_allocator_traits<std::allocator<VkBuffer_T *> >::max_size
PUBLIC	??0?$vector@PEAUVkBuffer_T@@V?$allocator@PEAUVkBuffer_T@@@std@@@std@@QEAA@XZ ; std::vector<VkBuffer_T *,std::allocator<VkBuffer_T *> >::vector<VkBuffer_T *,std::allocator<VkBuffer_T *> >
PUBLIC	??1?$vector@PEAUVkBuffer_T@@V?$allocator@PEAUVkBuffer_T@@@std@@@std@@QEAA@XZ ; std::vector<VkBuffer_T *,std::allocator<VkBuffer_T *> >::~vector<VkBuffer_T *,std::allocator<VkBuffer_T *> >
PUBLIC	?push_back@?$vector@PEAUVkBuffer_T@@V?$allocator@PEAUVkBuffer_T@@@std@@@std@@QEAAXAEBQEAUVkBuffer_T@@@Z ; std::vector<VkBuffer_T *,std::allocator<VkBuffer_T *> >::push_back
PUBLIC	?size@?$vector@PEAUVkBuffer_T@@V?$allocator@PEAUVkBuffer_T@@@std@@@std@@QEBA_KXZ ; std::vector<VkBuffer_T *,std::allocator<VkBuffer_T *> >::size
PUBLIC	?max_size@?$vector@PEAUVkBuffer_T@@V?$allocator@PEAUVkBuffer_T@@@std@@@std@@QEBA_KXZ ; std::vector<VkBuffer_T *,std::allocator<VkBuffer_T *> >::max_size
PUBLIC	?capacity@?$vector@PEAUVkBuffer_T@@V?$allocator@PEAUVkBuffer_T@@@std@@@std@@QEBA_KXZ ; std::vector<VkBuffer_T *,std::allocator<VkBuffer_T *> >::capacity
PUBLIC	??A?$vector@PEAUVkBuffer_T@@V?$allocator@PEAUVkBuffer_T@@@std@@@std@@QEAAAEAPEAUVkBuffer_T@@_K@Z ; std::vector<VkBuffer_T *,std::allocator<VkBuffer_T *> >::operator[]
PUBLIC	?_Umove@?$vector@PEAUVkBuffer_T@@V?$allocator@PEAUVkBuffer_T@@@std@@@std@@AEAAPEAPEAUVkBuffer_T@@PEAPEAU3@00@Z ; std::vector<VkBuffer_T *,std::allocator<VkBuffer_T *> >::_Umove
PUBLIC	?_Umove_if_noexcept1@?$vector@PEAUVkBuffer_T@@V?$allocator@PEAUVkBuffer_T@@@std@@@std@@AEAAXPEAPEAUVkBuffer_T@@00U?$integral_constant@_N$00@2@@Z ; std::vector<VkBuffer_T *,std::allocator<VkBuffer_T *> >::_Umove_if_noexcept1
PUBLIC	?_Umove_if_noexcept@?$vector@PEAUVkBuffer_T@@V?$allocator@PEAUVkBuffer_T@@@std@@@std@@AEAAXPEAPEAUVkBuffer_T@@00@Z ; std::vector<VkBuffer_T *,std::allocator<VkBuffer_T *> >::_Umove_if_noexcept
PUBLIC	?_Destroy@?$vector@PEAUVkBuffer_T@@V?$allocator@PEAUVkBuffer_T@@@std@@@std@@AEAAXPEAPEAUVkBuffer_T@@0@Z ; std::vector<VkBuffer_T *,std::allocator<VkBuffer_T *> >::_Destroy
PUBLIC	?_Calculate_growth@?$vector@PEAUVkBuffer_T@@V?$allocator@PEAUVkBuffer_T@@@std@@@std@@AEBA_K_K@Z ; std::vector<VkBuffer_T *,std::allocator<VkBuffer_T *> >::_Calculate_growth
PUBLIC	?_Change_array@?$vector@PEAUVkBuffer_T@@V?$allocator@PEAUVkBuffer_T@@@std@@@std@@AEAAXQEAPEAUVkBuffer_T@@_K1@Z ; std::vector<VkBuffer_T *,std::allocator<VkBuffer_T *> >::_Change_array
PUBLIC	?_Tidy@?$vector@PEAUVkBuffer_T@@V?$allocator@PEAUVkBuffer_T@@@std@@@std@@AEAAXXZ ; std::vector<VkBuffer_T *,std::allocator<VkBuffer_T *> >::_Tidy
PUBLIC	?_Xlength@?$vector@PEAUVkBuffer_T@@V?$allocator@PEAUVkBuffer_T@@@std@@@std@@CAXXZ ; std::vector<VkBuffer_T *,std::allocator<VkBuffer_T *> >::_Xlength
PUBLIC	?_Orphan_range@?$vector@PEAUVkBuffer_T@@V?$allocator@PEAUVkBuffer_T@@@std@@@std@@AEBAXPEAPEAUVkBuffer_T@@0@Z ; std::vector<VkBuffer_T *,std::allocator<VkBuffer_T *> >::_Orphan_range
PUBLIC	?_Getal@?$vector@PEAUVkBuffer_T@@V?$allocator@PEAUVkBuffer_T@@@std@@@std@@AEAAAEAV?$allocator@PEAUVkBuffer_T@@@2@XZ ; std::vector<VkBuffer_T *,std::allocator<VkBuffer_T *> >::_Getal
PUBLIC	?_Getal@?$vector@PEAUVkBuffer_T@@V?$allocator@PEAUVkBuffer_T@@@std@@@std@@AEBAAEBV?$allocator@PEAUVkBuffer_T@@@2@XZ ; std::vector<VkBuffer_T *,std::allocator<VkBuffer_T *> >::_Getal
PUBLIC	??0?$_Vector_val@U?$_Simple_types@PEAUVkBuffer_T@@@std@@@std@@QEAA@XZ ; std::_Vector_val<std::_Simple_types<VkBuffer_T *> >::_Vector_val<std::_Simple_types<VkBuffer_T *> >
PUBLIC	?_Get_first@?$_Compressed_pair@V?$allocator@PEAUVkBuffer_T@@@std@@V?$_Vector_val@U?$_Simple_types@PEAUVkBuffer_T@@@std@@@2@$00@std@@QEAAAEAV?$allocator@PEAUVkBuffer_T@@@2@XZ ; std::_Compressed_pair<std::allocator<VkBuffer_T *>,std::_Vector_val<std::_Simple_types<VkBuffer_T *> >,1>::_Get_first
PUBLIC	?_Get_first@?$_Compressed_pair@V?$allocator@PEAUVkBuffer_T@@@std@@V?$_Vector_val@U?$_Simple_types@PEAUVkBuffer_T@@@std@@@2@$00@std@@QEBAAEBV?$allocator@PEAUVkBuffer_T@@@2@XZ ; std::_Compressed_pair<std::allocator<VkBuffer_T *>,std::_Vector_val<std::_Simple_types<VkBuffer_T *> >,1>::_Get_first
PUBLIC	??0?$allocator@PEAUVkDescriptorSetLayout_T@@@std@@QEAA@XZ ; std::allocator<VkDescriptorSetLayout_T *>::allocator<VkDescriptorSetLayout_T *>
PUBLIC	?deallocate@?$allocator@PEAUVkDescriptorSetLayout_T@@@std@@QEAAXQEAPEAUVkDescriptorSetLayout_T@@_K@Z ; std::allocator<VkDescriptorSetLayout_T *>::deallocate
PUBLIC	?allocate@?$allocator@PEAUVkDescriptorSetLayout_T@@@std@@QEAAPEAPEAUVkDescriptorSetLayout_T@@_K@Z ; std::allocator<VkDescriptorSetLayout_T *>::allocate
PUBLIC	?max_size@?$_Default_allocator_traits@V?$allocator@PEAUVkDescriptorSetLayout_T@@@std@@@std@@SA_KAEBV?$allocator@PEAUVkDescriptorSetLayout_T@@@2@@Z ; std::_Default_allocator_traits<std::allocator<VkDescriptorSetLayout_T *> >::max_size
PUBLIC	??0?$vector@PEAUVkDescriptorSetLayout_T@@V?$allocator@PEAUVkDescriptorSetLayout_T@@@std@@@std@@QEAA@XZ ; std::vector<VkDescriptorSetLayout_T *,std::allocator<VkDescriptorSetLayout_T *> >::vector<VkDescriptorSetLayout_T *,std::allocator<VkDescriptorSetLayout_T *> >
PUBLIC	??1?$vector@PEAUVkDescriptorSetLayout_T@@V?$allocator@PEAUVkDescriptorSetLayout_T@@@std@@@std@@QEAA@XZ ; std::vector<VkDescriptorSetLayout_T *,std::allocator<VkDescriptorSetLayout_T *> >::~vector<VkDescriptorSetLayout_T *,std::allocator<VkDescriptorSetLayout_T *> >
PUBLIC	?push_back@?$vector@PEAUVkDescriptorSetLayout_T@@V?$allocator@PEAUVkDescriptorSetLayout_T@@@std@@@std@@QEAAXAEBQEAUVkDescriptorSetLayout_T@@@Z ; std::vector<VkDescriptorSetLayout_T *,std::allocator<VkDescriptorSetLayout_T *> >::push_back
PUBLIC	?size@?$vector@PEAUVkDescriptorSetLayout_T@@V?$allocator@PEAUVkDescriptorSetLayout_T@@@std@@@std@@QEBA_KXZ ; std::vector<VkDescriptorSetLayout_T *,std::allocator<VkDescriptorSetLayout_T *> >::size
PUBLIC	?max_size@?$vector@PEAUVkDescriptorSetLayout_T@@V?$allocator@PEAUVkDescriptorSetLayout_T@@@std@@@std@@QEBA_KXZ ; std::vector<VkDescriptorSetLayout_T *,std::allocator<VkDescriptorSetLayout_T *> >::max_size
PUBLIC	?capacity@?$vector@PEAUVkDescriptorSetLayout_T@@V?$allocator@PEAUVkDescriptorSetLayout_T@@@std@@@std@@QEBA_KXZ ; std::vector<VkDescriptorSetLayout_T *,std::allocator<VkDescriptorSetLayout_T *> >::capacity
PUBLIC	??A?$vector@PEAUVkDescriptorSetLayout_T@@V?$allocator@PEAUVkDescriptorSetLayout_T@@@std@@@std@@QEAAAEAPEAUVkDescriptorSetLayout_T@@_K@Z ; std::vector<VkDescriptorSetLayout_T *,std::allocator<VkDescriptorSetLayout_T *> >::operator[]
PUBLIC	?_Umove@?$vector@PEAUVkDescriptorSetLayout_T@@V?$allocator@PEAUVkDescriptorSetLayout_T@@@std@@@std@@AEAAPEAPEAUVkDescriptorSetLayout_T@@PEAPEAU3@00@Z ; std::vector<VkDescriptorSetLayout_T *,std::allocator<VkDescriptorSetLayout_T *> >::_Umove
PUBLIC	?_Umove_if_noexcept1@?$vector@PEAUVkDescriptorSetLayout_T@@V?$allocator@PEAUVkDescriptorSetLayout_T@@@std@@@std@@AEAAXPEAPEAUVkDescriptorSetLayout_T@@00U?$integral_constant@_N$00@2@@Z ; std::vector<VkDescriptorSetLayout_T *,std::allocator<VkDescriptorSetLayout_T *> >::_Umove_if_noexcept1
PUBLIC	?_Umove_if_noexcept@?$vector@PEAUVkDescriptorSetLayout_T@@V?$allocator@PEAUVkDescriptorSetLayout_T@@@std@@@std@@AEAAXPEAPEAUVkDescriptorSetLayout_T@@00@Z ; std::vector<VkDescriptorSetLayout_T *,std::allocator<VkDescriptorSetLayout_T *> >::_Umove_if_noexcept
PUBLIC	?_Destroy@?$vector@PEAUVkDescriptorSetLayout_T@@V?$allocator@PEAUVkDescriptorSetLayout_T@@@std@@@std@@AEAAXPEAPEAUVkDescriptorSetLayout_T@@0@Z ; std::vector<VkDescriptorSetLayout_T *,std::allocator<VkDescriptorSetLayout_T *> >::_Destroy
PUBLIC	?_Calculate_growth@?$vector@PEAUVkDescriptorSetLayout_T@@V?$allocator@PEAUVkDescriptorSetLayout_T@@@std@@@std@@AEBA_K_K@Z ; std::vector<VkDescriptorSetLayout_T *,std::allocator<VkDescriptorSetLayout_T *> >::_Calculate_growth
PUBLIC	?_Change_array@?$vector@PEAUVkDescriptorSetLayout_T@@V?$allocator@PEAUVkDescriptorSetLayout_T@@@std@@@std@@AEAAXQEAPEAUVkDescriptorSetLayout_T@@_K1@Z ; std::vector<VkDescriptorSetLayout_T *,std::allocator<VkDescriptorSetLayout_T *> >::_Change_array
PUBLIC	?_Tidy@?$vector@PEAUVkDescriptorSetLayout_T@@V?$allocator@PEAUVkDescriptorSetLayout_T@@@std@@@std@@AEAAXXZ ; std::vector<VkDescriptorSetLayout_T *,std::allocator<VkDescriptorSetLayout_T *> >::_Tidy
PUBLIC	?_Xlength@?$vector@PEAUVkDescriptorSetLayout_T@@V?$allocator@PEAUVkDescriptorSetLayout_T@@@std@@@std@@CAXXZ ; std::vector<VkDescriptorSetLayout_T *,std::allocator<VkDescriptorSetLayout_T *> >::_Xlength
PUBLIC	?_Orphan_range@?$vector@PEAUVkDescriptorSetLayout_T@@V?$allocator@PEAUVkDescriptorSetLayout_T@@@std@@@std@@AEBAXPEAPEAUVkDescriptorSetLayout_T@@0@Z ; std::vector<VkDescriptorSetLayout_T *,std::allocator<VkDescriptorSetLayout_T *> >::_Orphan_range
PUBLIC	?_Getal@?$vector@PEAUVkDescriptorSetLayout_T@@V?$allocator@PEAUVkDescriptorSetLayout_T@@@std@@@std@@AEAAAEAV?$allocator@PEAUVkDescriptorSetLayout_T@@@2@XZ ; std::vector<VkDescriptorSetLayout_T *,std::allocator<VkDescriptorSetLayout_T *> >::_Getal
PUBLIC	?_Getal@?$vector@PEAUVkDescriptorSetLayout_T@@V?$allocator@PEAUVkDescriptorSetLayout_T@@@std@@@std@@AEBAAEBV?$allocator@PEAUVkDescriptorSetLayout_T@@@2@XZ ; std::vector<VkDescriptorSetLayout_T *,std::allocator<VkDescriptorSetLayout_T *> >::_Getal
PUBLIC	??0?$_Vector_val@U?$_Simple_types@PEAUVkDescriptorSetLayout_T@@@std@@@std@@QEAA@XZ ; std::_Vector_val<std::_Simple_types<VkDescriptorSetLayout_T *> >::_Vector_val<std::_Simple_types<VkDescriptorSetLayout_T *> >
PUBLIC	?_Get_first@?$_Compressed_pair@V?$allocator@PEAUVkDescriptorSetLayout_T@@@std@@V?$_Vector_val@U?$_Simple_types@PEAUVkDescriptorSetLayout_T@@@std@@@2@$00@std@@QEAAAEAV?$allocator@PEAUVkDescriptorSetLayout_T@@@2@XZ ; std::_Compressed_pair<std::allocator<VkDescriptorSetLayout_T *>,std::_Vector_val<std::_Simple_types<VkDescriptorSetLayout_T *> >,1>::_Get_first
PUBLIC	?_Get_first@?$_Compressed_pair@V?$allocator@PEAUVkDescriptorSetLayout_T@@@std@@V?$_Vector_val@U?$_Simple_types@PEAUVkDescriptorSetLayout_T@@@std@@@2@$00@std@@QEBAAEBV?$allocator@PEAUVkDescriptorSetLayout_T@@@2@XZ ; std::_Compressed_pair<std::allocator<VkDescriptorSetLayout_T *>,std::_Vector_val<std::_Simple_types<VkDescriptorSetLayout_T *> >,1>::_Get_first
PUBLIC	??0?$allocator@PEAUVkPipelineLayout_T@@@std@@QEAA@XZ ; std::allocator<VkPipelineLayout_T *>::allocator<VkPipelineLayout_T *>
PUBLIC	?deallocate@?$allocator@PEAUVkPipelineLayout_T@@@std@@QEAAXQEAPEAUVkPipelineLayout_T@@_K@Z ; std::allocator<VkPipelineLayout_T *>::deallocate
PUBLIC	?allocate@?$allocator@PEAUVkPipelineLayout_T@@@std@@QEAAPEAPEAUVkPipelineLayout_T@@_K@Z ; std::allocator<VkPipelineLayout_T *>::allocate
PUBLIC	?max_size@?$_Default_allocator_traits@V?$allocator@PEAUVkPipelineLayout_T@@@std@@@std@@SA_KAEBV?$allocator@PEAUVkPipelineLayout_T@@@2@@Z ; std::_Default_allocator_traits<std::allocator<VkPipelineLayout_T *> >::max_size
PUBLIC	??0?$vector@PEAUVkPipelineLayout_T@@V?$allocator@PEAUVkPipelineLayout_T@@@std@@@std@@QEAA@XZ ; std::vector<VkPipelineLayout_T *,std::allocator<VkPipelineLayout_T *> >::vector<VkPipelineLayout_T *,std::allocator<VkPipelineLayout_T *> >
PUBLIC	??1?$vector@PEAUVkPipelineLayout_T@@V?$allocator@PEAUVkPipelineLayout_T@@@std@@@std@@QEAA@XZ ; std::vector<VkPipelineLayout_T *,std::allocator<VkPipelineLayout_T *> >::~vector<VkPipelineLayout_T *,std::allocator<VkPipelineLayout_T *> >
PUBLIC	?push_back@?$vector@PEAUVkPipelineLayout_T@@V?$allocator@PEAUVkPipelineLayout_T@@@std@@@std@@QEAAXAEBQEAUVkPipelineLayout_T@@@Z ; std::vector<VkPipelineLayout_T *,std::allocator<VkPipelineLayout_T *> >::push_back
PUBLIC	?size@?$vector@PEAUVkPipelineLayout_T@@V?$allocator@PEAUVkPipelineLayout_T@@@std@@@std@@QEBA_KXZ ; std::vector<VkPipelineLayout_T *,std::allocator<VkPipelineLayout_T *> >::size
PUBLIC	?max_size@?$vector@PEAUVkPipelineLayout_T@@V?$allocator@PEAUVkPipelineLayout_T@@@std@@@std@@QEBA_KXZ ; std::vector<VkPipelineLayout_T *,std::allocator<VkPipelineLayout_T *> >::max_size
PUBLIC	?capacity@?$vector@PEAUVkPipelineLayout_T@@V?$allocator@PEAUVkPipelineLayout_T@@@std@@@std@@QEBA_KXZ ; std::vector<VkPipelineLayout_T *,std::allocator<VkPipelineLayout_T *> >::capacity
PUBLIC	??A?$vector@PEAUVkPipelineLayout_T@@V?$allocator@PEAUVkPipelineLayout_T@@@std@@@std@@QEAAAEAPEAUVkPipelineLayout_T@@_K@Z ; std::vector<VkPipelineLayout_T *,std::allocator<VkPipelineLayout_T *> >::operator[]
PUBLIC	?_Umove@?$vector@PEAUVkPipelineLayout_T@@V?$allocator@PEAUVkPipelineLayout_T@@@std@@@std@@AEAAPEAPEAUVkPipelineLayout_T@@PEAPEAU3@00@Z ; std::vector<VkPipelineLayout_T *,std::allocator<VkPipelineLayout_T *> >::_Umove
PUBLIC	?_Umove_if_noexcept1@?$vector@PEAUVkPipelineLayout_T@@V?$allocator@PEAUVkPipelineLayout_T@@@std@@@std@@AEAAXPEAPEAUVkPipelineLayout_T@@00U?$integral_constant@_N$00@2@@Z ; std::vector<VkPipelineLayout_T *,std::allocator<VkPipelineLayout_T *> >::_Umove_if_noexcept1
PUBLIC	?_Umove_if_noexcept@?$vector@PEAUVkPipelineLayout_T@@V?$allocator@PEAUVkPipelineLayout_T@@@std@@@std@@AEAAXPEAPEAUVkPipelineLayout_T@@00@Z ; std::vector<VkPipelineLayout_T *,std::allocator<VkPipelineLayout_T *> >::_Umove_if_noexcept
PUBLIC	?_Destroy@?$vector@PEAUVkPipelineLayout_T@@V?$allocator@PEAUVkPipelineLayout_T@@@std@@@std@@AEAAXPEAPEAUVkPipelineLayout_T@@0@Z ; std::vector<VkPipelineLayout_T *,std::allocator<VkPipelineLayout_T *> >::_Destroy
PUBLIC	?_Calculate_growth@?$vector@PEAUVkPipelineLayout_T@@V?$allocator@PEAUVkPipelineLayout_T@@@std@@@std@@AEBA_K_K@Z ; std::vector<VkPipelineLayout_T *,std::allocator<VkPipelineLayout_T *> >::_Calculate_growth
PUBLIC	?_Change_array@?$vector@PEAUVkPipelineLayout_T@@V?$allocator@PEAUVkPipelineLayout_T@@@std@@@std@@AEAAXQEAPEAUVkPipelineLayout_T@@_K1@Z ; std::vector<VkPipelineLayout_T *,std::allocator<VkPipelineLayout_T *> >::_Change_array
PUBLIC	?_Tidy@?$vector@PEAUVkPipelineLayout_T@@V?$allocator@PEAUVkPipelineLayout_T@@@std@@@std@@AEAAXXZ ; std::vector<VkPipelineLayout_T *,std::allocator<VkPipelineLayout_T *> >::_Tidy
PUBLIC	?_Xlength@?$vector@PEAUVkPipelineLayout_T@@V?$allocator@PEAUVkPipelineLayout_T@@@std@@@std@@CAXXZ ; std::vector<VkPipelineLayout_T *,std::allocator<VkPipelineLayout_T *> >::_Xlength
PUBLIC	?_Orphan_range@?$vector@PEAUVkPipelineLayout_T@@V?$allocator@PEAUVkPipelineLayout_T@@@std@@@std@@AEBAXPEAPEAUVkPipelineLayout_T@@0@Z ; std::vector<VkPipelineLayout_T *,std::allocator<VkPipelineLayout_T *> >::_Orphan_range
PUBLIC	?_Getal@?$vector@PEAUVkPipelineLayout_T@@V?$allocator@PEAUVkPipelineLayout_T@@@std@@@std@@AEAAAEAV?$allocator@PEAUVkPipelineLayout_T@@@2@XZ ; std::vector<VkPipelineLayout_T *,std::allocator<VkPipelineLayout_T *> >::_Getal
PUBLIC	?_Getal@?$vector@PEAUVkPipelineLayout_T@@V?$allocator@PEAUVkPipelineLayout_T@@@std@@@std@@AEBAAEBV?$allocator@PEAUVkPipelineLayout_T@@@2@XZ ; std::vector<VkPipelineLayout_T *,std::allocator<VkPipelineLayout_T *> >::_Getal
PUBLIC	??0?$_Vector_val@U?$_Simple_types@PEAUVkPipelineLayout_T@@@std@@@std@@QEAA@XZ ; std::_Vector_val<std::_Simple_types<VkPipelineLayout_T *> >::_Vector_val<std::_Simple_types<VkPipelineLayout_T *> >
PUBLIC	?_Get_first@?$_Compressed_pair@V?$allocator@PEAUVkPipelineLayout_T@@@std@@V?$_Vector_val@U?$_Simple_types@PEAUVkPipelineLayout_T@@@std@@@2@$00@std@@QEAAAEAV?$allocator@PEAUVkPipelineLayout_T@@@2@XZ ; std::_Compressed_pair<std::allocator<VkPipelineLayout_T *>,std::_Vector_val<std::_Simple_types<VkPipelineLayout_T *> >,1>::_Get_first
PUBLIC	?_Get_first@?$_Compressed_pair@V?$allocator@PEAUVkPipelineLayout_T@@@std@@V?$_Vector_val@U?$_Simple_types@PEAUVkPipelineLayout_T@@@std@@@2@$00@std@@QEBAAEBV?$allocator@PEAUVkPipelineLayout_T@@@2@XZ ; std::_Compressed_pair<std::allocator<VkPipelineLayout_T *>,std::_Vector_val<std::_Simple_types<VkPipelineLayout_T *> >,1>::_Get_first
PUBLIC	??0?$allocator@PEAUVkDescriptorPool_T@@@std@@QEAA@XZ ; std::allocator<VkDescriptorPool_T *>::allocator<VkDescriptorPool_T *>
PUBLIC	?deallocate@?$allocator@PEAUVkDescriptorPool_T@@@std@@QEAAXQEAPEAUVkDescriptorPool_T@@_K@Z ; std::allocator<VkDescriptorPool_T *>::deallocate
PUBLIC	?allocate@?$allocator@PEAUVkDescriptorPool_T@@@std@@QEAAPEAPEAUVkDescriptorPool_T@@_K@Z ; std::allocator<VkDescriptorPool_T *>::allocate
PUBLIC	?max_size@?$_Default_allocator_traits@V?$allocator@PEAUVkDescriptorPool_T@@@std@@@std@@SA_KAEBV?$allocator@PEAUVkDescriptorPool_T@@@2@@Z ; std::_Default_allocator_traits<std::allocator<VkDescriptorPool_T *> >::max_size
PUBLIC	??0?$vector@PEAUVkDescriptorPool_T@@V?$allocator@PEAUVkDescriptorPool_T@@@std@@@std@@QEAA@XZ ; std::vector<VkDescriptorPool_T *,std::allocator<VkDescriptorPool_T *> >::vector<VkDescriptorPool_T *,std::allocator<VkDescriptorPool_T *> >
PUBLIC	??1?$vector@PEAUVkDescriptorPool_T@@V?$allocator@PEAUVkDescriptorPool_T@@@std@@@std@@QEAA@XZ ; std::vector<VkDescriptorPool_T *,std::allocator<VkDescriptorPool_T *> >::~vector<VkDescriptorPool_T *,std::allocator<VkDescriptorPool_T *> >
PUBLIC	?push_back@?$vector@PEAUVkDescriptorPool_T@@V?$allocator@PEAUVkDescriptorPool_T@@@std@@@std@@QEAAXAEBQEAUVkDescriptorPool_T@@@Z ; std::vector<VkDescriptorPool_T *,std::allocator<VkDescriptorPool_T *> >::push_back
PUBLIC	?size@?$vector@PEAUVkDescriptorPool_T@@V?$allocator@PEAUVkDescriptorPool_T@@@std@@@std@@QEBA_KXZ ; std::vector<VkDescriptorPool_T *,std::allocator<VkDescriptorPool_T *> >::size
PUBLIC	?max_size@?$vector@PEAUVkDescriptorPool_T@@V?$allocator@PEAUVkDescriptorPool_T@@@std@@@std@@QEBA_KXZ ; std::vector<VkDescriptorPool_T *,std::allocator<VkDescriptorPool_T *> >::max_size
PUBLIC	?capacity@?$vector@PEAUVkDescriptorPool_T@@V?$allocator@PEAUVkDescriptorPool_T@@@std@@@std@@QEBA_KXZ ; std::vector<VkDescriptorPool_T *,std::allocator<VkDescriptorPool_T *> >::capacity
PUBLIC	??A?$vector@PEAUVkDescriptorPool_T@@V?$allocator@PEAUVkDescriptorPool_T@@@std@@@std@@QEAAAEAPEAUVkDescriptorPool_T@@_K@Z ; std::vector<VkDescriptorPool_T *,std::allocator<VkDescriptorPool_T *> >::operator[]
PUBLIC	?_Umove@?$vector@PEAUVkDescriptorPool_T@@V?$allocator@PEAUVkDescriptorPool_T@@@std@@@std@@AEAAPEAPEAUVkDescriptorPool_T@@PEAPEAU3@00@Z ; std::vector<VkDescriptorPool_T *,std::allocator<VkDescriptorPool_T *> >::_Umove
PUBLIC	?_Umove_if_noexcept1@?$vector@PEAUVkDescriptorPool_T@@V?$allocator@PEAUVkDescriptorPool_T@@@std@@@std@@AEAAXPEAPEAUVkDescriptorPool_T@@00U?$integral_constant@_N$00@2@@Z ; std::vector<VkDescriptorPool_T *,std::allocator<VkDescriptorPool_T *> >::_Umove_if_noexcept1
PUBLIC	?_Umove_if_noexcept@?$vector@PEAUVkDescriptorPool_T@@V?$allocator@PEAUVkDescriptorPool_T@@@std@@@std@@AEAAXPEAPEAUVkDescriptorPool_T@@00@Z ; std::vector<VkDescriptorPool_T *,std::allocator<VkDescriptorPool_T *> >::_Umove_if_noexcept
PUBLIC	?_Destroy@?$vector@PEAUVkDescriptorPool_T@@V?$allocator@PEAUVkDescriptorPool_T@@@std@@@std@@AEAAXPEAPEAUVkDescriptorPool_T@@0@Z ; std::vector<VkDescriptorPool_T *,std::allocator<VkDescriptorPool_T *> >::_Destroy
PUBLIC	?_Calculate_growth@?$vector@PEAUVkDescriptorPool_T@@V?$allocator@PEAUVkDescriptorPool_T@@@std@@@std@@AEBA_K_K@Z ; std::vector<VkDescriptorPool_T *,std::allocator<VkDescriptorPool_T *> >::_Calculate_growth
PUBLIC	?_Change_array@?$vector@PEAUVkDescriptorPool_T@@V?$allocator@PEAUVkDescriptorPool_T@@@std@@@std@@AEAAXQEAPEAUVkDescriptorPool_T@@_K1@Z ; std::vector<VkDescriptorPool_T *,std::allocator<VkDescriptorPool_T *> >::_Change_array
PUBLIC	?_Tidy@?$vector@PEAUVkDescriptorPool_T@@V?$allocator@PEAUVkDescriptorPool_T@@@std@@@std@@AEAAXXZ ; std::vector<VkDescriptorPool_T *,std::allocator<VkDescriptorPool_T *> >::_Tidy
PUBLIC	?_Xlength@?$vector@PEAUVkDescriptorPool_T@@V?$allocator@PEAUVkDescriptorPool_T@@@std@@@std@@CAXXZ ; std::vector<VkDescriptorPool_T *,std::allocator<VkDescriptorPool_T *> >::_Xlength
PUBLIC	?_Orphan_range@?$vector@PEAUVkDescriptorPool_T@@V?$allocator@PEAUVkDescriptorPool_T@@@std@@@std@@AEBAXPEAPEAUVkDescriptorPool_T@@0@Z ; std::vector<VkDescriptorPool_T *,std::allocator<VkDescriptorPool_T *> >::_Orphan_range
PUBLIC	?_Getal@?$vector@PEAUVkDescriptorPool_T@@V?$allocator@PEAUVkDescriptorPool_T@@@std@@@std@@AEAAAEAV?$allocator@PEAUVkDescriptorPool_T@@@2@XZ ; std::vector<VkDescriptorPool_T *,std::allocator<VkDescriptorPool_T *> >::_Getal
PUBLIC	?_Getal@?$vector@PEAUVkDescriptorPool_T@@V?$allocator@PEAUVkDescriptorPool_T@@@std@@@std@@AEBAAEBV?$allocator@PEAUVkDescriptorPool_T@@@2@XZ ; std::vector<VkDescriptorPool_T *,std::allocator<VkDescriptorPool_T *> >::_Getal
PUBLIC	??0?$_Vector_val@U?$_Simple_types@PEAUVkDescriptorPool_T@@@std@@@std@@QEAA@XZ ; std::_Vector_val<std::_Simple_types<VkDescriptorPool_T *> >::_Vector_val<std::_Simple_types<VkDescriptorPool_T *> >
PUBLIC	?_Get_first@?$_Compressed_pair@V?$allocator@PEAUVkDescriptorPool_T@@@std@@V?$_Vector_val@U?$_Simple_types@PEAUVkDescriptorPool_T@@@std@@@2@$00@std@@QEAAAEAV?$allocator@PEAUVkDescriptorPool_T@@@2@XZ ; std::_Compressed_pair<std::allocator<VkDescriptorPool_T *>,std::_Vector_val<std::_Simple_types<VkDescriptorPool_T *> >,1>::_Get_first
PUBLIC	?_Get_first@?$_Compressed_pair@V?$allocator@PEAUVkDescriptorPool_T@@@std@@V?$_Vector_val@U?$_Simple_types@PEAUVkDescriptorPool_T@@@std@@@2@$00@std@@QEBAAEBV?$allocator@PEAUVkDescriptorPool_T@@@2@XZ ; std::_Compressed_pair<std::allocator<VkDescriptorPool_T *>,std::_Vector_val<std::_Simple_types<VkDescriptorPool_T *> >,1>::_Get_first
PUBLIC	??0?$allocator@PEAUVkShaderModule_T@@@std@@QEAA@XZ ; std::allocator<VkShaderModule_T *>::allocator<VkShaderModule_T *>
PUBLIC	?deallocate@?$allocator@PEAUVkShaderModule_T@@@std@@QEAAXQEAPEAUVkShaderModule_T@@_K@Z ; std::allocator<VkShaderModule_T *>::deallocate
PUBLIC	?allocate@?$allocator@PEAUVkShaderModule_T@@@std@@QEAAPEAPEAUVkShaderModule_T@@_K@Z ; std::allocator<VkShaderModule_T *>::allocate
PUBLIC	?max_size@?$_Default_allocator_traits@V?$allocator@PEAUVkShaderModule_T@@@std@@@std@@SA_KAEBV?$allocator@PEAUVkShaderModule_T@@@2@@Z ; std::_Default_allocator_traits<std::allocator<VkShaderModule_T *> >::max_size
PUBLIC	??0?$vector@PEAUVkShaderModule_T@@V?$allocator@PEAUVkShaderModule_T@@@std@@@std@@QEAA@XZ ; std::vector<VkShaderModule_T *,std::allocator<VkShaderModule_T *> >::vector<VkShaderModule_T *,std::allocator<VkShaderModule_T *> >
PUBLIC	??1?$vector@PEAUVkShaderModule_T@@V?$allocator@PEAUVkShaderModule_T@@@std@@@std@@QEAA@XZ ; std::vector<VkShaderModule_T *,std::allocator<VkShaderModule_T *> >::~vector<VkShaderModule_T *,std::allocator<VkShaderModule_T *> >
PUBLIC	?push_back@?$vector@PEAUVkShaderModule_T@@V?$allocator@PEAUVkShaderModule_T@@@std@@@std@@QEAAXAEBQEAUVkShaderModule_T@@@Z ; std::vector<VkShaderModule_T *,std::allocator<VkShaderModule_T *> >::push_back
PUBLIC	?size@?$vector@PEAUVkShaderModule_T@@V?$allocator@PEAUVkShaderModule_T@@@std@@@std@@QEBA_KXZ ; std::vector<VkShaderModule_T *,std::allocator<VkShaderModule_T *> >::size
PUBLIC	?max_size@?$vector@PEAUVkShaderModule_T@@V?$allocator@PEAUVkShaderModule_T@@@std@@@std@@QEBA_KXZ ; std::vector<VkShaderModule_T *,std::allocator<VkShaderModule_T *> >::max_size
PUBLIC	?capacity@?$vector@PEAUVkShaderModule_T@@V?$allocator@PEAUVkShaderModule_T@@@std@@@std@@QEBA_KXZ ; std::vector<VkShaderModule_T *,std::allocator<VkShaderModule_T *> >::capacity
PUBLIC	??A?$vector@PEAUVkShaderModule_T@@V?$allocator@PEAUVkShaderModule_T@@@std@@@std@@QEAAAEAPEAUVkShaderModule_T@@_K@Z ; std::vector<VkShaderModule_T *,std::allocator<VkShaderModule_T *> >::operator[]
PUBLIC	?_Umove@?$vector@PEAUVkShaderModule_T@@V?$allocator@PEAUVkShaderModule_T@@@std@@@std@@AEAAPEAPEAUVkShaderModule_T@@PEAPEAU3@00@Z ; std::vector<VkShaderModule_T *,std::allocator<VkShaderModule_T *> >::_Umove
PUBLIC	?_Umove_if_noexcept1@?$vector@PEAUVkShaderModule_T@@V?$allocator@PEAUVkShaderModule_T@@@std@@@std@@AEAAXPEAPEAUVkShaderModule_T@@00U?$integral_constant@_N$00@2@@Z ; std::vector<VkShaderModule_T *,std::allocator<VkShaderModule_T *> >::_Umove_if_noexcept1
PUBLIC	?_Umove_if_noexcept@?$vector@PEAUVkShaderModule_T@@V?$allocator@PEAUVkShaderModule_T@@@std@@@std@@AEAAXPEAPEAUVkShaderModule_T@@00@Z ; std::vector<VkShaderModule_T *,std::allocator<VkShaderModule_T *> >::_Umove_if_noexcept
PUBLIC	?_Destroy@?$vector@PEAUVkShaderModule_T@@V?$allocator@PEAUVkShaderModule_T@@@std@@@std@@AEAAXPEAPEAUVkShaderModule_T@@0@Z ; std::vector<VkShaderModule_T *,std::allocator<VkShaderModule_T *> >::_Destroy
PUBLIC	?_Calculate_growth@?$vector@PEAUVkShaderModule_T@@V?$allocator@PEAUVkShaderModule_T@@@std@@@std@@AEBA_K_K@Z ; std::vector<VkShaderModule_T *,std::allocator<VkShaderModule_T *> >::_Calculate_growth
PUBLIC	?_Change_array@?$vector@PEAUVkShaderModule_T@@V?$allocator@PEAUVkShaderModule_T@@@std@@@std@@AEAAXQEAPEAUVkShaderModule_T@@_K1@Z ; std::vector<VkShaderModule_T *,std::allocator<VkShaderModule_T *> >::_Change_array
PUBLIC	?_Tidy@?$vector@PEAUVkShaderModule_T@@V?$allocator@PEAUVkShaderModule_T@@@std@@@std@@AEAAXXZ ; std::vector<VkShaderModule_T *,std::allocator<VkShaderModule_T *> >::_Tidy
PUBLIC	?_Xlength@?$vector@PEAUVkShaderModule_T@@V?$allocator@PEAUVkShaderModule_T@@@std@@@std@@CAXXZ ; std::vector<VkShaderModule_T *,std::allocator<VkShaderModule_T *> >::_Xlength
PUBLIC	?_Orphan_range@?$vector@PEAUVkShaderModule_T@@V?$allocator@PEAUVkShaderModule_T@@@std@@@std@@AEBAXPEAPEAUVkShaderModule_T@@0@Z ; std::vector<VkShaderModule_T *,std::allocator<VkShaderModule_T *> >::_Orphan_range
PUBLIC	?_Getal@?$vector@PEAUVkShaderModule_T@@V?$allocator@PEAUVkShaderModule_T@@@std@@@std@@AEAAAEAV?$allocator@PEAUVkShaderModule_T@@@2@XZ ; std::vector<VkShaderModule_T *,std::allocator<VkShaderModule_T *> >::_Getal
PUBLIC	?_Getal@?$vector@PEAUVkShaderModule_T@@V?$allocator@PEAUVkShaderModule_T@@@std@@@std@@AEBAAEBV?$allocator@PEAUVkShaderModule_T@@@2@XZ ; std::vector<VkShaderModule_T *,std::allocator<VkShaderModule_T *> >::_Getal
PUBLIC	??0?$_Vector_val@U?$_Simple_types@PEAUVkShaderModule_T@@@std@@@std@@QEAA@XZ ; std::_Vector_val<std::_Simple_types<VkShaderModule_T *> >::_Vector_val<std::_Simple_types<VkShaderModule_T *> >
PUBLIC	?_Get_first@?$_Compressed_pair@V?$allocator@PEAUVkShaderModule_T@@@std@@V?$_Vector_val@U?$_Simple_types@PEAUVkShaderModule_T@@@std@@@2@$00@std@@QEAAAEAV?$allocator@PEAUVkShaderModule_T@@@2@XZ ; std::_Compressed_pair<std::allocator<VkShaderModule_T *>,std::_Vector_val<std::_Simple_types<VkShaderModule_T *> >,1>::_Get_first
PUBLIC	?_Get_first@?$_Compressed_pair@V?$allocator@PEAUVkShaderModule_T@@@std@@V?$_Vector_val@U?$_Simple_types@PEAUVkShaderModule_T@@@std@@@2@$00@std@@QEBAAEBV?$allocator@PEAUVkShaderModule_T@@@2@XZ ; std::_Compressed_pair<std::allocator<VkShaderModule_T *>,std::_Vector_val<std::_Simple_types<VkShaderModule_T *> >,1>::_Get_first
PUBLIC	??0?$allocator@PEAUVkPipeline_T@@@std@@QEAA@XZ	; std::allocator<VkPipeline_T *>::allocator<VkPipeline_T *>
PUBLIC	?deallocate@?$allocator@PEAUVkPipeline_T@@@std@@QEAAXQEAPEAUVkPipeline_T@@_K@Z ; std::allocator<VkPipeline_T *>::deallocate
PUBLIC	?allocate@?$allocator@PEAUVkPipeline_T@@@std@@QEAAPEAPEAUVkPipeline_T@@_K@Z ; std::allocator<VkPipeline_T *>::allocate
PUBLIC	?max_size@?$_Default_allocator_traits@V?$allocator@PEAUVkPipeline_T@@@std@@@std@@SA_KAEBV?$allocator@PEAUVkPipeline_T@@@2@@Z ; std::_Default_allocator_traits<std::allocator<VkPipeline_T *> >::max_size
PUBLIC	??0?$vector@PEAUVkPipeline_T@@V?$allocator@PEAUVkPipeline_T@@@std@@@std@@QEAA@XZ ; std::vector<VkPipeline_T *,std::allocator<VkPipeline_T *> >::vector<VkPipeline_T *,std::allocator<VkPipeline_T *> >
PUBLIC	??1?$vector@PEAUVkPipeline_T@@V?$allocator@PEAUVkPipeline_T@@@std@@@std@@QEAA@XZ ; std::vector<VkPipeline_T *,std::allocator<VkPipeline_T *> >::~vector<VkPipeline_T *,std::allocator<VkPipeline_T *> >
PUBLIC	?push_back@?$vector@PEAUVkPipeline_T@@V?$allocator@PEAUVkPipeline_T@@@std@@@std@@QEAAXAEBQEAUVkPipeline_T@@@Z ; std::vector<VkPipeline_T *,std::allocator<VkPipeline_T *> >::push_back
PUBLIC	?size@?$vector@PEAUVkPipeline_T@@V?$allocator@PEAUVkPipeline_T@@@std@@@std@@QEBA_KXZ ; std::vector<VkPipeline_T *,std::allocator<VkPipeline_T *> >::size
PUBLIC	?max_size@?$vector@PEAUVkPipeline_T@@V?$allocator@PEAUVkPipeline_T@@@std@@@std@@QEBA_KXZ ; std::vector<VkPipeline_T *,std::allocator<VkPipeline_T *> >::max_size
PUBLIC	?capacity@?$vector@PEAUVkPipeline_T@@V?$allocator@PEAUVkPipeline_T@@@std@@@std@@QEBA_KXZ ; std::vector<VkPipeline_T *,std::allocator<VkPipeline_T *> >::capacity
PUBLIC	??A?$vector@PEAUVkPipeline_T@@V?$allocator@PEAUVkPipeline_T@@@std@@@std@@QEAAAEAPEAUVkPipeline_T@@_K@Z ; std::vector<VkPipeline_T *,std::allocator<VkPipeline_T *> >::operator[]
PUBLIC	?_Umove@?$vector@PEAUVkPipeline_T@@V?$allocator@PEAUVkPipeline_T@@@std@@@std@@AEAAPEAPEAUVkPipeline_T@@PEAPEAU3@00@Z ; std::vector<VkPipeline_T *,std::allocator<VkPipeline_T *> >::_Umove
PUBLIC	?_Umove_if_noexcept1@?$vector@PEAUVkPipeline_T@@V?$allocator@PEAUVkPipeline_T@@@std@@@std@@AEAAXPEAPEAUVkPipeline_T@@00U?$integral_constant@_N$00@2@@Z ; std::vector<VkPipeline_T *,std::allocator<VkPipeline_T *> >::_Umove_if_noexcept1
PUBLIC	?_Umove_if_noexcept@?$vector@PEAUVkPipeline_T@@V?$allocator@PEAUVkPipeline_T@@@std@@@std@@AEAAXPEAPEAUVkPipeline_T@@00@Z ; std::vector<VkPipeline_T *,std::allocator<VkPipeline_T *> >::_Umove_if_noexcept
PUBLIC	?_Destroy@?$vector@PEAUVkPipeline_T@@V?$allocator@PEAUVkPipeline_T@@@std@@@std@@AEAAXPEAPEAUVkPipeline_T@@0@Z ; std::vector<VkPipeline_T *,std::allocator<VkPipeline_T *> >::_Destroy
PUBLIC	?_Calculate_growth@?$vector@PEAUVkPipeline_T@@V?$allocator@PEAUVkPipeline_T@@@std@@@std@@AEBA_K_K@Z ; std::vector<VkPipeline_T *,std::allocator<VkPipeline_T *> >::_Calculate_growth
PUBLIC	?_Change_array@?$vector@PEAUVkPipeline_T@@V?$allocator@PEAUVkPipeline_T@@@std@@@std@@AEAAXQEAPEAUVkPipeline_T@@_K1@Z ; std::vector<VkPipeline_T *,std::allocator<VkPipeline_T *> >::_Change_array
PUBLIC	?_Tidy@?$vector@PEAUVkPipeline_T@@V?$allocator@PEAUVkPipeline_T@@@std@@@std@@AEAAXXZ ; std::vector<VkPipeline_T *,std::allocator<VkPipeline_T *> >::_Tidy
PUBLIC	?_Xlength@?$vector@PEAUVkPipeline_T@@V?$allocator@PEAUVkPipeline_T@@@std@@@std@@CAXXZ ; std::vector<VkPipeline_T *,std::allocator<VkPipeline_T *> >::_Xlength
PUBLIC	?_Orphan_range@?$vector@PEAUVkPipeline_T@@V?$allocator@PEAUVkPipeline_T@@@std@@@std@@AEBAXPEAPEAUVkPipeline_T@@0@Z ; std::vector<VkPipeline_T *,std::allocator<VkPipeline_T *> >::_Orphan_range
PUBLIC	?_Getal@?$vector@PEAUVkPipeline_T@@V?$allocator@PEAUVkPipeline_T@@@std@@@std@@AEAAAEAV?$allocator@PEAUVkPipeline_T@@@2@XZ ; std::vector<VkPipeline_T *,std::allocator<VkPipeline_T *> >::_Getal
PUBLIC	?_Getal@?$vector@PEAUVkPipeline_T@@V?$allocator@PEAUVkPipeline_T@@@std@@@std@@AEBAAEBV?$allocator@PEAUVkPipeline_T@@@2@XZ ; std::vector<VkPipeline_T *,std::allocator<VkPipeline_T *> >::_Getal
PUBLIC	??0?$_Vector_val@U?$_Simple_types@PEAUVkPipeline_T@@@std@@@std@@QEAA@XZ ; std::_Vector_val<std::_Simple_types<VkPipeline_T *> >::_Vector_val<std::_Simple_types<VkPipeline_T *> >
PUBLIC	?_Get_first@?$_Compressed_pair@V?$allocator@PEAUVkPipeline_T@@@std@@V?$_Vector_val@U?$_Simple_types@PEAUVkPipeline_T@@@std@@@2@$00@std@@QEAAAEAV?$allocator@PEAUVkPipeline_T@@@2@XZ ; std::_Compressed_pair<std::allocator<VkPipeline_T *>,std::_Vector_val<std::_Simple_types<VkPipeline_T *> >,1>::_Get_first
PUBLIC	?_Get_first@?$_Compressed_pair@V?$allocator@PEAUVkPipeline_T@@@std@@V?$_Vector_val@U?$_Simple_types@PEAUVkPipeline_T@@@std@@@2@$00@std@@QEBAAEBV?$allocator@PEAUVkPipeline_T@@@2@XZ ; std::_Compressed_pair<std::allocator<VkPipeline_T *>,std::_Vector_val<std::_Simple_types<VkPipeline_T *> >,1>::_Get_first
PUBLIC	??0?$allocator@PEAUVkCommandPool_T@@@std@@QEAA@XZ ; std::allocator<VkCommandPool_T *>::allocator<VkCommandPool_T *>
PUBLIC	?deallocate@?$allocator@PEAUVkCommandPool_T@@@std@@QEAAXQEAPEAUVkCommandPool_T@@_K@Z ; std::allocator<VkCommandPool_T *>::deallocate
PUBLIC	?allocate@?$allocator@PEAUVkCommandPool_T@@@std@@QEAAPEAPEAUVkCommandPool_T@@_K@Z ; std::allocator<VkCommandPool_T *>::allocate
PUBLIC	?max_size@?$_Default_allocator_traits@V?$allocator@PEAUVkCommandPool_T@@@std@@@std@@SA_KAEBV?$allocator@PEAUVkCommandPool_T@@@2@@Z ; std::_Default_allocator_traits<std::allocator<VkCommandPool_T *> >::max_size
PUBLIC	??0?$vector@PEAUVkCommandPool_T@@V?$allocator@PEAUVkCommandPool_T@@@std@@@std@@QEAA@XZ ; std::vector<VkCommandPool_T *,std::allocator<VkCommandPool_T *> >::vector<VkCommandPool_T *,std::allocator<VkCommandPool_T *> >
PUBLIC	??1?$vector@PEAUVkCommandPool_T@@V?$allocator@PEAUVkCommandPool_T@@@std@@@std@@QEAA@XZ ; std::vector<VkCommandPool_T *,std::allocator<VkCommandPool_T *> >::~vector<VkCommandPool_T *,std::allocator<VkCommandPool_T *> >
PUBLIC	?push_back@?$vector@PEAUVkCommandPool_T@@V?$allocator@PEAUVkCommandPool_T@@@std@@@std@@QEAAXAEBQEAUVkCommandPool_T@@@Z ; std::vector<VkCommandPool_T *,std::allocator<VkCommandPool_T *> >::push_back
PUBLIC	?size@?$vector@PEAUVkCommandPool_T@@V?$allocator@PEAUVkCommandPool_T@@@std@@@std@@QEBA_KXZ ; std::vector<VkCommandPool_T *,std::allocator<VkCommandPool_T *> >::size
PUBLIC	?max_size@?$vector@PEAUVkCommandPool_T@@V?$allocator@PEAUVkCommandPool_T@@@std@@@std@@QEBA_KXZ ; std::vector<VkCommandPool_T *,std::allocator<VkCommandPool_T *> >::max_size
PUBLIC	?capacity@?$vector@PEAUVkCommandPool_T@@V?$allocator@PEAUVkCommandPool_T@@@std@@@std@@QEBA_KXZ ; std::vector<VkCommandPool_T *,std::allocator<VkCommandPool_T *> >::capacity
PUBLIC	??A?$vector@PEAUVkCommandPool_T@@V?$allocator@PEAUVkCommandPool_T@@@std@@@std@@QEAAAEAPEAUVkCommandPool_T@@_K@Z ; std::vector<VkCommandPool_T *,std::allocator<VkCommandPool_T *> >::operator[]
PUBLIC	?_Umove@?$vector@PEAUVkCommandPool_T@@V?$allocator@PEAUVkCommandPool_T@@@std@@@std@@AEAAPEAPEAUVkCommandPool_T@@PEAPEAU3@00@Z ; std::vector<VkCommandPool_T *,std::allocator<VkCommandPool_T *> >::_Umove
PUBLIC	?_Umove_if_noexcept1@?$vector@PEAUVkCommandPool_T@@V?$allocator@PEAUVkCommandPool_T@@@std@@@std@@AEAAXPEAPEAUVkCommandPool_T@@00U?$integral_constant@_N$00@2@@Z ; std::vector<VkCommandPool_T *,std::allocator<VkCommandPool_T *> >::_Umove_if_noexcept1
PUBLIC	?_Umove_if_noexcept@?$vector@PEAUVkCommandPool_T@@V?$allocator@PEAUVkCommandPool_T@@@std@@@std@@AEAAXPEAPEAUVkCommandPool_T@@00@Z ; std::vector<VkCommandPool_T *,std::allocator<VkCommandPool_T *> >::_Umove_if_noexcept
PUBLIC	?_Destroy@?$vector@PEAUVkCommandPool_T@@V?$allocator@PEAUVkCommandPool_T@@@std@@@std@@AEAAXPEAPEAUVkCommandPool_T@@0@Z ; std::vector<VkCommandPool_T *,std::allocator<VkCommandPool_T *> >::_Destroy
PUBLIC	?_Calculate_growth@?$vector@PEAUVkCommandPool_T@@V?$allocator@PEAUVkCommandPool_T@@@std@@@std@@AEBA_K_K@Z ; std::vector<VkCommandPool_T *,std::allocator<VkCommandPool_T *> >::_Calculate_growth
PUBLIC	?_Change_array@?$vector@PEAUVkCommandPool_T@@V?$allocator@PEAUVkCommandPool_T@@@std@@@std@@AEAAXQEAPEAUVkCommandPool_T@@_K1@Z ; std::vector<VkCommandPool_T *,std::allocator<VkCommandPool_T *> >::_Change_array
PUBLIC	?_Tidy@?$vector@PEAUVkCommandPool_T@@V?$allocator@PEAUVkCommandPool_T@@@std@@@std@@AEAAXXZ ; std::vector<VkCommandPool_T *,std::allocator<VkCommandPool_T *> >::_Tidy
PUBLIC	?_Xlength@?$vector@PEAUVkCommandPool_T@@V?$allocator@PEAUVkCommandPool_T@@@std@@@std@@CAXXZ ; std::vector<VkCommandPool_T *,std::allocator<VkCommandPool_T *> >::_Xlength
PUBLIC	?_Orphan_range@?$vector@PEAUVkCommandPool_T@@V?$allocator@PEAUVkCommandPool_T@@@std@@@std@@AEBAXPEAPEAUVkCommandPool_T@@0@Z ; std::vector<VkCommandPool_T *,std::allocator<VkCommandPool_T *> >::_Orphan_range
PUBLIC	?_Getal@?$vector@PEAUVkCommandPool_T@@V?$allocator@PEAUVkCommandPool_T@@@std@@@std@@AEAAAEAV?$allocator@PEAUVkCommandPool_T@@@2@XZ ; std::vector<VkCommandPool_T *,std::allocator<VkCommandPool_T *> >::_Getal
PUBLIC	?_Getal@?$vector@PEAUVkCommandPool_T@@V?$allocator@PEAUVkCommandPool_T@@@std@@@std@@AEBAAEBV?$allocator@PEAUVkCommandPool_T@@@2@XZ ; std::vector<VkCommandPool_T *,std::allocator<VkCommandPool_T *> >::_Getal
PUBLIC	??0?$_Vector_val@U?$_Simple_types@PEAUVkCommandPool_T@@@std@@@std@@QEAA@XZ ; std::_Vector_val<std::_Simple_types<VkCommandPool_T *> >::_Vector_val<std::_Simple_types<VkCommandPool_T *> >
PUBLIC	?_Get_first@?$_Compressed_pair@V?$allocator@PEAUVkCommandPool_T@@@std@@V?$_Vector_val@U?$_Simple_types@PEAUVkCommandPool_T@@@std@@@2@$00@std@@QEAAAEAV?$allocator@PEAUVkCommandPool_T@@@2@XZ ; std::_Compressed_pair<std::allocator<VkCommandPool_T *>,std::_Vector_val<std::_Simple_types<VkCommandPool_T *> >,1>::_Get_first
PUBLIC	?_Get_first@?$_Compressed_pair@V?$allocator@PEAUVkCommandPool_T@@@std@@V?$_Vector_val@U?$_Simple_types@PEAUVkCommandPool_T@@@std@@@2@$00@std@@QEBAAEBV?$allocator@PEAUVkCommandPool_T@@@2@XZ ; std::_Compressed_pair<std::allocator<VkCommandPool_T *>,std::_Vector_val<std::_Simple_types<VkCommandPool_T *> >,1>::_Get_first
PUBLIC	?getProps@Device@VULKAN@XGK@@QEAAXPEAUVkPhysicalDevice_T@@PEAUVkSurfaceKHR_T@@@Z ; XGK::VULKAN::Device::getProps
PUBLIC	?create@Device@VULKAN@XGK@@QEAAXPEAUVkPhysicalDevice_T@@IPEBUVkDeviceQueueCreateInfo@@IPEBQEBDI2PEBUVkPhysicalDeviceFeatures@@IPEBXPEBUVkAllocationCallbacks@@@Z ; XGK::VULKAN::Device::create
PUBLIC	?Queue@Device@VULKAN@XGK@@QEAAPEAUVkQueue_T@@II@Z ; XGK::VULKAN::Device::Queue
PUBLIC	?RenderPass@Device@VULKAN@XGK@@QEAAPEAUVkRenderPass_T@@IPEBUVkAttachmentDescription@@IPEBUVkSubpassDescription@@IPEBUVkSubpassDependency@@IIPEBXPEBUVkAllocationCallbacks@@@Z ; XGK::VULKAN::Device::RenderPass
PUBLIC	?SwapchainKHR@Device@VULKAN@XGK@@QEAAPEAUVkSwapchainKHR_T@@PEAUVkSurfaceKHR_T@@IW4VkFormat@@W4VkColorSpaceKHR@@IIIIW4VkSharingMode@@IPEBIW4VkSurfaceTransformFlagBitsKHR@@W4VkCompositeAlphaFlagBitsKHR@@W4VkPresentModeKHR@@IPEAU4@IPEBXPEBUVkAllocationCallbacks@@@Z ; XGK::VULKAN::Device::SwapchainKHR
PUBLIC	?getSwapchainImages@Device@VULKAN@XGK@@QEAA?AV?$vector@PEAUVkImage_T@@V?$allocator@PEAUVkImage_T@@@std@@@std@@PEAUVkSwapchainKHR_T@@@Z ; XGK::VULKAN::Device::getSwapchainImages
PUBLIC	?Image@Device@VULKAN@XGK@@QEAAPEAUVkImage_T@@W4VkImageType@@W4VkFormat@@IIIIIW4VkSampleCountFlagBits@@W4VkImageTiling@@IW4VkSharingMode@@IPEBIW4VkImageLayout@@IPEBXPEBUVkAllocationCallbacks@@@Z ; XGK::VULKAN::Device::Image
PUBLIC	?ImageView@Device@VULKAN@XGK@@QEAAPEAUVkImageView_T@@PEAUVkImage_T@@W4VkImageViewType@@W4VkFormat@@W4VkComponentSwizzle@@333IIIIIIPEBXPEBUVkAllocationCallbacks@@@Z ; XGK::VULKAN::Device::ImageView
PUBLIC	?MemReqs@Device@VULKAN@XGK@@QEAA?AUVkMemoryRequirements@@PEAUVkImage_T@@@Z ; XGK::VULKAN::Device::MemReqs
PUBLIC	?MemReqs@Device@VULKAN@XGK@@QEAA?AUVkMemoryRequirements@@PEAUVkBuffer_T@@@Z ; XGK::VULKAN::Device::MemReqs
PUBLIC	?getMemTypeIndex@Device@VULKAN@XGK@@QEAAIPEAUVkMemoryRequirements@@I@Z ; XGK::VULKAN::Device::getMemTypeIndex
PUBLIC	?Mem@Device@VULKAN@XGK@@QEAAPEAUVkDeviceMemory_T@@_KIPEBXPEBUVkAllocationCallbacks@@@Z ; XGK::VULKAN::Device::Mem
PUBLIC	?bindMem@Device@VULKAN@XGK@@QEAAXPEAUVkImage_T@@PEAUVkDeviceMemory_T@@_K@Z ; XGK::VULKAN::Device::bindMem
PUBLIC	?bindMem@Device@VULKAN@XGK@@QEAAXPEAUVkBuffer_T@@PEAUVkDeviceMemory_T@@_K@Z ; XGK::VULKAN::Device::bindMem
PUBLIC	?mapMem@Device@VULKAN@XGK@@QEAAPEAXPEAUVkDeviceMemory_T@@_K1I@Z ; XGK::VULKAN::Device::mapMem
PUBLIC	?Framebuffer@Device@VULKAN@XGK@@QEAAPEAUVkFramebuffer_T@@PEAUVkRenderPass_T@@IPEBQEAUVkImageView_T@@IIIIPEBXPEBUVkAllocationCallbacks@@@Z ; XGK::VULKAN::Device::Framebuffer
PUBLIC	?Fence@Device@VULKAN@XGK@@QEAAPEAUVkFence_T@@IPEBXPEBUVkAllocationCallbacks@@@Z ; XGK::VULKAN::Device::Fence
PUBLIC	?Semaphore@Device@VULKAN@XGK@@QEAAPEAUVkSemaphore_T@@IPEBXPEBUVkAllocationCallbacks@@@Z ; XGK::VULKAN::Device::Semaphore
PUBLIC	?Buffer@Device@VULKAN@XGK@@QEAAPEAUVkBuffer_T@@_KIW4VkSharingMode@@IPEBIIPEBXPEBUVkAllocationCallbacks@@@Z ; XGK::VULKAN::Device::Buffer
PUBLIC	?DescrSetLayout@Device@VULKAN@XGK@@QEAAPEAUVkDescriptorSetLayout_T@@IPEBUVkDescriptorSetLayoutBinding@@IPEBXPEBUVkAllocationCallbacks@@@Z ; XGK::VULKAN::Device::DescrSetLayout
PUBLIC	?DescrPool@Device@VULKAN@XGK@@QEAAPEAUVkDescriptorPool_T@@IIPEBUVkDescriptorPoolSize@@IPEBXPEBUVkAllocationCallbacks@@@Z ; XGK::VULKAN::Device::DescrPool
PUBLIC	?DescrSet@Device@VULKAN@XGK@@QEAA?AV?$vector@PEAUVkDescriptorSet_T@@V?$allocator@PEAUVkDescriptorSet_T@@@std@@@std@@PEAUVkDescriptorPool_T@@IPEBQEAUVkDescriptorSetLayout_T@@PEBX@Z ; XGK::VULKAN::Device::DescrSet
PUBLIC	?updateDescrSets@Device@VULKAN@XGK@@QEAAXIPEBUVkWriteDescriptorSet@@IPEBUVkCopyDescriptorSet@@@Z ; XGK::VULKAN::Device::updateDescrSets
PUBLIC	?Shader@Device@VULKAN@XGK@@QEAAPEAUVkShaderModule_T@@_KPEBIIPEBXPEBUVkAllocationCallbacks@@@Z ; XGK::VULKAN::Device::Shader
PUBLIC	?PplLayout@Device@VULKAN@XGK@@QEAAPEAUVkPipelineLayout_T@@IPEBQEAUVkDescriptorSetLayout_T@@IPEBUVkPushConstantRange@@IPEBXPEBUVkAllocationCallbacks@@@Z ; XGK::VULKAN::Device::PplLayout
PUBLIC	?PplG@Device@VULKAN@XGK@@QEAAPEAUVkPipeline_T@@IPEBUVkPipelineShaderStageCreateInfo@@PEBUVkPipelineVertexInputStateCreateInfo@@PEBUVkPipelineInputAssemblyStateCreateInfo@@PEBUVkPipelineTessellationStateCreateInfo@@PEBUVkPipelineViewportStateCreateInfo@@PEBUVkPipelineRasterizationStateCreateInfo@@PEBUVkPipelineMultisampleStateCreateInfo@@PEBUVkPipelineDepthStencilStateCreateInfo@@PEBUVkPipelineColorBlendStateCreateInfo@@PEBUVkPipelineDynamicStateCreateInfo@@PEAUVkPipelineLayout_T@@PEAUVkRenderPass_T@@IPEAU4@HIPEBXPEAUVkPipelineCache_T@@PEBUVkAllocationCallbacks@@@Z ; XGK::VULKAN::Device::PplG
PUBLIC	?CmdPool@Device@VULKAN@XGK@@QEAAPEAUVkCommandPool_T@@IIPEBXPEBUVkAllocationCallbacks@@@Z ; XGK::VULKAN::Device::CmdPool
PUBLIC	?CmdBuffer@Device@VULKAN@XGK@@QEAA?AV?$vector@PEAUVkCommandBuffer_T@@V?$allocator@PEAUVkCommandBuffer_T@@@std@@@std@@PEAUVkCommandPool_T@@W4VkCommandBufferLevel@@IPEBX@Z ; XGK::VULKAN::Device::CmdBuffer
PUBLIC	?destroy@Device@VULKAN@XGK@@QEAAXXZ		; XGK::VULKAN::Device::destroy
PUBLIC	??0Device@VULKAN@XGK@@QEAA@XZ			; XGK::VULKAN::Device::Device
PUBLIC	??1Device@VULKAN@XGK@@QEAA@XZ			; XGK::VULKAN::Device::~Device
PUBLIC	??0?$allocator@PEAUVkDescriptorSet_T@@@std@@QEAA@XZ ; std::allocator<VkDescriptorSet_T *>::allocator<VkDescriptorSet_T *>
PUBLIC	?deallocate@?$allocator@PEAUVkDescriptorSet_T@@@std@@QEAAXQEAPEAUVkDescriptorSet_T@@_K@Z ; std::allocator<VkDescriptorSet_T *>::deallocate
PUBLIC	?allocate@?$allocator@PEAUVkDescriptorSet_T@@@std@@QEAAPEAPEAUVkDescriptorSet_T@@_K@Z ; std::allocator<VkDescriptorSet_T *>::allocate
PUBLIC	?max_size@?$_Default_allocator_traits@V?$allocator@PEAUVkDescriptorSet_T@@@std@@@std@@SA_KAEBV?$allocator@PEAUVkDescriptorSet_T@@@2@@Z ; std::_Default_allocator_traits<std::allocator<VkDescriptorSet_T *> >::max_size
PUBLIC	??0?$vector@PEAUVkDescriptorSet_T@@V?$allocator@PEAUVkDescriptorSet_T@@@std@@@std@@QEAA@_KAEBV?$allocator@PEAUVkDescriptorSet_T@@@1@@Z ; std::vector<VkDescriptorSet_T *,std::allocator<VkDescriptorSet_T *> >::vector<VkDescriptorSet_T *,std::allocator<VkDescriptorSet_T *> >
PUBLIC	?_Move_construct@?$vector@PEAUVkDescriptorSet_T@@V?$allocator@PEAUVkDescriptorSet_T@@@std@@@std@@AEAAXAEAV12@U?$integral_constant@_N$00@2@@Z ; std::vector<VkDescriptorSet_T *,std::allocator<VkDescriptorSet_T *> >::_Move_construct
PUBLIC	??0?$vector@PEAUVkDescriptorSet_T@@V?$allocator@PEAUVkDescriptorSet_T@@@std@@@std@@QEAA@$$QEAV01@@Z ; std::vector<VkDescriptorSet_T *,std::allocator<VkDescriptorSet_T *> >::vector<VkDescriptorSet_T *,std::allocator<VkDescriptorSet_T *> >
PUBLIC	??1?$vector@PEAUVkDescriptorSet_T@@V?$allocator@PEAUVkDescriptorSet_T@@@std@@@std@@QEAA@XZ ; std::vector<VkDescriptorSet_T *,std::allocator<VkDescriptorSet_T *> >::~vector<VkDescriptorSet_T *,std::allocator<VkDescriptorSet_T *> >
PUBLIC	?data@?$vector@PEAUVkDescriptorSet_T@@V?$allocator@PEAUVkDescriptorSet_T@@@std@@@std@@QEAAPEAPEAUVkDescriptorSet_T@@XZ ; std::vector<VkDescriptorSet_T *,std::allocator<VkDescriptorSet_T *> >::data
PUBLIC	?max_size@?$vector@PEAUVkDescriptorSet_T@@V?$allocator@PEAUVkDescriptorSet_T@@@std@@@std@@QEBA_KXZ ; std::vector<VkDescriptorSet_T *,std::allocator<VkDescriptorSet_T *> >::max_size
PUBLIC	??A?$vector@PEAUVkDescriptorSet_T@@V?$allocator@PEAUVkDescriptorSet_T@@@std@@@std@@QEAAAEAPEAUVkDescriptorSet_T@@_K@Z ; std::vector<VkDescriptorSet_T *,std::allocator<VkDescriptorSet_T *> >::operator[]
PUBLIC	?_Ufill@?$vector@PEAUVkDescriptorSet_T@@V?$allocator@PEAUVkDescriptorSet_T@@@std@@@std@@AEAAPEAPEAUVkDescriptorSet_T@@PEAPEAU3@_KU_Value_init_tag@2@@Z ; std::vector<VkDescriptorSet_T *,std::allocator<VkDescriptorSet_T *> >::_Ufill
PUBLIC	?_Destroy@?$vector@PEAUVkDescriptorSet_T@@V?$allocator@PEAUVkDescriptorSet_T@@@std@@@std@@AEAAXPEAPEAUVkDescriptorSet_T@@0@Z ; std::vector<VkDescriptorSet_T *,std::allocator<VkDescriptorSet_T *> >::_Destroy
PUBLIC	?_Buy_raw@?$vector@PEAUVkDescriptorSet_T@@V?$allocator@PEAUVkDescriptorSet_T@@@std@@@std@@AEAAX_K@Z ; std::vector<VkDescriptorSet_T *,std::allocator<VkDescriptorSet_T *> >::_Buy_raw
PUBLIC	?_Buy_nonzero@?$vector@PEAUVkDescriptorSet_T@@V?$allocator@PEAUVkDescriptorSet_T@@@std@@@std@@AEAAX_K@Z ; std::vector<VkDescriptorSet_T *,std::allocator<VkDescriptorSet_T *> >::_Buy_nonzero
PUBLIC	?_Tidy@?$vector@PEAUVkDescriptorSet_T@@V?$allocator@PEAUVkDescriptorSet_T@@@std@@@std@@AEAAXXZ ; std::vector<VkDescriptorSet_T *,std::allocator<VkDescriptorSet_T *> >::_Tidy
PUBLIC	?_Xlength@?$vector@PEAUVkDescriptorSet_T@@V?$allocator@PEAUVkDescriptorSet_T@@@std@@@std@@CAXXZ ; std::vector<VkDescriptorSet_T *,std::allocator<VkDescriptorSet_T *> >::_Xlength
PUBLIC	?_Getal@?$vector@PEAUVkDescriptorSet_T@@V?$allocator@PEAUVkDescriptorSet_T@@@std@@@std@@AEAAAEAV?$allocator@PEAUVkDescriptorSet_T@@@2@XZ ; std::vector<VkDescriptorSet_T *,std::allocator<VkDescriptorSet_T *> >::_Getal
PUBLIC	?_Getal@?$vector@PEAUVkDescriptorSet_T@@V?$allocator@PEAUVkDescriptorSet_T@@@std@@@std@@AEBAAEBV?$allocator@PEAUVkDescriptorSet_T@@@2@XZ ; std::vector<VkDescriptorSet_T *,std::allocator<VkDescriptorSet_T *> >::_Getal
PUBLIC	??0?$_Vector_val@U?$_Simple_types@PEAUVkDescriptorSet_T@@@std@@@std@@QEAA@XZ ; std::_Vector_val<std::_Simple_types<VkDescriptorSet_T *> >::_Vector_val<std::_Simple_types<VkDescriptorSet_T *> >
PUBLIC	?_Take_contents@?$_Vector_val@U?$_Simple_types@PEAUVkDescriptorSet_T@@@std@@@std@@QEAAXAEAV12@@Z ; std::_Vector_val<std::_Simple_types<VkDescriptorSet_T *> >::_Take_contents
PUBLIC	?_Get_first@?$_Compressed_pair@V?$allocator@PEAUVkDescriptorSet_T@@@std@@V?$_Vector_val@U?$_Simple_types@PEAUVkDescriptorSet_T@@@std@@@2@$00@std@@QEAAAEAV?$allocator@PEAUVkDescriptorSet_T@@@2@XZ ; std::_Compressed_pair<std::allocator<VkDescriptorSet_T *>,std::_Vector_val<std::_Simple_types<VkDescriptorSet_T *> >,1>::_Get_first
PUBLIC	?_Get_first@?$_Compressed_pair@V?$allocator@PEAUVkDescriptorSet_T@@@std@@V?$_Vector_val@U?$_Simple_types@PEAUVkDescriptorSet_T@@@std@@@2@$00@std@@QEBAAEBV?$allocator@PEAUVkDescriptorSet_T@@@2@XZ ; std::_Compressed_pair<std::allocator<VkDescriptorSet_T *>,std::_Vector_val<std::_Simple_types<VkDescriptorSet_T *> >,1>::_Get_first
PUBLIC	??0?$allocator@PEAUVkCommandBuffer_T@@@std@@QEAA@XZ ; std::allocator<VkCommandBuffer_T *>::allocator<VkCommandBuffer_T *>
PUBLIC	?deallocate@?$allocator@PEAUVkCommandBuffer_T@@@std@@QEAAXQEAPEAUVkCommandBuffer_T@@_K@Z ; std::allocator<VkCommandBuffer_T *>::deallocate
PUBLIC	?allocate@?$allocator@PEAUVkCommandBuffer_T@@@std@@QEAAPEAPEAUVkCommandBuffer_T@@_K@Z ; std::allocator<VkCommandBuffer_T *>::allocate
PUBLIC	?max_size@?$_Default_allocator_traits@V?$allocator@PEAUVkCommandBuffer_T@@@std@@@std@@SA_KAEBV?$allocator@PEAUVkCommandBuffer_T@@@2@@Z ; std::_Default_allocator_traits<std::allocator<VkCommandBuffer_T *> >::max_size
PUBLIC	??0?$vector@PEAUVkCommandBuffer_T@@V?$allocator@PEAUVkCommandBuffer_T@@@std@@@std@@QEAA@_KAEBV?$allocator@PEAUVkCommandBuffer_T@@@1@@Z ; std::vector<VkCommandBuffer_T *,std::allocator<VkCommandBuffer_T *> >::vector<VkCommandBuffer_T *,std::allocator<VkCommandBuffer_T *> >
PUBLIC	?_Move_construct@?$vector@PEAUVkCommandBuffer_T@@V?$allocator@PEAUVkCommandBuffer_T@@@std@@@std@@AEAAXAEAV12@U?$integral_constant@_N$00@2@@Z ; std::vector<VkCommandBuffer_T *,std::allocator<VkCommandBuffer_T *> >::_Move_construct
PUBLIC	??0?$vector@PEAUVkCommandBuffer_T@@V?$allocator@PEAUVkCommandBuffer_T@@@std@@@std@@QEAA@$$QEAV01@@Z ; std::vector<VkCommandBuffer_T *,std::allocator<VkCommandBuffer_T *> >::vector<VkCommandBuffer_T *,std::allocator<VkCommandBuffer_T *> >
PUBLIC	??1?$vector@PEAUVkCommandBuffer_T@@V?$allocator@PEAUVkCommandBuffer_T@@@std@@@std@@QEAA@XZ ; std::vector<VkCommandBuffer_T *,std::allocator<VkCommandBuffer_T *> >::~vector<VkCommandBuffer_T *,std::allocator<VkCommandBuffer_T *> >
PUBLIC	?data@?$vector@PEAUVkCommandBuffer_T@@V?$allocator@PEAUVkCommandBuffer_T@@@std@@@std@@QEAAPEAPEAUVkCommandBuffer_T@@XZ ; std::vector<VkCommandBuffer_T *,std::allocator<VkCommandBuffer_T *> >::data
PUBLIC	?max_size@?$vector@PEAUVkCommandBuffer_T@@V?$allocator@PEAUVkCommandBuffer_T@@@std@@@std@@QEBA_KXZ ; std::vector<VkCommandBuffer_T *,std::allocator<VkCommandBuffer_T *> >::max_size
PUBLIC	??A?$vector@PEAUVkCommandBuffer_T@@V?$allocator@PEAUVkCommandBuffer_T@@@std@@@std@@QEAAAEAPEAUVkCommandBuffer_T@@_K@Z ; std::vector<VkCommandBuffer_T *,std::allocator<VkCommandBuffer_T *> >::operator[]
PUBLIC	?_Ufill@?$vector@PEAUVkCommandBuffer_T@@V?$allocator@PEAUVkCommandBuffer_T@@@std@@@std@@AEAAPEAPEAUVkCommandBuffer_T@@PEAPEAU3@_KU_Value_init_tag@2@@Z ; std::vector<VkCommandBuffer_T *,std::allocator<VkCommandBuffer_T *> >::_Ufill
PUBLIC	?_Destroy@?$vector@PEAUVkCommandBuffer_T@@V?$allocator@PEAUVkCommandBuffer_T@@@std@@@std@@AEAAXPEAPEAUVkCommandBuffer_T@@0@Z ; std::vector<VkCommandBuffer_T *,std::allocator<VkCommandBuffer_T *> >::_Destroy
PUBLIC	?_Buy_raw@?$vector@PEAUVkCommandBuffer_T@@V?$allocator@PEAUVkCommandBuffer_T@@@std@@@std@@AEAAX_K@Z ; std::vector<VkCommandBuffer_T *,std::allocator<VkCommandBuffer_T *> >::_Buy_raw
PUBLIC	?_Buy_nonzero@?$vector@PEAUVkCommandBuffer_T@@V?$allocator@PEAUVkCommandBuffer_T@@@std@@@std@@AEAAX_K@Z ; std::vector<VkCommandBuffer_T *,std::allocator<VkCommandBuffer_T *> >::_Buy_nonzero
PUBLIC	?_Tidy@?$vector@PEAUVkCommandBuffer_T@@V?$allocator@PEAUVkCommandBuffer_T@@@std@@@std@@AEAAXXZ ; std::vector<VkCommandBuffer_T *,std::allocator<VkCommandBuffer_T *> >::_Tidy
PUBLIC	?_Xlength@?$vector@PEAUVkCommandBuffer_T@@V?$allocator@PEAUVkCommandBuffer_T@@@std@@@std@@CAXXZ ; std::vector<VkCommandBuffer_T *,std::allocator<VkCommandBuffer_T *> >::_Xlength
PUBLIC	?_Getal@?$vector@PEAUVkCommandBuffer_T@@V?$allocator@PEAUVkCommandBuffer_T@@@std@@@std@@AEAAAEAV?$allocator@PEAUVkCommandBuffer_T@@@2@XZ ; std::vector<VkCommandBuffer_T *,std::allocator<VkCommandBuffer_T *> >::_Getal
PUBLIC	?_Getal@?$vector@PEAUVkCommandBuffer_T@@V?$allocator@PEAUVkCommandBuffer_T@@@std@@@std@@AEBAAEBV?$allocator@PEAUVkCommandBuffer_T@@@2@XZ ; std::vector<VkCommandBuffer_T *,std::allocator<VkCommandBuffer_T *> >::_Getal
PUBLIC	??0?$_Vector_val@U?$_Simple_types@PEAUVkCommandBuffer_T@@@std@@@std@@QEAA@XZ ; std::_Vector_val<std::_Simple_types<VkCommandBuffer_T *> >::_Vector_val<std::_Simple_types<VkCommandBuffer_T *> >
PUBLIC	?_Take_contents@?$_Vector_val@U?$_Simple_types@PEAUVkCommandBuffer_T@@@std@@@std@@QEAAXAEAV12@@Z ; std::_Vector_val<std::_Simple_types<VkCommandBuffer_T *> >::_Take_contents
PUBLIC	?_Get_first@?$_Compressed_pair@V?$allocator@PEAUVkCommandBuffer_T@@@std@@V?$_Vector_val@U?$_Simple_types@PEAUVkCommandBuffer_T@@@std@@@2@$00@std@@QEAAAEAV?$allocator@PEAUVkCommandBuffer_T@@@2@XZ ; std::_Compressed_pair<std::allocator<VkCommandBuffer_T *>,std::_Vector_val<std::_Simple_types<VkCommandBuffer_T *> >,1>::_Get_first
PUBLIC	?_Get_first@?$_Compressed_pair@V?$allocator@PEAUVkCommandBuffer_T@@@std@@V?$_Vector_val@U?$_Simple_types@PEAUVkCommandBuffer_T@@@std@@@2@$00@std@@QEBAAEBV?$allocator@PEAUVkCommandBuffer_T@@@2@XZ ; std::_Compressed_pair<std::allocator<VkCommandBuffer_T *>,std::_Vector_val<std::_Simple_types<VkCommandBuffer_T *> >,1>::_Get_first
PUBLIC	?simd32@DATA@XGK@@YAXXZ				; XGK::DATA::simd32
PUBLIC	?simd128@DATA@XGK@@YAXXZ			; XGK::DATA::simd128
PUBLIC	??0?$allocator@PEAUTransition@XGK@@@std@@QEAA@XZ ; std::allocator<XGK::Transition *>::allocator<XGK::Transition *>
PUBLIC	?deallocate@?$allocator@PEAUTransition@XGK@@@std@@QEAAXQEAPEAUTransition@XGK@@_K@Z ; std::allocator<XGK::Transition *>::deallocate
PUBLIC	??0?$vector@PEAUTransition@XGK@@V?$allocator@PEAUTransition@XGK@@@std@@@std@@QEAA@XZ ; std::vector<XGK::Transition *,std::allocator<XGK::Transition *> >::vector<XGK::Transition *,std::allocator<XGK::Transition *> >
PUBLIC	??1?$vector@PEAUTransition@XGK@@V?$allocator@PEAUTransition@XGK@@@std@@@std@@QEAA@XZ ; std::vector<XGK::Transition *,std::allocator<XGK::Transition *> >::~vector<XGK::Transition *,std::allocator<XGK::Transition *> >
PUBLIC	?_Destroy@?$vector@PEAUTransition@XGK@@V?$allocator@PEAUTransition@XGK@@@std@@@std@@AEAAXPEAPEAUTransition@XGK@@0@Z ; std::vector<XGK::Transition *,std::allocator<XGK::Transition *> >::_Destroy
PUBLIC	?_Tidy@?$vector@PEAUTransition@XGK@@V?$allocator@PEAUTransition@XGK@@@std@@@std@@AEAAXXZ ; std::vector<XGK::Transition *,std::allocator<XGK::Transition *> >::_Tidy
PUBLIC	?_Getal@?$vector@PEAUTransition@XGK@@V?$allocator@PEAUTransition@XGK@@@std@@@std@@AEAAAEAV?$allocator@PEAUTransition@XGK@@@2@XZ ; std::vector<XGK::Transition *,std::allocator<XGK::Transition *> >::_Getal
PUBLIC	??0?$_Vector_val@U?$_Simple_types@PEAUTransition@XGK@@@std@@@std@@QEAA@XZ ; std::_Vector_val<std::_Simple_types<XGK::Transition *> >::_Vector_val<std::_Simple_types<XGK::Transition *> >
PUBLIC	?_Get_first@?$_Compressed_pair@V?$allocator@PEAUTransition@XGK@@@std@@V?$_Vector_val@U?$_Simple_types@PEAUTransition@XGK@@@std@@@2@$00@std@@QEAAAEAV?$allocator@PEAUTransition@XGK@@@2@XZ ; std::_Compressed_pair<std::allocator<XGK::Transition *>,std::_Vector_val<std::_Simple_types<XGK::Transition *> >,1>::_Get_first
PUBLIC	??0Time@XGK@@QEAA@XZ				; XGK::Time::Time
PUBLIC	??1Time@XGK@@QEAA@XZ				; XGK::Time::~Time
PUBLIC	?destroyContext@OPENGL@XGK@@YAXXZ		; XGK::OPENGL::destroyContext
PUBLIC	?initContext@OPENGL@XGK@@YAXII@Z		; XGK::OPENGL::initContext
PUBLIC	?test@@YAXMPEAX@Z				; test
PUBLIC	?glfw_key_callback@@YAXPEAUGLFWwindow@@HHHH@Z	; glfw_key_callback
PUBLIC	?glfw_error_callback@@YAXHPEBD@Z		; glfw_error_callback
PUBLIC	?transition_thread_function@@YAXXZ		; transition_thread_function
PUBLIC	main
PUBLIC	??0?$allocator@UVkDeviceQueueCreateInfo@@@std@@QEAA@XZ ; std::allocator<VkDeviceQueueCreateInfo>::allocator<VkDeviceQueueCreateInfo>
PUBLIC	?deallocate@?$allocator@UVkDeviceQueueCreateInfo@@@std@@QEAAXQEAUVkDeviceQueueCreateInfo@@_K@Z ; std::allocator<VkDeviceQueueCreateInfo>::deallocate
PUBLIC	?allocate@?$allocator@UVkDeviceQueueCreateInfo@@@std@@QEAAPEAUVkDeviceQueueCreateInfo@@_K@Z ; std::allocator<VkDeviceQueueCreateInfo>::allocate
PUBLIC	?max_size@?$_Default_allocator_traits@V?$allocator@UVkDeviceQueueCreateInfo@@@std@@@std@@SA_KAEBV?$allocator@UVkDeviceQueueCreateInfo@@@2@@Z ; std::_Default_allocator_traits<std::allocator<VkDeviceQueueCreateInfo> >::max_size
PUBLIC	??0?$vector@UVkDeviceQueueCreateInfo@@V?$allocator@UVkDeviceQueueCreateInfo@@@std@@@std@@QEAA@V?$initializer_list@UVkDeviceQueueCreateInfo@@@1@AEBV?$allocator@UVkDeviceQueueCreateInfo@@@1@@Z ; std::vector<VkDeviceQueueCreateInfo,std::allocator<VkDeviceQueueCreateInfo> >::vector<VkDeviceQueueCreateInfo,std::allocator<VkDeviceQueueCreateInfo> >
PUBLIC	??1?$vector@UVkDeviceQueueCreateInfo@@V?$allocator@UVkDeviceQueueCreateInfo@@@std@@@std@@QEAA@XZ ; std::vector<VkDeviceQueueCreateInfo,std::allocator<VkDeviceQueueCreateInfo> >::~vector<VkDeviceQueueCreateInfo,std::allocator<VkDeviceQueueCreateInfo> >
PUBLIC	?push_back@?$vector@UVkDeviceQueueCreateInfo@@V?$allocator@UVkDeviceQueueCreateInfo@@@std@@@std@@QEAAX$$QEAUVkDeviceQueueCreateInfo@@@Z ; std::vector<VkDeviceQueueCreateInfo,std::allocator<VkDeviceQueueCreateInfo> >::push_back
PUBLIC	?data@?$vector@UVkDeviceQueueCreateInfo@@V?$allocator@UVkDeviceQueueCreateInfo@@@std@@@std@@QEAAPEAUVkDeviceQueueCreateInfo@@XZ ; std::vector<VkDeviceQueueCreateInfo,std::allocator<VkDeviceQueueCreateInfo> >::data
PUBLIC	?max_size@?$vector@UVkDeviceQueueCreateInfo@@V?$allocator@UVkDeviceQueueCreateInfo@@@std@@@std@@QEBA_KXZ ; std::vector<VkDeviceQueueCreateInfo,std::allocator<VkDeviceQueueCreateInfo> >::max_size
PUBLIC	?capacity@?$vector@UVkDeviceQueueCreateInfo@@V?$allocator@UVkDeviceQueueCreateInfo@@@std@@@std@@QEBA_KXZ ; std::vector<VkDeviceQueueCreateInfo,std::allocator<VkDeviceQueueCreateInfo> >::capacity
PUBLIC	?_Umove@?$vector@UVkDeviceQueueCreateInfo@@V?$allocator@UVkDeviceQueueCreateInfo@@@std@@@std@@AEAAPEAUVkDeviceQueueCreateInfo@@PEAU3@00@Z ; std::vector<VkDeviceQueueCreateInfo,std::allocator<VkDeviceQueueCreateInfo> >::_Umove
PUBLIC	?_Umove_if_noexcept1@?$vector@UVkDeviceQueueCreateInfo@@V?$allocator@UVkDeviceQueueCreateInfo@@@std@@@std@@AEAAXPEAUVkDeviceQueueCreateInfo@@00U?$integral_constant@_N$00@2@@Z ; std::vector<VkDeviceQueueCreateInfo,std::allocator<VkDeviceQueueCreateInfo> >::_Umove_if_noexcept1
PUBLIC	?_Umove_if_noexcept@?$vector@UVkDeviceQueueCreateInfo@@V?$allocator@UVkDeviceQueueCreateInfo@@@std@@@std@@AEAAXPEAUVkDeviceQueueCreateInfo@@00@Z ; std::vector<VkDeviceQueueCreateInfo,std::allocator<VkDeviceQueueCreateInfo> >::_Umove_if_noexcept
PUBLIC	?_Destroy@?$vector@UVkDeviceQueueCreateInfo@@V?$allocator@UVkDeviceQueueCreateInfo@@@std@@@std@@AEAAXPEAUVkDeviceQueueCreateInfo@@0@Z ; std::vector<VkDeviceQueueCreateInfo,std::allocator<VkDeviceQueueCreateInfo> >::_Destroy
PUBLIC	?_Calculate_growth@?$vector@UVkDeviceQueueCreateInfo@@V?$allocator@UVkDeviceQueueCreateInfo@@@std@@@std@@AEBA_K_K@Z ; std::vector<VkDeviceQueueCreateInfo,std::allocator<VkDeviceQueueCreateInfo> >::_Calculate_growth
PUBLIC	?_Buy_raw@?$vector@UVkDeviceQueueCreateInfo@@V?$allocator@UVkDeviceQueueCreateInfo@@@std@@@std@@AEAAX_K@Z ; std::vector<VkDeviceQueueCreateInfo,std::allocator<VkDeviceQueueCreateInfo> >::_Buy_raw
PUBLIC	?_Buy_nonzero@?$vector@UVkDeviceQueueCreateInfo@@V?$allocator@UVkDeviceQueueCreateInfo@@@std@@@std@@AEAAX_K@Z ; std::vector<VkDeviceQueueCreateInfo,std::allocator<VkDeviceQueueCreateInfo> >::_Buy_nonzero
PUBLIC	?_Change_array@?$vector@UVkDeviceQueueCreateInfo@@V?$allocator@UVkDeviceQueueCreateInfo@@@std@@@std@@AEAAXQEAUVkDeviceQueueCreateInfo@@_K1@Z ; std::vector<VkDeviceQueueCreateInfo,std::allocator<VkDeviceQueueCreateInfo> >::_Change_array
PUBLIC	?_Tidy@?$vector@UVkDeviceQueueCreateInfo@@V?$allocator@UVkDeviceQueueCreateInfo@@@std@@@std@@AEAAXXZ ; std::vector<VkDeviceQueueCreateInfo,std::allocator<VkDeviceQueueCreateInfo> >::_Tidy
PUBLIC	?_Xlength@?$vector@UVkDeviceQueueCreateInfo@@V?$allocator@UVkDeviceQueueCreateInfo@@@std@@@std@@CAXXZ ; std::vector<VkDeviceQueueCreateInfo,std::allocator<VkDeviceQueueCreateInfo> >::_Xlength
PUBLIC	?_Orphan_range@?$vector@UVkDeviceQueueCreateInfo@@V?$allocator@UVkDeviceQueueCreateInfo@@@std@@@std@@AEBAXPEAUVkDeviceQueueCreateInfo@@0@Z ; std::vector<VkDeviceQueueCreateInfo,std::allocator<VkDeviceQueueCreateInfo> >::_Orphan_range
PUBLIC	?_Getal@?$vector@UVkDeviceQueueCreateInfo@@V?$allocator@UVkDeviceQueueCreateInfo@@@std@@@std@@AEAAAEAV?$allocator@UVkDeviceQueueCreateInfo@@@2@XZ ; std::vector<VkDeviceQueueCreateInfo,std::allocator<VkDeviceQueueCreateInfo> >::_Getal
PUBLIC	?_Getal@?$vector@UVkDeviceQueueCreateInfo@@V?$allocator@UVkDeviceQueueCreateInfo@@@std@@@std@@AEBAAEBV?$allocator@UVkDeviceQueueCreateInfo@@@2@XZ ; std::vector<VkDeviceQueueCreateInfo,std::allocator<VkDeviceQueueCreateInfo> >::_Getal
PUBLIC	??0?$_Vector_val@U?$_Simple_types@UVkDeviceQueueCreateInfo@@@std@@@std@@QEAA@XZ ; std::_Vector_val<std::_Simple_types<VkDeviceQueueCreateInfo> >::_Vector_val<std::_Simple_types<VkDeviceQueueCreateInfo> >
PUBLIC	?_Get_first@?$_Compressed_pair@V?$allocator@UVkDeviceQueueCreateInfo@@@std@@V?$_Vector_val@U?$_Simple_types@UVkDeviceQueueCreateInfo@@@std@@@2@$00@std@@QEAAAEAV?$allocator@UVkDeviceQueueCreateInfo@@@2@XZ ; std::_Compressed_pair<std::allocator<VkDeviceQueueCreateInfo>,std::_Vector_val<std::_Simple_types<VkDeviceQueueCreateInfo> >,1>::_Get_first
PUBLIC	?_Get_first@?$_Compressed_pair@V?$allocator@UVkDeviceQueueCreateInfo@@@std@@V?$_Vector_val@U?$_Simple_types@UVkDeviceQueueCreateInfo@@@std@@@2@$00@std@@QEBAAEBV?$allocator@UVkDeviceQueueCreateInfo@@@2@XZ ; std::_Compressed_pair<std::allocator<VkDeviceQueueCreateInfo>,std::_Vector_val<std::_Simple_types<VkDeviceQueueCreateInfo> >,1>::_Get_first
PUBLIC	??0?$initializer_list@UVkDeviceQueueCreateInfo@@@std@@QEAA@PEBUVkDeviceQueueCreateInfo@@0@Z ; std::initializer_list<VkDeviceQueueCreateInfo>::initializer_list<VkDeviceQueueCreateInfo>
PUBLIC	?begin@?$initializer_list@UVkDeviceQueueCreateInfo@@@std@@QEBAPEBUVkDeviceQueueCreateInfo@@XZ ; std::initializer_list<VkDeviceQueueCreateInfo>::begin
PUBLIC	?end@?$initializer_list@UVkDeviceQueueCreateInfo@@@std@@QEBAPEBUVkDeviceQueueCreateInfo@@XZ ; std::initializer_list<VkDeviceQueueCreateInfo>::end
PUBLIC	??0?$allocator@UVkSubmitInfo@@@std@@QEAA@XZ	; std::allocator<VkSubmitInfo>::allocator<VkSubmitInfo>
PUBLIC	?deallocate@?$allocator@UVkSubmitInfo@@@std@@QEAAXQEAUVkSubmitInfo@@_K@Z ; std::allocator<VkSubmitInfo>::deallocate
PUBLIC	?allocate@?$allocator@UVkSubmitInfo@@@std@@QEAAPEAUVkSubmitInfo@@_K@Z ; std::allocator<VkSubmitInfo>::allocate
PUBLIC	?max_size@?$_Default_allocator_traits@V?$allocator@UVkSubmitInfo@@@std@@@std@@SA_KAEBV?$allocator@UVkSubmitInfo@@@2@@Z ; std::_Default_allocator_traits<std::allocator<VkSubmitInfo> >::max_size
PUBLIC	??0?$vector@UVkSubmitInfo@@V?$allocator@UVkSubmitInfo@@@std@@@std@@QEAA@_KAEBV?$allocator@UVkSubmitInfo@@@1@@Z ; std::vector<VkSubmitInfo,std::allocator<VkSubmitInfo> >::vector<VkSubmitInfo,std::allocator<VkSubmitInfo> >
PUBLIC	??1?$vector@UVkSubmitInfo@@V?$allocator@UVkSubmitInfo@@@std@@@std@@QEAA@XZ ; std::vector<VkSubmitInfo,std::allocator<VkSubmitInfo> >::~vector<VkSubmitInfo,std::allocator<VkSubmitInfo> >
PUBLIC	?max_size@?$vector@UVkSubmitInfo@@V?$allocator@UVkSubmitInfo@@@std@@@std@@QEBA_KXZ ; std::vector<VkSubmitInfo,std::allocator<VkSubmitInfo> >::max_size
PUBLIC	??A?$vector@UVkSubmitInfo@@V?$allocator@UVkSubmitInfo@@@std@@@std@@QEAAAEAUVkSubmitInfo@@_K@Z ; std::vector<VkSubmitInfo,std::allocator<VkSubmitInfo> >::operator[]
PUBLIC	?_Ufill@?$vector@UVkSubmitInfo@@V?$allocator@UVkSubmitInfo@@@std@@@std@@AEAAPEAUVkSubmitInfo@@PEAU3@_KU_Value_init_tag@2@@Z ; std::vector<VkSubmitInfo,std::allocator<VkSubmitInfo> >::_Ufill
PUBLIC	?_Destroy@?$vector@UVkSubmitInfo@@V?$allocator@UVkSubmitInfo@@@std@@@std@@AEAAXPEAUVkSubmitInfo@@0@Z ; std::vector<VkSubmitInfo,std::allocator<VkSubmitInfo> >::_Destroy
PUBLIC	?_Buy_raw@?$vector@UVkSubmitInfo@@V?$allocator@UVkSubmitInfo@@@std@@@std@@AEAAX_K@Z ; std::vector<VkSubmitInfo,std::allocator<VkSubmitInfo> >::_Buy_raw
PUBLIC	?_Buy_nonzero@?$vector@UVkSubmitInfo@@V?$allocator@UVkSubmitInfo@@@std@@@std@@AEAAX_K@Z ; std::vector<VkSubmitInfo,std::allocator<VkSubmitInfo> >::_Buy_nonzero
PUBLIC	?_Tidy@?$vector@UVkSubmitInfo@@V?$allocator@UVkSubmitInfo@@@std@@@std@@AEAAXXZ ; std::vector<VkSubmitInfo,std::allocator<VkSubmitInfo> >::_Tidy
PUBLIC	?_Xlength@?$vector@UVkSubmitInfo@@V?$allocator@UVkSubmitInfo@@@std@@@std@@CAXXZ ; std::vector<VkSubmitInfo,std::allocator<VkSubmitInfo> >::_Xlength
PUBLIC	?_Getal@?$vector@UVkSubmitInfo@@V?$allocator@UVkSubmitInfo@@@std@@@std@@AEAAAEAV?$allocator@UVkSubmitInfo@@@2@XZ ; std::vector<VkSubmitInfo,std::allocator<VkSubmitInfo> >::_Getal
PUBLIC	?_Getal@?$vector@UVkSubmitInfo@@V?$allocator@UVkSubmitInfo@@@std@@@std@@AEBAAEBV?$allocator@UVkSubmitInfo@@@2@XZ ; std::vector<VkSubmitInfo,std::allocator<VkSubmitInfo> >::_Getal
PUBLIC	??0?$_Vector_val@U?$_Simple_types@UVkSubmitInfo@@@std@@@std@@QEAA@XZ ; std::_Vector_val<std::_Simple_types<VkSubmitInfo> >::_Vector_val<std::_Simple_types<VkSubmitInfo> >
PUBLIC	?_Get_first@?$_Compressed_pair@V?$allocator@UVkSubmitInfo@@@std@@V?$_Vector_val@U?$_Simple_types@UVkSubmitInfo@@@std@@@2@$00@std@@QEAAAEAV?$allocator@UVkSubmitInfo@@@2@XZ ; std::_Compressed_pair<std::allocator<VkSubmitInfo>,std::_Vector_val<std::_Simple_types<VkSubmitInfo> >,1>::_Get_first
PUBLIC	?_Get_first@?$_Compressed_pair@V?$allocator@UVkSubmitInfo@@@std@@V?$_Vector_val@U?$_Simple_types@UVkSubmitInfo@@@std@@@2@$00@std@@QEBAAEBV?$allocator@UVkSubmitInfo@@@2@XZ ; std::_Compressed_pair<std::allocator<VkSubmitInfo>,std::_Vector_val<std::_Simple_types<VkSubmitInfo> >,1>::_Get_first
PUBLIC	??0?$allocator@UVkPresentInfoKHR@@@std@@QEAA@XZ	; std::allocator<VkPresentInfoKHR>::allocator<VkPresentInfoKHR>
PUBLIC	?deallocate@?$allocator@UVkPresentInfoKHR@@@std@@QEAAXQEAUVkPresentInfoKHR@@_K@Z ; std::allocator<VkPresentInfoKHR>::deallocate
PUBLIC	?allocate@?$allocator@UVkPresentInfoKHR@@@std@@QEAAPEAUVkPresentInfoKHR@@_K@Z ; std::allocator<VkPresentInfoKHR>::allocate
PUBLIC	?max_size@?$_Default_allocator_traits@V?$allocator@UVkPresentInfoKHR@@@std@@@std@@SA_KAEBV?$allocator@UVkPresentInfoKHR@@@2@@Z ; std::_Default_allocator_traits<std::allocator<VkPresentInfoKHR> >::max_size
PUBLIC	??0?$vector@UVkPresentInfoKHR@@V?$allocator@UVkPresentInfoKHR@@@std@@@std@@QEAA@_KAEBV?$allocator@UVkPresentInfoKHR@@@1@@Z ; std::vector<VkPresentInfoKHR,std::allocator<VkPresentInfoKHR> >::vector<VkPresentInfoKHR,std::allocator<VkPresentInfoKHR> >
PUBLIC	??1?$vector@UVkPresentInfoKHR@@V?$allocator@UVkPresentInfoKHR@@@std@@@std@@QEAA@XZ ; std::vector<VkPresentInfoKHR,std::allocator<VkPresentInfoKHR> >::~vector<VkPresentInfoKHR,std::allocator<VkPresentInfoKHR> >
PUBLIC	?max_size@?$vector@UVkPresentInfoKHR@@V?$allocator@UVkPresentInfoKHR@@@std@@@std@@QEBA_KXZ ; std::vector<VkPresentInfoKHR,std::allocator<VkPresentInfoKHR> >::max_size
PUBLIC	??A?$vector@UVkPresentInfoKHR@@V?$allocator@UVkPresentInfoKHR@@@std@@@std@@QEAAAEAUVkPresentInfoKHR@@_K@Z ; std::vector<VkPresentInfoKHR,std::allocator<VkPresentInfoKHR> >::operator[]
PUBLIC	?_Ufill@?$vector@UVkPresentInfoKHR@@V?$allocator@UVkPresentInfoKHR@@@std@@@std@@AEAAPEAUVkPresentInfoKHR@@PEAU3@_KU_Value_init_tag@2@@Z ; std::vector<VkPresentInfoKHR,std::allocator<VkPresentInfoKHR> >::_Ufill
PUBLIC	?_Destroy@?$vector@UVkPresentInfoKHR@@V?$allocator@UVkPresentInfoKHR@@@std@@@std@@AEAAXPEAUVkPresentInfoKHR@@0@Z ; std::vector<VkPresentInfoKHR,std::allocator<VkPresentInfoKHR> >::_Destroy
PUBLIC	?_Buy_raw@?$vector@UVkPresentInfoKHR@@V?$allocator@UVkPresentInfoKHR@@@std@@@std@@AEAAX_K@Z ; std::vector<VkPresentInfoKHR,std::allocator<VkPresentInfoKHR> >::_Buy_raw
PUBLIC	?_Buy_nonzero@?$vector@UVkPresentInfoKHR@@V?$allocator@UVkPresentInfoKHR@@@std@@@std@@AEAAX_K@Z ; std::vector<VkPresentInfoKHR,std::allocator<VkPresentInfoKHR> >::_Buy_nonzero
PUBLIC	?_Tidy@?$vector@UVkPresentInfoKHR@@V?$allocator@UVkPresentInfoKHR@@@std@@@std@@AEAAXXZ ; std::vector<VkPresentInfoKHR,std::allocator<VkPresentInfoKHR> >::_Tidy
PUBLIC	?_Xlength@?$vector@UVkPresentInfoKHR@@V?$allocator@UVkPresentInfoKHR@@@std@@@std@@CAXXZ ; std::vector<VkPresentInfoKHR,std::allocator<VkPresentInfoKHR> >::_Xlength
PUBLIC	?_Getal@?$vector@UVkPresentInfoKHR@@V?$allocator@UVkPresentInfoKHR@@@std@@@std@@AEAAAEAV?$allocator@UVkPresentInfoKHR@@@2@XZ ; std::vector<VkPresentInfoKHR,std::allocator<VkPresentInfoKHR> >::_Getal
PUBLIC	?_Getal@?$vector@UVkPresentInfoKHR@@V?$allocator@UVkPresentInfoKHR@@@std@@@std@@AEBAAEBV?$allocator@UVkPresentInfoKHR@@@2@XZ ; std::vector<VkPresentInfoKHR,std::allocator<VkPresentInfoKHR> >::_Getal
PUBLIC	??0?$_Vector_val@U?$_Simple_types@UVkPresentInfoKHR@@@std@@@std@@QEAA@XZ ; std::_Vector_val<std::_Simple_types<VkPresentInfoKHR> >::_Vector_val<std::_Simple_types<VkPresentInfoKHR> >
PUBLIC	?_Get_first@?$_Compressed_pair@V?$allocator@UVkPresentInfoKHR@@@std@@V?$_Vector_val@U?$_Simple_types@UVkPresentInfoKHR@@@std@@@2@$00@std@@QEAAAEAV?$allocator@UVkPresentInfoKHR@@@2@XZ ; std::_Compressed_pair<std::allocator<VkPresentInfoKHR>,std::_Vector_val<std::_Simple_types<VkPresentInfoKHR> >,1>::_Get_first
PUBLIC	?_Get_first@?$_Compressed_pair@V?$allocator@UVkPresentInfoKHR@@@std@@V?$_Vector_val@U?$_Simple_types@UVkPresentInfoKHR@@@std@@@2@$00@std@@QEBAAEBV?$allocator@UVkPresentInfoKHR@@@2@XZ ; std::_Compressed_pair<std::allocator<VkPresentInfoKHR>,std::_Vector_val<std::_Simple_types<VkPresentInfoKHR> >,1>::_Get_first
PUBLIC	??0?$allocator@UVkRenderPassBeginInfo@@@std@@QEAA@XZ ; std::allocator<VkRenderPassBeginInfo>::allocator<VkRenderPassBeginInfo>
PUBLIC	?deallocate@?$allocator@UVkRenderPassBeginInfo@@@std@@QEAAXQEAUVkRenderPassBeginInfo@@_K@Z ; std::allocator<VkRenderPassBeginInfo>::deallocate
PUBLIC	?allocate@?$allocator@UVkRenderPassBeginInfo@@@std@@QEAAPEAUVkRenderPassBeginInfo@@_K@Z ; std::allocator<VkRenderPassBeginInfo>::allocate
PUBLIC	?max_size@?$_Default_allocator_traits@V?$allocator@UVkRenderPassBeginInfo@@@std@@@std@@SA_KAEBV?$allocator@UVkRenderPassBeginInfo@@@2@@Z ; std::_Default_allocator_traits<std::allocator<VkRenderPassBeginInfo> >::max_size
PUBLIC	??0?$vector@UVkRenderPassBeginInfo@@V?$allocator@UVkRenderPassBeginInfo@@@std@@@std@@QEAA@_KAEBV?$allocator@UVkRenderPassBeginInfo@@@1@@Z ; std::vector<VkRenderPassBeginInfo,std::allocator<VkRenderPassBeginInfo> >::vector<VkRenderPassBeginInfo,std::allocator<VkRenderPassBeginInfo> >
PUBLIC	??1?$vector@UVkRenderPassBeginInfo@@V?$allocator@UVkRenderPassBeginInfo@@@std@@@std@@QEAA@XZ ; std::vector<VkRenderPassBeginInfo,std::allocator<VkRenderPassBeginInfo> >::~vector<VkRenderPassBeginInfo,std::allocator<VkRenderPassBeginInfo> >
PUBLIC	?max_size@?$vector@UVkRenderPassBeginInfo@@V?$allocator@UVkRenderPassBeginInfo@@@std@@@std@@QEBA_KXZ ; std::vector<VkRenderPassBeginInfo,std::allocator<VkRenderPassBeginInfo> >::max_size
PUBLIC	??A?$vector@UVkRenderPassBeginInfo@@V?$allocator@UVkRenderPassBeginInfo@@@std@@@std@@QEAAAEAUVkRenderPassBeginInfo@@_K@Z ; std::vector<VkRenderPassBeginInfo,std::allocator<VkRenderPassBeginInfo> >::operator[]
PUBLIC	?_Ufill@?$vector@UVkRenderPassBeginInfo@@V?$allocator@UVkRenderPassBeginInfo@@@std@@@std@@AEAAPEAUVkRenderPassBeginInfo@@PEAU3@_KU_Value_init_tag@2@@Z ; std::vector<VkRenderPassBeginInfo,std::allocator<VkRenderPassBeginInfo> >::_Ufill
PUBLIC	?_Destroy@?$vector@UVkRenderPassBeginInfo@@V?$allocator@UVkRenderPassBeginInfo@@@std@@@std@@AEAAXPEAUVkRenderPassBeginInfo@@0@Z ; std::vector<VkRenderPassBeginInfo,std::allocator<VkRenderPassBeginInfo> >::_Destroy
PUBLIC	?_Buy_raw@?$vector@UVkRenderPassBeginInfo@@V?$allocator@UVkRenderPassBeginInfo@@@std@@@std@@AEAAX_K@Z ; std::vector<VkRenderPassBeginInfo,std::allocator<VkRenderPassBeginInfo> >::_Buy_raw
PUBLIC	?_Buy_nonzero@?$vector@UVkRenderPassBeginInfo@@V?$allocator@UVkRenderPassBeginInfo@@@std@@@std@@AEAAX_K@Z ; std::vector<VkRenderPassBeginInfo,std::allocator<VkRenderPassBeginInfo> >::_Buy_nonzero
PUBLIC	?_Tidy@?$vector@UVkRenderPassBeginInfo@@V?$allocator@UVkRenderPassBeginInfo@@@std@@@std@@AEAAXXZ ; std::vector<VkRenderPassBeginInfo,std::allocator<VkRenderPassBeginInfo> >::_Tidy
PUBLIC	?_Xlength@?$vector@UVkRenderPassBeginInfo@@V?$allocator@UVkRenderPassBeginInfo@@@std@@@std@@CAXXZ ; std::vector<VkRenderPassBeginInfo,std::allocator<VkRenderPassBeginInfo> >::_Xlength
PUBLIC	?_Getal@?$vector@UVkRenderPassBeginInfo@@V?$allocator@UVkRenderPassBeginInfo@@@std@@@std@@AEAAAEAV?$allocator@UVkRenderPassBeginInfo@@@2@XZ ; std::vector<VkRenderPassBeginInfo,std::allocator<VkRenderPassBeginInfo> >::_Getal
PUBLIC	?_Getal@?$vector@UVkRenderPassBeginInfo@@V?$allocator@UVkRenderPassBeginInfo@@@std@@@std@@AEBAAEBV?$allocator@UVkRenderPassBeginInfo@@@2@XZ ; std::vector<VkRenderPassBeginInfo,std::allocator<VkRenderPassBeginInfo> >::_Getal
PUBLIC	??0?$_Vector_val@U?$_Simple_types@UVkRenderPassBeginInfo@@@std@@@std@@QEAA@XZ ; std::_Vector_val<std::_Simple_types<VkRenderPassBeginInfo> >::_Vector_val<std::_Simple_types<VkRenderPassBeginInfo> >
PUBLIC	?_Get_first@?$_Compressed_pair@V?$allocator@UVkRenderPassBeginInfo@@@std@@V?$_Vector_val@U?$_Simple_types@UVkRenderPassBeginInfo@@@std@@@2@$00@std@@QEAAAEAV?$allocator@UVkRenderPassBeginInfo@@@2@XZ ; std::_Compressed_pair<std::allocator<VkRenderPassBeginInfo>,std::_Vector_val<std::_Simple_types<VkRenderPassBeginInfo> >,1>::_Get_first
PUBLIC	?_Get_first@?$_Compressed_pair@V?$allocator@UVkRenderPassBeginInfo@@@std@@V?$_Vector_val@U?$_Simple_types@UVkRenderPassBeginInfo@@@std@@@2@$00@std@@QEBAAEBV?$allocator@UVkRenderPassBeginInfo@@@2@XZ ; std::_Compressed_pair<std::allocator<VkRenderPassBeginInfo>,std::_Vector_val<std::_Simple_types<VkRenderPassBeginInfo> >,1>::_Get_first
PUBLIC	??0?$allocator@I@std@@QEAA@XZ			; std::allocator<unsigned int>::allocator<unsigned int>
PUBLIC	?deallocate@?$allocator@I@std@@QEAAXQEAI_K@Z	; std::allocator<unsigned int>::deallocate
PUBLIC	?allocate@?$allocator@I@std@@QEAAPEAI_K@Z	; std::allocator<unsigned int>::allocate
PUBLIC	?max_size@?$_Default_allocator_traits@V?$allocator@I@std@@@std@@SA_KAEBV?$allocator@I@2@@Z ; std::_Default_allocator_traits<std::allocator<unsigned int> >::max_size
PUBLIC	??0?$vector@IV?$allocator@I@std@@@std@@QEAA@_KAEBV?$allocator@I@1@@Z ; std::vector<unsigned int,std::allocator<unsigned int> >::vector<unsigned int,std::allocator<unsigned int> >
PUBLIC	??1?$vector@IV?$allocator@I@std@@@std@@QEAA@XZ	; std::vector<unsigned int,std::allocator<unsigned int> >::~vector<unsigned int,std::allocator<unsigned int> >
PUBLIC	?max_size@?$vector@IV?$allocator@I@std@@@std@@QEBA_KXZ ; std::vector<unsigned int,std::allocator<unsigned int> >::max_size
PUBLIC	??A?$vector@IV?$allocator@I@std@@@std@@QEAAAEAI_K@Z ; std::vector<unsigned int,std::allocator<unsigned int> >::operator[]
PUBLIC	?_Ufill@?$vector@IV?$allocator@I@std@@@std@@AEAAPEAIPEAI_KU_Value_init_tag@2@@Z ; std::vector<unsigned int,std::allocator<unsigned int> >::_Ufill
PUBLIC	?_Destroy@?$vector@IV?$allocator@I@std@@@std@@AEAAXPEAI0@Z ; std::vector<unsigned int,std::allocator<unsigned int> >::_Destroy
PUBLIC	?_Buy_raw@?$vector@IV?$allocator@I@std@@@std@@AEAAX_K@Z ; std::vector<unsigned int,std::allocator<unsigned int> >::_Buy_raw
PUBLIC	?_Buy_nonzero@?$vector@IV?$allocator@I@std@@@std@@AEAAX_K@Z ; std::vector<unsigned int,std::allocator<unsigned int> >::_Buy_nonzero
PUBLIC	?_Tidy@?$vector@IV?$allocator@I@std@@@std@@AEAAXXZ ; std::vector<unsigned int,std::allocator<unsigned int> >::_Tidy
PUBLIC	?_Xlength@?$vector@IV?$allocator@I@std@@@std@@CAXXZ ; std::vector<unsigned int,std::allocator<unsigned int> >::_Xlength
PUBLIC	?_Getal@?$vector@IV?$allocator@I@std@@@std@@AEAAAEAV?$allocator@I@2@XZ ; std::vector<unsigned int,std::allocator<unsigned int> >::_Getal
PUBLIC	?_Getal@?$vector@IV?$allocator@I@std@@@std@@AEBAAEBV?$allocator@I@2@XZ ; std::vector<unsigned int,std::allocator<unsigned int> >::_Getal
PUBLIC	??0?$_Vector_val@U?$_Simple_types@I@std@@@std@@QEAA@XZ ; std::_Vector_val<std::_Simple_types<unsigned int> >::_Vector_val<std::_Simple_types<unsigned int> >
PUBLIC	?_Get_first@?$_Compressed_pair@V?$allocator@I@std@@V?$_Vector_val@U?$_Simple_types@I@std@@@2@$00@std@@QEAAAEAV?$allocator@I@2@XZ ; std::_Compressed_pair<std::allocator<unsigned int>,std::_Vector_val<std::_Simple_types<unsigned int> >,1>::_Get_first
PUBLIC	?_Get_first@?$_Compressed_pair@V?$allocator@I@std@@V?$_Vector_val@U?$_Simple_types@I@std@@@2@$00@std@@QEBAAEBV?$allocator@I@2@XZ ; std::_Compressed_pair<std::allocator<unsigned int>,std::_Vector_val<std::_Simple_types<unsigned int> >,1>::_Get_first
PUBLIC	??$?0A6AXXZ$$VX@thread@std@@QEAA@A6AXXZ@Z	; std::thread::thread<void (__cdecl&)(void),void>
PUBLIC	??$?6U?$char_traits@D@std@@@std@@YAAEAV?$basic_ostream@DU?$char_traits@D@std@@@0@AEAV10@PEBD@Z ; std::operator<<<std::char_traits<char> >
PUBLIC	??$endl@DU?$char_traits@D@std@@@std@@YAAEAV?$basic_ostream@DU?$char_traits@D@std@@@0@AEAV10@@Z ; std::endl<char,std::char_traits<char> >
PUBLIC	??$?0AEBV?$allocator@I@std@@$$V@?$_Compressed_pair@V?$allocator@I@std@@V?$_Vector_val@U?$_Simple_types@I@std@@@2@$00@std@@QEAA@U_One_then_variadic_args_t@1@AEBV?$allocator@I@1@@Z ; std::_Compressed_pair<std::allocator<unsigned int>,std::_Vector_val<std::_Simple_types<unsigned int> >,1>::_Compressed_pair<std::allocator<unsigned int>,std::_Vector_val<std::_Simple_types<unsigned int> >,1><std::allocator<unsigned int> const &>
PUBLIC	??$_Construct_n_copies_of_ty@U_Value_init_tag@std@@@?$vector@IV?$allocator@I@std@@@std@@AEAAX_KAEBU_Value_init_tag@1@@Z ; std::vector<unsigned int,std::allocator<unsigned int> >::_Construct_n_copies_of_ty<std::_Value_init_tag>
PUBLIC	??$?0AEBV?$allocator@UVkRenderPassBeginInfo@@@std@@$$V@?$_Compressed_pair@V?$allocator@UVkRenderPassBeginInfo@@@std@@V?$_Vector_val@U?$_Simple_types@UVkRenderPassBeginInfo@@@std@@@2@$00@std@@QEAA@U_One_then_variadic_args_t@1@AEBV?$allocator@UVkRenderPassBeginInfo@@@1@@Z ; std::_Compressed_pair<std::allocator<VkRenderPassBeginInfo>,std::_Vector_val<std::_Simple_types<VkRenderPassBeginInfo> >,1>::_Compressed_pair<std::allocator<VkRenderPassBeginInfo>,std::_Vector_val<std::_Simple_types<VkRenderPassBeginInfo> >,1><std::allocator<VkRenderPassBeginInfo> const &>
PUBLIC	??$_Construct_n_copies_of_ty@U_Value_init_tag@std@@@?$vector@UVkRenderPassBeginInfo@@V?$allocator@UVkRenderPassBeginInfo@@@std@@@std@@AEAAX_KAEBU_Value_init_tag@1@@Z ; std::vector<VkRenderPassBeginInfo,std::allocator<VkRenderPassBeginInfo> >::_Construct_n_copies_of_ty<std::_Value_init_tag>
PUBLIC	??$?0AEBV?$allocator@UVkPresentInfoKHR@@@std@@$$V@?$_Compressed_pair@V?$allocator@UVkPresentInfoKHR@@@std@@V?$_Vector_val@U?$_Simple_types@UVkPresentInfoKHR@@@std@@@2@$00@std@@QEAA@U_One_then_variadic_args_t@1@AEBV?$allocator@UVkPresentInfoKHR@@@1@@Z ; std::_Compressed_pair<std::allocator<VkPresentInfoKHR>,std::_Vector_val<std::_Simple_types<VkPresentInfoKHR> >,1>::_Compressed_pair<std::allocator<VkPresentInfoKHR>,std::_Vector_val<std::_Simple_types<VkPresentInfoKHR> >,1><std::allocator<VkPresentInfoKHR> const &>
PUBLIC	??$_Construct_n_copies_of_ty@U_Value_init_tag@std@@@?$vector@UVkPresentInfoKHR@@V?$allocator@UVkPresentInfoKHR@@@std@@@std@@AEAAX_KAEBU_Value_init_tag@1@@Z ; std::vector<VkPresentInfoKHR,std::allocator<VkPresentInfoKHR> >::_Construct_n_copies_of_ty<std::_Value_init_tag>
PUBLIC	??$?0AEBV?$allocator@UVkSubmitInfo@@@std@@$$V@?$_Compressed_pair@V?$allocator@UVkSubmitInfo@@@std@@V?$_Vector_val@U?$_Simple_types@UVkSubmitInfo@@@std@@@2@$00@std@@QEAA@U_One_then_variadic_args_t@1@AEBV?$allocator@UVkSubmitInfo@@@1@@Z ; std::_Compressed_pair<std::allocator<VkSubmitInfo>,std::_Vector_val<std::_Simple_types<VkSubmitInfo> >,1>::_Compressed_pair<std::allocator<VkSubmitInfo>,std::_Vector_val<std::_Simple_types<VkSubmitInfo> >,1><std::allocator<VkSubmitInfo> const &>
PUBLIC	??$_Construct_n_copies_of_ty@U_Value_init_tag@std@@@?$vector@UVkSubmitInfo@@V?$allocator@UVkSubmitInfo@@@std@@@std@@AEAAX_KAEBU_Value_init_tag@1@@Z ; std::vector<VkSubmitInfo,std::allocator<VkSubmitInfo> >::_Construct_n_copies_of_ty<std::_Value_init_tag>
PUBLIC	??$_Unfancy_maybe_null@UVkDeviceQueueCreateInfo@@@std@@YAPEAUVkDeviceQueueCreateInfo@@PEAU1@@Z ; std::_Unfancy_maybe_null<VkDeviceQueueCreateInfo>
PUBLIC	??$move@AEAUVkDeviceQueueCreateInfo@@@std@@YA$$QEAUVkDeviceQueueCreateInfo@@AEAU1@@Z ; std::move<VkDeviceQueueCreateInfo &>
PUBLIC	??$emplace_back@UVkDeviceQueueCreateInfo@@@?$vector@UVkDeviceQueueCreateInfo@@V?$allocator@UVkDeviceQueueCreateInfo@@@std@@@std@@QEAAX$$QEAUVkDeviceQueueCreateInfo@@@Z ; std::vector<VkDeviceQueueCreateInfo,std::allocator<VkDeviceQueueCreateInfo> >::emplace_back<VkDeviceQueueCreateInfo>
PUBLIC	??$forward@UVkDeviceQueueCreateInfo@@@std@@YA$$QEAUVkDeviceQueueCreateInfo@@AEAU1@@Z ; std::forward<VkDeviceQueueCreateInfo>
PUBLIC	??$_Emplace_back_with_unused_capacity@UVkDeviceQueueCreateInfo@@@?$vector@UVkDeviceQueueCreateInfo@@V?$allocator@UVkDeviceQueueCreateInfo@@@std@@@std@@AEAAX$$QEAUVkDeviceQueueCreateInfo@@@Z ; std::vector<VkDeviceQueueCreateInfo,std::allocator<VkDeviceQueueCreateInfo> >::_Emplace_back_with_unused_capacity<VkDeviceQueueCreateInfo>
PUBLIC	??$_Unfancy@UVkDeviceQueueCreateInfo@@@std@@YAPEAUVkDeviceQueueCreateInfo@@PEAU1@@Z ; std::_Unfancy<VkDeviceQueueCreateInfo>
PUBLIC	??$construct@UVkDeviceQueueCreateInfo@@U1@@?$_Default_allocator_traits@V?$allocator@UVkDeviceQueueCreateInfo@@@std@@@std@@SAXAEAV?$allocator@UVkDeviceQueueCreateInfo@@@1@QEAUVkDeviceQueueCreateInfo@@$$QEAU3@@Z ; std::_Default_allocator_traits<std::allocator<VkDeviceQueueCreateInfo> >::construct<VkDeviceQueueCreateInfo,VkDeviceQueueCreateInfo>
PUBLIC	??$_Emplace_reallocate@UVkDeviceQueueCreateInfo@@@?$vector@UVkDeviceQueueCreateInfo@@V?$allocator@UVkDeviceQueueCreateInfo@@@std@@@std@@QEAAPEAUVkDeviceQueueCreateInfo@@QEAU2@$$QEAU2@@Z ; std::vector<VkDeviceQueueCreateInfo,std::allocator<VkDeviceQueueCreateInfo> >::_Emplace_reallocate<VkDeviceQueueCreateInfo>
PUBLIC	??$?0AEBV?$allocator@UVkDeviceQueueCreateInfo@@@std@@$$V@?$_Compressed_pair@V?$allocator@UVkDeviceQueueCreateInfo@@@std@@V?$_Vector_val@U?$_Simple_types@UVkDeviceQueueCreateInfo@@@std@@@2@$00@std@@QEAA@U_One_then_variadic_args_t@1@AEBV?$allocator@UVkDeviceQueueCreateInfo@@@1@@Z ; std::_Compressed_pair<std::allocator<VkDeviceQueueCreateInfo>,std::_Vector_val<std::_Simple_types<VkDeviceQueueCreateInfo> >,1>::_Compressed_pair<std::allocator<VkDeviceQueueCreateInfo>,std::_Vector_val<std::_Simple_types<VkDeviceQueueCreateInfo> >,1><std::allocator<VkDeviceQueueCreateInfo> const &>
PUBLIC	??$_Range_construct_or_tidy@PEBUVkDeviceQueueCreateInfo@@@?$vector@UVkDeviceQueueCreateInfo@@V?$allocator@UVkDeviceQueueCreateInfo@@@std@@@std@@AEAAXPEBUVkDeviceQueueCreateInfo@@0Uforward_iterator_tag@1@@Z ; std::vector<VkDeviceQueueCreateInfo,std::allocator<VkDeviceQueueCreateInfo> >::_Range_construct_or_tidy<VkDeviceQueueCreateInfo const *>
PUBLIC	??$?0$$V@?$_Compressed_pair@V?$allocator@PEAUTransition@XGK@@@std@@V?$_Vector_val@U?$_Simple_types@PEAUTransition@XGK@@@std@@@2@$00@std@@QEAA@U_Zero_then_variadic_args_t@1@@Z ; std::_Compressed_pair<std::allocator<XGK::Transition *>,std::_Vector_val<std::_Simple_types<XGK::Transition *> >,1>::_Compressed_pair<std::allocator<XGK::Transition *>,std::_Vector_val<std::_Simple_types<XGK::Transition *> >,1><>
PUBLIC	??$_Unfancy_maybe_null@PEAUVkCommandBuffer_T@@@std@@YAPEAPEAUVkCommandBuffer_T@@PEAPEAU1@@Z ; std::_Unfancy_maybe_null<VkCommandBuffer_T *>
PUBLIC	??$move@AEAV?$allocator@PEAUVkCommandBuffer_T@@@std@@@std@@YA$$QEAV?$allocator@PEAUVkCommandBuffer_T@@@0@AEAV10@@Z ; std::move<std::allocator<VkCommandBuffer_T *> &>
PUBLIC	??$?0V?$allocator@PEAUVkCommandBuffer_T@@@std@@$$V@?$_Compressed_pair@V?$allocator@PEAUVkCommandBuffer_T@@@std@@V?$_Vector_val@U?$_Simple_types@PEAUVkCommandBuffer_T@@@std@@@2@$00@std@@QEAA@U_One_then_variadic_args_t@1@$$QEAV?$allocator@PEAUVkCommandBuffer_T@@@1@@Z ; std::_Compressed_pair<std::allocator<VkCommandBuffer_T *>,std::_Vector_val<std::_Simple_types<VkCommandBuffer_T *> >,1>::_Compressed_pair<std::allocator<VkCommandBuffer_T *>,std::_Vector_val<std::_Simple_types<VkCommandBuffer_T *> >,1><std::allocator<VkCommandBuffer_T *> >
PUBLIC	??$?0AEBV?$allocator@PEAUVkCommandBuffer_T@@@std@@$$V@?$_Compressed_pair@V?$allocator@PEAUVkCommandBuffer_T@@@std@@V?$_Vector_val@U?$_Simple_types@PEAUVkCommandBuffer_T@@@std@@@2@$00@std@@QEAA@U_One_then_variadic_args_t@1@AEBV?$allocator@PEAUVkCommandBuffer_T@@@1@@Z ; std::_Compressed_pair<std::allocator<VkCommandBuffer_T *>,std::_Vector_val<std::_Simple_types<VkCommandBuffer_T *> >,1>::_Compressed_pair<std::allocator<VkCommandBuffer_T *>,std::_Vector_val<std::_Simple_types<VkCommandBuffer_T *> >,1><std::allocator<VkCommandBuffer_T *> const &>
PUBLIC	??$_Construct_n_copies_of_ty@U_Value_init_tag@std@@@?$vector@PEAUVkCommandBuffer_T@@V?$allocator@PEAUVkCommandBuffer_T@@@std@@@std@@AEAAX_KAEBU_Value_init_tag@1@@Z ; std::vector<VkCommandBuffer_T *,std::allocator<VkCommandBuffer_T *> >::_Construct_n_copies_of_ty<std::_Value_init_tag>
PUBLIC	??$_Unfancy_maybe_null@PEAUVkDescriptorSet_T@@@std@@YAPEAPEAUVkDescriptorSet_T@@PEAPEAU1@@Z ; std::_Unfancy_maybe_null<VkDescriptorSet_T *>
PUBLIC	??$move@AEAV?$allocator@PEAUVkDescriptorSet_T@@@std@@@std@@YA$$QEAV?$allocator@PEAUVkDescriptorSet_T@@@0@AEAV10@@Z ; std::move<std::allocator<VkDescriptorSet_T *> &>
PUBLIC	??$?0V?$allocator@PEAUVkDescriptorSet_T@@@std@@$$V@?$_Compressed_pair@V?$allocator@PEAUVkDescriptorSet_T@@@std@@V?$_Vector_val@U?$_Simple_types@PEAUVkDescriptorSet_T@@@std@@@2@$00@std@@QEAA@U_One_then_variadic_args_t@1@$$QEAV?$allocator@PEAUVkDescriptorSet_T@@@1@@Z ; std::_Compressed_pair<std::allocator<VkDescriptorSet_T *>,std::_Vector_val<std::_Simple_types<VkDescriptorSet_T *> >,1>::_Compressed_pair<std::allocator<VkDescriptorSet_T *>,std::_Vector_val<std::_Simple_types<VkDescriptorSet_T *> >,1><std::allocator<VkDescriptorSet_T *> >
PUBLIC	??$?0AEBV?$allocator@PEAUVkDescriptorSet_T@@@std@@$$V@?$_Compressed_pair@V?$allocator@PEAUVkDescriptorSet_T@@@std@@V?$_Vector_val@U?$_Simple_types@PEAUVkDescriptorSet_T@@@std@@@2@$00@std@@QEAA@U_One_then_variadic_args_t@1@AEBV?$allocator@PEAUVkDescriptorSet_T@@@1@@Z ; std::_Compressed_pair<std::allocator<VkDescriptorSet_T *>,std::_Vector_val<std::_Simple_types<VkDescriptorSet_T *> >,1>::_Compressed_pair<std::allocator<VkDescriptorSet_T *>,std::_Vector_val<std::_Simple_types<VkDescriptorSet_T *> >,1><std::allocator<VkDescriptorSet_T *> const &>
PUBLIC	??$_Construct_n_copies_of_ty@U_Value_init_tag@std@@@?$vector@PEAUVkDescriptorSet_T@@V?$allocator@PEAUVkDescriptorSet_T@@@std@@@std@@AEAAX_KAEBU_Value_init_tag@1@@Z ; std::vector<VkDescriptorSet_T *,std::allocator<VkDescriptorSet_T *> >::_Construct_n_copies_of_ty<std::_Value_init_tag>
PUBLIC	??$emplace_back@AEBQEAUVkCommandPool_T@@@?$vector@PEAUVkCommandPool_T@@V?$allocator@PEAUVkCommandPool_T@@@std@@@std@@QEAAXAEBQEAUVkCommandPool_T@@@Z ; std::vector<VkCommandPool_T *,std::allocator<VkCommandPool_T *> >::emplace_back<VkCommandPool_T * const &>
PUBLIC	??$forward@AEBQEAUVkCommandPool_T@@@std@@YAAEBQEAUVkCommandPool_T@@AEBQEAU1@@Z ; std::forward<VkCommandPool_T * const &>
PUBLIC	??$_Emplace_back_with_unused_capacity@AEBQEAUVkCommandPool_T@@@?$vector@PEAUVkCommandPool_T@@V?$allocator@PEAUVkCommandPool_T@@@std@@@std@@AEAAXAEBQEAUVkCommandPool_T@@@Z ; std::vector<VkCommandPool_T *,std::allocator<VkCommandPool_T *> >::_Emplace_back_with_unused_capacity<VkCommandPool_T * const &>
PUBLIC	??$_Unfancy@PEAUVkCommandPool_T@@@std@@YAPEAPEAUVkCommandPool_T@@PEAPEAU1@@Z ; std::_Unfancy<VkCommandPool_T *>
PUBLIC	??$construct@PEAUVkCommandPool_T@@AEBQEAU1@@?$_Default_allocator_traits@V?$allocator@PEAUVkCommandPool_T@@@std@@@std@@SAXAEAV?$allocator@PEAUVkCommandPool_T@@@1@QEAPEAUVkCommandPool_T@@AEBQEAU3@@Z ; std::_Default_allocator_traits<std::allocator<VkCommandPool_T *> >::construct<VkCommandPool_T *,VkCommandPool_T * const &>
PUBLIC	??$_Emplace_reallocate@AEBQEAUVkCommandPool_T@@@?$vector@PEAUVkCommandPool_T@@V?$allocator@PEAUVkCommandPool_T@@@std@@@std@@QEAAPEAPEAUVkCommandPool_T@@QEAPEAU2@AEBQEAU2@@Z ; std::vector<VkCommandPool_T *,std::allocator<VkCommandPool_T *> >::_Emplace_reallocate<VkCommandPool_T * const &>
PUBLIC	??$?0$$V@?$_Compressed_pair@V?$allocator@PEAUVkCommandPool_T@@@std@@V?$_Vector_val@U?$_Simple_types@PEAUVkCommandPool_T@@@std@@@2@$00@std@@QEAA@U_Zero_then_variadic_args_t@1@@Z ; std::_Compressed_pair<std::allocator<VkCommandPool_T *>,std::_Vector_val<std::_Simple_types<VkCommandPool_T *> >,1>::_Compressed_pair<std::allocator<VkCommandPool_T *>,std::_Vector_val<std::_Simple_types<VkCommandPool_T *> >,1><>
PUBLIC	??$emplace_back@AEBQEAUVkPipeline_T@@@?$vector@PEAUVkPipeline_T@@V?$allocator@PEAUVkPipeline_T@@@std@@@std@@QEAAXAEBQEAUVkPipeline_T@@@Z ; std::vector<VkPipeline_T *,std::allocator<VkPipeline_T *> >::emplace_back<VkPipeline_T * const &>
PUBLIC	??$forward@AEBQEAUVkPipeline_T@@@std@@YAAEBQEAUVkPipeline_T@@AEBQEAU1@@Z ; std::forward<VkPipeline_T * const &>
PUBLIC	??$_Emplace_back_with_unused_capacity@AEBQEAUVkPipeline_T@@@?$vector@PEAUVkPipeline_T@@V?$allocator@PEAUVkPipeline_T@@@std@@@std@@AEAAXAEBQEAUVkPipeline_T@@@Z ; std::vector<VkPipeline_T *,std::allocator<VkPipeline_T *> >::_Emplace_back_with_unused_capacity<VkPipeline_T * const &>
PUBLIC	??$_Unfancy@PEAUVkPipeline_T@@@std@@YAPEAPEAUVkPipeline_T@@PEAPEAU1@@Z ; std::_Unfancy<VkPipeline_T *>
PUBLIC	??$construct@PEAUVkPipeline_T@@AEBQEAU1@@?$_Default_allocator_traits@V?$allocator@PEAUVkPipeline_T@@@std@@@std@@SAXAEAV?$allocator@PEAUVkPipeline_T@@@1@QEAPEAUVkPipeline_T@@AEBQEAU3@@Z ; std::_Default_allocator_traits<std::allocator<VkPipeline_T *> >::construct<VkPipeline_T *,VkPipeline_T * const &>
PUBLIC	??$_Emplace_reallocate@AEBQEAUVkPipeline_T@@@?$vector@PEAUVkPipeline_T@@V?$allocator@PEAUVkPipeline_T@@@std@@@std@@QEAAPEAPEAUVkPipeline_T@@QEAPEAU2@AEBQEAU2@@Z ; std::vector<VkPipeline_T *,std::allocator<VkPipeline_T *> >::_Emplace_reallocate<VkPipeline_T * const &>
PUBLIC	??$?0$$V@?$_Compressed_pair@V?$allocator@PEAUVkPipeline_T@@@std@@V?$_Vector_val@U?$_Simple_types@PEAUVkPipeline_T@@@std@@@2@$00@std@@QEAA@U_Zero_then_variadic_args_t@1@@Z ; std::_Compressed_pair<std::allocator<VkPipeline_T *>,std::_Vector_val<std::_Simple_types<VkPipeline_T *> >,1>::_Compressed_pair<std::allocator<VkPipeline_T *>,std::_Vector_val<std::_Simple_types<VkPipeline_T *> >,1><>
PUBLIC	??$emplace_back@AEBQEAUVkShaderModule_T@@@?$vector@PEAUVkShaderModule_T@@V?$allocator@PEAUVkShaderModule_T@@@std@@@std@@QEAAXAEBQEAUVkShaderModule_T@@@Z ; std::vector<VkShaderModule_T *,std::allocator<VkShaderModule_T *> >::emplace_back<VkShaderModule_T * const &>
PUBLIC	??$forward@AEBQEAUVkShaderModule_T@@@std@@YAAEBQEAUVkShaderModule_T@@AEBQEAU1@@Z ; std::forward<VkShaderModule_T * const &>
PUBLIC	??$_Emplace_back_with_unused_capacity@AEBQEAUVkShaderModule_T@@@?$vector@PEAUVkShaderModule_T@@V?$allocator@PEAUVkShaderModule_T@@@std@@@std@@AEAAXAEBQEAUVkShaderModule_T@@@Z ; std::vector<VkShaderModule_T *,std::allocator<VkShaderModule_T *> >::_Emplace_back_with_unused_capacity<VkShaderModule_T * const &>
PUBLIC	??$_Unfancy@PEAUVkShaderModule_T@@@std@@YAPEAPEAUVkShaderModule_T@@PEAPEAU1@@Z ; std::_Unfancy<VkShaderModule_T *>
PUBLIC	??$construct@PEAUVkShaderModule_T@@AEBQEAU1@@?$_Default_allocator_traits@V?$allocator@PEAUVkShaderModule_T@@@std@@@std@@SAXAEAV?$allocator@PEAUVkShaderModule_T@@@1@QEAPEAUVkShaderModule_T@@AEBQEAU3@@Z ; std::_Default_allocator_traits<std::allocator<VkShaderModule_T *> >::construct<VkShaderModule_T *,VkShaderModule_T * const &>
PUBLIC	??$_Emplace_reallocate@AEBQEAUVkShaderModule_T@@@?$vector@PEAUVkShaderModule_T@@V?$allocator@PEAUVkShaderModule_T@@@std@@@std@@QEAAPEAPEAUVkShaderModule_T@@QEAPEAU2@AEBQEAU2@@Z ; std::vector<VkShaderModule_T *,std::allocator<VkShaderModule_T *> >::_Emplace_reallocate<VkShaderModule_T * const &>
PUBLIC	??$?0$$V@?$_Compressed_pair@V?$allocator@PEAUVkShaderModule_T@@@std@@V?$_Vector_val@U?$_Simple_types@PEAUVkShaderModule_T@@@std@@@2@$00@std@@QEAA@U_Zero_then_variadic_args_t@1@@Z ; std::_Compressed_pair<std::allocator<VkShaderModule_T *>,std::_Vector_val<std::_Simple_types<VkShaderModule_T *> >,1>::_Compressed_pair<std::allocator<VkShaderModule_T *>,std::_Vector_val<std::_Simple_types<VkShaderModule_T *> >,1><>
PUBLIC	??$emplace_back@AEBQEAUVkDescriptorPool_T@@@?$vector@PEAUVkDescriptorPool_T@@V?$allocator@PEAUVkDescriptorPool_T@@@std@@@std@@QEAAXAEBQEAUVkDescriptorPool_T@@@Z ; std::vector<VkDescriptorPool_T *,std::allocator<VkDescriptorPool_T *> >::emplace_back<VkDescriptorPool_T * const &>
PUBLIC	??$forward@AEBQEAUVkDescriptorPool_T@@@std@@YAAEBQEAUVkDescriptorPool_T@@AEBQEAU1@@Z ; std::forward<VkDescriptorPool_T * const &>
PUBLIC	??$_Emplace_back_with_unused_capacity@AEBQEAUVkDescriptorPool_T@@@?$vector@PEAUVkDescriptorPool_T@@V?$allocator@PEAUVkDescriptorPool_T@@@std@@@std@@AEAAXAEBQEAUVkDescriptorPool_T@@@Z ; std::vector<VkDescriptorPool_T *,std::allocator<VkDescriptorPool_T *> >::_Emplace_back_with_unused_capacity<VkDescriptorPool_T * const &>
PUBLIC	??$_Unfancy@PEAUVkDescriptorPool_T@@@std@@YAPEAPEAUVkDescriptorPool_T@@PEAPEAU1@@Z ; std::_Unfancy<VkDescriptorPool_T *>
PUBLIC	??$construct@PEAUVkDescriptorPool_T@@AEBQEAU1@@?$_Default_allocator_traits@V?$allocator@PEAUVkDescriptorPool_T@@@std@@@std@@SAXAEAV?$allocator@PEAUVkDescriptorPool_T@@@1@QEAPEAUVkDescriptorPool_T@@AEBQEAU3@@Z ; std::_Default_allocator_traits<std::allocator<VkDescriptorPool_T *> >::construct<VkDescriptorPool_T *,VkDescriptorPool_T * const &>
PUBLIC	??$_Emplace_reallocate@AEBQEAUVkDescriptorPool_T@@@?$vector@PEAUVkDescriptorPool_T@@V?$allocator@PEAUVkDescriptorPool_T@@@std@@@std@@QEAAPEAPEAUVkDescriptorPool_T@@QEAPEAU2@AEBQEAU2@@Z ; std::vector<VkDescriptorPool_T *,std::allocator<VkDescriptorPool_T *> >::_Emplace_reallocate<VkDescriptorPool_T * const &>
PUBLIC	??$?0$$V@?$_Compressed_pair@V?$allocator@PEAUVkDescriptorPool_T@@@std@@V?$_Vector_val@U?$_Simple_types@PEAUVkDescriptorPool_T@@@std@@@2@$00@std@@QEAA@U_Zero_then_variadic_args_t@1@@Z ; std::_Compressed_pair<std::allocator<VkDescriptorPool_T *>,std::_Vector_val<std::_Simple_types<VkDescriptorPool_T *> >,1>::_Compressed_pair<std::allocator<VkDescriptorPool_T *>,std::_Vector_val<std::_Simple_types<VkDescriptorPool_T *> >,1><>
PUBLIC	??$emplace_back@AEBQEAUVkPipelineLayout_T@@@?$vector@PEAUVkPipelineLayout_T@@V?$allocator@PEAUVkPipelineLayout_T@@@std@@@std@@QEAAXAEBQEAUVkPipelineLayout_T@@@Z ; std::vector<VkPipelineLayout_T *,std::allocator<VkPipelineLayout_T *> >::emplace_back<VkPipelineLayout_T * const &>
PUBLIC	??$forward@AEBQEAUVkPipelineLayout_T@@@std@@YAAEBQEAUVkPipelineLayout_T@@AEBQEAU1@@Z ; std::forward<VkPipelineLayout_T * const &>
PUBLIC	??$_Emplace_back_with_unused_capacity@AEBQEAUVkPipelineLayout_T@@@?$vector@PEAUVkPipelineLayout_T@@V?$allocator@PEAUVkPipelineLayout_T@@@std@@@std@@AEAAXAEBQEAUVkPipelineLayout_T@@@Z ; std::vector<VkPipelineLayout_T *,std::allocator<VkPipelineLayout_T *> >::_Emplace_back_with_unused_capacity<VkPipelineLayout_T * const &>
PUBLIC	??$_Unfancy@PEAUVkPipelineLayout_T@@@std@@YAPEAPEAUVkPipelineLayout_T@@PEAPEAU1@@Z ; std::_Unfancy<VkPipelineLayout_T *>
PUBLIC	??$construct@PEAUVkPipelineLayout_T@@AEBQEAU1@@?$_Default_allocator_traits@V?$allocator@PEAUVkPipelineLayout_T@@@std@@@std@@SAXAEAV?$allocator@PEAUVkPipelineLayout_T@@@1@QEAPEAUVkPipelineLayout_T@@AEBQEAU3@@Z ; std::_Default_allocator_traits<std::allocator<VkPipelineLayout_T *> >::construct<VkPipelineLayout_T *,VkPipelineLayout_T * const &>
PUBLIC	??$_Emplace_reallocate@AEBQEAUVkPipelineLayout_T@@@?$vector@PEAUVkPipelineLayout_T@@V?$allocator@PEAUVkPipelineLayout_T@@@std@@@std@@QEAAPEAPEAUVkPipelineLayout_T@@QEAPEAU2@AEBQEAU2@@Z ; std::vector<VkPipelineLayout_T *,std::allocator<VkPipelineLayout_T *> >::_Emplace_reallocate<VkPipelineLayout_T * const &>
PUBLIC	??$?0$$V@?$_Compressed_pair@V?$allocator@PEAUVkPipelineLayout_T@@@std@@V?$_Vector_val@U?$_Simple_types@PEAUVkPipelineLayout_T@@@std@@@2@$00@std@@QEAA@U_Zero_then_variadic_args_t@1@@Z ; std::_Compressed_pair<std::allocator<VkPipelineLayout_T *>,std::_Vector_val<std::_Simple_types<VkPipelineLayout_T *> >,1>::_Compressed_pair<std::allocator<VkPipelineLayout_T *>,std::_Vector_val<std::_Simple_types<VkPipelineLayout_T *> >,1><>
PUBLIC	??$emplace_back@AEBQEAUVkDescriptorSetLayout_T@@@?$vector@PEAUVkDescriptorSetLayout_T@@V?$allocator@PEAUVkDescriptorSetLayout_T@@@std@@@std@@QEAAXAEBQEAUVkDescriptorSetLayout_T@@@Z ; std::vector<VkDescriptorSetLayout_T *,std::allocator<VkDescriptorSetLayout_T *> >::emplace_back<VkDescriptorSetLayout_T * const &>
PUBLIC	??$forward@AEBQEAUVkDescriptorSetLayout_T@@@std@@YAAEBQEAUVkDescriptorSetLayout_T@@AEBQEAU1@@Z ; std::forward<VkDescriptorSetLayout_T * const &>
PUBLIC	??$_Emplace_back_with_unused_capacity@AEBQEAUVkDescriptorSetLayout_T@@@?$vector@PEAUVkDescriptorSetLayout_T@@V?$allocator@PEAUVkDescriptorSetLayout_T@@@std@@@std@@AEAAXAEBQEAUVkDescriptorSetLayout_T@@@Z ; std::vector<VkDescriptorSetLayout_T *,std::allocator<VkDescriptorSetLayout_T *> >::_Emplace_back_with_unused_capacity<VkDescriptorSetLayout_T * const &>
PUBLIC	??$_Unfancy@PEAUVkDescriptorSetLayout_T@@@std@@YAPEAPEAUVkDescriptorSetLayout_T@@PEAPEAU1@@Z ; std::_Unfancy<VkDescriptorSetLayout_T *>
PUBLIC	??$construct@PEAUVkDescriptorSetLayout_T@@AEBQEAU1@@?$_Default_allocator_traits@V?$allocator@PEAUVkDescriptorSetLayout_T@@@std@@@std@@SAXAEAV?$allocator@PEAUVkDescriptorSetLayout_T@@@1@QEAPEAUVkDescriptorSetLayout_T@@AEBQEAU3@@Z ; std::_Default_allocator_traits<std::allocator<VkDescriptorSetLayout_T *> >::construct<VkDescriptorSetLayout_T *,VkDescriptorSetLayout_T * const &>
PUBLIC	??$_Emplace_reallocate@AEBQEAUVkDescriptorSetLayout_T@@@?$vector@PEAUVkDescriptorSetLayout_T@@V?$allocator@PEAUVkDescriptorSetLayout_T@@@std@@@std@@QEAAPEAPEAUVkDescriptorSetLayout_T@@QEAPEAU2@AEBQEAU2@@Z ; std::vector<VkDescriptorSetLayout_T *,std::allocator<VkDescriptorSetLayout_T *> >::_Emplace_reallocate<VkDescriptorSetLayout_T * const &>
PUBLIC	??$?0$$V@?$_Compressed_pair@V?$allocator@PEAUVkDescriptorSetLayout_T@@@std@@V?$_Vector_val@U?$_Simple_types@PEAUVkDescriptorSetLayout_T@@@std@@@2@$00@std@@QEAA@U_Zero_then_variadic_args_t@1@@Z ; std::_Compressed_pair<std::allocator<VkDescriptorSetLayout_T *>,std::_Vector_val<std::_Simple_types<VkDescriptorSetLayout_T *> >,1>::_Compressed_pair<std::allocator<VkDescriptorSetLayout_T *>,std::_Vector_val<std::_Simple_types<VkDescriptorSetLayout_T *> >,1><>
PUBLIC	??$emplace_back@AEBQEAUVkBuffer_T@@@?$vector@PEAUVkBuffer_T@@V?$allocator@PEAUVkBuffer_T@@@std@@@std@@QEAAXAEBQEAUVkBuffer_T@@@Z ; std::vector<VkBuffer_T *,std::allocator<VkBuffer_T *> >::emplace_back<VkBuffer_T * const &>
PUBLIC	??$forward@AEBQEAUVkBuffer_T@@@std@@YAAEBQEAUVkBuffer_T@@AEBQEAU1@@Z ; std::forward<VkBuffer_T * const &>
PUBLIC	??$_Emplace_back_with_unused_capacity@AEBQEAUVkBuffer_T@@@?$vector@PEAUVkBuffer_T@@V?$allocator@PEAUVkBuffer_T@@@std@@@std@@AEAAXAEBQEAUVkBuffer_T@@@Z ; std::vector<VkBuffer_T *,std::allocator<VkBuffer_T *> >::_Emplace_back_with_unused_capacity<VkBuffer_T * const &>
PUBLIC	??$_Unfancy@PEAUVkBuffer_T@@@std@@YAPEAPEAUVkBuffer_T@@PEAPEAU1@@Z ; std::_Unfancy<VkBuffer_T *>
PUBLIC	??$construct@PEAUVkBuffer_T@@AEBQEAU1@@?$_Default_allocator_traits@V?$allocator@PEAUVkBuffer_T@@@std@@@std@@SAXAEAV?$allocator@PEAUVkBuffer_T@@@1@QEAPEAUVkBuffer_T@@AEBQEAU3@@Z ; std::_Default_allocator_traits<std::allocator<VkBuffer_T *> >::construct<VkBuffer_T *,VkBuffer_T * const &>
PUBLIC	??$_Emplace_reallocate@AEBQEAUVkBuffer_T@@@?$vector@PEAUVkBuffer_T@@V?$allocator@PEAUVkBuffer_T@@@std@@@std@@QEAAPEAPEAUVkBuffer_T@@QEAPEAU2@AEBQEAU2@@Z ; std::vector<VkBuffer_T *,std::allocator<VkBuffer_T *> >::_Emplace_reallocate<VkBuffer_T * const &>
PUBLIC	??$?0$$V@?$_Compressed_pair@V?$allocator@PEAUVkBuffer_T@@@std@@V?$_Vector_val@U?$_Simple_types@PEAUVkBuffer_T@@@std@@@2@$00@std@@QEAA@U_Zero_then_variadic_args_t@1@@Z ; std::_Compressed_pair<std::allocator<VkBuffer_T *>,std::_Vector_val<std::_Simple_types<VkBuffer_T *> >,1>::_Compressed_pair<std::allocator<VkBuffer_T *>,std::_Vector_val<std::_Simple_types<VkBuffer_T *> >,1><>
PUBLIC	??$emplace_back@AEBQEAUVkSemaphore_T@@@?$vector@PEAUVkSemaphore_T@@V?$allocator@PEAUVkSemaphore_T@@@std@@@std@@QEAAXAEBQEAUVkSemaphore_T@@@Z ; std::vector<VkSemaphore_T *,std::allocator<VkSemaphore_T *> >::emplace_back<VkSemaphore_T * const &>
PUBLIC	??$forward@AEBQEAUVkSemaphore_T@@@std@@YAAEBQEAUVkSemaphore_T@@AEBQEAU1@@Z ; std::forward<VkSemaphore_T * const &>
PUBLIC	??$_Emplace_back_with_unused_capacity@AEBQEAUVkSemaphore_T@@@?$vector@PEAUVkSemaphore_T@@V?$allocator@PEAUVkSemaphore_T@@@std@@@std@@AEAAXAEBQEAUVkSemaphore_T@@@Z ; std::vector<VkSemaphore_T *,std::allocator<VkSemaphore_T *> >::_Emplace_back_with_unused_capacity<VkSemaphore_T * const &>
PUBLIC	??$_Unfancy@PEAUVkSemaphore_T@@@std@@YAPEAPEAUVkSemaphore_T@@PEAPEAU1@@Z ; std::_Unfancy<VkSemaphore_T *>
PUBLIC	??$construct@PEAUVkSemaphore_T@@AEBQEAU1@@?$_Default_allocator_traits@V?$allocator@PEAUVkSemaphore_T@@@std@@@std@@SAXAEAV?$allocator@PEAUVkSemaphore_T@@@1@QEAPEAUVkSemaphore_T@@AEBQEAU3@@Z ; std::_Default_allocator_traits<std::allocator<VkSemaphore_T *> >::construct<VkSemaphore_T *,VkSemaphore_T * const &>
PUBLIC	??$_Emplace_reallocate@AEBQEAUVkSemaphore_T@@@?$vector@PEAUVkSemaphore_T@@V?$allocator@PEAUVkSemaphore_T@@@std@@@std@@QEAAPEAPEAUVkSemaphore_T@@QEAPEAU2@AEBQEAU2@@Z ; std::vector<VkSemaphore_T *,std::allocator<VkSemaphore_T *> >::_Emplace_reallocate<VkSemaphore_T * const &>
PUBLIC	??$?0AEBV?$allocator@PEAUVkSemaphore_T@@@std@@$$V@?$_Compressed_pair@V?$allocator@PEAUVkSemaphore_T@@@std@@V?$_Vector_val@U?$_Simple_types@PEAUVkSemaphore_T@@@std@@@2@$00@std@@QEAA@U_One_then_variadic_args_t@1@AEBV?$allocator@PEAUVkSemaphore_T@@@1@@Z ; std::_Compressed_pair<std::allocator<VkSemaphore_T *>,std::_Vector_val<std::_Simple_types<VkSemaphore_T *> >,1>::_Compressed_pair<std::allocator<VkSemaphore_T *>,std::_Vector_val<std::_Simple_types<VkSemaphore_T *> >,1><std::allocator<VkSemaphore_T *> const &>
PUBLIC	??$_Construct_n_copies_of_ty@U_Value_init_tag@std@@@?$vector@PEAUVkSemaphore_T@@V?$allocator@PEAUVkSemaphore_T@@@std@@@std@@AEAAX_KAEBU_Value_init_tag@1@@Z ; std::vector<VkSemaphore_T *,std::allocator<VkSemaphore_T *> >::_Construct_n_copies_of_ty<std::_Value_init_tag>
PUBLIC	??$?0$$V@?$_Compressed_pair@V?$allocator@PEAUVkSemaphore_T@@@std@@V?$_Vector_val@U?$_Simple_types@PEAUVkSemaphore_T@@@std@@@2@$00@std@@QEAA@U_Zero_then_variadic_args_t@1@@Z ; std::_Compressed_pair<std::allocator<VkSemaphore_T *>,std::_Vector_val<std::_Simple_types<VkSemaphore_T *> >,1>::_Compressed_pair<std::allocator<VkSemaphore_T *>,std::_Vector_val<std::_Simple_types<VkSemaphore_T *> >,1><>
PUBLIC	??$emplace_back@AEBQEAUVkFence_T@@@?$vector@PEAUVkFence_T@@V?$allocator@PEAUVkFence_T@@@std@@@std@@QEAAXAEBQEAUVkFence_T@@@Z ; std::vector<VkFence_T *,std::allocator<VkFence_T *> >::emplace_back<VkFence_T * const &>
PUBLIC	??$forward@AEBQEAUVkFence_T@@@std@@YAAEBQEAUVkFence_T@@AEBQEAU1@@Z ; std::forward<VkFence_T * const &>
PUBLIC	??$_Emplace_back_with_unused_capacity@AEBQEAUVkFence_T@@@?$vector@PEAUVkFence_T@@V?$allocator@PEAUVkFence_T@@@std@@@std@@AEAAXAEBQEAUVkFence_T@@@Z ; std::vector<VkFence_T *,std::allocator<VkFence_T *> >::_Emplace_back_with_unused_capacity<VkFence_T * const &>
PUBLIC	??$_Unfancy@PEAUVkFence_T@@@std@@YAPEAPEAUVkFence_T@@PEAPEAU1@@Z ; std::_Unfancy<VkFence_T *>
PUBLIC	??$construct@PEAUVkFence_T@@AEBQEAU1@@?$_Default_allocator_traits@V?$allocator@PEAUVkFence_T@@@std@@@std@@SAXAEAV?$allocator@PEAUVkFence_T@@@1@QEAPEAUVkFence_T@@AEBQEAU3@@Z ; std::_Default_allocator_traits<std::allocator<VkFence_T *> >::construct<VkFence_T *,VkFence_T * const &>
PUBLIC	??$_Emplace_reallocate@AEBQEAUVkFence_T@@@?$vector@PEAUVkFence_T@@V?$allocator@PEAUVkFence_T@@@std@@@std@@QEAAPEAPEAUVkFence_T@@QEAPEAU2@AEBQEAU2@@Z ; std::vector<VkFence_T *,std::allocator<VkFence_T *> >::_Emplace_reallocate<VkFence_T * const &>
PUBLIC	??$?0AEBV?$allocator@PEAUVkFence_T@@@std@@$$V@?$_Compressed_pair@V?$allocator@PEAUVkFence_T@@@std@@V?$_Vector_val@U?$_Simple_types@PEAUVkFence_T@@@std@@@2@$00@std@@QEAA@U_One_then_variadic_args_t@1@AEBV?$allocator@PEAUVkFence_T@@@1@@Z ; std::_Compressed_pair<std::allocator<VkFence_T *>,std::_Vector_val<std::_Simple_types<VkFence_T *> >,1>::_Compressed_pair<std::allocator<VkFence_T *>,std::_Vector_val<std::_Simple_types<VkFence_T *> >,1><std::allocator<VkFence_T *> const &>
PUBLIC	??$_Construct_n_copies_of_ty@U_Value_init_tag@std@@@?$vector@PEAUVkFence_T@@V?$allocator@PEAUVkFence_T@@@std@@@std@@AEAAX_KAEBU_Value_init_tag@1@@Z ; std::vector<VkFence_T *,std::allocator<VkFence_T *> >::_Construct_n_copies_of_ty<std::_Value_init_tag>
PUBLIC	??$?0$$V@?$_Compressed_pair@V?$allocator@PEAUVkFence_T@@@std@@V?$_Vector_val@U?$_Simple_types@PEAUVkFence_T@@@std@@@2@$00@std@@QEAA@U_Zero_then_variadic_args_t@1@@Z ; std::_Compressed_pair<std::allocator<VkFence_T *>,std::_Vector_val<std::_Simple_types<VkFence_T *> >,1>::_Compressed_pair<std::allocator<VkFence_T *>,std::_Vector_val<std::_Simple_types<VkFence_T *> >,1><>
PUBLIC	??$emplace_back@AEBQEAUVkFramebuffer_T@@@?$vector@PEAUVkFramebuffer_T@@V?$allocator@PEAUVkFramebuffer_T@@@std@@@std@@QEAAXAEBQEAUVkFramebuffer_T@@@Z ; std::vector<VkFramebuffer_T *,std::allocator<VkFramebuffer_T *> >::emplace_back<VkFramebuffer_T * const &>
PUBLIC	??$forward@AEBQEAUVkFramebuffer_T@@@std@@YAAEBQEAUVkFramebuffer_T@@AEBQEAU1@@Z ; std::forward<VkFramebuffer_T * const &>
PUBLIC	??$_Emplace_back_with_unused_capacity@AEBQEAUVkFramebuffer_T@@@?$vector@PEAUVkFramebuffer_T@@V?$allocator@PEAUVkFramebuffer_T@@@std@@@std@@AEAAXAEBQEAUVkFramebuffer_T@@@Z ; std::vector<VkFramebuffer_T *,std::allocator<VkFramebuffer_T *> >::_Emplace_back_with_unused_capacity<VkFramebuffer_T * const &>
PUBLIC	??$_Unfancy@PEAUVkFramebuffer_T@@@std@@YAPEAPEAUVkFramebuffer_T@@PEAPEAU1@@Z ; std::_Unfancy<VkFramebuffer_T *>
PUBLIC	??$construct@PEAUVkFramebuffer_T@@AEBQEAU1@@?$_Default_allocator_traits@V?$allocator@PEAUVkFramebuffer_T@@@std@@@std@@SAXAEAV?$allocator@PEAUVkFramebuffer_T@@@1@QEAPEAUVkFramebuffer_T@@AEBQEAU3@@Z ; std::_Default_allocator_traits<std::allocator<VkFramebuffer_T *> >::construct<VkFramebuffer_T *,VkFramebuffer_T * const &>
PUBLIC	??$_Emplace_reallocate@AEBQEAUVkFramebuffer_T@@@?$vector@PEAUVkFramebuffer_T@@V?$allocator@PEAUVkFramebuffer_T@@@std@@@std@@QEAAPEAPEAUVkFramebuffer_T@@QEAPEAU2@AEBQEAU2@@Z ; std::vector<VkFramebuffer_T *,std::allocator<VkFramebuffer_T *> >::_Emplace_reallocate<VkFramebuffer_T * const &>
PUBLIC	??$?0AEBV?$allocator@PEAUVkFramebuffer_T@@@std@@$$V@?$_Compressed_pair@V?$allocator@PEAUVkFramebuffer_T@@@std@@V?$_Vector_val@U?$_Simple_types@PEAUVkFramebuffer_T@@@std@@@2@$00@std@@QEAA@U_One_then_variadic_args_t@1@AEBV?$allocator@PEAUVkFramebuffer_T@@@1@@Z ; std::_Compressed_pair<std::allocator<VkFramebuffer_T *>,std::_Vector_val<std::_Simple_types<VkFramebuffer_T *> >,1>::_Compressed_pair<std::allocator<VkFramebuffer_T *>,std::_Vector_val<std::_Simple_types<VkFramebuffer_T *> >,1><std::allocator<VkFramebuffer_T *> const &>
PUBLIC	??$_Construct_n_copies_of_ty@U_Value_init_tag@std@@@?$vector@PEAUVkFramebuffer_T@@V?$allocator@PEAUVkFramebuffer_T@@@std@@@std@@AEAAX_KAEBU_Value_init_tag@1@@Z ; std::vector<VkFramebuffer_T *,std::allocator<VkFramebuffer_T *> >::_Construct_n_copies_of_ty<std::_Value_init_tag>
PUBLIC	??$?0$$V@?$_Compressed_pair@V?$allocator@PEAUVkFramebuffer_T@@@std@@V?$_Vector_val@U?$_Simple_types@PEAUVkFramebuffer_T@@@std@@@2@$00@std@@QEAA@U_Zero_then_variadic_args_t@1@@Z ; std::_Compressed_pair<std::allocator<VkFramebuffer_T *>,std::_Vector_val<std::_Simple_types<VkFramebuffer_T *> >,1>::_Compressed_pair<std::allocator<VkFramebuffer_T *>,std::_Vector_val<std::_Simple_types<VkFramebuffer_T *> >,1><>
PUBLIC	??$emplace_back@AEBQEAUVkDeviceMemory_T@@@?$vector@PEAUVkDeviceMemory_T@@V?$allocator@PEAUVkDeviceMemory_T@@@std@@@std@@QEAAXAEBQEAUVkDeviceMemory_T@@@Z ; std::vector<VkDeviceMemory_T *,std::allocator<VkDeviceMemory_T *> >::emplace_back<VkDeviceMemory_T * const &>
PUBLIC	??$forward@AEBQEAUVkDeviceMemory_T@@@std@@YAAEBQEAUVkDeviceMemory_T@@AEBQEAU1@@Z ; std::forward<VkDeviceMemory_T * const &>
PUBLIC	??$_Emplace_back_with_unused_capacity@AEBQEAUVkDeviceMemory_T@@@?$vector@PEAUVkDeviceMemory_T@@V?$allocator@PEAUVkDeviceMemory_T@@@std@@@std@@AEAAXAEBQEAUVkDeviceMemory_T@@@Z ; std::vector<VkDeviceMemory_T *,std::allocator<VkDeviceMemory_T *> >::_Emplace_back_with_unused_capacity<VkDeviceMemory_T * const &>
PUBLIC	??$_Unfancy@PEAUVkDeviceMemory_T@@@std@@YAPEAPEAUVkDeviceMemory_T@@PEAPEAU1@@Z ; std::_Unfancy<VkDeviceMemory_T *>
PUBLIC	??$construct@PEAUVkDeviceMemory_T@@AEBQEAU1@@?$_Default_allocator_traits@V?$allocator@PEAUVkDeviceMemory_T@@@std@@@std@@SAXAEAV?$allocator@PEAUVkDeviceMemory_T@@@1@QEAPEAUVkDeviceMemory_T@@AEBQEAU3@@Z ; std::_Default_allocator_traits<std::allocator<VkDeviceMemory_T *> >::construct<VkDeviceMemory_T *,VkDeviceMemory_T * const &>
PUBLIC	??$_Emplace_reallocate@AEBQEAUVkDeviceMemory_T@@@?$vector@PEAUVkDeviceMemory_T@@V?$allocator@PEAUVkDeviceMemory_T@@@std@@@std@@QEAAPEAPEAUVkDeviceMemory_T@@QEAPEAU2@AEBQEAU2@@Z ; std::vector<VkDeviceMemory_T *,std::allocator<VkDeviceMemory_T *> >::_Emplace_reallocate<VkDeviceMemory_T * const &>
PUBLIC	??$?0AEBV?$allocator@PEAUVkDeviceMemory_T@@@std@@$$V@?$_Compressed_pair@V?$allocator@PEAUVkDeviceMemory_T@@@std@@V?$_Vector_val@U?$_Simple_types@PEAUVkDeviceMemory_T@@@std@@@2@$00@std@@QEAA@U_One_then_variadic_args_t@1@AEBV?$allocator@PEAUVkDeviceMemory_T@@@1@@Z ; std::_Compressed_pair<std::allocator<VkDeviceMemory_T *>,std::_Vector_val<std::_Simple_types<VkDeviceMemory_T *> >,1>::_Compressed_pair<std::allocator<VkDeviceMemory_T *>,std::_Vector_val<std::_Simple_types<VkDeviceMemory_T *> >,1><std::allocator<VkDeviceMemory_T *> const &>
PUBLIC	??$_Construct_n_copies_of_ty@U_Value_init_tag@std@@@?$vector@PEAUVkDeviceMemory_T@@V?$allocator@PEAUVkDeviceMemory_T@@@std@@@std@@AEAAX_KAEBU_Value_init_tag@1@@Z ; std::vector<VkDeviceMemory_T *,std::allocator<VkDeviceMemory_T *> >::_Construct_n_copies_of_ty<std::_Value_init_tag>
PUBLIC	??$?0$$V@?$_Compressed_pair@V?$allocator@PEAUVkDeviceMemory_T@@@std@@V?$_Vector_val@U?$_Simple_types@PEAUVkDeviceMemory_T@@@std@@@2@$00@std@@QEAA@U_Zero_then_variadic_args_t@1@@Z ; std::_Compressed_pair<std::allocator<VkDeviceMemory_T *>,std::_Vector_val<std::_Simple_types<VkDeviceMemory_T *> >,1>::_Compressed_pair<std::allocator<VkDeviceMemory_T *>,std::_Vector_val<std::_Simple_types<VkDeviceMemory_T *> >,1><>
PUBLIC	??$_Unfancy_maybe_null@PEAUVkImage_T@@@std@@YAPEAPEAUVkImage_T@@PEAPEAU1@@Z ; std::_Unfancy_maybe_null<VkImage_T *>
PUBLIC	??$emplace_back@AEBQEAUVkImage_T@@@?$vector@PEAUVkImage_T@@V?$allocator@PEAUVkImage_T@@@std@@@std@@QEAAXAEBQEAUVkImage_T@@@Z ; std::vector<VkImage_T *,std::allocator<VkImage_T *> >::emplace_back<VkImage_T * const &>
PUBLIC	??$forward@AEBQEAUVkImage_T@@@std@@YAAEBQEAUVkImage_T@@AEBQEAU1@@Z ; std::forward<VkImage_T * const &>
PUBLIC	??$_Emplace_back_with_unused_capacity@AEBQEAUVkImage_T@@@?$vector@PEAUVkImage_T@@V?$allocator@PEAUVkImage_T@@@std@@@std@@AEAAXAEBQEAUVkImage_T@@@Z ; std::vector<VkImage_T *,std::allocator<VkImage_T *> >::_Emplace_back_with_unused_capacity<VkImage_T * const &>
PUBLIC	??$_Unfancy@PEAUVkImage_T@@@std@@YAPEAPEAUVkImage_T@@PEAPEAU1@@Z ; std::_Unfancy<VkImage_T *>
PUBLIC	??$construct@PEAUVkImage_T@@AEBQEAU1@@?$_Default_allocator_traits@V?$allocator@PEAUVkImage_T@@@std@@@std@@SAXAEAV?$allocator@PEAUVkImage_T@@@1@QEAPEAUVkImage_T@@AEBQEAU3@@Z ; std::_Default_allocator_traits<std::allocator<VkImage_T *> >::construct<VkImage_T *,VkImage_T * const &>
PUBLIC	??$_Emplace_reallocate@AEBQEAUVkImage_T@@@?$vector@PEAUVkImage_T@@V?$allocator@PEAUVkImage_T@@@std@@@std@@QEAAPEAPEAUVkImage_T@@QEAPEAU2@AEBQEAU2@@Z ; std::vector<VkImage_T *,std::allocator<VkImage_T *> >::_Emplace_reallocate<VkImage_T * const &>
PUBLIC	??$move@AEAV?$allocator@PEAUVkImage_T@@@std@@@std@@YA$$QEAV?$allocator@PEAUVkImage_T@@@0@AEAV10@@Z ; std::move<std::allocator<VkImage_T *> &>
PUBLIC	??$?0V?$allocator@PEAUVkImage_T@@@std@@$$V@?$_Compressed_pair@V?$allocator@PEAUVkImage_T@@@std@@V?$_Vector_val@U?$_Simple_types@PEAUVkImage_T@@@std@@@2@$00@std@@QEAA@U_One_then_variadic_args_t@1@$$QEAV?$allocator@PEAUVkImage_T@@@1@@Z ; std::_Compressed_pair<std::allocator<VkImage_T *>,std::_Vector_val<std::_Simple_types<VkImage_T *> >,1>::_Compressed_pair<std::allocator<VkImage_T *>,std::_Vector_val<std::_Simple_types<VkImage_T *> >,1><std::allocator<VkImage_T *> >
PUBLIC	??$?0AEBV?$allocator@PEAUVkImage_T@@@std@@$$V@?$_Compressed_pair@V?$allocator@PEAUVkImage_T@@@std@@V?$_Vector_val@U?$_Simple_types@PEAUVkImage_T@@@std@@@2@$00@std@@QEAA@U_One_then_variadic_args_t@1@AEBV?$allocator@PEAUVkImage_T@@@1@@Z ; std::_Compressed_pair<std::allocator<VkImage_T *>,std::_Vector_val<std::_Simple_types<VkImage_T *> >,1>::_Compressed_pair<std::allocator<VkImage_T *>,std::_Vector_val<std::_Simple_types<VkImage_T *> >,1><std::allocator<VkImage_T *> const &>
PUBLIC	??$_Construct_n_copies_of_ty@U_Value_init_tag@std@@@?$vector@PEAUVkImage_T@@V?$allocator@PEAUVkImage_T@@@std@@@std@@AEAAX_KAEBU_Value_init_tag@1@@Z ; std::vector<VkImage_T *,std::allocator<VkImage_T *> >::_Construct_n_copies_of_ty<std::_Value_init_tag>
PUBLIC	??$?0$$V@?$_Compressed_pair@V?$allocator@PEAUVkImage_T@@@std@@V?$_Vector_val@U?$_Simple_types@PEAUVkImage_T@@@std@@@2@$00@std@@QEAA@U_Zero_then_variadic_args_t@1@@Z ; std::_Compressed_pair<std::allocator<VkImage_T *>,std::_Vector_val<std::_Simple_types<VkImage_T *> >,1>::_Compressed_pair<std::allocator<VkImage_T *>,std::_Vector_val<std::_Simple_types<VkImage_T *> >,1><>
PUBLIC	??$emplace_back@AEBQEAUVkImageView_T@@@?$vector@PEAUVkImageView_T@@V?$allocator@PEAUVkImageView_T@@@std@@@std@@QEAAXAEBQEAUVkImageView_T@@@Z ; std::vector<VkImageView_T *,std::allocator<VkImageView_T *> >::emplace_back<VkImageView_T * const &>
PUBLIC	??$forward@AEBQEAUVkImageView_T@@@std@@YAAEBQEAUVkImageView_T@@AEBQEAU1@@Z ; std::forward<VkImageView_T * const &>
PUBLIC	??$_Emplace_back_with_unused_capacity@AEBQEAUVkImageView_T@@@?$vector@PEAUVkImageView_T@@V?$allocator@PEAUVkImageView_T@@@std@@@std@@AEAAXAEBQEAUVkImageView_T@@@Z ; std::vector<VkImageView_T *,std::allocator<VkImageView_T *> >::_Emplace_back_with_unused_capacity<VkImageView_T * const &>
PUBLIC	??$_Unfancy@PEAUVkImageView_T@@@std@@YAPEAPEAUVkImageView_T@@PEAPEAU1@@Z ; std::_Unfancy<VkImageView_T *>
PUBLIC	??$construct@PEAUVkImageView_T@@AEBQEAU1@@?$_Default_allocator_traits@V?$allocator@PEAUVkImageView_T@@@std@@@std@@SAXAEAV?$allocator@PEAUVkImageView_T@@@1@QEAPEAUVkImageView_T@@AEBQEAU3@@Z ; std::_Default_allocator_traits<std::allocator<VkImageView_T *> >::construct<VkImageView_T *,VkImageView_T * const &>
PUBLIC	??$_Emplace_reallocate@AEBQEAUVkImageView_T@@@?$vector@PEAUVkImageView_T@@V?$allocator@PEAUVkImageView_T@@@std@@@std@@QEAAPEAPEAUVkImageView_T@@QEAPEAU2@AEBQEAU2@@Z ; std::vector<VkImageView_T *,std::allocator<VkImageView_T *> >::_Emplace_reallocate<VkImageView_T * const &>
PUBLIC	??$?0AEBV?$allocator@PEAUVkImageView_T@@@std@@$$V@?$_Compressed_pair@V?$allocator@PEAUVkImageView_T@@@std@@V?$_Vector_val@U?$_Simple_types@PEAUVkImageView_T@@@std@@@2@$00@std@@QEAA@U_One_then_variadic_args_t@1@AEBV?$allocator@PEAUVkImageView_T@@@1@@Z ; std::_Compressed_pair<std::allocator<VkImageView_T *>,std::_Vector_val<std::_Simple_types<VkImageView_T *> >,1>::_Compressed_pair<std::allocator<VkImageView_T *>,std::_Vector_val<std::_Simple_types<VkImageView_T *> >,1><std::allocator<VkImageView_T *> const &>
PUBLIC	??$_Construct_n_copies_of_ty@U_Value_init_tag@std@@@?$vector@PEAUVkImageView_T@@V?$allocator@PEAUVkImageView_T@@@std@@@std@@AEAAX_KAEBU_Value_init_tag@1@@Z ; std::vector<VkImageView_T *,std::allocator<VkImageView_T *> >::_Construct_n_copies_of_ty<std::_Value_init_tag>
PUBLIC	??$?0$$V@?$_Compressed_pair@V?$allocator@PEAUVkImageView_T@@@std@@V?$_Vector_val@U?$_Simple_types@PEAUVkImageView_T@@@std@@@2@$00@std@@QEAA@U_Zero_then_variadic_args_t@1@@Z ; std::_Compressed_pair<std::allocator<VkImageView_T *>,std::_Vector_val<std::_Simple_types<VkImageView_T *> >,1>::_Compressed_pair<std::allocator<VkImageView_T *>,std::_Vector_val<std::_Simple_types<VkImageView_T *> >,1><>
PUBLIC	??$emplace_back@AEBQEAUVkSwapchainKHR_T@@@?$vector@PEAUVkSwapchainKHR_T@@V?$allocator@PEAUVkSwapchainKHR_T@@@std@@@std@@QEAAXAEBQEAUVkSwapchainKHR_T@@@Z ; std::vector<VkSwapchainKHR_T *,std::allocator<VkSwapchainKHR_T *> >::emplace_back<VkSwapchainKHR_T * const &>
PUBLIC	??$forward@AEBQEAUVkSwapchainKHR_T@@@std@@YAAEBQEAUVkSwapchainKHR_T@@AEBQEAU1@@Z ; std::forward<VkSwapchainKHR_T * const &>
PUBLIC	??$_Emplace_back_with_unused_capacity@AEBQEAUVkSwapchainKHR_T@@@?$vector@PEAUVkSwapchainKHR_T@@V?$allocator@PEAUVkSwapchainKHR_T@@@std@@@std@@AEAAXAEBQEAUVkSwapchainKHR_T@@@Z ; std::vector<VkSwapchainKHR_T *,std::allocator<VkSwapchainKHR_T *> >::_Emplace_back_with_unused_capacity<VkSwapchainKHR_T * const &>
PUBLIC	??$_Unfancy@PEAUVkSwapchainKHR_T@@@std@@YAPEAPEAUVkSwapchainKHR_T@@PEAPEAU1@@Z ; std::_Unfancy<VkSwapchainKHR_T *>
PUBLIC	??$construct@PEAUVkSwapchainKHR_T@@AEBQEAU1@@?$_Default_allocator_traits@V?$allocator@PEAUVkSwapchainKHR_T@@@std@@@std@@SAXAEAV?$allocator@PEAUVkSwapchainKHR_T@@@1@QEAPEAUVkSwapchainKHR_T@@AEBQEAU3@@Z ; std::_Default_allocator_traits<std::allocator<VkSwapchainKHR_T *> >::construct<VkSwapchainKHR_T *,VkSwapchainKHR_T * const &>
PUBLIC	??$_Emplace_reallocate@AEBQEAUVkSwapchainKHR_T@@@?$vector@PEAUVkSwapchainKHR_T@@V?$allocator@PEAUVkSwapchainKHR_T@@@std@@@std@@QEAAPEAPEAUVkSwapchainKHR_T@@QEAPEAU2@AEBQEAU2@@Z ; std::vector<VkSwapchainKHR_T *,std::allocator<VkSwapchainKHR_T *> >::_Emplace_reallocate<VkSwapchainKHR_T * const &>
PUBLIC	??$?0$$V@?$_Compressed_pair@V?$allocator@PEAUVkSwapchainKHR_T@@@std@@V?$_Vector_val@U?$_Simple_types@PEAUVkSwapchainKHR_T@@@std@@@2@$00@std@@QEAA@U_Zero_then_variadic_args_t@1@@Z ; std::_Compressed_pair<std::allocator<VkSwapchainKHR_T *>,std::_Vector_val<std::_Simple_types<VkSwapchainKHR_T *> >,1>::_Compressed_pair<std::allocator<VkSwapchainKHR_T *>,std::_Vector_val<std::_Simple_types<VkSwapchainKHR_T *> >,1><>
PUBLIC	??$emplace_back@AEBQEAUVkRenderPass_T@@@?$vector@PEAUVkRenderPass_T@@V?$allocator@PEAUVkRenderPass_T@@@std@@@std@@QEAAXAEBQEAUVkRenderPass_T@@@Z ; std::vector<VkRenderPass_T *,std::allocator<VkRenderPass_T *> >::emplace_back<VkRenderPass_T * const &>
PUBLIC	??$forward@AEBQEAUVkRenderPass_T@@@std@@YAAEBQEAUVkRenderPass_T@@AEBQEAU1@@Z ; std::forward<VkRenderPass_T * const &>
PUBLIC	??$_Emplace_back_with_unused_capacity@AEBQEAUVkRenderPass_T@@@?$vector@PEAUVkRenderPass_T@@V?$allocator@PEAUVkRenderPass_T@@@std@@@std@@AEAAXAEBQEAUVkRenderPass_T@@@Z ; std::vector<VkRenderPass_T *,std::allocator<VkRenderPass_T *> >::_Emplace_back_with_unused_capacity<VkRenderPass_T * const &>
PUBLIC	??$_Unfancy@PEAUVkRenderPass_T@@@std@@YAPEAPEAUVkRenderPass_T@@PEAPEAU1@@Z ; std::_Unfancy<VkRenderPass_T *>
PUBLIC	??$construct@PEAUVkRenderPass_T@@AEBQEAU1@@?$_Default_allocator_traits@V?$allocator@PEAUVkRenderPass_T@@@std@@@std@@SAXAEAV?$allocator@PEAUVkRenderPass_T@@@1@QEAPEAUVkRenderPass_T@@AEBQEAU3@@Z ; std::_Default_allocator_traits<std::allocator<VkRenderPass_T *> >::construct<VkRenderPass_T *,VkRenderPass_T * const &>
PUBLIC	??$_Emplace_reallocate@AEBQEAUVkRenderPass_T@@@?$vector@PEAUVkRenderPass_T@@V?$allocator@PEAUVkRenderPass_T@@@std@@@std@@QEAAPEAPEAUVkRenderPass_T@@QEAPEAU2@AEBQEAU2@@Z ; std::vector<VkRenderPass_T *,std::allocator<VkRenderPass_T *> >::_Emplace_reallocate<VkRenderPass_T * const &>
PUBLIC	??$?0$$V@?$_Compressed_pair@V?$allocator@PEAUVkRenderPass_T@@@std@@V?$_Vector_val@U?$_Simple_types@PEAUVkRenderPass_T@@@std@@@2@$00@std@@QEAA@U_Zero_then_variadic_args_t@1@@Z ; std::_Compressed_pair<std::allocator<VkRenderPass_T *>,std::_Vector_val<std::_Simple_types<VkRenderPass_T *> >,1>::_Compressed_pair<std::allocator<VkRenderPass_T *>,std::_Vector_val<std::_Simple_types<VkRenderPass_T *> >,1><>
PUBLIC	??$emplace_back@AEBQEAUVkSurfaceKHR_T@@@?$vector@PEAUVkSurfaceKHR_T@@V?$allocator@PEAUVkSurfaceKHR_T@@@std@@@std@@QEAAXAEBQEAUVkSurfaceKHR_T@@@Z ; std::vector<VkSurfaceKHR_T *,std::allocator<VkSurfaceKHR_T *> >::emplace_back<VkSurfaceKHR_T * const &>
PUBLIC	??$forward@AEBQEAUVkSurfaceKHR_T@@@std@@YAAEBQEAUVkSurfaceKHR_T@@AEBQEAU1@@Z ; std::forward<VkSurfaceKHR_T * const &>
PUBLIC	??$_Emplace_back_with_unused_capacity@AEBQEAUVkSurfaceKHR_T@@@?$vector@PEAUVkSurfaceKHR_T@@V?$allocator@PEAUVkSurfaceKHR_T@@@std@@@std@@AEAAXAEBQEAUVkSurfaceKHR_T@@@Z ; std::vector<VkSurfaceKHR_T *,std::allocator<VkSurfaceKHR_T *> >::_Emplace_back_with_unused_capacity<VkSurfaceKHR_T * const &>
PUBLIC	??$_Unfancy@PEAUVkSurfaceKHR_T@@@std@@YAPEAPEAUVkSurfaceKHR_T@@PEAPEAU1@@Z ; std::_Unfancy<VkSurfaceKHR_T *>
PUBLIC	??$construct@PEAUVkSurfaceKHR_T@@AEBQEAU1@@?$_Default_allocator_traits@V?$allocator@PEAUVkSurfaceKHR_T@@@std@@@std@@SAXAEAV?$allocator@PEAUVkSurfaceKHR_T@@@1@QEAPEAUVkSurfaceKHR_T@@AEBQEAU3@@Z ; std::_Default_allocator_traits<std::allocator<VkSurfaceKHR_T *> >::construct<VkSurfaceKHR_T *,VkSurfaceKHR_T * const &>
PUBLIC	??$_Emplace_reallocate@AEBQEAUVkSurfaceKHR_T@@@?$vector@PEAUVkSurfaceKHR_T@@V?$allocator@PEAUVkSurfaceKHR_T@@@std@@@std@@QEAAPEAPEAUVkSurfaceKHR_T@@QEAPEAU2@AEBQEAU2@@Z ; std::vector<VkSurfaceKHR_T *,std::allocator<VkSurfaceKHR_T *> >::_Emplace_reallocate<VkSurfaceKHR_T * const &>
PUBLIC	??$?0$$V@?$_Compressed_pair@V?$allocator@PEAUVkSurfaceKHR_T@@@std@@V?$_Vector_val@U?$_Simple_types@PEAUVkSurfaceKHR_T@@@std@@@2@$00@std@@QEAA@U_Zero_then_variadic_args_t@1@@Z ; std::_Compressed_pair<std::allocator<VkSurfaceKHR_T *>,std::_Vector_val<std::_Simple_types<VkSurfaceKHR_T *> >,1>::_Compressed_pair<std::allocator<VkSurfaceKHR_T *>,std::_Vector_val<std::_Simple_types<VkSurfaceKHR_T *> >,1><>
PUBLIC	??$_Min_value@_K@std@@YAAEB_KAEB_K0@Z		; std::_Min_value<unsigned __int64>
PUBLIC	??$_Allocate@$0BA@U_Default_allocate_traits@std@@$0A@@std@@YAPEAX_K@Z ; std::_Allocate<16,std::_Default_allocate_traits,0>
PUBLIC	??$_Deallocate@$0BA@$0A@@std@@YAXPEAX_K@Z	; std::_Deallocate<16,0>
PUBLIC	??$_Destroy_range@V?$allocator@I@std@@@std@@YAXPEAIQEAIAEAV?$allocator@I@0@@Z ; std::_Destroy_range<std::allocator<unsigned int> >
PUBLIC	??$_Destroy_range@V?$allocator@UVkRenderPassBeginInfo@@@std@@@std@@YAXPEAUVkRenderPassBeginInfo@@QEAU1@AEAV?$allocator@UVkRenderPassBeginInfo@@@0@@Z ; std::_Destroy_range<std::allocator<VkRenderPassBeginInfo> >
PUBLIC	??$_Destroy_range@V?$allocator@UVkPresentInfoKHR@@@std@@@std@@YAXPEAUVkPresentInfoKHR@@QEAU1@AEAV?$allocator@UVkPresentInfoKHR@@@0@@Z ; std::_Destroy_range<std::allocator<VkPresentInfoKHR> >
PUBLIC	??$_Destroy_range@V?$allocator@UVkSubmitInfo@@@std@@@std@@YAXPEAUVkSubmitInfo@@QEAU1@AEAV?$allocator@UVkSubmitInfo@@@0@@Z ; std::_Destroy_range<std::allocator<VkSubmitInfo> >
PUBLIC	??$_Destroy_range@V?$allocator@UVkDeviceQueueCreateInfo@@@std@@@std@@YAXPEAUVkDeviceQueueCreateInfo@@QEAU1@AEAV?$allocator@UVkDeviceQueueCreateInfo@@@0@@Z ; std::_Destroy_range<std::allocator<VkDeviceQueueCreateInfo> >
PUBLIC	??$_Destroy_range@V?$allocator@PEAUTransition@XGK@@@std@@@std@@YAXPEAPEAUTransition@XGK@@QEAPEAU12@AEAV?$allocator@PEAUTransition@XGK@@@0@@Z ; std::_Destroy_range<std::allocator<XGK::Transition *> >
PUBLIC	??$_Destroy_range@V?$allocator@PEAUVkCommandBuffer_T@@@std@@@std@@YAXPEAPEAUVkCommandBuffer_T@@QEAPEAU1@AEAV?$allocator@PEAUVkCommandBuffer_T@@@0@@Z ; std::_Destroy_range<std::allocator<VkCommandBuffer_T *> >
PUBLIC	??$_Destroy_range@V?$allocator@PEAUVkDescriptorSet_T@@@std@@@std@@YAXPEAPEAUVkDescriptorSet_T@@QEAPEAU1@AEAV?$allocator@PEAUVkDescriptorSet_T@@@0@@Z ; std::_Destroy_range<std::allocator<VkDescriptorSet_T *> >
PUBLIC	??$_Destroy_range@V?$allocator@PEAUVkCommandPool_T@@@std@@@std@@YAXPEAPEAUVkCommandPool_T@@QEAPEAU1@AEAV?$allocator@PEAUVkCommandPool_T@@@0@@Z ; std::_Destroy_range<std::allocator<VkCommandPool_T *> >
PUBLIC	??$_Destroy_range@V?$allocator@PEAUVkPipeline_T@@@std@@@std@@YAXPEAPEAUVkPipeline_T@@QEAPEAU1@AEAV?$allocator@PEAUVkPipeline_T@@@0@@Z ; std::_Destroy_range<std::allocator<VkPipeline_T *> >
PUBLIC	??$_Destroy_range@V?$allocator@PEAUVkShaderModule_T@@@std@@@std@@YAXPEAPEAUVkShaderModule_T@@QEAPEAU1@AEAV?$allocator@PEAUVkShaderModule_T@@@0@@Z ; std::_Destroy_range<std::allocator<VkShaderModule_T *> >
PUBLIC	??$_Destroy_range@V?$allocator@PEAUVkDescriptorPool_T@@@std@@@std@@YAXPEAPEAUVkDescriptorPool_T@@QEAPEAU1@AEAV?$allocator@PEAUVkDescriptorPool_T@@@0@@Z ; std::_Destroy_range<std::allocator<VkDescriptorPool_T *> >
PUBLIC	??$_Destroy_range@V?$allocator@PEAUVkPipelineLayout_T@@@std@@@std@@YAXPEAPEAUVkPipelineLayout_T@@QEAPEAU1@AEAV?$allocator@PEAUVkPipelineLayout_T@@@0@@Z ; std::_Destroy_range<std::allocator<VkPipelineLayout_T *> >
PUBLIC	??$_Destroy_range@V?$allocator@PEAUVkDescriptorSetLayout_T@@@std@@@std@@YAXPEAPEAUVkDescriptorSetLayout_T@@QEAPEAU1@AEAV?$allocator@PEAUVkDescriptorSetLayout_T@@@0@@Z ; std::_Destroy_range<std::allocator<VkDescriptorSetLayout_T *> >
PUBLIC	??$_Destroy_range@V?$allocator@PEAUVkBuffer_T@@@std@@@std@@YAXPEAPEAUVkBuffer_T@@QEAPEAU1@AEAV?$allocator@PEAUVkBuffer_T@@@0@@Z ; std::_Destroy_range<std::allocator<VkBuffer_T *> >
PUBLIC	??$_Destroy_range@V?$allocator@PEAUVkSemaphore_T@@@std@@@std@@YAXPEAPEAUVkSemaphore_T@@QEAPEAU1@AEAV?$allocator@PEAUVkSemaphore_T@@@0@@Z ; std::_Destroy_range<std::allocator<VkSemaphore_T *> >
PUBLIC	??$_Destroy_range@V?$allocator@PEAUVkFence_T@@@std@@@std@@YAXPEAPEAUVkFence_T@@QEAPEAU1@AEAV?$allocator@PEAUVkFence_T@@@0@@Z ; std::_Destroy_range<std::allocator<VkFence_T *> >
PUBLIC	??$_Destroy_range@V?$allocator@PEAUVkFramebuffer_T@@@std@@@std@@YAXPEAPEAUVkFramebuffer_T@@QEAPEAU1@AEAV?$allocator@PEAUVkFramebuffer_T@@@0@@Z ; std::_Destroy_range<std::allocator<VkFramebuffer_T *> >
PUBLIC	??$_Destroy_range@V?$allocator@PEAUVkDeviceMemory_T@@@std@@@std@@YAXPEAPEAUVkDeviceMemory_T@@QEAPEAU1@AEAV?$allocator@PEAUVkDeviceMemory_T@@@0@@Z ; std::_Destroy_range<std::allocator<VkDeviceMemory_T *> >
PUBLIC	??$_Destroy_range@V?$allocator@PEAUVkImage_T@@@std@@@std@@YAXPEAPEAUVkImage_T@@QEAPEAU1@AEAV?$allocator@PEAUVkImage_T@@@0@@Z ; std::_Destroy_range<std::allocator<VkImage_T *> >
PUBLIC	??$_Destroy_range@V?$allocator@PEAUVkImageView_T@@@std@@@std@@YAXPEAPEAUVkImageView_T@@QEAPEAU1@AEAV?$allocator@PEAUVkImageView_T@@@0@@Z ; std::_Destroy_range<std::allocator<VkImageView_T *> >
PUBLIC	??$_Destroy_range@V?$allocator@PEAUVkSwapchainKHR_T@@@std@@@std@@YAXPEAPEAUVkSwapchainKHR_T@@QEAPEAU1@AEAV?$allocator@PEAUVkSwapchainKHR_T@@@0@@Z ; std::_Destroy_range<std::allocator<VkSwapchainKHR_T *> >
PUBLIC	??$_Destroy_range@V?$allocator@PEAUVkRenderPass_T@@@std@@@std@@YAXPEAPEAUVkRenderPass_T@@QEAPEAU1@AEAV?$allocator@PEAUVkRenderPass_T@@@0@@Z ; std::_Destroy_range<std::allocator<VkRenderPass_T *> >
PUBLIC	??$_Destroy_range@V?$allocator@PEAUVkSurfaceKHR_T@@@std@@@std@@YAXPEAPEAUVkSurfaceKHR_T@@QEAPEAU1@AEAV?$allocator@PEAUVkSurfaceKHR_T@@@0@@Z ; std::_Destroy_range<std::allocator<VkSurfaceKHR_T *> >
PUBLIC	??$forward@A6AXXZ@std@@YAA6AXXZA6AXXZ@Z		; std::forward<void (__cdecl&)(void)>
PUBLIC	??$make_unique@V?$tuple@P6AXXZ@std@@A6AXXZ$0A@@std@@YA?AV?$unique_ptr@V?$tuple@P6AXXZ@std@@U?$default_delete@V?$tuple@P6AXXZ@std@@@2@@0@A6AXXZ@Z ; std::make_unique<std::tuple<void (__cdecl*)(void)>,void (__cdecl&)(void),0>
PUBLIC	??R?$default_delete@V?$tuple@P6AXXZ@std@@@std@@QEBAXPEAV?$tuple@P6AXXZ@1@@Z ; std::default_delete<std::tuple<void (__cdecl*)(void)> >::operator()
PUBLIC	??1?$unique_ptr@V?$tuple@P6AXXZ@std@@U?$default_delete@V?$tuple@P6AXXZ@std@@@2@@std@@QEAA@XZ ; std::unique_ptr<std::tuple<void (__cdecl*)(void)>,std::default_delete<std::tuple<void (__cdecl*)(void)> > >::~unique_ptr<std::tuple<void (__cdecl*)(void)>,std::default_delete<std::tuple<void (__cdecl*)(void)> > >
PUBLIC	??D?$unique_ptr@V?$tuple@P6AXXZ@std@@U?$default_delete@V?$tuple@P6AXXZ@std@@@2@@std@@QEBAAEAV?$tuple@P6AXXZ@1@XZ ; std::unique_ptr<std::tuple<void (__cdecl*)(void)>,std::default_delete<std::tuple<void (__cdecl*)(void)> > >::operator*
PUBLIC	?get@?$unique_ptr@V?$tuple@P6AXXZ@std@@U?$default_delete@V?$tuple@P6AXXZ@std@@@2@@std@@QEBAPEAV?$tuple@P6AXXZ@2@XZ ; std::unique_ptr<std::tuple<void (__cdecl*)(void)>,std::default_delete<std::tuple<void (__cdecl*)(void)> > >::get
PUBLIC	?release@?$unique_ptr@V?$tuple@P6AXXZ@std@@U?$default_delete@V?$tuple@P6AXXZ@std@@@2@@std@@QEAAPEAV?$tuple@P6AXXZ@2@XZ ; std::unique_ptr<std::tuple<void (__cdecl*)(void)>,std::default_delete<std::tuple<void (__cdecl*)(void)> > >::release
PUBLIC	?_Get_first@?$_Compressed_pair@U?$default_delete@V?$tuple@P6AXXZ@std@@@std@@PEAV?$tuple@P6AXXZ@2@$00@std@@QEAAAEAU?$default_delete@V?$tuple@P6AXXZ@std@@@2@XZ ; std::_Compressed_pair<std::default_delete<std::tuple<void (__cdecl*)(void)> >,std::tuple<void (__cdecl*)(void)> *,1>::_Get_first
PUBLIC	??$_Invoke@V?$tuple@P6AXXZ@std@@$0A@@thread@std@@CAIPEAX@Z ; std::thread::_Invoke<std::tuple<void (__cdecl*)(void)>,0>
PUBLIC	??0_Sentry_base@?$basic_ostream@DU?$char_traits@D@std@@@std@@QEAA@AEAV12@@Z ; std::basic_ostream<char,std::char_traits<char> >::_Sentry_base::_Sentry_base
PUBLIC	??1_Sentry_base@?$basic_ostream@DU?$char_traits@D@std@@@std@@QEAA@XZ ; std::basic_ostream<char,std::char_traits<char> >::_Sentry_base::~_Sentry_base
PUBLIC	??0sentry@?$basic_ostream@DU?$char_traits@D@std@@@std@@QEAA@AEAV12@@Z ; std::basic_ostream<char,std::char_traits<char> >::sentry::sentry
PUBLIC	??1sentry@?$basic_ostream@DU?$char_traits@D@std@@@std@@QEAA@XZ ; std::basic_ostream<char,std::char_traits<char> >::sentry::~sentry
PUBLIC	??Bsentry@?$basic_ostream@DU?$char_traits@D@std@@@std@@QEBA_NXZ ; std::basic_ostream<char,std::char_traits<char> >::sentry::operator bool
PUBLIC	??$forward@AEBV?$allocator@I@std@@@std@@YAAEBV?$allocator@I@0@AEBV10@@Z ; std::forward<std::allocator<unsigned int> const &>
PUBLIC	??1?$_Tidy_guard@V?$vector@IV?$allocator@I@std@@@std@@@std@@QEAA@XZ ; std::_Tidy_guard<std::vector<unsigned int,std::allocator<unsigned int> > >::~_Tidy_guard<std::vector<unsigned int,std::allocator<unsigned int> > >
PUBLIC	??$forward@AEBV?$allocator@UVkRenderPassBeginInfo@@@std@@@std@@YAAEBV?$allocator@UVkRenderPassBeginInfo@@@0@AEBV10@@Z ; std::forward<std::allocator<VkRenderPassBeginInfo> const &>
PUBLIC	??1?$_Tidy_guard@V?$vector@UVkRenderPassBeginInfo@@V?$allocator@UVkRenderPassBeginInfo@@@std@@@std@@@std@@QEAA@XZ ; std::_Tidy_guard<std::vector<VkRenderPassBeginInfo,std::allocator<VkRenderPassBeginInfo> > >::~_Tidy_guard<std::vector<VkRenderPassBeginInfo,std::allocator<VkRenderPassBeginInfo> > >
PUBLIC	??$forward@AEBV?$allocator@UVkPresentInfoKHR@@@std@@@std@@YAAEBV?$allocator@UVkPresentInfoKHR@@@0@AEBV10@@Z ; std::forward<std::allocator<VkPresentInfoKHR> const &>
PUBLIC	??1?$_Tidy_guard@V?$vector@UVkPresentInfoKHR@@V?$allocator@UVkPresentInfoKHR@@@std@@@std@@@std@@QEAA@XZ ; std::_Tidy_guard<std::vector<VkPresentInfoKHR,std::allocator<VkPresentInfoKHR> > >::~_Tidy_guard<std::vector<VkPresentInfoKHR,std::allocator<VkPresentInfoKHR> > >
PUBLIC	??$forward@AEBV?$allocator@UVkSubmitInfo@@@std@@@std@@YAAEBV?$allocator@UVkSubmitInfo@@@0@AEBV10@@Z ; std::forward<std::allocator<VkSubmitInfo> const &>
PUBLIC	??1?$_Tidy_guard@V?$vector@UVkSubmitInfo@@V?$allocator@UVkSubmitInfo@@@std@@@std@@@std@@QEAA@XZ ; std::_Tidy_guard<std::vector<VkSubmitInfo,std::allocator<VkSubmitInfo> > >::~_Tidy_guard<std::vector<VkSubmitInfo,std::allocator<VkSubmitInfo> > >
PUBLIC	??$forward@AEBV?$allocator@UVkDeviceQueueCreateInfo@@@std@@@std@@YAAEBV?$allocator@UVkDeviceQueueCreateInfo@@@0@AEBV10@@Z ; std::forward<std::allocator<VkDeviceQueueCreateInfo> const &>
PUBLIC	??$distance@PEBUVkDeviceQueueCreateInfo@@@std@@YA_JPEBUVkDeviceQueueCreateInfo@@0@Z ; std::distance<VkDeviceQueueCreateInfo const *>
PUBLIC	??1?$_Tidy_guard@V?$vector@UVkDeviceQueueCreateInfo@@V?$allocator@UVkDeviceQueueCreateInfo@@@std@@@std@@@std@@QEAA@XZ ; std::_Tidy_guard<std::vector<VkDeviceQueueCreateInfo,std::allocator<VkDeviceQueueCreateInfo> > >::~_Tidy_guard<std::vector<VkDeviceQueueCreateInfo,std::allocator<VkDeviceQueueCreateInfo> > >
PUBLIC	??$_Ucopy@PEBUVkDeviceQueueCreateInfo@@@?$vector@UVkDeviceQueueCreateInfo@@V?$allocator@UVkDeviceQueueCreateInfo@@@std@@@std@@AEAAPEAUVkDeviceQueueCreateInfo@@PEBU2@0PEAU2@@Z ; std::vector<VkDeviceQueueCreateInfo,std::allocator<VkDeviceQueueCreateInfo> >::_Ucopy<VkDeviceQueueCreateInfo const *>
PUBLIC	??$forward@V?$allocator@PEAUVkCommandBuffer_T@@@std@@@std@@YA$$QEAV?$allocator@PEAUVkCommandBuffer_T@@@0@AEAV10@@Z ; std::forward<std::allocator<VkCommandBuffer_T *> >
PUBLIC	??$forward@AEBV?$allocator@PEAUVkCommandBuffer_T@@@std@@@std@@YAAEBV?$allocator@PEAUVkCommandBuffer_T@@@0@AEBV10@@Z ; std::forward<std::allocator<VkCommandBuffer_T *> const &>
PUBLIC	??1?$_Tidy_guard@V?$vector@PEAUVkCommandBuffer_T@@V?$allocator@PEAUVkCommandBuffer_T@@@std@@@std@@@std@@QEAA@XZ ; std::_Tidy_guard<std::vector<VkCommandBuffer_T *,std::allocator<VkCommandBuffer_T *> > >::~_Tidy_guard<std::vector<VkCommandBuffer_T *,std::allocator<VkCommandBuffer_T *> > >
PUBLIC	??$forward@V?$allocator@PEAUVkDescriptorSet_T@@@std@@@std@@YA$$QEAV?$allocator@PEAUVkDescriptorSet_T@@@0@AEAV10@@Z ; std::forward<std::allocator<VkDescriptorSet_T *> >
PUBLIC	??$forward@AEBV?$allocator@PEAUVkDescriptorSet_T@@@std@@@std@@YAAEBV?$allocator@PEAUVkDescriptorSet_T@@@0@AEBV10@@Z ; std::forward<std::allocator<VkDescriptorSet_T *> const &>
PUBLIC	??1?$_Tidy_guard@V?$vector@PEAUVkDescriptorSet_T@@V?$allocator@PEAUVkDescriptorSet_T@@@std@@@std@@@std@@QEAA@XZ ; std::_Tidy_guard<std::vector<VkDescriptorSet_T *,std::allocator<VkDescriptorSet_T *> > >::~_Tidy_guard<std::vector<VkDescriptorSet_T *,std::allocator<VkDescriptorSet_T *> > >
PUBLIC	??$forward@AEBV?$allocator@PEAUVkSemaphore_T@@@std@@@std@@YAAEBV?$allocator@PEAUVkSemaphore_T@@@0@AEBV10@@Z ; std::forward<std::allocator<VkSemaphore_T *> const &>
PUBLIC	??1?$_Tidy_guard@V?$vector@PEAUVkSemaphore_T@@V?$allocator@PEAUVkSemaphore_T@@@std@@@std@@@std@@QEAA@XZ ; std::_Tidy_guard<std::vector<VkSemaphore_T *,std::allocator<VkSemaphore_T *> > >::~_Tidy_guard<std::vector<VkSemaphore_T *,std::allocator<VkSemaphore_T *> > >
PUBLIC	??$forward@AEBV?$allocator@PEAUVkFence_T@@@std@@@std@@YAAEBV?$allocator@PEAUVkFence_T@@@0@AEBV10@@Z ; std::forward<std::allocator<VkFence_T *> const &>
PUBLIC	??1?$_Tidy_guard@V?$vector@PEAUVkFence_T@@V?$allocator@PEAUVkFence_T@@@std@@@std@@@std@@QEAA@XZ ; std::_Tidy_guard<std::vector<VkFence_T *,std::allocator<VkFence_T *> > >::~_Tidy_guard<std::vector<VkFence_T *,std::allocator<VkFence_T *> > >
PUBLIC	??$forward@AEBV?$allocator@PEAUVkFramebuffer_T@@@std@@@std@@YAAEBV?$allocator@PEAUVkFramebuffer_T@@@0@AEBV10@@Z ; std::forward<std::allocator<VkFramebuffer_T *> const &>
PUBLIC	??1?$_Tidy_guard@V?$vector@PEAUVkFramebuffer_T@@V?$allocator@PEAUVkFramebuffer_T@@@std@@@std@@@std@@QEAA@XZ ; std::_Tidy_guard<std::vector<VkFramebuffer_T *,std::allocator<VkFramebuffer_T *> > >::~_Tidy_guard<std::vector<VkFramebuffer_T *,std::allocator<VkFramebuffer_T *> > >
PUBLIC	??$forward@AEBV?$allocator@PEAUVkDeviceMemory_T@@@std@@@std@@YAAEBV?$allocator@PEAUVkDeviceMemory_T@@@0@AEBV10@@Z ; std::forward<std::allocator<VkDeviceMemory_T *> const &>
PUBLIC	??1?$_Tidy_guard@V?$vector@PEAUVkDeviceMemory_T@@V?$allocator@PEAUVkDeviceMemory_T@@@std@@@std@@@std@@QEAA@XZ ; std::_Tidy_guard<std::vector<VkDeviceMemory_T *,std::allocator<VkDeviceMemory_T *> > >::~_Tidy_guard<std::vector<VkDeviceMemory_T *,std::allocator<VkDeviceMemory_T *> > >
PUBLIC	??$forward@V?$allocator@PEAUVkImage_T@@@std@@@std@@YA$$QEAV?$allocator@PEAUVkImage_T@@@0@AEAV10@@Z ; std::forward<std::allocator<VkImage_T *> >
PUBLIC	??$forward@AEBV?$allocator@PEAUVkImage_T@@@std@@@std@@YAAEBV?$allocator@PEAUVkImage_T@@@0@AEBV10@@Z ; std::forward<std::allocator<VkImage_T *> const &>
PUBLIC	??1?$_Tidy_guard@V?$vector@PEAUVkImage_T@@V?$allocator@PEAUVkImage_T@@@std@@@std@@@std@@QEAA@XZ ; std::_Tidy_guard<std::vector<VkImage_T *,std::allocator<VkImage_T *> > >::~_Tidy_guard<std::vector<VkImage_T *,std::allocator<VkImage_T *> > >
PUBLIC	??$forward@AEBV?$allocator@PEAUVkImageView_T@@@std@@@std@@YAAEBV?$allocator@PEAUVkImageView_T@@@0@AEBV10@@Z ; std::forward<std::allocator<VkImageView_T *> const &>
PUBLIC	??1?$_Tidy_guard@V?$vector@PEAUVkImageView_T@@V?$allocator@PEAUVkImageView_T@@@std@@@std@@@std@@QEAA@XZ ; std::_Tidy_guard<std::vector<VkImageView_T *,std::allocator<VkImageView_T *> > >::~_Tidy_guard<std::vector<VkImageView_T *,std::allocator<VkImageView_T *> > >
PUBLIC	??$_Allocate_manually_vector_aligned@U_Default_allocate_traits@std@@@std@@YAPEAX_K@Z ; std::_Allocate_manually_vector_aligned<std::_Default_allocate_traits>
PUBLIC	??$exchange@PEAV?$tuple@P6AXXZ@std@@PEAV12@@std@@YAPEAV?$tuple@P6AXXZ@0@AEAPEAV10@$$QEAPEAV10@@Z ; std::exchange<std::tuple<void (__cdecl*)(void)> *,std::tuple<void (__cdecl*)(void)> *>
PUBLIC	??$_Uninitialized_value_construct_n@V?$allocator@I@std@@@std@@YAPEAIPEAI_KAEAV?$allocator@I@0@@Z ; std::_Uninitialized_value_construct_n<std::allocator<unsigned int> >
PUBLIC	??$_Uninitialized_value_construct_n@V?$allocator@UVkRenderPassBeginInfo@@@std@@@std@@YAPEAUVkRenderPassBeginInfo@@PEAU1@_KAEAV?$allocator@UVkRenderPassBeginInfo@@@0@@Z ; std::_Uninitialized_value_construct_n<std::allocator<VkRenderPassBeginInfo> >
PUBLIC	??$_Uninitialized_value_construct_n@V?$allocator@UVkPresentInfoKHR@@@std@@@std@@YAPEAUVkPresentInfoKHR@@PEAU1@_KAEAV?$allocator@UVkPresentInfoKHR@@@0@@Z ; std::_Uninitialized_value_construct_n<std::allocator<VkPresentInfoKHR> >
PUBLIC	??$_Uninitialized_value_construct_n@V?$allocator@UVkSubmitInfo@@@std@@@std@@YAPEAUVkSubmitInfo@@PEAU1@_KAEAV?$allocator@UVkSubmitInfo@@@0@@Z ; std::_Uninitialized_value_construct_n<std::allocator<VkSubmitInfo> >
PUBLIC	??$_Uninitialized_move@PEAUVkDeviceQueueCreateInfo@@V?$allocator@UVkDeviceQueueCreateInfo@@@std@@@std@@YAPEAUVkDeviceQueueCreateInfo@@QEAU1@0PEAU1@AEAV?$allocator@UVkDeviceQueueCreateInfo@@@0@@Z ; std::_Uninitialized_move<VkDeviceQueueCreateInfo *,std::allocator<VkDeviceQueueCreateInfo> >
PUBLIC	??$_Get_size_of_n@$0CI@@std@@YA_K_K@Z		; std::_Get_size_of_n<40>
PUBLIC	??$_Uninitialized_value_construct_n@V?$allocator@PEAUVkCommandBuffer_T@@@std@@@std@@YAPEAPEAUVkCommandBuffer_T@@PEAPEAU1@_KAEAV?$allocator@PEAUVkCommandBuffer_T@@@0@@Z ; std::_Uninitialized_value_construct_n<std::allocator<VkCommandBuffer_T *> >
PUBLIC	??$_Uninitialized_value_construct_n@V?$allocator@PEAUVkDescriptorSet_T@@@std@@@std@@YAPEAPEAUVkDescriptorSet_T@@PEAPEAU1@_KAEAV?$allocator@PEAUVkDescriptorSet_T@@@0@@Z ; std::_Uninitialized_value_construct_n<std::allocator<VkDescriptorSet_T *> >
PUBLIC	??$_Uninitialized_move@PEAPEAUVkCommandPool_T@@V?$allocator@PEAUVkCommandPool_T@@@std@@@std@@YAPEAPEAUVkCommandPool_T@@QEAPEAU1@0PEAPEAU1@AEAV?$allocator@PEAUVkCommandPool_T@@@0@@Z ; std::_Uninitialized_move<VkCommandPool_T * *,std::allocator<VkCommandPool_T *> >
PUBLIC	??$_Get_size_of_n@$07@std@@YA_K_K@Z		; std::_Get_size_of_n<8>
PUBLIC	??$_Uninitialized_move@PEAPEAUVkPipeline_T@@V?$allocator@PEAUVkPipeline_T@@@std@@@std@@YAPEAPEAUVkPipeline_T@@QEAPEAU1@0PEAPEAU1@AEAV?$allocator@PEAUVkPipeline_T@@@0@@Z ; std::_Uninitialized_move<VkPipeline_T * *,std::allocator<VkPipeline_T *> >
PUBLIC	??$_Uninitialized_move@PEAPEAUVkShaderModule_T@@V?$allocator@PEAUVkShaderModule_T@@@std@@@std@@YAPEAPEAUVkShaderModule_T@@QEAPEAU1@0PEAPEAU1@AEAV?$allocator@PEAUVkShaderModule_T@@@0@@Z ; std::_Uninitialized_move<VkShaderModule_T * *,std::allocator<VkShaderModule_T *> >
PUBLIC	??$_Uninitialized_move@PEAPEAUVkDescriptorPool_T@@V?$allocator@PEAUVkDescriptorPool_T@@@std@@@std@@YAPEAPEAUVkDescriptorPool_T@@QEAPEAU1@0PEAPEAU1@AEAV?$allocator@PEAUVkDescriptorPool_T@@@0@@Z ; std::_Uninitialized_move<VkDescriptorPool_T * *,std::allocator<VkDescriptorPool_T *> >
PUBLIC	??$_Uninitialized_move@PEAPEAUVkPipelineLayout_T@@V?$allocator@PEAUVkPipelineLayout_T@@@std@@@std@@YAPEAPEAUVkPipelineLayout_T@@QEAPEAU1@0PEAPEAU1@AEAV?$allocator@PEAUVkPipelineLayout_T@@@0@@Z ; std::_Uninitialized_move<VkPipelineLayout_T * *,std::allocator<VkPipelineLayout_T *> >
PUBLIC	??$_Uninitialized_move@PEAPEAUVkDescriptorSetLayout_T@@V?$allocator@PEAUVkDescriptorSetLayout_T@@@std@@@std@@YAPEAPEAUVkDescriptorSetLayout_T@@QEAPEAU1@0PEAPEAU1@AEAV?$allocator@PEAUVkDescriptorSetLayout_T@@@0@@Z ; std::_Uninitialized_move<VkDescriptorSetLayout_T * *,std::allocator<VkDescriptorSetLayout_T *> >
PUBLIC	??$_Uninitialized_move@PEAPEAUVkBuffer_T@@V?$allocator@PEAUVkBuffer_T@@@std@@@std@@YAPEAPEAUVkBuffer_T@@QEAPEAU1@0PEAPEAU1@AEAV?$allocator@PEAUVkBuffer_T@@@0@@Z ; std::_Uninitialized_move<VkBuffer_T * *,std::allocator<VkBuffer_T *> >
PUBLIC	??$_Uninitialized_move@PEAPEAUVkSemaphore_T@@V?$allocator@PEAUVkSemaphore_T@@@std@@@std@@YAPEAPEAUVkSemaphore_T@@QEAPEAU1@0PEAPEAU1@AEAV?$allocator@PEAUVkSemaphore_T@@@0@@Z ; std::_Uninitialized_move<VkSemaphore_T * *,std::allocator<VkSemaphore_T *> >
PUBLIC	??$_Uninitialized_value_construct_n@V?$allocator@PEAUVkSemaphore_T@@@std@@@std@@YAPEAPEAUVkSemaphore_T@@PEAPEAU1@_KAEAV?$allocator@PEAUVkSemaphore_T@@@0@@Z ; std::_Uninitialized_value_construct_n<std::allocator<VkSemaphore_T *> >
PUBLIC	??$_Uninitialized_move@PEAPEAUVkFence_T@@V?$allocator@PEAUVkFence_T@@@std@@@std@@YAPEAPEAUVkFence_T@@QEAPEAU1@0PEAPEAU1@AEAV?$allocator@PEAUVkFence_T@@@0@@Z ; std::_Uninitialized_move<VkFence_T * *,std::allocator<VkFence_T *> >
PUBLIC	??$_Uninitialized_value_construct_n@V?$allocator@PEAUVkFence_T@@@std@@@std@@YAPEAPEAUVkFence_T@@PEAPEAU1@_KAEAV?$allocator@PEAUVkFence_T@@@0@@Z ; std::_Uninitialized_value_construct_n<std::allocator<VkFence_T *> >
PUBLIC	??$_Uninitialized_move@PEAPEAUVkFramebuffer_T@@V?$allocator@PEAUVkFramebuffer_T@@@std@@@std@@YAPEAPEAUVkFramebuffer_T@@QEAPEAU1@0PEAPEAU1@AEAV?$allocator@PEAUVkFramebuffer_T@@@0@@Z ; std::_Uninitialized_move<VkFramebuffer_T * *,std::allocator<VkFramebuffer_T *> >
PUBLIC	??$_Uninitialized_value_construct_n@V?$allocator@PEAUVkFramebuffer_T@@@std@@@std@@YAPEAPEAUVkFramebuffer_T@@PEAPEAU1@_KAEAV?$allocator@PEAUVkFramebuffer_T@@@0@@Z ; std::_Uninitialized_value_construct_n<std::allocator<VkFramebuffer_T *> >
PUBLIC	??$_Uninitialized_move@PEAPEAUVkDeviceMemory_T@@V?$allocator@PEAUVkDeviceMemory_T@@@std@@@std@@YAPEAPEAUVkDeviceMemory_T@@QEAPEAU1@0PEAPEAU1@AEAV?$allocator@PEAUVkDeviceMemory_T@@@0@@Z ; std::_Uninitialized_move<VkDeviceMemory_T * *,std::allocator<VkDeviceMemory_T *> >
PUBLIC	??$_Uninitialized_value_construct_n@V?$allocator@PEAUVkDeviceMemory_T@@@std@@@std@@YAPEAPEAUVkDeviceMemory_T@@PEAPEAU1@_KAEAV?$allocator@PEAUVkDeviceMemory_T@@@0@@Z ; std::_Uninitialized_value_construct_n<std::allocator<VkDeviceMemory_T *> >
PUBLIC	??$_Uninitialized_move@PEAPEAUVkImage_T@@V?$allocator@PEAUVkImage_T@@@std@@@std@@YAPEAPEAUVkImage_T@@QEAPEAU1@0PEAPEAU1@AEAV?$allocator@PEAUVkImage_T@@@0@@Z ; std::_Uninitialized_move<VkImage_T * *,std::allocator<VkImage_T *> >
PUBLIC	??$_Uninitialized_value_construct_n@V?$allocator@PEAUVkImage_T@@@std@@@std@@YAPEAPEAUVkImage_T@@PEAPEAU1@_KAEAV?$allocator@PEAUVkImage_T@@@0@@Z ; std::_Uninitialized_value_construct_n<std::allocator<VkImage_T *> >
PUBLIC	??$_Uninitialized_move@PEAPEAUVkImageView_T@@V?$allocator@PEAUVkImageView_T@@@std@@@std@@YAPEAPEAUVkImageView_T@@QEAPEAU1@0PEAPEAU1@AEAV?$allocator@PEAUVkImageView_T@@@0@@Z ; std::_Uninitialized_move<VkImageView_T * *,std::allocator<VkImageView_T *> >
PUBLIC	??$_Uninitialized_value_construct_n@V?$allocator@PEAUVkImageView_T@@@std@@@std@@YAPEAPEAUVkImageView_T@@PEAPEAU1@_KAEAV?$allocator@PEAUVkImageView_T@@@0@@Z ; std::_Uninitialized_value_construct_n<std::allocator<VkImageView_T *> >
PUBLIC	??$_Uninitialized_move@PEAPEAUVkSwapchainKHR_T@@V?$allocator@PEAUVkSwapchainKHR_T@@@std@@@std@@YAPEAPEAUVkSwapchainKHR_T@@QEAPEAU1@0PEAPEAU1@AEAV?$allocator@PEAUVkSwapchainKHR_T@@@0@@Z ; std::_Uninitialized_move<VkSwapchainKHR_T * *,std::allocator<VkSwapchainKHR_T *> >
PUBLIC	??$_Uninitialized_move@PEAPEAUVkRenderPass_T@@V?$allocator@PEAUVkRenderPass_T@@@std@@@std@@YAPEAPEAUVkRenderPass_T@@QEAPEAU1@0PEAPEAU1@AEAV?$allocator@PEAUVkRenderPass_T@@@0@@Z ; std::_Uninitialized_move<VkRenderPass_T * *,std::allocator<VkRenderPass_T *> >
PUBLIC	??$_Uninitialized_move@PEAPEAUVkSurfaceKHR_T@@V?$allocator@PEAUVkSurfaceKHR_T@@@std@@@std@@YAPEAPEAUVkSurfaceKHR_T@@QEAPEAU1@0PEAPEAU1@AEAV?$allocator@PEAUVkSurfaceKHR_T@@@0@@Z ; std::_Uninitialized_move<VkSurfaceKHR_T * *,std::allocator<VkSurfaceKHR_T *> >
PUBLIC	??$_Get_size_of_n@$03@std@@YA_K_K@Z		; std::_Get_size_of_n<4>
PUBLIC	??$_Get_size_of_n@$0EA@@std@@YA_K_K@Z		; std::_Get_size_of_n<64>
PUBLIC	??$_Get_size_of_n@$0EI@@std@@YA_K_K@Z		; std::_Get_size_of_n<72>
PUBLIC	??$?0P6AXXZ$0A@@?$tuple@P6AXXZ@std@@QEAA@AEBQ6AXXZ@Z ; std::tuple<void (__cdecl*)(void)>::tuple<void (__cdecl*)(void)><void (__cdecl*)(void),0>
PUBLIC	??$?0U?$default_delete@V?$tuple@P6AXXZ@std@@@std@@$0A@@?$unique_ptr@V?$tuple@P6AXXZ@std@@U?$default_delete@V?$tuple@P6AXXZ@std@@@2@@std@@QEAA@PEAV?$tuple@P6AXXZ@1@@Z ; std::unique_ptr<std::tuple<void (__cdecl*)(void)>,std::default_delete<std::tuple<void (__cdecl*)(void)> > >::unique_ptr<std::tuple<void (__cdecl*)(void)>,std::default_delete<std::tuple<void (__cdecl*)(void)> > ><std::default_delete<std::tuple<void (__cdecl*)(void)> >,0>
PUBLIC	??$get@$0A@P6AXXZ@std@@YAAEAP6AXXZAEAV?$tuple@P6AXXZ@0@@Z ; std::get<0,void (__cdecl*)(void)>
PUBLIC	??$move@AEAP6AXXZ@std@@YA$$QEAP6AXXZAEAP6AXXZ@Z	; std::move<void (__cdecl*&)(void)>
PUBLIC	??$forward@P6AXXZ@std@@YA$$QEAP6AXXZAEAP6AXXZ@Z	; std::forward<void (__cdecl*)(void)>
PUBLIC	??$_Call@P6AXXZ$$V@_Invoker_functor@std@@SAX$$QEAP6AXXZ@Z ; std::_Invoker_functor::_Call<void (__cdecl*)(void)>
PUBLIC	??$invoke@P6AXXZ$$V@std@@YAX$$QEAP6AXXZ@Z	; std::invoke<void (__cdecl*)(void)>
PUBLIC	??$_Uninitialized_copy@PEBUVkDeviceQueueCreateInfo@@V?$allocator@UVkDeviceQueueCreateInfo@@@std@@@std@@YAPEAUVkDeviceQueueCreateInfo@@QEBU1@0PEAU1@AEAV?$allocator@UVkDeviceQueueCreateInfo@@@0@@Z ; std::_Uninitialized_copy<VkDeviceQueueCreateInfo const *,std::allocator<VkDeviceQueueCreateInfo> >
PUBLIC	??$_Unfancy@I@std@@YAPEAIPEAI@Z			; std::_Unfancy<unsigned int>
PUBLIC	??$_Zero_range@PEAI@std@@YAPEAIQEAI0@Z		; std::_Zero_range<unsigned int *>
PUBLIC	??0?$_Uninitialized_backout_al@V?$allocator@UVkRenderPassBeginInfo@@@std@@@std@@QEAA@PEAUVkRenderPassBeginInfo@@AEAV?$allocator@UVkRenderPassBeginInfo@@@1@@Z ; std::_Uninitialized_backout_al<std::allocator<VkRenderPassBeginInfo> >::_Uninitialized_backout_al<std::allocator<VkRenderPassBeginInfo> >
PUBLIC	??1?$_Uninitialized_backout_al@V?$allocator@UVkRenderPassBeginInfo@@@std@@@std@@QEAA@XZ ; std::_Uninitialized_backout_al<std::allocator<VkRenderPassBeginInfo> >::~_Uninitialized_backout_al<std::allocator<VkRenderPassBeginInfo> >
PUBLIC	?_Release@?$_Uninitialized_backout_al@V?$allocator@UVkRenderPassBeginInfo@@@std@@@std@@QEAAPEAUVkRenderPassBeginInfo@@XZ ; std::_Uninitialized_backout_al<std::allocator<VkRenderPassBeginInfo> >::_Release
PUBLIC	??$_Emplace_back@$$V@?$_Uninitialized_backout_al@V?$allocator@UVkRenderPassBeginInfo@@@std@@@std@@QEAAXXZ ; std::_Uninitialized_backout_al<std::allocator<VkRenderPassBeginInfo> >::_Emplace_back<>
PUBLIC	??0?$_Uninitialized_backout_al@V?$allocator@UVkPresentInfoKHR@@@std@@@std@@QEAA@PEAUVkPresentInfoKHR@@AEAV?$allocator@UVkPresentInfoKHR@@@1@@Z ; std::_Uninitialized_backout_al<std::allocator<VkPresentInfoKHR> >::_Uninitialized_backout_al<std::allocator<VkPresentInfoKHR> >
PUBLIC	??1?$_Uninitialized_backout_al@V?$allocator@UVkPresentInfoKHR@@@std@@@std@@QEAA@XZ ; std::_Uninitialized_backout_al<std::allocator<VkPresentInfoKHR> >::~_Uninitialized_backout_al<std::allocator<VkPresentInfoKHR> >
PUBLIC	?_Release@?$_Uninitialized_backout_al@V?$allocator@UVkPresentInfoKHR@@@std@@@std@@QEAAPEAUVkPresentInfoKHR@@XZ ; std::_Uninitialized_backout_al<std::allocator<VkPresentInfoKHR> >::_Release
PUBLIC	??$_Emplace_back@$$V@?$_Uninitialized_backout_al@V?$allocator@UVkPresentInfoKHR@@@std@@@std@@QEAAXXZ ; std::_Uninitialized_backout_al<std::allocator<VkPresentInfoKHR> >::_Emplace_back<>
PUBLIC	??0?$_Uninitialized_backout_al@V?$allocator@UVkSubmitInfo@@@std@@@std@@QEAA@PEAUVkSubmitInfo@@AEAV?$allocator@UVkSubmitInfo@@@1@@Z ; std::_Uninitialized_backout_al<std::allocator<VkSubmitInfo> >::_Uninitialized_backout_al<std::allocator<VkSubmitInfo> >
PUBLIC	??1?$_Uninitialized_backout_al@V?$allocator@UVkSubmitInfo@@@std@@@std@@QEAA@XZ ; std::_Uninitialized_backout_al<std::allocator<VkSubmitInfo> >::~_Uninitialized_backout_al<std::allocator<VkSubmitInfo> >
PUBLIC	?_Release@?$_Uninitialized_backout_al@V?$allocator@UVkSubmitInfo@@@std@@@std@@QEAAPEAUVkSubmitInfo@@XZ ; std::_Uninitialized_backout_al<std::allocator<VkSubmitInfo> >::_Release
PUBLIC	??$_Emplace_back@$$V@?$_Uninitialized_backout_al@V?$allocator@UVkSubmitInfo@@@std@@@std@@QEAAXXZ ; std::_Uninitialized_backout_al<std::allocator<VkSubmitInfo> >::_Emplace_back<>
PUBLIC	??$_Get_unwrapped@UVkDeviceQueueCreateInfo@@@std@@YAPEAUVkDeviceQueueCreateInfo@@QEAU1@@Z ; std::_Get_unwrapped<VkDeviceQueueCreateInfo>
PUBLIC	??$_Copy_memmove@PEAUVkDeviceQueueCreateInfo@@PEAU1@@std@@YAPEAUVkDeviceQueueCreateInfo@@PEAU1@00@Z ; std::_Copy_memmove<VkDeviceQueueCreateInfo *,VkDeviceQueueCreateInfo *>
PUBLIC	??$_Unfancy@PEAUVkCommandBuffer_T@@@std@@YAPEAPEAUVkCommandBuffer_T@@PEAPEAU1@@Z ; std::_Unfancy<VkCommandBuffer_T *>
PUBLIC	??$_Zero_range@PEAPEAUVkCommandBuffer_T@@@std@@YAPEAPEAUVkCommandBuffer_T@@QEAPEAU1@0@Z ; std::_Zero_range<VkCommandBuffer_T * *>
PUBLIC	??$_Unfancy@PEAUVkDescriptorSet_T@@@std@@YAPEAPEAUVkDescriptorSet_T@@PEAPEAU1@@Z ; std::_Unfancy<VkDescriptorSet_T *>
PUBLIC	??$_Zero_range@PEAPEAUVkDescriptorSet_T@@@std@@YAPEAPEAUVkDescriptorSet_T@@QEAPEAU1@0@Z ; std::_Zero_range<VkDescriptorSet_T * *>
PUBLIC	??$_Get_unwrapped@PEAUVkCommandPool_T@@@std@@YAPEAPEAUVkCommandPool_T@@QEAPEAU1@@Z ; std::_Get_unwrapped<VkCommandPool_T *>
PUBLIC	??$_Copy_memmove@PEAPEAUVkCommandPool_T@@PEAPEAU1@@std@@YAPEAPEAUVkCommandPool_T@@PEAPEAU1@00@Z ; std::_Copy_memmove<VkCommandPool_T * *,VkCommandPool_T * *>
PUBLIC	??$_Get_unwrapped@PEAUVkPipeline_T@@@std@@YAPEAPEAUVkPipeline_T@@QEAPEAU1@@Z ; std::_Get_unwrapped<VkPipeline_T *>
PUBLIC	??$_Copy_memmove@PEAPEAUVkPipeline_T@@PEAPEAU1@@std@@YAPEAPEAUVkPipeline_T@@PEAPEAU1@00@Z ; std::_Copy_memmove<VkPipeline_T * *,VkPipeline_T * *>
PUBLIC	??$_Get_unwrapped@PEAUVkShaderModule_T@@@std@@YAPEAPEAUVkShaderModule_T@@QEAPEAU1@@Z ; std::_Get_unwrapped<VkShaderModule_T *>
PUBLIC	??$_Copy_memmove@PEAPEAUVkShaderModule_T@@PEAPEAU1@@std@@YAPEAPEAUVkShaderModule_T@@PEAPEAU1@00@Z ; std::_Copy_memmove<VkShaderModule_T * *,VkShaderModule_T * *>
PUBLIC	??$_Get_unwrapped@PEAUVkDescriptorPool_T@@@std@@YAPEAPEAUVkDescriptorPool_T@@QEAPEAU1@@Z ; std::_Get_unwrapped<VkDescriptorPool_T *>
PUBLIC	??$_Copy_memmove@PEAPEAUVkDescriptorPool_T@@PEAPEAU1@@std@@YAPEAPEAUVkDescriptorPool_T@@PEAPEAU1@00@Z ; std::_Copy_memmove<VkDescriptorPool_T * *,VkDescriptorPool_T * *>
PUBLIC	??$_Get_unwrapped@PEAUVkPipelineLayout_T@@@std@@YAPEAPEAUVkPipelineLayout_T@@QEAPEAU1@@Z ; std::_Get_unwrapped<VkPipelineLayout_T *>
PUBLIC	??$_Copy_memmove@PEAPEAUVkPipelineLayout_T@@PEAPEAU1@@std@@YAPEAPEAUVkPipelineLayout_T@@PEAPEAU1@00@Z ; std::_Copy_memmove<VkPipelineLayout_T * *,VkPipelineLayout_T * *>
PUBLIC	??$_Get_unwrapped@PEAUVkDescriptorSetLayout_T@@@std@@YAPEAPEAUVkDescriptorSetLayout_T@@QEAPEAU1@@Z ; std::_Get_unwrapped<VkDescriptorSetLayout_T *>
PUBLIC	??$_Copy_memmove@PEAPEAUVkDescriptorSetLayout_T@@PEAPEAU1@@std@@YAPEAPEAUVkDescriptorSetLayout_T@@PEAPEAU1@00@Z ; std::_Copy_memmove<VkDescriptorSetLayout_T * *,VkDescriptorSetLayout_T * *>
PUBLIC	??$_Get_unwrapped@PEAUVkBuffer_T@@@std@@YAPEAPEAUVkBuffer_T@@QEAPEAU1@@Z ; std::_Get_unwrapped<VkBuffer_T *>
PUBLIC	??$_Copy_memmove@PEAPEAUVkBuffer_T@@PEAPEAU1@@std@@YAPEAPEAUVkBuffer_T@@PEAPEAU1@00@Z ; std::_Copy_memmove<VkBuffer_T * *,VkBuffer_T * *>
PUBLIC	??$_Get_unwrapped@PEAUVkSemaphore_T@@@std@@YAPEAPEAUVkSemaphore_T@@QEAPEAU1@@Z ; std::_Get_unwrapped<VkSemaphore_T *>
PUBLIC	??$_Copy_memmove@PEAPEAUVkSemaphore_T@@PEAPEAU1@@std@@YAPEAPEAUVkSemaphore_T@@PEAPEAU1@00@Z ; std::_Copy_memmove<VkSemaphore_T * *,VkSemaphore_T * *>
PUBLIC	??$_Zero_range@PEAPEAUVkSemaphore_T@@@std@@YAPEAPEAUVkSemaphore_T@@QEAPEAU1@0@Z ; std::_Zero_range<VkSemaphore_T * *>
PUBLIC	??$_Get_unwrapped@PEAUVkFence_T@@@std@@YAPEAPEAUVkFence_T@@QEAPEAU1@@Z ; std::_Get_unwrapped<VkFence_T *>
PUBLIC	??$_Copy_memmove@PEAPEAUVkFence_T@@PEAPEAU1@@std@@YAPEAPEAUVkFence_T@@PEAPEAU1@00@Z ; std::_Copy_memmove<VkFence_T * *,VkFence_T * *>
PUBLIC	??$_Zero_range@PEAPEAUVkFence_T@@@std@@YAPEAPEAUVkFence_T@@QEAPEAU1@0@Z ; std::_Zero_range<VkFence_T * *>
PUBLIC	??$_Get_unwrapped@PEAUVkFramebuffer_T@@@std@@YAPEAPEAUVkFramebuffer_T@@QEAPEAU1@@Z ; std::_Get_unwrapped<VkFramebuffer_T *>
PUBLIC	??$_Copy_memmove@PEAPEAUVkFramebuffer_T@@PEAPEAU1@@std@@YAPEAPEAUVkFramebuffer_T@@PEAPEAU1@00@Z ; std::_Copy_memmove<VkFramebuffer_T * *,VkFramebuffer_T * *>
PUBLIC	??$_Zero_range@PEAPEAUVkFramebuffer_T@@@std@@YAPEAPEAUVkFramebuffer_T@@QEAPEAU1@0@Z ; std::_Zero_range<VkFramebuffer_T * *>
PUBLIC	??$_Get_unwrapped@PEAUVkDeviceMemory_T@@@std@@YAPEAPEAUVkDeviceMemory_T@@QEAPEAU1@@Z ; std::_Get_unwrapped<VkDeviceMemory_T *>
PUBLIC	??$_Copy_memmove@PEAPEAUVkDeviceMemory_T@@PEAPEAU1@@std@@YAPEAPEAUVkDeviceMemory_T@@PEAPEAU1@00@Z ; std::_Copy_memmove<VkDeviceMemory_T * *,VkDeviceMemory_T * *>
PUBLIC	??$_Zero_range@PEAPEAUVkDeviceMemory_T@@@std@@YAPEAPEAUVkDeviceMemory_T@@QEAPEAU1@0@Z ; std::_Zero_range<VkDeviceMemory_T * *>
PUBLIC	??$_Get_unwrapped@PEAUVkImage_T@@@std@@YAPEAPEAUVkImage_T@@QEAPEAU1@@Z ; std::_Get_unwrapped<VkImage_T *>
PUBLIC	??$_Copy_memmove@PEAPEAUVkImage_T@@PEAPEAU1@@std@@YAPEAPEAUVkImage_T@@PEAPEAU1@00@Z ; std::_Copy_memmove<VkImage_T * *,VkImage_T * *>
PUBLIC	??$_Zero_range@PEAPEAUVkImage_T@@@std@@YAPEAPEAUVkImage_T@@QEAPEAU1@0@Z ; std::_Zero_range<VkImage_T * *>
PUBLIC	??$_Get_unwrapped@PEAUVkImageView_T@@@std@@YAPEAPEAUVkImageView_T@@QEAPEAU1@@Z ; std::_Get_unwrapped<VkImageView_T *>
PUBLIC	??$_Copy_memmove@PEAPEAUVkImageView_T@@PEAPEAU1@@std@@YAPEAPEAUVkImageView_T@@PEAPEAU1@00@Z ; std::_Copy_memmove<VkImageView_T * *,VkImageView_T * *>
PUBLIC	??$_Zero_range@PEAPEAUVkImageView_T@@@std@@YAPEAPEAUVkImageView_T@@QEAPEAU1@0@Z ; std::_Zero_range<VkImageView_T * *>
PUBLIC	??$_Get_unwrapped@PEAUVkSwapchainKHR_T@@@std@@YAPEAPEAUVkSwapchainKHR_T@@QEAPEAU1@@Z ; std::_Get_unwrapped<VkSwapchainKHR_T *>
PUBLIC	??$_Copy_memmove@PEAPEAUVkSwapchainKHR_T@@PEAPEAU1@@std@@YAPEAPEAUVkSwapchainKHR_T@@PEAPEAU1@00@Z ; std::_Copy_memmove<VkSwapchainKHR_T * *,VkSwapchainKHR_T * *>
PUBLIC	??$_Get_unwrapped@PEAUVkRenderPass_T@@@std@@YAPEAPEAUVkRenderPass_T@@QEAPEAU1@@Z ; std::_Get_unwrapped<VkRenderPass_T *>
PUBLIC	??$_Copy_memmove@PEAPEAUVkRenderPass_T@@PEAPEAU1@@std@@YAPEAPEAUVkRenderPass_T@@PEAPEAU1@00@Z ; std::_Copy_memmove<VkRenderPass_T * *,VkRenderPass_T * *>
PUBLIC	??$_Get_unwrapped@PEAUVkSurfaceKHR_T@@@std@@YAPEAPEAUVkSurfaceKHR_T@@QEAPEAU1@@Z ; std::_Get_unwrapped<VkSurfaceKHR_T *>
PUBLIC	??$_Copy_memmove@PEAPEAUVkSurfaceKHR_T@@PEAPEAU1@@std@@YAPEAPEAUVkSurfaceKHR_T@@PEAPEAU1@00@Z ; std::_Copy_memmove<VkSurfaceKHR_T * *,VkSurfaceKHR_T * *>
PUBLIC	??$?0U_Exact_args_t@std@@AEBQ6AXXZ$$V$0A@@?$tuple@P6AXXZ@std@@QEAA@U_Exact_args_t@1@AEBQ6AXXZ@Z ; std::tuple<void (__cdecl*)(void)>::tuple<void (__cdecl*)(void)><std::_Exact_args_t,void (__cdecl*const &)(void),0>
PUBLIC	??$?0AEAPEAV?$tuple@P6AXXZ@std@@@?$_Compressed_pair@U?$default_delete@V?$tuple@P6AXXZ@std@@@std@@PEAV?$tuple@P6AXXZ@2@$00@std@@QEAA@U_Zero_then_variadic_args_t@1@AEAPEAV?$tuple@P6AXXZ@1@@Z ; std::_Compressed_pair<std::default_delete<std::tuple<void (__cdecl*)(void)> >,std::tuple<void (__cdecl*)(void)> *,1>::_Compressed_pair<std::default_delete<std::tuple<void (__cdecl*)(void)> >,std::tuple<void (__cdecl*)(void)> *,1><std::tuple<void (__cdecl*)(void)> * &>
PUBLIC	??$_Get_unwrapped@$$CBUVkDeviceQueueCreateInfo@@@std@@YAPEBUVkDeviceQueueCreateInfo@@QEBU1@@Z ; std::_Get_unwrapped<VkDeviceQueueCreateInfo const >
PUBLIC	??$_Copy_memmove@PEBUVkDeviceQueueCreateInfo@@PEAU1@@std@@YAPEAUVkDeviceQueueCreateInfo@@PEBU1@0PEAU1@@Z ; std::_Copy_memmove<VkDeviceQueueCreateInfo const *,VkDeviceQueueCreateInfo *>
PUBLIC	??$_Unfancy@UVkRenderPassBeginInfo@@@std@@YAPEAUVkRenderPassBeginInfo@@PEAU1@@Z ; std::_Unfancy<VkRenderPassBeginInfo>
PUBLIC	??$construct@UVkRenderPassBeginInfo@@$$V@?$_Default_allocator_traits@V?$allocator@UVkRenderPassBeginInfo@@@std@@@std@@SAXAEAV?$allocator@UVkRenderPassBeginInfo@@@1@QEAUVkRenderPassBeginInfo@@@Z ; std::_Default_allocator_traits<std::allocator<VkRenderPassBeginInfo> >::construct<VkRenderPassBeginInfo>
PUBLIC	??$_Unfancy@UVkPresentInfoKHR@@@std@@YAPEAUVkPresentInfoKHR@@PEAU1@@Z ; std::_Unfancy<VkPresentInfoKHR>
PUBLIC	??$construct@UVkPresentInfoKHR@@$$V@?$_Default_allocator_traits@V?$allocator@UVkPresentInfoKHR@@@std@@@std@@SAXAEAV?$allocator@UVkPresentInfoKHR@@@1@QEAUVkPresentInfoKHR@@@Z ; std::_Default_allocator_traits<std::allocator<VkPresentInfoKHR> >::construct<VkPresentInfoKHR>
PUBLIC	??$_Unfancy@UVkSubmitInfo@@@std@@YAPEAUVkSubmitInfo@@PEAU1@@Z ; std::_Unfancy<VkSubmitInfo>
PUBLIC	??$construct@UVkSubmitInfo@@$$V@?$_Default_allocator_traits@V?$allocator@UVkSubmitInfo@@@std@@@std@@SAXAEAV?$allocator@UVkSubmitInfo@@@1@QEAUVkSubmitInfo@@@Z ; std::_Default_allocator_traits<std::allocator<VkSubmitInfo> >::construct<VkSubmitInfo>
PUBLIC	??$forward@AEBQ6AXXZ@std@@YAAEBQ6AXXZAEBQ6AXXZ@Z ; std::forward<void (__cdecl*const &)(void)>
PUBLIC	??$?0U_Exact_args_t@std@@$0A@@?$tuple@$$V@std@@QEAA@U_Exact_args_t@1@@Z ; std::tuple<>::tuple<><std::_Exact_args_t,0>
PUBLIC	??$?0AEBQ6AXXZ@?$_Tuple_val@P6AXXZ@std@@QEAA@AEBQ6AXXZ@Z ; std::_Tuple_val<void (__cdecl*)(void)>::_Tuple_val<void (__cdecl*)(void)><void (__cdecl*const &)(void)>
PUBLIC	??$forward@AEAPEAV?$tuple@P6AXXZ@std@@@std@@YAAEAPEAV?$tuple@P6AXXZ@0@AEAPEAV10@@Z ; std::forward<std::tuple<void (__cdecl*)(void)> * &>
PUBLIC	?_OptionsStorage@?1??__local_stdio_printf_options@@9@4_KA ; `__local_stdio_printf_options'::`2'::_OptionsStorage
PUBLIC	??_7exception@std@@6B@				; std::exception::`vftable'
PUBLIC	??_C@_0BC@EOODALEL@Unknown?5exception@		; `string'
PUBLIC	??_7bad_alloc@std@@6B@				; std::bad_alloc::`vftable'
PUBLIC	??_7bad_array_new_length@std@@6B@		; std::bad_array_new_length::`vftable'
PUBLIC	??_C@_0BF@KINCDENJ@bad?5array?5new?5length@	; `string'
PUBLIC	_TI3?AVbad_array_new_length@std@@
PUBLIC	_CTA3?AVbad_array_new_length@std@@
PUBLIC	??_R0?AVbad_array_new_length@std@@@8		; std::bad_array_new_length `RTTI Type Descriptor'
PUBLIC	_CT??_R0?AVbad_array_new_length@std@@@8??0bad_array_new_length@std@@QEAA@AEBV01@@Z24
PUBLIC	??_R0?AVbad_alloc@std@@@8			; std::bad_alloc `RTTI Type Descriptor'
PUBLIC	_CT??_R0?AVbad_alloc@std@@@8??0bad_alloc@std@@QEAA@AEBV01@@Z24
PUBLIC	??_R0?AVexception@std@@@8			; std::exception `RTTI Type Descriptor'
PUBLIC	_CT??_R0?AVexception@std@@@8??0exception@std@@QEAA@AEBV01@@Z24
PUBLIC	??_C@_0BG@HBCIDECD@vkGetInstanceProcAddr@	; `string'
PUBLIC	??_C@_0BB@EIEAKGGC@vkCreateInstance@		; `string'
PUBLIC	??_C@_0CD@OBEAIOFF@vkEnumerateInstanceLayerPropert@ ; `string'
PUBLIC	??_C@_0CH@DNHGEPME@vkEnumerateInstanceExtensionPro@ ; `string'
PUBLIC	??_C@_0N@IILPFLFM@vulkan?91?4dll@		; `string'
PUBLIC	??_C@_0BC@CIPIPPNH@vkDestroyInstance@		; `string'
PUBLIC	??_C@_0BL@DFPDILFK@vkEnumeratePhysicalDevices@	; `string'
PUBLIC	??_C@_0BO@NNIAOKH@vkGetPhysicalDeviceProperties@ ; `string'
PUBLIC	??_C@_0BM@CGKNLAIF@vkGetPhysicalDeviceFeatures@	; `string'
PUBLIC	??_C@_0CJ@IDACLAAE@vkGetPhysicalDeviceQueueFamilyP@ ; `string'
PUBLIC	??_C@_0CE@DNKEFNG@vkGetPhysicalDeviceMemoryProper@ ; `string'
PUBLIC	??_C@_0CE@CEAFLIGF@vkGetPhysicalDeviceFormatProper@ ; `string'
PUBLIC	??_C@_0BE@FIFNFHEG@vkGetDeviceProcAddr@		; `string'
PUBLIC	??_C@_0P@KHGBEFEA@vkCreateDevice@		; `string'
PUBLIC	??_C@_0BP@OODKJHBP@vkCreateDebugReportCallbackEXT@ ; `string'
PUBLIC	??_C@_0CA@OOBFNGJP@vkDestroyDebugReportCallbackEXT@ ; `string'
PUBLIC	??_C@_0BI@INMBJMIJ@vkCreateWin32SurfaceKHR@	; `string'
PUBLIC	??_C@_0CF@KCGJHCCP@vkGetPhysicalDeviceSurfaceSuppo@ ; `string'
PUBLIC	??_C@_0CK@LHGCODEN@vkGetPhysicalDeviceSurfaceCapab@ ; `string'
PUBLIC	??_C@_0CF@LAEKEDKL@vkGetPhysicalDeviceSurfaceForma@ ; `string'
PUBLIC	??_C@_0CK@ONBJHPIF@vkGetPhysicalDeviceSurfacePrese@ ; `string'
PUBLIC	??_C@_0BE@NMLOINDF@vkDestroySurfaceKHR@		; `string'
PUBLIC	??_C@_0BB@LDOONJCF@vkDeviceWaitIdle@		; `string'
PUBLIC	??_C@_0BA@BNDMPHAN@vkDestroyDevice@		; `string'
PUBLIC	??_C@_0BB@JLPAGEHI@vkGetDeviceQueue@		; `string'
PUBLIC	??_C@_0O@IHLADMGD@vkQueueSubmit@		; `string'
PUBLIC	??_C@_0BC@DGDLPOJO@vkQueuePresentKHR@		; `string'
