
/home/denis/reps/denis-belov/c-test/xgk/build/gnu-x64/o/glad.o:     file format elf64-x86-64


Disassembly of section .text:

0000000000000000 <_ZL7open_glv>:
       0:	55                   	push   rbp
       1:	48 89 e5             	mov    rbp,rsp
       4:	48 83 ec 10          	sub    rsp,0x10
       8:	c7 45 fc 00 00 00 00 	mov    DWORD PTR [rbp-0x4],0x0
       f:	c7 45 fc 00 00 00 00 	mov    DWORD PTR [rbp-0x4],0x0
      16:	83 7d fc 01          	cmp    DWORD PTR [rbp-0x4],0x1
      1a:	77 6b                	ja     87 <_ZL7open_glv+0x87>
      1c:	8b 45 fc             	mov    eax,DWORD PTR [rbp-0x4]
      1f:	48 8d 14 c5 00 00 00 	lea    rdx,[rax*8+0x0]
      26:	00 
      27:	48 8d 05 00 00 00 00 	lea    rax,[rip+0x0]        # 2e <_ZL7open_glv+0x2e>
      2e:	48 8b 04 02          	mov    rax,QWORD PTR [rdx+rax*1]
      32:	be 02 01 00 00       	mov    esi,0x102
      37:	48 89 c7             	mov    rdi,rax
      3a:	e8 00 00 00 00       	call   3f <_ZL7open_glv+0x3f>
      3f:	48 89 05 00 00 00 00 	mov    QWORD PTR [rip+0x0],rax        # 46 <_ZL7open_glv+0x46>
      46:	48 8b 05 00 00 00 00 	mov    rax,QWORD PTR [rip+0x0]        # 4d <_ZL7open_glv+0x4d>
      4d:	48 85 c0             	test   rax,rax
      50:	74 2f                	je     81 <_ZL7open_glv+0x81>
      52:	48 8b 05 00 00 00 00 	mov    rax,QWORD PTR [rip+0x0]        # 59 <_ZL7open_glv+0x59>
      59:	48 8d 35 00 00 00 00 	lea    rsi,[rip+0x0]        # 60 <_ZL7open_glv+0x60>
      60:	48 89 c7             	mov    rdi,rax
      63:	e8 00 00 00 00       	call   68 <_ZL7open_glv+0x68>
      68:	48 89 05 00 00 00 00 	mov    QWORD PTR [rip+0x0],rax        # 6f <_ZL7open_glv+0x6f>
      6f:	48 8b 05 00 00 00 00 	mov    rax,QWORD PTR [rip+0x0]        # 76 <_ZL7open_glv+0x76>
      76:	48 85 c0             	test   rax,rax
      79:	0f 95 c0             	setne  al
      7c:	0f b6 c0             	movzx  eax,al
      7f:	eb 0b                	jmp    8c <_ZL7open_glv+0x8c>
      81:	83 45 fc 01          	add    DWORD PTR [rbp-0x4],0x1
      85:	eb 8f                	jmp    16 <_ZL7open_glv+0x16>
      87:	b8 00 00 00 00       	mov    eax,0x0
      8c:	c9                   	leave  
      8d:	c3                   	ret    

000000000000008e <_ZL8close_glv>:
      8e:	55                   	push   rbp
      8f:	48 89 e5             	mov    rbp,rsp
      92:	48 8b 05 00 00 00 00 	mov    rax,QWORD PTR [rip+0x0]        # 99 <_ZL8close_glv+0xb>
      99:	48 85 c0             	test   rax,rax
      9c:	74 1a                	je     b8 <_ZL8close_glv+0x2a>
      9e:	48 8b 05 00 00 00 00 	mov    rax,QWORD PTR [rip+0x0]        # a5 <_ZL8close_glv+0x17>
      a5:	48 89 c7             	mov    rdi,rax
      a8:	e8 00 00 00 00       	call   ad <_ZL8close_glv+0x1f>
      ad:	48 c7 05 00 00 00 00 	mov    QWORD PTR [rip+0x0],0x0        # b8 <_ZL8close_glv+0x2a>
      b4:	00 00 00 00 
      b8:	90                   	nop
      b9:	5d                   	pop    rbp
      ba:	c3                   	ret    

00000000000000bb <_ZL8get_procPKc>:
      bb:	55                   	push   rbp
      bc:	48 89 e5             	mov    rbp,rsp
      bf:	48 83 ec 20          	sub    rsp,0x20
      c3:	48 89 7d e8          	mov    QWORD PTR [rbp-0x18],rdi
      c7:	48 c7 45 f8 00 00 00 	mov    QWORD PTR [rbp-0x8],0x0
      ce:	00 
      cf:	48 8b 05 00 00 00 00 	mov    rax,QWORD PTR [rip+0x0]        # d6 <_ZL8get_procPKc+0x1b>
      d6:	48 85 c0             	test   rax,rax
      d9:	75 07                	jne    e2 <_ZL8get_procPKc+0x27>
      db:	b8 00 00 00 00       	mov    eax,0x0
      e0:	eb 45                	jmp    127 <_ZL8get_procPKc+0x6c>
      e2:	48 8b 05 00 00 00 00 	mov    rax,QWORD PTR [rip+0x0]        # e9 <_ZL8get_procPKc+0x2e>
      e9:	48 85 c0             	test   rax,rax
      ec:	74 14                	je     102 <_ZL8get_procPKc+0x47>
      ee:	48 8b 05 00 00 00 00 	mov    rax,QWORD PTR [rip+0x0]        # f5 <_ZL8get_procPKc+0x3a>
      f5:	48 8b 55 e8          	mov    rdx,QWORD PTR [rbp-0x18]
      f9:	48 89 d7             	mov    rdi,rdx
      fc:	ff d0                	call   rax
      fe:	48 89 45 f8          	mov    QWORD PTR [rbp-0x8],rax
     102:	48 83 7d f8 00       	cmp    QWORD PTR [rbp-0x8],0x0
     107:	75 1a                	jne    123 <_ZL8get_procPKc+0x68>
     109:	48 8b 05 00 00 00 00 	mov    rax,QWORD PTR [rip+0x0]        # 110 <_ZL8get_procPKc+0x55>
     110:	48 8b 55 e8          	mov    rdx,QWORD PTR [rbp-0x18]
     114:	48 89 d6             	mov    rsi,rdx
     117:	48 89 c7             	mov    rdi,rax
     11a:	e8 00 00 00 00       	call   11f <_ZL8get_procPKc+0x64>
     11f:	48 89 45 f8          	mov    QWORD PTR [rbp-0x8],rax
     123:	48 8b 45 f8          	mov    rax,QWORD PTR [rbp-0x8]
     127:	c9                   	leave  
     128:	c3                   	ret    

0000000000000129 <gladLoadGL>:
     129:	55                   	push   rbp
     12a:	48 89 e5             	mov    rbp,rsp
     12d:	48 83 ec 10          	sub    rsp,0x10
     131:	c7 45 fc 00 00 00 00 	mov    DWORD PTR [rbp-0x4],0x0
     138:	e8 c3 fe ff ff       	call   0 <_ZL7open_glv>
     13d:	85 c0                	test   eax,eax
     13f:	0f 95 c0             	setne  al
     142:	84 c0                	test   al,al
     144:	74 14                	je     15a <gladLoadGL+0x31>
     146:	48 8d 3d 6e ff ff ff 	lea    rdi,[rip+0xffffffffffffff6e]        # bb <_ZL8get_procPKc>
     14d:	e8 00 00 00 00       	call   152 <gladLoadGL+0x29>
     152:	89 45 fc             	mov    DWORD PTR [rbp-0x4],eax
     155:	e8 34 ff ff ff       	call   8e <_ZL8close_glv>
     15a:	8b 45 fc             	mov    eax,DWORD PTR [rbp-0x4]
     15d:	c9                   	leave  
     15e:	c3                   	ret    

000000000000015f <_ZL8get_extsv>:
     15f:	55                   	push   rbp
     160:	48 89 e5             	mov    rbp,rsp
     163:	48 83 ec 20          	sub    rsp,0x20
     167:	8b 05 00 00 00 00    	mov    eax,DWORD PTR [rip+0x0]        # 16d <_ZL8get_extsv+0xe>
     16d:	83 f8 02             	cmp    eax,0x2
     170:	7f 1a                	jg     18c <_ZL8get_extsv+0x2d>
     172:	48 8b 05 00 00 00 00 	mov    rax,QWORD PTR [rip+0x0]        # 179 <_ZL8get_extsv+0x1a>
     179:	bf 03 1f 00 00       	mov    edi,0x1f03
     17e:	ff d0                	call   rax
     180:	48 89 05 00 00 00 00 	mov    QWORD PTR [rip+0x0],rax        # 187 <_ZL8get_extsv+0x28>
     187:	e9 ea 00 00 00       	jmp    276 <_ZL8get_extsv+0x117>
     18c:	c7 05 00 00 00 00 00 	mov    DWORD PTR [rip+0x0],0x0        # 196 <_ZL8get_extsv+0x37>
     193:	00 00 00 
     196:	48 8b 05 00 00 00 00 	mov    rax,QWORD PTR [rip+0x0]        # 19d <_ZL8get_extsv+0x3e>
     19d:	48 8d 35 00 00 00 00 	lea    rsi,[rip+0x0]        # 1a4 <_ZL8get_extsv+0x45>
     1a4:	bf 1d 82 00 00       	mov    edi,0x821d
     1a9:	ff d0                	call   rax
     1ab:	8b 05 00 00 00 00    	mov    eax,DWORD PTR [rip+0x0]        # 1b1 <_ZL8get_extsv+0x52>
     1b1:	85 c0                	test   eax,eax
     1b3:	7e 1b                	jle    1d0 <_ZL8get_extsv+0x71>
     1b5:	8b 05 00 00 00 00    	mov    eax,DWORD PTR [rip+0x0]        # 1bb <_ZL8get_extsv+0x5c>
     1bb:	48 98                	cdqe   
     1bd:	48 c1 e0 03          	shl    rax,0x3
     1c1:	48 89 c7             	mov    rdi,rax
     1c4:	e8 00 00 00 00       	call   1c9 <_ZL8get_extsv+0x6a>
     1c9:	48 89 05 00 00 00 00 	mov    QWORD PTR [rip+0x0],rax        # 1d0 <_ZL8get_extsv+0x71>
     1d0:	48 8b 05 00 00 00 00 	mov    rax,QWORD PTR [rip+0x0]        # 1d7 <_ZL8get_extsv+0x78>
     1d7:	48 85 c0             	test   rax,rax
     1da:	75 0a                	jne    1e6 <_ZL8get_extsv+0x87>
     1dc:	b8 00 00 00 00       	mov    eax,0x0
     1e1:	e9 95 00 00 00       	jmp    27b <_ZL8get_extsv+0x11c>
     1e6:	c7 45 e4 00 00 00 00 	mov    DWORD PTR [rbp-0x1c],0x0
     1ed:	8b 05 00 00 00 00    	mov    eax,DWORD PTR [rip+0x0]        # 1f3 <_ZL8get_extsv+0x94>
     1f3:	39 45 e4             	cmp    DWORD PTR [rbp-0x1c],eax
     1f6:	73 7e                	jae    276 <_ZL8get_extsv+0x117>
     1f8:	48 8b 05 00 00 00 00 	mov    rax,QWORD PTR [rip+0x0]        # 1ff <_ZL8get_extsv+0xa0>
     1ff:	8b 55 e4             	mov    edx,DWORD PTR [rbp-0x1c]
     202:	89 d6                	mov    esi,edx
     204:	bf 03 1f 00 00       	mov    edi,0x1f03
     209:	ff d0                	call   rax
     20b:	48 89 45 e8          	mov    QWORD PTR [rbp-0x18],rax
     20f:	48 8b 45 e8          	mov    rax,QWORD PTR [rbp-0x18]
     213:	48 89 c7             	mov    rdi,rax
     216:	e8 00 00 00 00       	call   21b <_ZL8get_extsv+0xbc>
     21b:	48 89 45 f0          	mov    QWORD PTR [rbp-0x10],rax
     21f:	48 8b 45 f0          	mov    rax,QWORD PTR [rbp-0x10]
     223:	48 83 c0 01          	add    rax,0x1
     227:	48 89 c7             	mov    rdi,rax
     22a:	e8 00 00 00 00       	call   22f <_ZL8get_extsv+0xd0>
     22f:	48 89 45 f8          	mov    QWORD PTR [rbp-0x8],rax
     233:	48 83 7d f8 00       	cmp    QWORD PTR [rbp-0x8],0x0
     238:	74 1b                	je     255 <_ZL8get_extsv+0xf6>
     23a:	48 8b 45 f0          	mov    rax,QWORD PTR [rbp-0x10]
     23e:	48 8d 50 01          	lea    rdx,[rax+0x1]
     242:	48 8b 4d e8          	mov    rcx,QWORD PTR [rbp-0x18]
     246:	48 8b 45 f8          	mov    rax,QWORD PTR [rbp-0x8]
     24a:	48 89 ce             	mov    rsi,rcx
     24d:	48 89 c7             	mov    rdi,rax
     250:	e8 00 00 00 00       	call   255 <_ZL8get_extsv+0xf6>
     255:	48 8b 05 00 00 00 00 	mov    rax,QWORD PTR [rip+0x0]        # 25c <_ZL8get_extsv+0xfd>
     25c:	8b 55 e4             	mov    edx,DWORD PTR [rbp-0x1c]
     25f:	48 c1 e2 03          	shl    rdx,0x3
     263:	48 01 c2             	add    rdx,rax
     266:	48 8b 45 f8          	mov    rax,QWORD PTR [rbp-0x8]
     26a:	48 89 02             	mov    QWORD PTR [rdx],rax
     26d:	83 45 e4 01          	add    DWORD PTR [rbp-0x1c],0x1
     271:	e9 77 ff ff ff       	jmp    1ed <_ZL8get_extsv+0x8e>
     276:	b8 01 00 00 00       	mov    eax,0x1
     27b:	c9                   	leave  
     27c:	c3                   	ret    

000000000000027d <_ZL9free_extsv>:
     27d:	55                   	push   rbp
     27e:	48 89 e5             	mov    rbp,rsp
     281:	48 83 ec 10          	sub    rsp,0x10
     285:	48 8b 05 00 00 00 00 	mov    rax,QWORD PTR [rip+0x0]        # 28c <_ZL9free_extsv+0xf>
     28c:	48 85 c0             	test   rax,rax
     28f:	74 51                	je     2e2 <_ZL9free_extsv+0x65>
     291:	c7 45 fc 00 00 00 00 	mov    DWORD PTR [rbp-0x4],0x0
     298:	8b 05 00 00 00 00    	mov    eax,DWORD PTR [rip+0x0]        # 29e <_ZL9free_extsv+0x21>
     29e:	39 45 fc             	cmp    DWORD PTR [rbp-0x4],eax
     2a1:	7d 25                	jge    2c8 <_ZL9free_extsv+0x4b>
     2a3:	48 8b 05 00 00 00 00 	mov    rax,QWORD PTR [rip+0x0]        # 2aa <_ZL9free_extsv+0x2d>
     2aa:	8b 55 fc             	mov    edx,DWORD PTR [rbp-0x4]
     2ad:	48 63 d2             	movsxd rdx,edx
     2b0:	48 c1 e2 03          	shl    rdx,0x3
     2b4:	48 01 d0             	add    rax,rdx
     2b7:	48 8b 00             	mov    rax,QWORD PTR [rax]
     2ba:	48 89 c7             	mov    rdi,rax
     2bd:	e8 00 00 00 00       	call   2c2 <_ZL9free_extsv+0x45>
     2c2:	83 45 fc 01          	add    DWORD PTR [rbp-0x4],0x1
     2c6:	eb d0                	jmp    298 <_ZL9free_extsv+0x1b>
     2c8:	48 8b 05 00 00 00 00 	mov    rax,QWORD PTR [rip+0x0]        # 2cf <_ZL9free_extsv+0x52>
     2cf:	48 89 c7             	mov    rdi,rax
     2d2:	e8 00 00 00 00       	call   2d7 <_ZL9free_extsv+0x5a>
     2d7:	48 c7 05 00 00 00 00 	mov    QWORD PTR [rip+0x0],0x0        # 2e2 <_ZL9free_extsv+0x65>
     2de:	00 00 00 00 
     2e2:	90                   	nop
     2e3:	c9                   	leave  
     2e4:	c3                   	ret    

00000000000002e5 <_ZL7has_extPKc>:
     2e5:	55                   	push   rbp
     2e6:	48 89 e5             	mov    rbp,rsp
     2e9:	48 83 ec 40          	sub    rsp,0x40
     2ed:	48 89 7d c8          	mov    QWORD PTR [rbp-0x38],rdi
     2f1:	8b 05 00 00 00 00    	mov    eax,DWORD PTR [rip+0x0]        # 2f7 <_ZL7has_extPKc+0x12>
     2f7:	83 f8 02             	cmp    eax,0x2
     2fa:	0f 8f ab 00 00 00    	jg     3ab <_ZL7has_extPKc+0xc6>
     300:	48 8b 05 00 00 00 00 	mov    rax,QWORD PTR [rip+0x0]        # 307 <_ZL7has_extPKc+0x22>
     307:	48 89 45 e0          	mov    QWORD PTR [rbp-0x20],rax
     30b:	48 83 7d e0 00       	cmp    QWORD PTR [rbp-0x20],0x0
     310:	74 07                	je     319 <_ZL7has_extPKc+0x34>
     312:	48 83 7d c8 00       	cmp    QWORD PTR [rbp-0x38],0x0
     317:	75 0a                	jne    323 <_ZL7has_extPKc+0x3e>
     319:	b8 00 00 00 00       	mov    eax,0x0
     31e:	e9 0d 01 00 00       	jmp    430 <_ZL7has_extPKc+0x14b>
     323:	48 8b 55 c8          	mov    rdx,QWORD PTR [rbp-0x38]
     327:	48 8b 45 e0          	mov    rax,QWORD PTR [rbp-0x20]
     32b:	48 89 d6             	mov    rsi,rdx
     32e:	48 89 c7             	mov    rdi,rax
     331:	e8 00 00 00 00       	call   336 <_ZL7has_extPKc+0x51>
     336:	48 89 45 f0          	mov    QWORD PTR [rbp-0x10],rax
     33a:	48 83 7d f0 00       	cmp    QWORD PTR [rbp-0x10],0x0
     33f:	75 0a                	jne    34b <_ZL7has_extPKc+0x66>
     341:	b8 00 00 00 00       	mov    eax,0x0
     346:	e9 e5 00 00 00       	jmp    430 <_ZL7has_extPKc+0x14b>
     34b:	48 8b 45 c8          	mov    rax,QWORD PTR [rbp-0x38]
     34f:	48 89 c7             	mov    rdi,rax
     352:	e8 00 00 00 00       	call   357 <_ZL7has_extPKc+0x72>
     357:	48 89 c2             	mov    rdx,rax
     35a:	48 8b 45 f0          	mov    rax,QWORD PTR [rbp-0x10]
     35e:	48 01 d0             	add    rax,rdx
     361:	48 89 45 f8          	mov    QWORD PTR [rbp-0x8],rax
     365:	48 8b 45 f0          	mov    rax,QWORD PTR [rbp-0x10]
     369:	48 3b 45 e0          	cmp    rax,QWORD PTR [rbp-0x20]
     36d:	74 0f                	je     37e <_ZL7has_extPKc+0x99>
     36f:	48 8b 45 f0          	mov    rax,QWORD PTR [rbp-0x10]
     373:	48 83 e8 01          	sub    rax,0x1
     377:	0f b6 00             	movzx  eax,BYTE PTR [rax]
     37a:	3c 20                	cmp    al,0x20
     37c:	75 20                	jne    39e <_ZL7has_extPKc+0xb9>
     37e:	48 8b 45 f8          	mov    rax,QWORD PTR [rbp-0x8]
     382:	0f b6 00             	movzx  eax,BYTE PTR [rax]
     385:	3c 20                	cmp    al,0x20
     387:	74 0b                	je     394 <_ZL7has_extPKc+0xaf>
     389:	48 8b 45 f8          	mov    rax,QWORD PTR [rbp-0x8]
     38d:	0f b6 00             	movzx  eax,BYTE PTR [rax]
     390:	84 c0                	test   al,al
     392:	75 0a                	jne    39e <_ZL7has_extPKc+0xb9>
     394:	b8 01 00 00 00       	mov    eax,0x1
     399:	e9 92 00 00 00       	jmp    430 <_ZL7has_extPKc+0x14b>
     39e:	48 8b 45 f8          	mov    rax,QWORD PTR [rbp-0x8]
     3a2:	48 89 45 e0          	mov    QWORD PTR [rbp-0x20],rax
     3a6:	e9 78 ff ff ff       	jmp    323 <_ZL7has_extPKc+0x3e>
     3ab:	48 8b 05 00 00 00 00 	mov    rax,QWORD PTR [rip+0x0]        # 3b2 <_ZL7has_extPKc+0xcd>
     3b2:	48 85 c0             	test   rax,rax
     3b5:	75 07                	jne    3be <_ZL7has_extPKc+0xd9>
     3b7:	b8 00 00 00 00       	mov    eax,0x0
     3bc:	eb 72                	jmp    430 <_ZL7has_extPKc+0x14b>
     3be:	c7 45 dc 00 00 00 00 	mov    DWORD PTR [rbp-0x24],0x0
     3c5:	8b 05 00 00 00 00    	mov    eax,DWORD PTR [rip+0x0]        # 3cb <_ZL7has_extPKc+0xe6>
     3cb:	39 45 dc             	cmp    DWORD PTR [rbp-0x24],eax
     3ce:	7d 5b                	jge    42b <_ZL7has_extPKc+0x146>
     3d0:	48 8b 05 00 00 00 00 	mov    rax,QWORD PTR [rip+0x0]        # 3d7 <_ZL7has_extPKc+0xf2>
     3d7:	8b 55 dc             	mov    edx,DWORD PTR [rbp-0x24]
     3da:	48 63 d2             	movsxd rdx,edx
     3dd:	48 c1 e2 03          	shl    rdx,0x3
     3e1:	48 01 d0             	add    rax,rdx
     3e4:	48 8b 00             	mov    rax,QWORD PTR [rax]
     3e7:	48 89 45 e8          	mov    QWORD PTR [rbp-0x18],rax
     3eb:	48 8b 05 00 00 00 00 	mov    rax,QWORD PTR [rip+0x0]        # 3f2 <_ZL7has_extPKc+0x10d>
     3f2:	8b 55 dc             	mov    edx,DWORD PTR [rbp-0x24]
     3f5:	48 63 d2             	movsxd rdx,edx
     3f8:	48 c1 e2 03          	shl    rdx,0x3
     3fc:	48 01 d0             	add    rax,rdx
     3ff:	48 8b 00             	mov    rax,QWORD PTR [rax]
     402:	48 85 c0             	test   rax,rax
     405:	74 1e                	je     425 <_ZL7has_extPKc+0x140>
     407:	48 8b 55 c8          	mov    rdx,QWORD PTR [rbp-0x38]
     40b:	48 8b 45 e8          	mov    rax,QWORD PTR [rbp-0x18]
     40f:	48 89 d6             	mov    rsi,rdx
     412:	48 89 c7             	mov    rdi,rax
     415:	e8 00 00 00 00       	call   41a <_ZL7has_extPKc+0x135>
     41a:	85 c0                	test   eax,eax
     41c:	75 07                	jne    425 <_ZL7has_extPKc+0x140>
     41e:	b8 01 00 00 00       	mov    eax,0x1
     423:	eb 0b                	jmp    430 <_ZL7has_extPKc+0x14b>
     425:	83 45 dc 01          	add    DWORD PTR [rbp-0x24],0x1
     429:	eb 9a                	jmp    3c5 <_ZL7has_extPKc+0xe0>
     42b:	b8 00 00 00 00       	mov    eax,0x0
     430:	c9                   	leave  
     431:	c3                   	ret    

0000000000000432 <_ZL19load_GL_VERSION_1_0PFPvPKcE>:
     432:	55                   	push   rbp
     433:	48 89 e5             	mov    rbp,rsp
     436:	48 83 ec 10          	sub    rsp,0x10
     43a:	48 89 7d f8          	mov    QWORD PTR [rbp-0x8],rdi
     43e:	8b 05 00 00 00 00    	mov    eax,DWORD PTR [rip+0x0]        # 444 <_ZL19load_GL_VERSION_1_0PFPvPKcE+0x12>
     444:	85 c0                	test   eax,eax
     446:	0f 84 c2 03 00 00    	je     80e <_ZL19load_GL_VERSION_1_0PFPvPKcE+0x3dc>
     44c:	48 8b 45 f8          	mov    rax,QWORD PTR [rbp-0x8]
     450:	48 8d 3d 00 00 00 00 	lea    rdi,[rip+0x0]        # 457 <_ZL19load_GL_VERSION_1_0PFPvPKcE+0x25>
     457:	ff d0                	call   rax
     459:	48 89 05 00 00 00 00 	mov    QWORD PTR [rip+0x0],rax        # 460 <_ZL19load_GL_VERSION_1_0PFPvPKcE+0x2e>
     460:	48 8b 45 f8          	mov    rax,QWORD PTR [rbp-0x8]
     464:	48 8d 3d 00 00 00 00 	lea    rdi,[rip+0x0]        # 46b <_ZL19load_GL_VERSION_1_0PFPvPKcE+0x39>
     46b:	ff d0                	call   rax
     46d:	48 89 05 00 00 00 00 	mov    QWORD PTR [rip+0x0],rax        # 474 <_ZL19load_GL_VERSION_1_0PFPvPKcE+0x42>
     474:	48 8b 45 f8          	mov    rax,QWORD PTR [rbp-0x8]
     478:	48 8d 3d 00 00 00 00 	lea    rdi,[rip+0x0]        # 47f <_ZL19load_GL_VERSION_1_0PFPvPKcE+0x4d>
     47f:	ff d0                	call   rax
     481:	48 89 05 00 00 00 00 	mov    QWORD PTR [rip+0x0],rax        # 488 <_ZL19load_GL_VERSION_1_0PFPvPKcE+0x56>
     488:	48 8b 45 f8          	mov    rax,QWORD PTR [rbp-0x8]
     48c:	48 8d 3d 00 00 00 00 	lea    rdi,[rip+0x0]        # 493 <_ZL19load_GL_VERSION_1_0PFPvPKcE+0x61>
     493:	ff d0                	call   rax
     495:	48 89 05 00 00 00 00 	mov    QWORD PTR [rip+0x0],rax        # 49c <_ZL19load_GL_VERSION_1_0PFPvPKcE+0x6a>
     49c:	48 8b 45 f8          	mov    rax,QWORD PTR [rbp-0x8]
     4a0:	48 8d 3d 00 00 00 00 	lea    rdi,[rip+0x0]        # 4a7 <_ZL19load_GL_VERSION_1_0PFPvPKcE+0x75>
     4a7:	ff d0                	call   rax
     4a9:	48 89 05 00 00 00 00 	mov    QWORD PTR [rip+0x0],rax        # 4b0 <_ZL19load_GL_VERSION_1_0PFPvPKcE+0x7e>
     4b0:	48 8b 45 f8          	mov    rax,QWORD PTR [rbp-0x8]
     4b4:	48 8d 3d 00 00 00 00 	lea    rdi,[rip+0x0]        # 4bb <_ZL19load_GL_VERSION_1_0PFPvPKcE+0x89>
     4bb:	ff d0                	call   rax
     4bd:	48 89 05 00 00 00 00 	mov    QWORD PTR [rip+0x0],rax        # 4c4 <_ZL19load_GL_VERSION_1_0PFPvPKcE+0x92>
     4c4:	48 8b 45 f8          	mov    rax,QWORD PTR [rbp-0x8]
     4c8:	48 8d 3d 00 00 00 00 	lea    rdi,[rip+0x0]        # 4cf <_ZL19load_GL_VERSION_1_0PFPvPKcE+0x9d>
     4cf:	ff d0                	call   rax
     4d1:	48 89 05 00 00 00 00 	mov    QWORD PTR [rip+0x0],rax        # 4d8 <_ZL19load_GL_VERSION_1_0PFPvPKcE+0xa6>
     4d8:	48 8b 45 f8          	mov    rax,QWORD PTR [rbp-0x8]
     4dc:	48 8d 3d 00 00 00 00 	lea    rdi,[rip+0x0]        # 4e3 <_ZL19load_GL_VERSION_1_0PFPvPKcE+0xb1>
     4e3:	ff d0                	call   rax
     4e5:	48 89 05 00 00 00 00 	mov    QWORD PTR [rip+0x0],rax        # 4ec <_ZL19load_GL_VERSION_1_0PFPvPKcE+0xba>
     4ec:	48 8b 45 f8          	mov    rax,QWORD PTR [rbp-0x8]
     4f0:	48 8d 3d 00 00 00 00 	lea    rdi,[rip+0x0]        # 4f7 <_ZL19load_GL_VERSION_1_0PFPvPKcE+0xc5>
     4f7:	ff d0                	call   rax
     4f9:	48 89 05 00 00 00 00 	mov    QWORD PTR [rip+0x0],rax        # 500 <_ZL19load_GL_VERSION_1_0PFPvPKcE+0xce>
     500:	48 8b 45 f8          	mov    rax,QWORD PTR [rbp-0x8]
     504:	48 8d 3d 00 00 00 00 	lea    rdi,[rip+0x0]        # 50b <_ZL19load_GL_VERSION_1_0PFPvPKcE+0xd9>
     50b:	ff d0                	call   rax
     50d:	48 89 05 00 00 00 00 	mov    QWORD PTR [rip+0x0],rax        # 514 <_ZL19load_GL_VERSION_1_0PFPvPKcE+0xe2>
     514:	48 8b 45 f8          	mov    rax,QWORD PTR [rbp-0x8]
     518:	48 8d 3d 00 00 00 00 	lea    rdi,[rip+0x0]        # 51f <_ZL19load_GL_VERSION_1_0PFPvPKcE+0xed>
     51f:	ff d0                	call   rax
     521:	48 89 05 00 00 00 00 	mov    QWORD PTR [rip+0x0],rax        # 528 <_ZL19load_GL_VERSION_1_0PFPvPKcE+0xf6>
     528:	48 8b 45 f8          	mov    rax,QWORD PTR [rbp-0x8]
     52c:	48 8d 3d 00 00 00 00 	lea    rdi,[rip+0x0]        # 533 <_ZL19load_GL_VERSION_1_0PFPvPKcE+0x101>
     533:	ff d0                	call   rax
     535:	48 89 05 00 00 00 00 	mov    QWORD PTR [rip+0x0],rax        # 53c <_ZL19load_GL_VERSION_1_0PFPvPKcE+0x10a>
     53c:	48 8b 45 f8          	mov    rax,QWORD PTR [rbp-0x8]
     540:	48 8d 3d 00 00 00 00 	lea    rdi,[rip+0x0]        # 547 <_ZL19load_GL_VERSION_1_0PFPvPKcE+0x115>
     547:	ff d0                	call   rax
     549:	48 89 05 00 00 00 00 	mov    QWORD PTR [rip+0x0],rax        # 550 <_ZL19load_GL_VERSION_1_0PFPvPKcE+0x11e>
     550:	48 8b 45 f8          	mov    rax,QWORD PTR [rbp-0x8]
     554:	48 8d 3d 00 00 00 00 	lea    rdi,[rip+0x0]        # 55b <_ZL19load_GL_VERSION_1_0PFPvPKcE+0x129>
     55b:	ff d0                	call   rax
     55d:	48 89 05 00 00 00 00 	mov    QWORD PTR [rip+0x0],rax        # 564 <_ZL19load_GL_VERSION_1_0PFPvPKcE+0x132>
     564:	48 8b 45 f8          	mov    rax,QWORD PTR [rbp-0x8]
     568:	48 8d 3d 00 00 00 00 	lea    rdi,[rip+0x0]        # 56f <_ZL19load_GL_VERSION_1_0PFPvPKcE+0x13d>
     56f:	ff d0                	call   rax
     571:	48 89 05 00 00 00 00 	mov    QWORD PTR [rip+0x0],rax        # 578 <_ZL19load_GL_VERSION_1_0PFPvPKcE+0x146>
     578:	48 8b 45 f8          	mov    rax,QWORD PTR [rbp-0x8]
     57c:	48 8d 3d 00 00 00 00 	lea    rdi,[rip+0x0]        # 583 <_ZL19load_GL_VERSION_1_0PFPvPKcE+0x151>
     583:	ff d0                	call   rax
     585:	48 89 05 00 00 00 00 	mov    QWORD PTR [rip+0x0],rax        # 58c <_ZL19load_GL_VERSION_1_0PFPvPKcE+0x15a>
     58c:	48 8b 45 f8          	mov    rax,QWORD PTR [rbp-0x8]
     590:	48 8d 3d 00 00 00 00 	lea    rdi,[rip+0x0]        # 597 <_ZL19load_GL_VERSION_1_0PFPvPKcE+0x165>
     597:	ff d0                	call   rax
     599:	48 89 05 00 00 00 00 	mov    QWORD PTR [rip+0x0],rax        # 5a0 <_ZL19load_GL_VERSION_1_0PFPvPKcE+0x16e>
     5a0:	48 8b 45 f8          	mov    rax,QWORD PTR [rbp-0x8]
     5a4:	48 8d 3d 00 00 00 00 	lea    rdi,[rip+0x0]        # 5ab <_ZL19load_GL_VERSION_1_0PFPvPKcE+0x179>
     5ab:	ff d0                	call   rax
     5ad:	48 89 05 00 00 00 00 	mov    QWORD PTR [rip+0x0],rax        # 5b4 <_ZL19load_GL_VERSION_1_0PFPvPKcE+0x182>
     5b4:	48 8b 45 f8          	mov    rax,QWORD PTR [rbp-0x8]
     5b8:	48 8d 3d 00 00 00 00 	lea    rdi,[rip+0x0]        # 5bf <_ZL19load_GL_VERSION_1_0PFPvPKcE+0x18d>
     5bf:	ff d0                	call   rax
     5c1:	48 89 05 00 00 00 00 	mov    QWORD PTR [rip+0x0],rax        # 5c8 <_ZL19load_GL_VERSION_1_0PFPvPKcE+0x196>
     5c8:	48 8b 45 f8          	mov    rax,QWORD PTR [rbp-0x8]
     5cc:	48 8d 3d 00 00 00 00 	lea    rdi,[rip+0x0]        # 5d3 <_ZL19load_GL_VERSION_1_0PFPvPKcE+0x1a1>
     5d3:	ff d0                	call   rax
     5d5:	48 89 05 00 00 00 00 	mov    QWORD PTR [rip+0x0],rax        # 5dc <_ZL19load_GL_VERSION_1_0PFPvPKcE+0x1aa>
     5dc:	48 8b 45 f8          	mov    rax,QWORD PTR [rbp-0x8]
     5e0:	48 8d 3d 00 00 00 00 	lea    rdi,[rip+0x0]        # 5e7 <_ZL19load_GL_VERSION_1_0PFPvPKcE+0x1b5>
     5e7:	ff d0                	call   rax
     5e9:	48 89 05 00 00 00 00 	mov    QWORD PTR [rip+0x0],rax        # 5f0 <_ZL19load_GL_VERSION_1_0PFPvPKcE+0x1be>
     5f0:	48 8b 45 f8          	mov    rax,QWORD PTR [rbp-0x8]
     5f4:	48 8d 3d 00 00 00 00 	lea    rdi,[rip+0x0]        # 5fb <_ZL19load_GL_VERSION_1_0PFPvPKcE+0x1c9>
     5fb:	ff d0                	call   rax
     5fd:	48 89 05 00 00 00 00 	mov    QWORD PTR [rip+0x0],rax        # 604 <_ZL19load_GL_VERSION_1_0PFPvPKcE+0x1d2>
     604:	48 8b 45 f8          	mov    rax,QWORD PTR [rbp-0x8]
     608:	48 8d 3d 00 00 00 00 	lea    rdi,[rip+0x0]        # 60f <_ZL19load_GL_VERSION_1_0PFPvPKcE+0x1dd>
     60f:	ff d0                	call   rax
     611:	48 89 05 00 00 00 00 	mov    QWORD PTR [rip+0x0],rax        # 618 <_ZL19load_GL_VERSION_1_0PFPvPKcE+0x1e6>
     618:	48 8b 45 f8          	mov    rax,QWORD PTR [rbp-0x8]
     61c:	48 8d 3d 00 00 00 00 	lea    rdi,[rip+0x0]        # 623 <_ZL19load_GL_VERSION_1_0PFPvPKcE+0x1f1>
     623:	ff d0                	call   rax
     625:	48 89 05 00 00 00 00 	mov    QWORD PTR [rip+0x0],rax        # 62c <_ZL19load_GL_VERSION_1_0PFPvPKcE+0x1fa>
     62c:	48 8b 45 f8          	mov    rax,QWORD PTR [rbp-0x8]
     630:	48 8d 3d 00 00 00 00 	lea    rdi,[rip+0x0]        # 637 <_ZL19load_GL_VERSION_1_0PFPvPKcE+0x205>
     637:	ff d0                	call   rax
     639:	48 89 05 00 00 00 00 	mov    QWORD PTR [rip+0x0],rax        # 640 <_ZL19load_GL_VERSION_1_0PFPvPKcE+0x20e>
     640:	48 8b 45 f8          	mov    rax,QWORD PTR [rbp-0x8]
     644:	48 8d 3d 00 00 00 00 	lea    rdi,[rip+0x0]        # 64b <_ZL19load_GL_VERSION_1_0PFPvPKcE+0x219>
     64b:	ff d0                	call   rax
     64d:	48 89 05 00 00 00 00 	mov    QWORD PTR [rip+0x0],rax        # 654 <_ZL19load_GL_VERSION_1_0PFPvPKcE+0x222>
     654:	48 8b 45 f8          	mov    rax,QWORD PTR [rbp-0x8]
     658:	48 8d 3d 00 00 00 00 	lea    rdi,[rip+0x0]        # 65f <_ZL19load_GL_VERSION_1_0PFPvPKcE+0x22d>
     65f:	ff d0                	call   rax
     661:	48 89 05 00 00 00 00 	mov    QWORD PTR [rip+0x0],rax        # 668 <_ZL19load_GL_VERSION_1_0PFPvPKcE+0x236>
     668:	48 8b 45 f8          	mov    rax,QWORD PTR [rbp-0x8]
     66c:	48 8d 3d 00 00 00 00 	lea    rdi,[rip+0x0]        # 673 <_ZL19load_GL_VERSION_1_0PFPvPKcE+0x241>
     673:	ff d0                	call   rax
     675:	48 89 05 00 00 00 00 	mov    QWORD PTR [rip+0x0],rax        # 67c <_ZL19load_GL_VERSION_1_0PFPvPKcE+0x24a>
     67c:	48 8b 45 f8          	mov    rax,QWORD PTR [rbp-0x8]
     680:	48 8d 3d 00 00 00 00 	lea    rdi,[rip+0x0]        # 687 <_ZL19load_GL_VERSION_1_0PFPvPKcE+0x255>
     687:	ff d0                	call   rax
     689:	48 89 05 00 00 00 00 	mov    QWORD PTR [rip+0x0],rax        # 690 <_ZL19load_GL_VERSION_1_0PFPvPKcE+0x25e>
     690:	48 8b 45 f8          	mov    rax,QWORD PTR [rbp-0x8]
     694:	48 8d 3d 00 00 00 00 	lea    rdi,[rip+0x0]        # 69b <_ZL19load_GL_VERSION_1_0PFPvPKcE+0x269>
     69b:	ff d0                	call   rax
     69d:	48 89 05 00 00 00 00 	mov    QWORD PTR [rip+0x0],rax        # 6a4 <_ZL19load_GL_VERSION_1_0PFPvPKcE+0x272>
     6a4:	48 8b 45 f8          	mov    rax,QWORD PTR [rbp-0x8]
     6a8:	48 8d 3d 00 00 00 00 	lea    rdi,[rip+0x0]        # 6af <_ZL19load_GL_VERSION_1_0PFPvPKcE+0x27d>
     6af:	ff d0                	call   rax
     6b1:	48 89 05 00 00 00 00 	mov    QWORD PTR [rip+0x0],rax        # 6b8 <_ZL19load_GL_VERSION_1_0PFPvPKcE+0x286>
     6b8:	48 8b 45 f8          	mov    rax,QWORD PTR [rbp-0x8]
     6bc:	48 8d 3d 00 00 00 00 	lea    rdi,[rip+0x0]        # 6c3 <_ZL19load_GL_VERSION_1_0PFPvPKcE+0x291>
     6c3:	ff d0                	call   rax
     6c5:	48 89 05 00 00 00 00 	mov    QWORD PTR [rip+0x0],rax        # 6cc <_ZL19load_GL_VERSION_1_0PFPvPKcE+0x29a>
     6cc:	48 8b 45 f8          	mov    rax,QWORD PTR [rbp-0x8]
     6d0:	48 8d 3d 00 00 00 00 	lea    rdi,[rip+0x0]        # 6d7 <_ZL19load_GL_VERSION_1_0PFPvPKcE+0x2a5>
     6d7:	ff d0                	call   rax
     6d9:	48 89 05 00 00 00 00 	mov    QWORD PTR [rip+0x0],rax        # 6e0 <_ZL19load_GL_VERSION_1_0PFPvPKcE+0x2ae>
     6e0:	48 8b 45 f8          	mov    rax,QWORD PTR [rbp-0x8]
     6e4:	48 8d 3d 00 00 00 00 	lea    rdi,[rip+0x0]        # 6eb <_ZL19load_GL_VERSION_1_0PFPvPKcE+0x2b9>
     6eb:	ff d0                	call   rax
     6ed:	48 89 05 00 00 00 00 	mov    QWORD PTR [rip+0x0],rax        # 6f4 <_ZL19load_GL_VERSION_1_0PFPvPKcE+0x2c2>
     6f4:	48 8b 45 f8          	mov    rax,QWORD PTR [rbp-0x8]
     6f8:	48 8d 3d 00 00 00 00 	lea    rdi,[rip+0x0]        # 6ff <_ZL19load_GL_VERSION_1_0PFPvPKcE+0x2cd>
     6ff:	ff d0                	call   rax
     701:	48 89 05 00 00 00 00 	mov    QWORD PTR [rip+0x0],rax        # 708 <_ZL19load_GL_VERSION_1_0PFPvPKcE+0x2d6>
     708:	48 8b 45 f8          	mov    rax,QWORD PTR [rbp-0x8]
     70c:	48 8d 3d 00 00 00 00 	lea    rdi,[rip+0x0]        # 713 <_ZL19load_GL_VERSION_1_0PFPvPKcE+0x2e1>
     713:	ff d0                	call   rax
     715:	48 89 05 00 00 00 00 	mov    QWORD PTR [rip+0x0],rax        # 71c <_ZL19load_GL_VERSION_1_0PFPvPKcE+0x2ea>
     71c:	48 8b 45 f8          	mov    rax,QWORD PTR [rbp-0x8]
     720:	48 8d 3d 00 00 00 00 	lea    rdi,[rip+0x0]        # 727 <_ZL19load_GL_VERSION_1_0PFPvPKcE+0x2f5>
     727:	ff d0                	call   rax
     729:	48 89 05 00 00 00 00 	mov    QWORD PTR [rip+0x0],rax        # 730 <_ZL19load_GL_VERSION_1_0PFPvPKcE+0x2fe>
     730:	48 8b 45 f8          	mov    rax,QWORD PTR [rbp-0x8]
     734:	48 8d 3d 00 00 00 00 	lea    rdi,[rip+0x0]        # 73b <_ZL19load_GL_VERSION_1_0PFPvPKcE+0x309>
     73b:	ff d0                	call   rax
     73d:	48 89 05 00 00 00 00 	mov    QWORD PTR [rip+0x0],rax        # 744 <_ZL19load_GL_VERSION_1_0PFPvPKcE+0x312>
     744:	48 8b 45 f8          	mov    rax,QWORD PTR [rbp-0x8]
     748:	48 8d 3d 00 00 00 00 	lea    rdi,[rip+0x0]        # 74f <_ZL19load_GL_VERSION_1_0PFPvPKcE+0x31d>
     74f:	ff d0                	call   rax
     751:	48 89 05 00 00 00 00 	mov    QWORD PTR [rip+0x0],rax        # 758 <_ZL19load_GL_VERSION_1_0PFPvPKcE+0x326>
     758:	48 8b 45 f8          	mov    rax,QWORD PTR [rbp-0x8]
     75c:	48 8d 3d 00 00 00 00 	lea    rdi,[rip+0x0]        # 763 <_ZL19load_GL_VERSION_1_0PFPvPKcE+0x331>
     763:	ff d0                	call   rax
     765:	48 89 05 00 00 00 00 	mov    QWORD PTR [rip+0x0],rax        # 76c <_ZL19load_GL_VERSION_1_0PFPvPKcE+0x33a>
     76c:	48 8b 45 f8          	mov    rax,QWORD PTR [rbp-0x8]
     770:	48 8d 3d 00 00 00 00 	lea    rdi,[rip+0x0]        # 777 <_ZL19load_GL_VERSION_1_0PFPvPKcE+0x345>
     777:	ff d0                	call   rax
     779:	48 89 05 00 00 00 00 	mov    QWORD PTR [rip+0x0],rax        # 780 <_ZL19load_GL_VERSION_1_0PFPvPKcE+0x34e>
     780:	48 8b 45 f8          	mov    rax,QWORD PTR [rbp-0x8]
     784:	48 8d 3d 00 00 00 00 	lea    rdi,[rip+0x0]        # 78b <_ZL19load_GL_VERSION_1_0PFPvPKcE+0x359>
     78b:	ff d0                	call   rax
     78d:	48 89 05 00 00 00 00 	mov    QWORD PTR [rip+0x0],rax        # 794 <_ZL19load_GL_VERSION_1_0PFPvPKcE+0x362>
     794:	48 8b 45 f8          	mov    rax,QWORD PTR [rbp-0x8]
     798:	48 8d 3d 00 00 00 00 	lea    rdi,[rip+0x0]        # 79f <_ZL19load_GL_VERSION_1_0PFPvPKcE+0x36d>
     79f:	ff d0                	call   rax
     7a1:	48 89 05 00 00 00 00 	mov    QWORD PTR [rip+0x0],rax        # 7a8 <_ZL19load_GL_VERSION_1_0PFPvPKcE+0x376>
     7a8:	48 8b 45 f8          	mov    rax,QWORD PTR [rbp-0x8]
     7ac:	48 8d 3d 00 00 00 00 	lea    rdi,[rip+0x0]        # 7b3 <_ZL19load_GL_VERSION_1_0PFPvPKcE+0x381>
     7b3:	ff d0                	call   rax
     7b5:	48 89 05 00 00 00 00 	mov    QWORD PTR [rip+0x0],rax        # 7bc <_ZL19load_GL_VERSION_1_0PFPvPKcE+0x38a>
     7bc:	48 8b 45 f8          	mov    rax,QWORD PTR [rbp-0x8]
     7c0:	48 8d 3d 00 00 00 00 	lea    rdi,[rip+0x0]        # 7c7 <_ZL19load_GL_VERSION_1_0PFPvPKcE+0x395>
     7c7:	ff d0                	call   rax
     7c9:	48 89 05 00 00 00 00 	mov    QWORD PTR [rip+0x0],rax        # 7d0 <_ZL19load_GL_VERSION_1_0PFPvPKcE+0x39e>
     7d0:	48 8b 45 f8          	mov    rax,QWORD PTR [rbp-0x8]
     7d4:	48 8d 3d 00 00 00 00 	lea    rdi,[rip+0x0]        # 7db <_ZL19load_GL_VERSION_1_0PFPvPKcE+0x3a9>
     7db:	ff d0                	call   rax
     7dd:	48 89 05 00 00 00 00 	mov    QWORD PTR [rip+0x0],rax        # 7e4 <_ZL19load_GL_VERSION_1_0PFPvPKcE+0x3b2>
     7e4:	48 8b 45 f8          	mov    rax,QWORD PTR [rbp-0x8]
     7e8:	48 8d 3d 00 00 00 00 	lea    rdi,[rip+0x0]        # 7ef <_ZL19load_GL_VERSION_1_0PFPvPKcE+0x3bd>
     7ef:	ff d0                	call   rax
     7f1:	48 89 05 00 00 00 00 	mov    QWORD PTR [rip+0x0],rax        # 7f8 <_ZL19load_GL_VERSION_1_0PFPvPKcE+0x3c6>
     7f8:	48 8b 45 f8          	mov    rax,QWORD PTR [rbp-0x8]
     7fc:	48 8d 3d 00 00 00 00 	lea    rdi,[rip+0x0]        # 803 <_ZL19load_GL_VERSION_1_0PFPvPKcE+0x3d1>
     803:	ff d0                	call   rax
     805:	48 89 05 00 00 00 00 	mov    QWORD PTR [rip+0x0],rax        # 80c <_ZL19load_GL_VERSION_1_0PFPvPKcE+0x3da>
     80c:	eb 01                	jmp    80f <_ZL19load_GL_VERSION_1_0PFPvPKcE+0x3dd>
     80e:	90                   	nop
     80f:	c9                   	leave  
     810:	c3                   	ret    

0000000000000811 <_ZL19load_GL_VERSION_1_1PFPvPKcE>:
     811:	55                   	push   rbp
     812:	48 89 e5             	mov    rbp,rsp
     815:	48 83 ec 10          	sub    rsp,0x10
     819:	48 89 7d f8          	mov    QWORD PTR [rbp-0x8],rdi
     81d:	8b 05 00 00 00 00    	mov    eax,DWORD PTR [rip+0x0]        # 823 <_ZL19load_GL_VERSION_1_1PFPvPKcE+0x12>
     823:	85 c0                	test   eax,eax
     825:	0f 84 06 01 00 00    	je     931 <_ZL19load_GL_VERSION_1_1PFPvPKcE+0x120>
     82b:	48 8b 45 f8          	mov    rax,QWORD PTR [rbp-0x8]
     82f:	48 8d 3d 00 00 00 00 	lea    rdi,[rip+0x0]        # 836 <_ZL19load_GL_VERSION_1_1PFPvPKcE+0x25>
     836:	ff d0                	call   rax
     838:	48 89 05 00 00 00 00 	mov    QWORD PTR [rip+0x0],rax        # 83f <_ZL19load_GL_VERSION_1_1PFPvPKcE+0x2e>
     83f:	48 8b 45 f8          	mov    rax,QWORD PTR [rbp-0x8]
     843:	48 8d 3d 00 00 00 00 	lea    rdi,[rip+0x0]        # 84a <_ZL19load_GL_VERSION_1_1PFPvPKcE+0x39>
     84a:	ff d0                	call   rax
     84c:	48 89 05 00 00 00 00 	mov    QWORD PTR [rip+0x0],rax        # 853 <_ZL19load_GL_VERSION_1_1PFPvPKcE+0x42>
     853:	48 8b 45 f8          	mov    rax,QWORD PTR [rbp-0x8]
     857:	48 8d 3d 00 00 00 00 	lea    rdi,[rip+0x0]        # 85e <_ZL19load_GL_VERSION_1_1PFPvPKcE+0x4d>
     85e:	ff d0                	call   rax
     860:	48 89 05 00 00 00 00 	mov    QWORD PTR [rip+0x0],rax        # 867 <_ZL19load_GL_VERSION_1_1PFPvPKcE+0x56>
     867:	48 8b 45 f8          	mov    rax,QWORD PTR [rbp-0x8]
     86b:	48 8d 3d 00 00 00 00 	lea    rdi,[rip+0x0]        # 872 <_ZL19load_GL_VERSION_1_1PFPvPKcE+0x61>
     872:	ff d0                	call   rax
     874:	48 89 05 00 00 00 00 	mov    QWORD PTR [rip+0x0],rax        # 87b <_ZL19load_GL_VERSION_1_1PFPvPKcE+0x6a>
     87b:	48 8b 45 f8          	mov    rax,QWORD PTR [rbp-0x8]
     87f:	48 8d 3d 00 00 00 00 	lea    rdi,[rip+0x0]        # 886 <_ZL19load_GL_VERSION_1_1PFPvPKcE+0x75>
     886:	ff d0                	call   rax
     888:	48 89 05 00 00 00 00 	mov    QWORD PTR [rip+0x0],rax        # 88f <_ZL19load_GL_VERSION_1_1PFPvPKcE+0x7e>
     88f:	48 8b 45 f8          	mov    rax,QWORD PTR [rbp-0x8]
     893:	48 8d 3d 00 00 00 00 	lea    rdi,[rip+0x0]        # 89a <_ZL19load_GL_VERSION_1_1PFPvPKcE+0x89>
     89a:	ff d0                	call   rax
     89c:	48 89 05 00 00 00 00 	mov    QWORD PTR [rip+0x0],rax        # 8a3 <_ZL19load_GL_VERSION_1_1PFPvPKcE+0x92>
     8a3:	48 8b 45 f8          	mov    rax,QWORD PTR [rbp-0x8]
     8a7:	48 8d 3d 00 00 00 00 	lea    rdi,[rip+0x0]        # 8ae <_ZL19load_GL_VERSION_1_1PFPvPKcE+0x9d>
     8ae:	ff d0                	call   rax
     8b0:	48 89 05 00 00 00 00 	mov    QWORD PTR [rip+0x0],rax        # 8b7 <_ZL19load_GL_VERSION_1_1PFPvPKcE+0xa6>
     8b7:	48 8b 45 f8          	mov    rax,QWORD PTR [rbp-0x8]
     8bb:	48 8d 3d 00 00 00 00 	lea    rdi,[rip+0x0]        # 8c2 <_ZL19load_GL_VERSION_1_1PFPvPKcE+0xb1>
     8c2:	ff d0                	call   rax
     8c4:	48 89 05 00 00 00 00 	mov    QWORD PTR [rip+0x0],rax        # 8cb <_ZL19load_GL_VERSION_1_1PFPvPKcE+0xba>
     8cb:	48 8b 45 f8          	mov    rax,QWORD PTR [rbp-0x8]
     8cf:	48 8d 3d 00 00 00 00 	lea    rdi,[rip+0x0]        # 8d6 <_ZL19load_GL_VERSION_1_1PFPvPKcE+0xc5>
     8d6:	ff d0                	call   rax
     8d8:	48 89 05 00 00 00 00 	mov    QWORD PTR [rip+0x0],rax        # 8df <_ZL19load_GL_VERSION_1_1PFPvPKcE+0xce>
     8df:	48 8b 45 f8          	mov    rax,QWORD PTR [rbp-0x8]
     8e3:	48 8d 3d 00 00 00 00 	lea    rdi,[rip+0x0]        # 8ea <_ZL19load_GL_VERSION_1_1PFPvPKcE+0xd9>
     8ea:	ff d0                	call   rax
     8ec:	48 89 05 00 00 00 00 	mov    QWORD PTR [rip+0x0],rax        # 8f3 <_ZL19load_GL_VERSION_1_1PFPvPKcE+0xe2>
     8f3:	48 8b 45 f8          	mov    rax,QWORD PTR [rbp-0x8]
     8f7:	48 8d 3d 00 00 00 00 	lea    rdi,[rip+0x0]        # 8fe <_ZL19load_GL_VERSION_1_1PFPvPKcE+0xed>
     8fe:	ff d0                	call   rax
     900:	48 89 05 00 00 00 00 	mov    QWORD PTR [rip+0x0],rax        # 907 <_ZL19load_GL_VERSION_1_1PFPvPKcE+0xf6>
     907:	48 8b 45 f8          	mov    rax,QWORD PTR [rbp-0x8]
     90b:	48 8d 3d 00 00 00 00 	lea    rdi,[rip+0x0]        # 912 <_ZL19load_GL_VERSION_1_1PFPvPKcE+0x101>
     912:	ff d0                	call   rax
     914:	48 89 05 00 00 00 00 	mov    QWORD PTR [rip+0x0],rax        # 91b <_ZL19load_GL_VERSION_1_1PFPvPKcE+0x10a>
     91b:	48 8b 45 f8          	mov    rax,QWORD PTR [rbp-0x8]
     91f:	48 8d 3d 00 00 00 00 	lea    rdi,[rip+0x0]        # 926 <_ZL19load_GL_VERSION_1_1PFPvPKcE+0x115>
     926:	ff d0                	call   rax
     928:	48 89 05 00 00 00 00 	mov    QWORD PTR [rip+0x0],rax        # 92f <_ZL19load_GL_VERSION_1_1PFPvPKcE+0x11e>
     92f:	eb 01                	jmp    932 <_ZL19load_GL_VERSION_1_1PFPvPKcE+0x121>
     931:	90                   	nop
     932:	c9                   	leave  
     933:	c3                   	ret    

0000000000000934 <_ZL19load_GL_VERSION_1_2PFPvPKcE>:
     934:	55                   	push   rbp
     935:	48 89 e5             	mov    rbp,rsp
     938:	48 83 ec 10          	sub    rsp,0x10
     93c:	48 89 7d f8          	mov    QWORD PTR [rbp-0x8],rdi
     940:	8b 05 00 00 00 00    	mov    eax,DWORD PTR [rip+0x0]        # 946 <_ZL19load_GL_VERSION_1_2PFPvPKcE+0x12>
     946:	85 c0                	test   eax,eax
     948:	74 52                	je     99c <_ZL19load_GL_VERSION_1_2PFPvPKcE+0x68>
     94a:	48 8b 45 f8          	mov    rax,QWORD PTR [rbp-0x8]
     94e:	48 8d 3d 00 00 00 00 	lea    rdi,[rip+0x0]        # 955 <_ZL19load_GL_VERSION_1_2PFPvPKcE+0x21>
     955:	ff d0                	call   rax
     957:	48 89 05 00 00 00 00 	mov    QWORD PTR [rip+0x0],rax        # 95e <_ZL19load_GL_VERSION_1_2PFPvPKcE+0x2a>
     95e:	48 8b 45 f8          	mov    rax,QWORD PTR [rbp-0x8]
     962:	48 8d 3d 00 00 00 00 	lea    rdi,[rip+0x0]        # 969 <_ZL19load_GL_VERSION_1_2PFPvPKcE+0x35>
     969:	ff d0                	call   rax
     96b:	48 89 05 00 00 00 00 	mov    QWORD PTR [rip+0x0],rax        # 972 <_ZL19load_GL_VERSION_1_2PFPvPKcE+0x3e>
     972:	48 8b 45 f8          	mov    rax,QWORD PTR [rbp-0x8]
     976:	48 8d 3d 00 00 00 00 	lea    rdi,[rip+0x0]        # 97d <_ZL19load_GL_VERSION_1_2PFPvPKcE+0x49>
     97d:	ff d0                	call   rax
     97f:	48 89 05 00 00 00 00 	mov    QWORD PTR [rip+0x0],rax        # 986 <_ZL19load_GL_VERSION_1_2PFPvPKcE+0x52>
     986:	48 8b 45 f8          	mov    rax,QWORD PTR [rbp-0x8]
     98a:	48 8d 3d 00 00 00 00 	lea    rdi,[rip+0x0]        # 991 <_ZL19load_GL_VERSION_1_2PFPvPKcE+0x5d>
     991:	ff d0                	call   rax
     993:	48 89 05 00 00 00 00 	mov    QWORD PTR [rip+0x0],rax        # 99a <_ZL19load_GL_VERSION_1_2PFPvPKcE+0x66>
     99a:	eb 01                	jmp    99d <_ZL19load_GL_VERSION_1_2PFPvPKcE+0x69>
     99c:	90                   	nop
     99d:	c9                   	leave  
     99e:	c3                   	ret    

000000000000099f <_ZL19load_GL_VERSION_1_3PFPvPKcE>:
     99f:	55                   	push   rbp
     9a0:	48 89 e5             	mov    rbp,rsp
     9a3:	48 83 ec 10          	sub    rsp,0x10
     9a7:	48 89 7d f8          	mov    QWORD PTR [rbp-0x8],rdi
     9ab:	8b 05 00 00 00 00    	mov    eax,DWORD PTR [rip+0x0]        # 9b1 <_ZL19load_GL_VERSION_1_3PFPvPKcE+0x12>
     9b1:	85 c0                	test   eax,eax
     9b3:	0f 84 b6 00 00 00    	je     a6f <_ZL19load_GL_VERSION_1_3PFPvPKcE+0xd0>
     9b9:	48 8b 45 f8          	mov    rax,QWORD PTR [rbp-0x8]
     9bd:	48 8d 3d 00 00 00 00 	lea    rdi,[rip+0x0]        # 9c4 <_ZL19load_GL_VERSION_1_3PFPvPKcE+0x25>
     9c4:	ff d0                	call   rax
     9c6:	48 89 05 00 00 00 00 	mov    QWORD PTR [rip+0x0],rax        # 9cd <_ZL19load_GL_VERSION_1_3PFPvPKcE+0x2e>
     9cd:	48 8b 45 f8          	mov    rax,QWORD PTR [rbp-0x8]
     9d1:	48 8d 3d 00 00 00 00 	lea    rdi,[rip+0x0]        # 9d8 <_ZL19load_GL_VERSION_1_3PFPvPKcE+0x39>
     9d8:	ff d0                	call   rax
     9da:	48 89 05 00 00 00 00 	mov    QWORD PTR [rip+0x0],rax        # 9e1 <_ZL19load_GL_VERSION_1_3PFPvPKcE+0x42>
     9e1:	48 8b 45 f8          	mov    rax,QWORD PTR [rbp-0x8]
     9e5:	48 8d 3d 00 00 00 00 	lea    rdi,[rip+0x0]        # 9ec <_ZL19load_GL_VERSION_1_3PFPvPKcE+0x4d>
     9ec:	ff d0                	call   rax
     9ee:	48 89 05 00 00 00 00 	mov    QWORD PTR [rip+0x0],rax        # 9f5 <_ZL19load_GL_VERSION_1_3PFPvPKcE+0x56>
     9f5:	48 8b 45 f8          	mov    rax,QWORD PTR [rbp-0x8]
     9f9:	48 8d 3d 00 00 00 00 	lea    rdi,[rip+0x0]        # a00 <_ZL19load_GL_VERSION_1_3PFPvPKcE+0x61>
     a00:	ff d0                	call   rax
     a02:	48 89 05 00 00 00 00 	mov    QWORD PTR [rip+0x0],rax        # a09 <_ZL19load_GL_VERSION_1_3PFPvPKcE+0x6a>
     a09:	48 8b 45 f8          	mov    rax,QWORD PTR [rbp-0x8]
     a0d:	48 8d 3d 00 00 00 00 	lea    rdi,[rip+0x0]        # a14 <_ZL19load_GL_VERSION_1_3PFPvPKcE+0x75>
     a14:	ff d0                	call   rax
     a16:	48 89 05 00 00 00 00 	mov    QWORD PTR [rip+0x0],rax        # a1d <_ZL19load_GL_VERSION_1_3PFPvPKcE+0x7e>
     a1d:	48 8b 45 f8          	mov    rax,QWORD PTR [rbp-0x8]
     a21:	48 8d 3d 00 00 00 00 	lea    rdi,[rip+0x0]        # a28 <_ZL19load_GL_VERSION_1_3PFPvPKcE+0x89>
     a28:	ff d0                	call   rax
     a2a:	48 89 05 00 00 00 00 	mov    QWORD PTR [rip+0x0],rax        # a31 <_ZL19load_GL_VERSION_1_3PFPvPKcE+0x92>
     a31:	48 8b 45 f8          	mov    rax,QWORD PTR [rbp-0x8]
     a35:	48 8d 3d 00 00 00 00 	lea    rdi,[rip+0x0]        # a3c <_ZL19load_GL_VERSION_1_3PFPvPKcE+0x9d>
     a3c:	ff d0                	call   rax
     a3e:	48 89 05 00 00 00 00 	mov    QWORD PTR [rip+0x0],rax        # a45 <_ZL19load_GL_VERSION_1_3PFPvPKcE+0xa6>
     a45:	48 8b 45 f8          	mov    rax,QWORD PTR [rbp-0x8]
     a49:	48 8d 3d 00 00 00 00 	lea    rdi,[rip+0x0]        # a50 <_ZL19load_GL_VERSION_1_3PFPvPKcE+0xb1>
     a50:	ff d0                	call   rax
     a52:	48 89 05 00 00 00 00 	mov    QWORD PTR [rip+0x0],rax        # a59 <_ZL19load_GL_VERSION_1_3PFPvPKcE+0xba>
     a59:	48 8b 45 f8          	mov    rax,QWORD PTR [rbp-0x8]
     a5d:	48 8d 3d 00 00 00 00 	lea    rdi,[rip+0x0]        # a64 <_ZL19load_GL_VERSION_1_3PFPvPKcE+0xc5>
     a64:	ff d0                	call   rax
     a66:	48 89 05 00 00 00 00 	mov    QWORD PTR [rip+0x0],rax        # a6d <_ZL19load_GL_VERSION_1_3PFPvPKcE+0xce>
     a6d:	eb 01                	jmp    a70 <_ZL19load_GL_VERSION_1_3PFPvPKcE+0xd1>
     a6f:	90                   	nop
     a70:	c9                   	leave  
     a71:	c3                   	ret    

0000000000000a72 <_ZL19load_GL_VERSION_1_4PFPvPKcE>:
     a72:	55                   	push   rbp
     a73:	48 89 e5             	mov    rbp,rsp
     a76:	48 83 ec 10          	sub    rsp,0x10
     a7a:	48 89 7d f8          	mov    QWORD PTR [rbp-0x8],rdi
     a7e:	8b 05 00 00 00 00    	mov    eax,DWORD PTR [rip+0x0]        # a84 <_ZL19load_GL_VERSION_1_4PFPvPKcE+0x12>
     a84:	85 c0                	test   eax,eax
     a86:	0f 84 b6 00 00 00    	je     b42 <_ZL19load_GL_VERSION_1_4PFPvPKcE+0xd0>
     a8c:	48 8b 45 f8          	mov    rax,QWORD PTR [rbp-0x8]
     a90:	48 8d 3d 00 00 00 00 	lea    rdi,[rip+0x0]        # a97 <_ZL19load_GL_VERSION_1_4PFPvPKcE+0x25>
     a97:	ff d0                	call   rax
     a99:	48 89 05 00 00 00 00 	mov    QWORD PTR [rip+0x0],rax        # aa0 <_ZL19load_GL_VERSION_1_4PFPvPKcE+0x2e>
     aa0:	48 8b 45 f8          	mov    rax,QWORD PTR [rbp-0x8]
     aa4:	48 8d 3d 00 00 00 00 	lea    rdi,[rip+0x0]        # aab <_ZL19load_GL_VERSION_1_4PFPvPKcE+0x39>
     aab:	ff d0                	call   rax
     aad:	48 89 05 00 00 00 00 	mov    QWORD PTR [rip+0x0],rax        # ab4 <_ZL19load_GL_VERSION_1_4PFPvPKcE+0x42>
     ab4:	48 8b 45 f8          	mov    rax,QWORD PTR [rbp-0x8]
     ab8:	48 8d 3d 00 00 00 00 	lea    rdi,[rip+0x0]        # abf <_ZL19load_GL_VERSION_1_4PFPvPKcE+0x4d>
     abf:	ff d0                	call   rax
     ac1:	48 89 05 00 00 00 00 	mov    QWORD PTR [rip+0x0],rax        # ac8 <_ZL19load_GL_VERSION_1_4PFPvPKcE+0x56>
     ac8:	48 8b 45 f8          	mov    rax,QWORD PTR [rbp-0x8]
     acc:	48 8d 3d 00 00 00 00 	lea    rdi,[rip+0x0]        # ad3 <_ZL19load_GL_VERSION_1_4PFPvPKcE+0x61>
     ad3:	ff d0                	call   rax
     ad5:	48 89 05 00 00 00 00 	mov    QWORD PTR [rip+0x0],rax        # adc <_ZL19load_GL_VERSION_1_4PFPvPKcE+0x6a>
     adc:	48 8b 45 f8          	mov    rax,QWORD PTR [rbp-0x8]
     ae0:	48 8d 3d 00 00 00 00 	lea    rdi,[rip+0x0]        # ae7 <_ZL19load_GL_VERSION_1_4PFPvPKcE+0x75>
     ae7:	ff d0                	call   rax
     ae9:	48 89 05 00 00 00 00 	mov    QWORD PTR [rip+0x0],rax        # af0 <_ZL19load_GL_VERSION_1_4PFPvPKcE+0x7e>
     af0:	48 8b 45 f8          	mov    rax,QWORD PTR [rbp-0x8]
     af4:	48 8d 3d 00 00 00 00 	lea    rdi,[rip+0x0]        # afb <_ZL19load_GL_VERSION_1_4PFPvPKcE+0x89>
     afb:	ff d0                	call   rax
     afd:	48 89 05 00 00 00 00 	mov    QWORD PTR [rip+0x0],rax        # b04 <_ZL19load_GL_VERSION_1_4PFPvPKcE+0x92>
     b04:	48 8b 45 f8          	mov    rax,QWORD PTR [rbp-0x8]
     b08:	48 8d 3d 00 00 00 00 	lea    rdi,[rip+0x0]        # b0f <_ZL19load_GL_VERSION_1_4PFPvPKcE+0x9d>
     b0f:	ff d0                	call   rax
     b11:	48 89 05 00 00 00 00 	mov    QWORD PTR [rip+0x0],rax        # b18 <_ZL19load_GL_VERSION_1_4PFPvPKcE+0xa6>
     b18:	48 8b 45 f8          	mov    rax,QWORD PTR [rbp-0x8]
     b1c:	48 8d 3d 00 00 00 00 	lea    rdi,[rip+0x0]        # b23 <_ZL19load_GL_VERSION_1_4PFPvPKcE+0xb1>
     b23:	ff d0                	call   rax
     b25:	48 89 05 00 00 00 00 	mov    QWORD PTR [rip+0x0],rax        # b2c <_ZL19load_GL_VERSION_1_4PFPvPKcE+0xba>
     b2c:	48 8b 45 f8          	mov    rax,QWORD PTR [rbp-0x8]
     b30:	48 8d 3d 00 00 00 00 	lea    rdi,[rip+0x0]        # b37 <_ZL19load_GL_VERSION_1_4PFPvPKcE+0xc5>
     b37:	ff d0                	call   rax
     b39:	48 89 05 00 00 00 00 	mov    QWORD PTR [rip+0x0],rax        # b40 <_ZL19load_GL_VERSION_1_4PFPvPKcE+0xce>
     b40:	eb 01                	jmp    b43 <_ZL19load_GL_VERSION_1_4PFPvPKcE+0xd1>
     b42:	90                   	nop
     b43:	c9                   	leave  
     b44:	c3                   	ret    

0000000000000b45 <_ZL19load_GL_VERSION_1_5PFPvPKcE>:
     b45:	55                   	push   rbp
     b46:	48 89 e5             	mov    rbp,rsp
     b49:	48 83 ec 10          	sub    rsp,0x10
     b4d:	48 89 7d f8          	mov    QWORD PTR [rbp-0x8],rdi
     b51:	8b 05 00 00 00 00    	mov    eax,DWORD PTR [rip+0x0]        # b57 <_ZL19load_GL_VERSION_1_5PFPvPKcE+0x12>
     b57:	85 c0                	test   eax,eax
     b59:	0f 84 7e 01 00 00    	je     cdd <_ZL19load_GL_VERSION_1_5PFPvPKcE+0x198>
     b5f:	48 8b 45 f8          	mov    rax,QWORD PTR [rbp-0x8]
     b63:	48 8d 3d 00 00 00 00 	lea    rdi,[rip+0x0]        # b6a <_ZL19load_GL_VERSION_1_5PFPvPKcE+0x25>
     b6a:	ff d0                	call   rax
     b6c:	48 89 05 00 00 00 00 	mov    QWORD PTR [rip+0x0],rax        # b73 <_ZL19load_GL_VERSION_1_5PFPvPKcE+0x2e>
     b73:	48 8b 45 f8          	mov    rax,QWORD PTR [rbp-0x8]
     b77:	48 8d 3d 00 00 00 00 	lea    rdi,[rip+0x0]        # b7e <_ZL19load_GL_VERSION_1_5PFPvPKcE+0x39>
     b7e:	ff d0                	call   rax
     b80:	48 89 05 00 00 00 00 	mov    QWORD PTR [rip+0x0],rax        # b87 <_ZL19load_GL_VERSION_1_5PFPvPKcE+0x42>
     b87:	48 8b 45 f8          	mov    rax,QWORD PTR [rbp-0x8]
     b8b:	48 8d 3d 00 00 00 00 	lea    rdi,[rip+0x0]        # b92 <_ZL19load_GL_VERSION_1_5PFPvPKcE+0x4d>
     b92:	ff d0                	call   rax
     b94:	48 89 05 00 00 00 00 	mov    QWORD PTR [rip+0x0],rax        # b9b <_ZL19load_GL_VERSION_1_5PFPvPKcE+0x56>
     b9b:	48 8b 45 f8          	mov    rax,QWORD PTR [rbp-0x8]
     b9f:	48 8d 3d 00 00 00 00 	lea    rdi,[rip+0x0]        # ba6 <_ZL19load_GL_VERSION_1_5PFPvPKcE+0x61>
     ba6:	ff d0                	call   rax
     ba8:	48 89 05 00 00 00 00 	mov    QWORD PTR [rip+0x0],rax        # baf <_ZL19load_GL_VERSION_1_5PFPvPKcE+0x6a>
     baf:	48 8b 45 f8          	mov    rax,QWORD PTR [rbp-0x8]
     bb3:	48 8d 3d 00 00 00 00 	lea    rdi,[rip+0x0]        # bba <_ZL19load_GL_VERSION_1_5PFPvPKcE+0x75>
     bba:	ff d0                	call   rax
     bbc:	48 89 05 00 00 00 00 	mov    QWORD PTR [rip+0x0],rax        # bc3 <_ZL19load_GL_VERSION_1_5PFPvPKcE+0x7e>
     bc3:	48 8b 45 f8          	mov    rax,QWORD PTR [rbp-0x8]
     bc7:	48 8d 3d 00 00 00 00 	lea    rdi,[rip+0x0]        # bce <_ZL19load_GL_VERSION_1_5PFPvPKcE+0x89>
     bce:	ff d0                	call   rax
     bd0:	48 89 05 00 00 00 00 	mov    QWORD PTR [rip+0x0],rax        # bd7 <_ZL19load_GL_VERSION_1_5PFPvPKcE+0x92>
     bd7:	48 8b 45 f8          	mov    rax,QWORD PTR [rbp-0x8]
     bdb:	48 8d 3d 00 00 00 00 	lea    rdi,[rip+0x0]        # be2 <_ZL19load_GL_VERSION_1_5PFPvPKcE+0x9d>
     be2:	ff d0                	call   rax
     be4:	48 89 05 00 00 00 00 	mov    QWORD PTR [rip+0x0],rax        # beb <_ZL19load_GL_VERSION_1_5PFPvPKcE+0xa6>
     beb:	48 8b 45 f8          	mov    rax,QWORD PTR [rbp-0x8]
     bef:	48 8d 3d 00 00 00 00 	lea    rdi,[rip+0x0]        # bf6 <_ZL19load_GL_VERSION_1_5PFPvPKcE+0xb1>
     bf6:	ff d0                	call   rax
     bf8:	48 89 05 00 00 00 00 	mov    QWORD PTR [rip+0x0],rax        # bff <_ZL19load_GL_VERSION_1_5PFPvPKcE+0xba>
     bff:	48 8b 45 f8          	mov    rax,QWORD PTR [rbp-0x8]
     c03:	48 8d 3d 00 00 00 00 	lea    rdi,[rip+0x0]        # c0a <_ZL19load_GL_VERSION_1_5PFPvPKcE+0xc5>
     c0a:	ff d0                	call   rax
     c0c:	48 89 05 00 00 00 00 	mov    QWORD PTR [rip+0x0],rax        # c13 <_ZL19load_GL_VERSION_1_5PFPvPKcE+0xce>
     c13:	48 8b 45 f8          	mov    rax,QWORD PTR [rbp-0x8]
     c17:	48 8d 3d 00 00 00 00 	lea    rdi,[rip+0x0]        # c1e <_ZL19load_GL_VERSION_1_5PFPvPKcE+0xd9>
     c1e:	ff d0                	call   rax
     c20:	48 89 05 00 00 00 00 	mov    QWORD PTR [rip+0x0],rax        # c27 <_ZL19load_GL_VERSION_1_5PFPvPKcE+0xe2>
     c27:	48 8b 45 f8          	mov    rax,QWORD PTR [rbp-0x8]
     c2b:	48 8d 3d 00 00 00 00 	lea    rdi,[rip+0x0]        # c32 <_ZL19load_GL_VERSION_1_5PFPvPKcE+0xed>
     c32:	ff d0                	call   rax
     c34:	48 89 05 00 00 00 00 	mov    QWORD PTR [rip+0x0],rax        # c3b <_ZL19load_GL_VERSION_1_5PFPvPKcE+0xf6>
     c3b:	48 8b 45 f8          	mov    rax,QWORD PTR [rbp-0x8]
     c3f:	48 8d 3d 00 00 00 00 	lea    rdi,[rip+0x0]        # c46 <_ZL19load_GL_VERSION_1_5PFPvPKcE+0x101>
     c46:	ff d0                	call   rax
     c48:	48 89 05 00 00 00 00 	mov    QWORD PTR [rip+0x0],rax        # c4f <_ZL19load_GL_VERSION_1_5PFPvPKcE+0x10a>
     c4f:	48 8b 45 f8          	mov    rax,QWORD PTR [rbp-0x8]
     c53:	48 8d 3d 00 00 00 00 	lea    rdi,[rip+0x0]        # c5a <_ZL19load_GL_VERSION_1_5PFPvPKcE+0x115>
     c5a:	ff d0                	call   rax
     c5c:	48 89 05 00 00 00 00 	mov    QWORD PTR [rip+0x0],rax        # c63 <_ZL19load_GL_VERSION_1_5PFPvPKcE+0x11e>
     c63:	48 8b 45 f8          	mov    rax,QWORD PTR [rbp-0x8]
     c67:	48 8d 3d 00 00 00 00 	lea    rdi,[rip+0x0]        # c6e <_ZL19load_GL_VERSION_1_5PFPvPKcE+0x129>
     c6e:	ff d0                	call   rax
     c70:	48 89 05 00 00 00 00 	mov    QWORD PTR [rip+0x0],rax        # c77 <_ZL19load_GL_VERSION_1_5PFPvPKcE+0x132>
     c77:	48 8b 45 f8          	mov    rax,QWORD PTR [rbp-0x8]
     c7b:	48 8d 3d 00 00 00 00 	lea    rdi,[rip+0x0]        # c82 <_ZL19load_GL_VERSION_1_5PFPvPKcE+0x13d>
     c82:	ff d0                	call   rax
     c84:	48 89 05 00 00 00 00 	mov    QWORD PTR [rip+0x0],rax        # c8b <_ZL19load_GL_VERSION_1_5PFPvPKcE+0x146>
     c8b:	48 8b 45 f8          	mov    rax,QWORD PTR [rbp-0x8]
     c8f:	48 8d 3d 00 00 00 00 	lea    rdi,[rip+0x0]        # c96 <_ZL19load_GL_VERSION_1_5PFPvPKcE+0x151>
     c96:	ff d0                	call   rax
     c98:	48 89 05 00 00 00 00 	mov    QWORD PTR [rip+0x0],rax        # c9f <_ZL19load_GL_VERSION_1_5PFPvPKcE+0x15a>
     c9f:	48 8b 45 f8          	mov    rax,QWORD PTR [rbp-0x8]
     ca3:	48 8d 3d 00 00 00 00 	lea    rdi,[rip+0x0]        # caa <_ZL19load_GL_VERSION_1_5PFPvPKcE+0x165>
     caa:	ff d0                	call   rax
     cac:	48 89 05 00 00 00 00 	mov    QWORD PTR [rip+0x0],rax        # cb3 <_ZL19load_GL_VERSION_1_5PFPvPKcE+0x16e>
     cb3:	48 8b 45 f8          	mov    rax,QWORD PTR [rbp-0x8]
     cb7:	48 8d 3d 00 00 00 00 	lea    rdi,[rip+0x0]        # cbe <_ZL19load_GL_VERSION_1_5PFPvPKcE+0x179>
     cbe:	ff d0                	call   rax
     cc0:	48 89 05 00 00 00 00 	mov    QWORD PTR [rip+0x0],rax        # cc7 <_ZL19load_GL_VERSION_1_5PFPvPKcE+0x182>
     cc7:	48 8b 45 f8          	mov    rax,QWORD PTR [rbp-0x8]
     ccb:	48 8d 3d 00 00 00 00 	lea    rdi,[rip+0x0]        # cd2 <_ZL19load_GL_VERSION_1_5PFPvPKcE+0x18d>
     cd2:	ff d0                	call   rax
     cd4:	48 89 05 00 00 00 00 	mov    QWORD PTR [rip+0x0],rax        # cdb <_ZL19load_GL_VERSION_1_5PFPvPKcE+0x196>
     cdb:	eb 01                	jmp    cde <_ZL19load_GL_VERSION_1_5PFPvPKcE+0x199>
     cdd:	90                   	nop
     cde:	c9                   	leave  
     cdf:	c3                   	ret    

0000000000000ce0 <_ZL19load_GL_VERSION_2_0PFPvPKcE>:
     ce0:	55                   	push   rbp
     ce1:	48 89 e5             	mov    rbp,rsp
     ce4:	48 83 ec 10          	sub    rsp,0x10
     ce8:	48 89 7d f8          	mov    QWORD PTR [rbp-0x8],rdi
     cec:	8b 05 00 00 00 00    	mov    eax,DWORD PTR [rip+0x0]        # cf2 <_ZL19load_GL_VERSION_2_0PFPvPKcE+0x12>
     cf2:	85 c0                	test   eax,eax
     cf4:	0f 84 46 07 00 00    	je     1440 <_ZL19load_GL_VERSION_2_0PFPvPKcE+0x760>
     cfa:	48 8b 45 f8          	mov    rax,QWORD PTR [rbp-0x8]
     cfe:	48 8d 3d 00 00 00 00 	lea    rdi,[rip+0x0]        # d05 <_ZL19load_GL_VERSION_2_0PFPvPKcE+0x25>
     d05:	ff d0                	call   rax
     d07:	48 89 05 00 00 00 00 	mov    QWORD PTR [rip+0x0],rax        # d0e <_ZL19load_GL_VERSION_2_0PFPvPKcE+0x2e>
     d0e:	48 8b 45 f8          	mov    rax,QWORD PTR [rbp-0x8]
     d12:	48 8d 3d 00 00 00 00 	lea    rdi,[rip+0x0]        # d19 <_ZL19load_GL_VERSION_2_0PFPvPKcE+0x39>
     d19:	ff d0                	call   rax
     d1b:	48 89 05 00 00 00 00 	mov    QWORD PTR [rip+0x0],rax        # d22 <_ZL19load_GL_VERSION_2_0PFPvPKcE+0x42>
     d22:	48 8b 45 f8          	mov    rax,QWORD PTR [rbp-0x8]
     d26:	48 8d 3d 00 00 00 00 	lea    rdi,[rip+0x0]        # d2d <_ZL19load_GL_VERSION_2_0PFPvPKcE+0x4d>
     d2d:	ff d0                	call   rax
     d2f:	48 89 05 00 00 00 00 	mov    QWORD PTR [rip+0x0],rax        # d36 <_ZL19load_GL_VERSION_2_0PFPvPKcE+0x56>
     d36:	48 8b 45 f8          	mov    rax,QWORD PTR [rbp-0x8]
     d3a:	48 8d 3d 00 00 00 00 	lea    rdi,[rip+0x0]        # d41 <_ZL19load_GL_VERSION_2_0PFPvPKcE+0x61>
     d41:	ff d0                	call   rax
     d43:	48 89 05 00 00 00 00 	mov    QWORD PTR [rip+0x0],rax        # d4a <_ZL19load_GL_VERSION_2_0PFPvPKcE+0x6a>
     d4a:	48 8b 45 f8          	mov    rax,QWORD PTR [rbp-0x8]
     d4e:	48 8d 3d 00 00 00 00 	lea    rdi,[rip+0x0]        # d55 <_ZL19load_GL_VERSION_2_0PFPvPKcE+0x75>
     d55:	ff d0                	call   rax
     d57:	48 89 05 00 00 00 00 	mov    QWORD PTR [rip+0x0],rax        # d5e <_ZL19load_GL_VERSION_2_0PFPvPKcE+0x7e>
     d5e:	48 8b 45 f8          	mov    rax,QWORD PTR [rbp-0x8]
     d62:	48 8d 3d 00 00 00 00 	lea    rdi,[rip+0x0]        # d69 <_ZL19load_GL_VERSION_2_0PFPvPKcE+0x89>
     d69:	ff d0                	call   rax
     d6b:	48 89 05 00 00 00 00 	mov    QWORD PTR [rip+0x0],rax        # d72 <_ZL19load_GL_VERSION_2_0PFPvPKcE+0x92>
     d72:	48 8b 45 f8          	mov    rax,QWORD PTR [rbp-0x8]
     d76:	48 8d 3d 00 00 00 00 	lea    rdi,[rip+0x0]        # d7d <_ZL19load_GL_VERSION_2_0PFPvPKcE+0x9d>
     d7d:	ff d0                	call   rax
     d7f:	48 89 05 00 00 00 00 	mov    QWORD PTR [rip+0x0],rax        # d86 <_ZL19load_GL_VERSION_2_0PFPvPKcE+0xa6>
     d86:	48 8b 45 f8          	mov    rax,QWORD PTR [rbp-0x8]
     d8a:	48 8d 3d 00 00 00 00 	lea    rdi,[rip+0x0]        # d91 <_ZL19load_GL_VERSION_2_0PFPvPKcE+0xb1>
     d91:	ff d0                	call   rax
     d93:	48 89 05 00 00 00 00 	mov    QWORD PTR [rip+0x0],rax        # d9a <_ZL19load_GL_VERSION_2_0PFPvPKcE+0xba>
     d9a:	48 8b 45 f8          	mov    rax,QWORD PTR [rbp-0x8]
     d9e:	48 8d 3d 00 00 00 00 	lea    rdi,[rip+0x0]        # da5 <_ZL19load_GL_VERSION_2_0PFPvPKcE+0xc5>
     da5:	ff d0                	call   rax
     da7:	48 89 05 00 00 00 00 	mov    QWORD PTR [rip+0x0],rax        # dae <_ZL19load_GL_VERSION_2_0PFPvPKcE+0xce>
     dae:	48 8b 45 f8          	mov    rax,QWORD PTR [rbp-0x8]
     db2:	48 8d 3d 00 00 00 00 	lea    rdi,[rip+0x0]        # db9 <_ZL19load_GL_VERSION_2_0PFPvPKcE+0xd9>
     db9:	ff d0                	call   rax
     dbb:	48 89 05 00 00 00 00 	mov    QWORD PTR [rip+0x0],rax        # dc2 <_ZL19load_GL_VERSION_2_0PFPvPKcE+0xe2>
     dc2:	48 8b 45 f8          	mov    rax,QWORD PTR [rbp-0x8]
     dc6:	48 8d 3d 00 00 00 00 	lea    rdi,[rip+0x0]        # dcd <_ZL19load_GL_VERSION_2_0PFPvPKcE+0xed>
     dcd:	ff d0                	call   rax
     dcf:	48 89 05 00 00 00 00 	mov    QWORD PTR [rip+0x0],rax        # dd6 <_ZL19load_GL_VERSION_2_0PFPvPKcE+0xf6>
     dd6:	48 8b 45 f8          	mov    rax,QWORD PTR [rbp-0x8]
     dda:	48 8d 3d 00 00 00 00 	lea    rdi,[rip+0x0]        # de1 <_ZL19load_GL_VERSION_2_0PFPvPKcE+0x101>
     de1:	ff d0                	call   rax
     de3:	48 89 05 00 00 00 00 	mov    QWORD PTR [rip+0x0],rax        # dea <_ZL19load_GL_VERSION_2_0PFPvPKcE+0x10a>
     dea:	48 8b 45 f8          	mov    rax,QWORD PTR [rbp-0x8]
     dee:	48 8d 3d 00 00 00 00 	lea    rdi,[rip+0x0]        # df5 <_ZL19load_GL_VERSION_2_0PFPvPKcE+0x115>
     df5:	ff d0                	call   rax
     df7:	48 89 05 00 00 00 00 	mov    QWORD PTR [rip+0x0],rax        # dfe <_ZL19load_GL_VERSION_2_0PFPvPKcE+0x11e>
     dfe:	48 8b 45 f8          	mov    rax,QWORD PTR [rbp-0x8]
     e02:	48 8d 3d 00 00 00 00 	lea    rdi,[rip+0x0]        # e09 <_ZL19load_GL_VERSION_2_0PFPvPKcE+0x129>
     e09:	ff d0                	call   rax
     e0b:	48 89 05 00 00 00 00 	mov    QWORD PTR [rip+0x0],rax        # e12 <_ZL19load_GL_VERSION_2_0PFPvPKcE+0x132>
     e12:	48 8b 45 f8          	mov    rax,QWORD PTR [rbp-0x8]
     e16:	48 8d 3d 00 00 00 00 	lea    rdi,[rip+0x0]        # e1d <_ZL19load_GL_VERSION_2_0PFPvPKcE+0x13d>
     e1d:	ff d0                	call   rax
     e1f:	48 89 05 00 00 00 00 	mov    QWORD PTR [rip+0x0],rax        # e26 <_ZL19load_GL_VERSION_2_0PFPvPKcE+0x146>
     e26:	48 8b 45 f8          	mov    rax,QWORD PTR [rbp-0x8]
     e2a:	48 8d 3d 00 00 00 00 	lea    rdi,[rip+0x0]        # e31 <_ZL19load_GL_VERSION_2_0PFPvPKcE+0x151>
     e31:	ff d0                	call   rax
     e33:	48 89 05 00 00 00 00 	mov    QWORD PTR [rip+0x0],rax        # e3a <_ZL19load_GL_VERSION_2_0PFPvPKcE+0x15a>
     e3a:	48 8b 45 f8          	mov    rax,QWORD PTR [rbp-0x8]
     e3e:	48 8d 3d 00 00 00 00 	lea    rdi,[rip+0x0]        # e45 <_ZL19load_GL_VERSION_2_0PFPvPKcE+0x165>
     e45:	ff d0                	call   rax
     e47:	48 89 05 00 00 00 00 	mov    QWORD PTR [rip+0x0],rax        # e4e <_ZL19load_GL_VERSION_2_0PFPvPKcE+0x16e>
     e4e:	48 8b 45 f8          	mov    rax,QWORD PTR [rbp-0x8]
     e52:	48 8d 3d 00 00 00 00 	lea    rdi,[rip+0x0]        # e59 <_ZL19load_GL_VERSION_2_0PFPvPKcE+0x179>
     e59:	ff d0                	call   rax
     e5b:	48 89 05 00 00 00 00 	mov    QWORD PTR [rip+0x0],rax        # e62 <_ZL19load_GL_VERSION_2_0PFPvPKcE+0x182>
     e62:	48 8b 45 f8          	mov    rax,QWORD PTR [rbp-0x8]
     e66:	48 8d 3d 00 00 00 00 	lea    rdi,[rip+0x0]        # e6d <_ZL19load_GL_VERSION_2_0PFPvPKcE+0x18d>
     e6d:	ff d0                	call   rax
     e6f:	48 89 05 00 00 00 00 	mov    QWORD PTR [rip+0x0],rax        # e76 <_ZL19load_GL_VERSION_2_0PFPvPKcE+0x196>
     e76:	48 8b 45 f8          	mov    rax,QWORD PTR [rbp-0x8]
     e7a:	48 8d 3d 00 00 00 00 	lea    rdi,[rip+0x0]        # e81 <_ZL19load_GL_VERSION_2_0PFPvPKcE+0x1a1>
     e81:	ff d0                	call   rax
     e83:	48 89 05 00 00 00 00 	mov    QWORD PTR [rip+0x0],rax        # e8a <_ZL19load_GL_VERSION_2_0PFPvPKcE+0x1aa>
     e8a:	48 8b 45 f8          	mov    rax,QWORD PTR [rbp-0x8]
     e8e:	48 8d 3d 00 00 00 00 	lea    rdi,[rip+0x0]        # e95 <_ZL19load_GL_VERSION_2_0PFPvPKcE+0x1b5>
     e95:	ff d0                	call   rax
     e97:	48 89 05 00 00 00 00 	mov    QWORD PTR [rip+0x0],rax        # e9e <_ZL19load_GL_VERSION_2_0PFPvPKcE+0x1be>
     e9e:	48 8b 45 f8          	mov    rax,QWORD PTR [rbp-0x8]
     ea2:	48 8d 3d 00 00 00 00 	lea    rdi,[rip+0x0]        # ea9 <_ZL19load_GL_VERSION_2_0PFPvPKcE+0x1c9>
     ea9:	ff d0                	call   rax
     eab:	48 89 05 00 00 00 00 	mov    QWORD PTR [rip+0x0],rax        # eb2 <_ZL19load_GL_VERSION_2_0PFPvPKcE+0x1d2>
     eb2:	48 8b 45 f8          	mov    rax,QWORD PTR [rbp-0x8]
     eb6:	48 8d 3d 00 00 00 00 	lea    rdi,[rip+0x0]        # ebd <_ZL19load_GL_VERSION_2_0PFPvPKcE+0x1dd>
     ebd:	ff d0                	call   rax
     ebf:	48 89 05 00 00 00 00 	mov    QWORD PTR [rip+0x0],rax        # ec6 <_ZL19load_GL_VERSION_2_0PFPvPKcE+0x1e6>
     ec6:	48 8b 45 f8          	mov    rax,QWORD PTR [rbp-0x8]
     eca:	48 8d 3d 00 00 00 00 	lea    rdi,[rip+0x0]        # ed1 <_ZL19load_GL_VERSION_2_0PFPvPKcE+0x1f1>
     ed1:	ff d0                	call   rax
     ed3:	48 89 05 00 00 00 00 	mov    QWORD PTR [rip+0x0],rax        # eda <_ZL19load_GL_VERSION_2_0PFPvPKcE+0x1fa>
     eda:	48 8b 45 f8          	mov    rax,QWORD PTR [rbp-0x8]
     ede:	48 8d 3d 00 00 00 00 	lea    rdi,[rip+0x0]        # ee5 <_ZL19load_GL_VERSION_2_0PFPvPKcE+0x205>
     ee5:	ff d0                	call   rax
     ee7:	48 89 05 00 00 00 00 	mov    QWORD PTR [rip+0x0],rax        # eee <_ZL19load_GL_VERSION_2_0PFPvPKcE+0x20e>
     eee:	48 8b 45 f8          	mov    rax,QWORD PTR [rbp-0x8]
     ef2:	48 8d 3d 00 00 00 00 	lea    rdi,[rip+0x0]        # ef9 <_ZL19load_GL_VERSION_2_0PFPvPKcE+0x219>
     ef9:	ff d0                	call   rax
     efb:	48 89 05 00 00 00 00 	mov    QWORD PTR [rip+0x0],rax        # f02 <_ZL19load_GL_VERSION_2_0PFPvPKcE+0x222>
     f02:	48 8b 45 f8          	mov    rax,QWORD PTR [rbp-0x8]
     f06:	48 8d 3d 00 00 00 00 	lea    rdi,[rip+0x0]        # f0d <_ZL19load_GL_VERSION_2_0PFPvPKcE+0x22d>
     f0d:	ff d0                	call   rax
     f0f:	48 89 05 00 00 00 00 	mov    QWORD PTR [rip+0x0],rax        # f16 <_ZL19load_GL_VERSION_2_0PFPvPKcE+0x236>
     f16:	48 8b 45 f8          	mov    rax,QWORD PTR [rbp-0x8]
     f1a:	48 8d 3d 00 00 00 00 	lea    rdi,[rip+0x0]        # f21 <_ZL19load_GL_VERSION_2_0PFPvPKcE+0x241>
     f21:	ff d0                	call   rax
     f23:	48 89 05 00 00 00 00 	mov    QWORD PTR [rip+0x0],rax        # f2a <_ZL19load_GL_VERSION_2_0PFPvPKcE+0x24a>
     f2a:	48 8b 45 f8          	mov    rax,QWORD PTR [rbp-0x8]
     f2e:	48 8d 3d 00 00 00 00 	lea    rdi,[rip+0x0]        # f35 <_ZL19load_GL_VERSION_2_0PFPvPKcE+0x255>
     f35:	ff d0                	call   rax
     f37:	48 89 05 00 00 00 00 	mov    QWORD PTR [rip+0x0],rax        # f3e <_ZL19load_GL_VERSION_2_0PFPvPKcE+0x25e>
     f3e:	48 8b 45 f8          	mov    rax,QWORD PTR [rbp-0x8]
     f42:	48 8d 3d 00 00 00 00 	lea    rdi,[rip+0x0]        # f49 <_ZL19load_GL_VERSION_2_0PFPvPKcE+0x269>
     f49:	ff d0                	call   rax
     f4b:	48 89 05 00 00 00 00 	mov    QWORD PTR [rip+0x0],rax        # f52 <_ZL19load_GL_VERSION_2_0PFPvPKcE+0x272>
     f52:	48 8b 45 f8          	mov    rax,QWORD PTR [rbp-0x8]
     f56:	48 8d 3d 00 00 00 00 	lea    rdi,[rip+0x0]        # f5d <_ZL19load_GL_VERSION_2_0PFPvPKcE+0x27d>
     f5d:	ff d0                	call   rax
     f5f:	48 89 05 00 00 00 00 	mov    QWORD PTR [rip+0x0],rax        # f66 <_ZL19load_GL_VERSION_2_0PFPvPKcE+0x286>
     f66:	48 8b 45 f8          	mov    rax,QWORD PTR [rbp-0x8]
     f6a:	48 8d 3d 00 00 00 00 	lea    rdi,[rip+0x0]        # f71 <_ZL19load_GL_VERSION_2_0PFPvPKcE+0x291>
     f71:	ff d0                	call   rax
     f73:	48 89 05 00 00 00 00 	mov    QWORD PTR [rip+0x0],rax        # f7a <_ZL19load_GL_VERSION_2_0PFPvPKcE+0x29a>
     f7a:	48 8b 45 f8          	mov    rax,QWORD PTR [rbp-0x8]
     f7e:	48 8d 3d 00 00 00 00 	lea    rdi,[rip+0x0]        # f85 <_ZL19load_GL_VERSION_2_0PFPvPKcE+0x2a5>
     f85:	ff d0                	call   rax
     f87:	48 89 05 00 00 00 00 	mov    QWORD PTR [rip+0x0],rax        # f8e <_ZL19load_GL_VERSION_2_0PFPvPKcE+0x2ae>
     f8e:	48 8b 45 f8          	mov    rax,QWORD PTR [rbp-0x8]
     f92:	48 8d 3d 00 00 00 00 	lea    rdi,[rip+0x0]        # f99 <_ZL19load_GL_VERSION_2_0PFPvPKcE+0x2b9>
     f99:	ff d0                	call   rax
     f9b:	48 89 05 00 00 00 00 	mov    QWORD PTR [rip+0x0],rax        # fa2 <_ZL19load_GL_VERSION_2_0PFPvPKcE+0x2c2>
     fa2:	48 8b 45 f8          	mov    rax,QWORD PTR [rbp-0x8]
     fa6:	48 8d 3d 00 00 00 00 	lea    rdi,[rip+0x0]        # fad <_ZL19load_GL_VERSION_2_0PFPvPKcE+0x2cd>
     fad:	ff d0                	call   rax
     faf:	48 89 05 00 00 00 00 	mov    QWORD PTR [rip+0x0],rax        # fb6 <_ZL19load_GL_VERSION_2_0PFPvPKcE+0x2d6>
     fb6:	48 8b 45 f8          	mov    rax,QWORD PTR [rbp-0x8]
     fba:	48 8d 3d 00 00 00 00 	lea    rdi,[rip+0x0]        # fc1 <_ZL19load_GL_VERSION_2_0PFPvPKcE+0x2e1>
     fc1:	ff d0                	call   rax
     fc3:	48 89 05 00 00 00 00 	mov    QWORD PTR [rip+0x0],rax        # fca <_ZL19load_GL_VERSION_2_0PFPvPKcE+0x2ea>
     fca:	48 8b 45 f8          	mov    rax,QWORD PTR [rbp-0x8]
     fce:	48 8d 3d 00 00 00 00 	lea    rdi,[rip+0x0]        # fd5 <_ZL19load_GL_VERSION_2_0PFPvPKcE+0x2f5>
     fd5:	ff d0                	call   rax
     fd7:	48 89 05 00 00 00 00 	mov    QWORD PTR [rip+0x0],rax        # fde <_ZL19load_GL_VERSION_2_0PFPvPKcE+0x2fe>
     fde:	48 8b 45 f8          	mov    rax,QWORD PTR [rbp-0x8]
     fe2:	48 8d 3d 00 00 00 00 	lea    rdi,[rip+0x0]        # fe9 <_ZL19load_GL_VERSION_2_0PFPvPKcE+0x309>
     fe9:	ff d0                	call   rax
     feb:	48 89 05 00 00 00 00 	mov    QWORD PTR [rip+0x0],rax        # ff2 <_ZL19load_GL_VERSION_2_0PFPvPKcE+0x312>
     ff2:	48 8b 45 f8          	mov    rax,QWORD PTR [rbp-0x8]
     ff6:	48 8d 3d 00 00 00 00 	lea    rdi,[rip+0x0]        # ffd <_ZL19load_GL_VERSION_2_0PFPvPKcE+0x31d>
     ffd:	ff d0                	call   rax
     fff:	48 89 05 00 00 00 00 	mov    QWORD PTR [rip+0x0],rax        # 1006 <_ZL19load_GL_VERSION_2_0PFPvPKcE+0x326>
    1006:	48 8b 45 f8          	mov    rax,QWORD PTR [rbp-0x8]
    100a:	48 8d 3d 00 00 00 00 	lea    rdi,[rip+0x0]        # 1011 <_ZL19load_GL_VERSION_2_0PFPvPKcE+0x331>
    1011:	ff d0                	call   rax
    1013:	48 89 05 00 00 00 00 	mov    QWORD PTR [rip+0x0],rax        # 101a <_ZL19load_GL_VERSION_2_0PFPvPKcE+0x33a>
    101a:	48 8b 45 f8          	mov    rax,QWORD PTR [rbp-0x8]
    101e:	48 8d 3d 00 00 00 00 	lea    rdi,[rip+0x0]        # 1025 <_ZL19load_GL_VERSION_2_0PFPvPKcE+0x345>
    1025:	ff d0                	call   rax
    1027:	48 89 05 00 00 00 00 	mov    QWORD PTR [rip+0x0],rax        # 102e <_ZL19load_GL_VERSION_2_0PFPvPKcE+0x34e>
    102e:	48 8b 45 f8          	mov    rax,QWORD PTR [rbp-0x8]
    1032:	48 8d 3d 00 00 00 00 	lea    rdi,[rip+0x0]        # 1039 <_ZL19load_GL_VERSION_2_0PFPvPKcE+0x359>
    1039:	ff d0                	call   rax
    103b:	48 89 05 00 00 00 00 	mov    QWORD PTR [rip+0x0],rax        # 1042 <_ZL19load_GL_VERSION_2_0PFPvPKcE+0x362>
    1042:	48 8b 45 f8          	mov    rax,QWORD PTR [rbp-0x8]
    1046:	48 8d 3d 00 00 00 00 	lea    rdi,[rip+0x0]        # 104d <_ZL19load_GL_VERSION_2_0PFPvPKcE+0x36d>
    104d:	ff d0                	call   rax
    104f:	48 89 05 00 00 00 00 	mov    QWORD PTR [rip+0x0],rax        # 1056 <_ZL19load_GL_VERSION_2_0PFPvPKcE+0x376>
    1056:	48 8b 45 f8          	mov    rax,QWORD PTR [rbp-0x8]
    105a:	48 8d 3d 00 00 00 00 	lea    rdi,[rip+0x0]        # 1061 <_ZL19load_GL_VERSION_2_0PFPvPKcE+0x381>
    1061:	ff d0                	call   rax
    1063:	48 89 05 00 00 00 00 	mov    QWORD PTR [rip+0x0],rax        # 106a <_ZL19load_GL_VERSION_2_0PFPvPKcE+0x38a>
    106a:	48 8b 45 f8          	mov    rax,QWORD PTR [rbp-0x8]
    106e:	48 8d 3d 00 00 00 00 	lea    rdi,[rip+0x0]        # 1075 <_ZL19load_GL_VERSION_2_0PFPvPKcE+0x395>
    1075:	ff d0                	call   rax
    1077:	48 89 05 00 00 00 00 	mov    QWORD PTR [rip+0x0],rax        # 107e <_ZL19load_GL_VERSION_2_0PFPvPKcE+0x39e>
    107e:	48 8b 45 f8          	mov    rax,QWORD PTR [rbp-0x8]
    1082:	48 8d 3d 00 00 00 00 	lea    rdi,[rip+0x0]        # 1089 <_ZL19load_GL_VERSION_2_0PFPvPKcE+0x3a9>
    1089:	ff d0                	call   rax
    108b:	48 89 05 00 00 00 00 	mov    QWORD PTR [rip+0x0],rax        # 1092 <_ZL19load_GL_VERSION_2_0PFPvPKcE+0x3b2>
    1092:	48 8b 45 f8          	mov    rax,QWORD PTR [rbp-0x8]
    1096:	48 8d 3d 00 00 00 00 	lea    rdi,[rip+0x0]        # 109d <_ZL19load_GL_VERSION_2_0PFPvPKcE+0x3bd>
    109d:	ff d0                	call   rax
    109f:	48 89 05 00 00 00 00 	mov    QWORD PTR [rip+0x0],rax        # 10a6 <_ZL19load_GL_VERSION_2_0PFPvPKcE+0x3c6>
    10a6:	48 8b 45 f8          	mov    rax,QWORD PTR [rbp-0x8]
    10aa:	48 8d 3d 00 00 00 00 	lea    rdi,[rip+0x0]        # 10b1 <_ZL19load_GL_VERSION_2_0PFPvPKcE+0x3d1>
    10b1:	ff d0                	call   rax
    10b3:	48 89 05 00 00 00 00 	mov    QWORD PTR [rip+0x0],rax        # 10ba <_ZL19load_GL_VERSION_2_0PFPvPKcE+0x3da>
    10ba:	48 8b 45 f8          	mov    rax,QWORD PTR [rbp-0x8]
    10be:	48 8d 3d 00 00 00 00 	lea    rdi,[rip+0x0]        # 10c5 <_ZL19load_GL_VERSION_2_0PFPvPKcE+0x3e5>
    10c5:	ff d0                	call   rax
    10c7:	48 89 05 00 00 00 00 	mov    QWORD PTR [rip+0x0],rax        # 10ce <_ZL19load_GL_VERSION_2_0PFPvPKcE+0x3ee>
    10ce:	48 8b 45 f8          	mov    rax,QWORD PTR [rbp-0x8]
    10d2:	48 8d 3d 00 00 00 00 	lea    rdi,[rip+0x0]        # 10d9 <_ZL19load_GL_VERSION_2_0PFPvPKcE+0x3f9>
    10d9:	ff d0                	call   rax
    10db:	48 89 05 00 00 00 00 	mov    QWORD PTR [rip+0x0],rax        # 10e2 <_ZL19load_GL_VERSION_2_0PFPvPKcE+0x402>
    10e2:	48 8b 45 f8          	mov    rax,QWORD PTR [rbp-0x8]
    10e6:	48 8d 3d 00 00 00 00 	lea    rdi,[rip+0x0]        # 10ed <_ZL19load_GL_VERSION_2_0PFPvPKcE+0x40d>
    10ed:	ff d0                	call   rax
    10ef:	48 89 05 00 00 00 00 	mov    QWORD PTR [rip+0x0],rax        # 10f6 <_ZL19load_GL_VERSION_2_0PFPvPKcE+0x416>
    10f6:	48 8b 45 f8          	mov    rax,QWORD PTR [rbp-0x8]
    10fa:	48 8d 3d 00 00 00 00 	lea    rdi,[rip+0x0]        # 1101 <_ZL19load_GL_VERSION_2_0PFPvPKcE+0x421>
    1101:	ff d0                	call   rax
    1103:	48 89 05 00 00 00 00 	mov    QWORD PTR [rip+0x0],rax        # 110a <_ZL19load_GL_VERSION_2_0PFPvPKcE+0x42a>
    110a:	48 8b 45 f8          	mov    rax,QWORD PTR [rbp-0x8]
    110e:	48 8d 3d 00 00 00 00 	lea    rdi,[rip+0x0]        # 1115 <_ZL19load_GL_VERSION_2_0PFPvPKcE+0x435>
    1115:	ff d0                	call   rax
    1117:	48 89 05 00 00 00 00 	mov    QWORD PTR [rip+0x0],rax        # 111e <_ZL19load_GL_VERSION_2_0PFPvPKcE+0x43e>
    111e:	48 8b 45 f8          	mov    rax,QWORD PTR [rbp-0x8]
    1122:	48 8d 3d 00 00 00 00 	lea    rdi,[rip+0x0]        # 1129 <_ZL19load_GL_VERSION_2_0PFPvPKcE+0x449>
    1129:	ff d0                	call   rax
    112b:	48 89 05 00 00 00 00 	mov    QWORD PTR [rip+0x0],rax        # 1132 <_ZL19load_GL_VERSION_2_0PFPvPKcE+0x452>
    1132:	48 8b 45 f8          	mov    rax,QWORD PTR [rbp-0x8]
    1136:	48 8d 3d 00 00 00 00 	lea    rdi,[rip+0x0]        # 113d <_ZL19load_GL_VERSION_2_0PFPvPKcE+0x45d>
    113d:	ff d0                	call   rax
    113f:	48 89 05 00 00 00 00 	mov    QWORD PTR [rip+0x0],rax        # 1146 <_ZL19load_GL_VERSION_2_0PFPvPKcE+0x466>
    1146:	48 8b 45 f8          	mov    rax,QWORD PTR [rbp-0x8]
    114a:	48 8d 3d 00 00 00 00 	lea    rdi,[rip+0x0]        # 1151 <_ZL19load_GL_VERSION_2_0PFPvPKcE+0x471>
    1151:	ff d0                	call   rax
    1153:	48 89 05 00 00 00 00 	mov    QWORD PTR [rip+0x0],rax        # 115a <_ZL19load_GL_VERSION_2_0PFPvPKcE+0x47a>
    115a:	48 8b 45 f8          	mov    rax,QWORD PTR [rbp-0x8]
    115e:	48 8d 3d 00 00 00 00 	lea    rdi,[rip+0x0]        # 1165 <_ZL19load_GL_VERSION_2_0PFPvPKcE+0x485>
    1165:	ff d0                	call   rax
    1167:	48 89 05 00 00 00 00 	mov    QWORD PTR [rip+0x0],rax        # 116e <_ZL19load_GL_VERSION_2_0PFPvPKcE+0x48e>
    116e:	48 8b 45 f8          	mov    rax,QWORD PTR [rbp-0x8]
    1172:	48 8d 3d 00 00 00 00 	lea    rdi,[rip+0x0]        # 1179 <_ZL19load_GL_VERSION_2_0PFPvPKcE+0x499>
    1179:	ff d0                	call   rax
    117b:	48 89 05 00 00 00 00 	mov    QWORD PTR [rip+0x0],rax        # 1182 <_ZL19load_GL_VERSION_2_0PFPvPKcE+0x4a2>
    1182:	48 8b 45 f8          	mov    rax,QWORD PTR [rbp-0x8]
    1186:	48 8d 3d 00 00 00 00 	lea    rdi,[rip+0x0]        # 118d <_ZL19load_GL_VERSION_2_0PFPvPKcE+0x4ad>
    118d:	ff d0                	call   rax
    118f:	48 89 05 00 00 00 00 	mov    QWORD PTR [rip+0x0],rax        # 1196 <_ZL19load_GL_VERSION_2_0PFPvPKcE+0x4b6>
    1196:	48 8b 45 f8          	mov    rax,QWORD PTR [rbp-0x8]
    119a:	48 8d 3d 00 00 00 00 	lea    rdi,[rip+0x0]        # 11a1 <_ZL19load_GL_VERSION_2_0PFPvPKcE+0x4c1>
    11a1:	ff d0                	call   rax
    11a3:	48 89 05 00 00 00 00 	mov    QWORD PTR [rip+0x0],rax        # 11aa <_ZL19load_GL_VERSION_2_0PFPvPKcE+0x4ca>
    11aa:	48 8b 45 f8          	mov    rax,QWORD PTR [rbp-0x8]
    11ae:	48 8d 3d 00 00 00 00 	lea    rdi,[rip+0x0]        # 11b5 <_ZL19load_GL_VERSION_2_0PFPvPKcE+0x4d5>
    11b5:	ff d0                	call   rax
    11b7:	48 89 05 00 00 00 00 	mov    QWORD PTR [rip+0x0],rax        # 11be <_ZL19load_GL_VERSION_2_0PFPvPKcE+0x4de>
    11be:	48 8b 45 f8          	mov    rax,QWORD PTR [rbp-0x8]
    11c2:	48 8d 3d 00 00 00 00 	lea    rdi,[rip+0x0]        # 11c9 <_ZL19load_GL_VERSION_2_0PFPvPKcE+0x4e9>
    11c9:	ff d0                	call   rax
    11cb:	48 89 05 00 00 00 00 	mov    QWORD PTR [rip+0x0],rax        # 11d2 <_ZL19load_GL_VERSION_2_0PFPvPKcE+0x4f2>
    11d2:	48 8b 45 f8          	mov    rax,QWORD PTR [rbp-0x8]
    11d6:	48 8d 3d 00 00 00 00 	lea    rdi,[rip+0x0]        # 11dd <_ZL19load_GL_VERSION_2_0PFPvPKcE+0x4fd>
    11dd:	ff d0                	call   rax
    11df:	48 89 05 00 00 00 00 	mov    QWORD PTR [rip+0x0],rax        # 11e6 <_ZL19load_GL_VERSION_2_0PFPvPKcE+0x506>
    11e6:	48 8b 45 f8          	mov    rax,QWORD PTR [rbp-0x8]
    11ea:	48 8d 3d 00 00 00 00 	lea    rdi,[rip+0x0]        # 11f1 <_ZL19load_GL_VERSION_2_0PFPvPKcE+0x511>
    11f1:	ff d0                	call   rax
    11f3:	48 89 05 00 00 00 00 	mov    QWORD PTR [rip+0x0],rax        # 11fa <_ZL19load_GL_VERSION_2_0PFPvPKcE+0x51a>
    11fa:	48 8b 45 f8          	mov    rax,QWORD PTR [rbp-0x8]
    11fe:	48 8d 3d 00 00 00 00 	lea    rdi,[rip+0x0]        # 1205 <_ZL19load_GL_VERSION_2_0PFPvPKcE+0x525>
    1205:	ff d0                	call   rax
    1207:	48 89 05 00 00 00 00 	mov    QWORD PTR [rip+0x0],rax        # 120e <_ZL19load_GL_VERSION_2_0PFPvPKcE+0x52e>
    120e:	48 8b 45 f8          	mov    rax,QWORD PTR [rbp-0x8]
    1212:	48 8d 3d 00 00 00 00 	lea    rdi,[rip+0x0]        # 1219 <_ZL19load_GL_VERSION_2_0PFPvPKcE+0x539>
    1219:	ff d0                	call   rax
    121b:	48 89 05 00 00 00 00 	mov    QWORD PTR [rip+0x0],rax        # 1222 <_ZL19load_GL_VERSION_2_0PFPvPKcE+0x542>
    1222:	48 8b 45 f8          	mov    rax,QWORD PTR [rbp-0x8]
    1226:	48 8d 3d 00 00 00 00 	lea    rdi,[rip+0x0]        # 122d <_ZL19load_GL_VERSION_2_0PFPvPKcE+0x54d>
    122d:	ff d0                	call   rax
    122f:	48 89 05 00 00 00 00 	mov    QWORD PTR [rip+0x0],rax        # 1236 <_ZL19load_GL_VERSION_2_0PFPvPKcE+0x556>
    1236:	48 8b 45 f8          	mov    rax,QWORD PTR [rbp-0x8]
    123a:	48 8d 3d 00 00 00 00 	lea    rdi,[rip+0x0]        # 1241 <_ZL19load_GL_VERSION_2_0PFPvPKcE+0x561>
    1241:	ff d0                	call   rax
    1243:	48 89 05 00 00 00 00 	mov    QWORD PTR [rip+0x0],rax        # 124a <_ZL19load_GL_VERSION_2_0PFPvPKcE+0x56a>
    124a:	48 8b 45 f8          	mov    rax,QWORD PTR [rbp-0x8]
    124e:	48 8d 3d 00 00 00 00 	lea    rdi,[rip+0x0]        # 1255 <_ZL19load_GL_VERSION_2_0PFPvPKcE+0x575>
    1255:	ff d0                	call   rax
    1257:	48 89 05 00 00 00 00 	mov    QWORD PTR [rip+0x0],rax        # 125e <_ZL19load_GL_VERSION_2_0PFPvPKcE+0x57e>
    125e:	48 8b 45 f8          	mov    rax,QWORD PTR [rbp-0x8]
    1262:	48 8d 3d 00 00 00 00 	lea    rdi,[rip+0x0]        # 1269 <_ZL19load_GL_VERSION_2_0PFPvPKcE+0x589>
    1269:	ff d0                	call   rax
    126b:	48 89 05 00 00 00 00 	mov    QWORD PTR [rip+0x0],rax        # 1272 <_ZL19load_GL_VERSION_2_0PFPvPKcE+0x592>
    1272:	48 8b 45 f8          	mov    rax,QWORD PTR [rbp-0x8]
    1276:	48 8d 3d 00 00 00 00 	lea    rdi,[rip+0x0]        # 127d <_ZL19load_GL_VERSION_2_0PFPvPKcE+0x59d>
    127d:	ff d0                	call   rax
    127f:	48 89 05 00 00 00 00 	mov    QWORD PTR [rip+0x0],rax        # 1286 <_ZL19load_GL_VERSION_2_0PFPvPKcE+0x5a6>
    1286:	48 8b 45 f8          	mov    rax,QWORD PTR [rbp-0x8]
    128a:	48 8d 3d 00 00 00 00 	lea    rdi,[rip+0x0]        # 1291 <_ZL19load_GL_VERSION_2_0PFPvPKcE+0x5b1>
    1291:	ff d0                	call   rax
    1293:	48 89 05 00 00 00 00 	mov    QWORD PTR [rip+0x0],rax        # 129a <_ZL19load_GL_VERSION_2_0PFPvPKcE+0x5ba>
    129a:	48 8b 45 f8          	mov    rax,QWORD PTR [rbp-0x8]
    129e:	48 8d 3d 00 00 00 00 	lea    rdi,[rip+0x0]        # 12a5 <_ZL19load_GL_VERSION_2_0PFPvPKcE+0x5c5>
    12a5:	ff d0                	call   rax
    12a7:	48 89 05 00 00 00 00 	mov    QWORD PTR [rip+0x0],rax        # 12ae <_ZL19load_GL_VERSION_2_0PFPvPKcE+0x5ce>
    12ae:	48 8b 45 f8          	mov    rax,QWORD PTR [rbp-0x8]
    12b2:	48 8d 3d 00 00 00 00 	lea    rdi,[rip+0x0]        # 12b9 <_ZL19load_GL_VERSION_2_0PFPvPKcE+0x5d9>
    12b9:	ff d0                	call   rax
    12bb:	48 89 05 00 00 00 00 	mov    QWORD PTR [rip+0x0],rax        # 12c2 <_ZL19load_GL_VERSION_2_0PFPvPKcE+0x5e2>
    12c2:	48 8b 45 f8          	mov    rax,QWORD PTR [rbp-0x8]
    12c6:	48 8d 3d 00 00 00 00 	lea    rdi,[rip+0x0]        # 12cd <_ZL19load_GL_VERSION_2_0PFPvPKcE+0x5ed>
    12cd:	ff d0                	call   rax
    12cf:	48 89 05 00 00 00 00 	mov    QWORD PTR [rip+0x0],rax        # 12d6 <_ZL19load_GL_VERSION_2_0PFPvPKcE+0x5f6>
    12d6:	48 8b 45 f8          	mov    rax,QWORD PTR [rbp-0x8]
    12da:	48 8d 3d 00 00 00 00 	lea    rdi,[rip+0x0]        # 12e1 <_ZL19load_GL_VERSION_2_0PFPvPKcE+0x601>
    12e1:	ff d0                	call   rax
    12e3:	48 89 05 00 00 00 00 	mov    QWORD PTR [rip+0x0],rax        # 12ea <_ZL19load_GL_VERSION_2_0PFPvPKcE+0x60a>
    12ea:	48 8b 45 f8          	mov    rax,QWORD PTR [rbp-0x8]
    12ee:	48 8d 3d 00 00 00 00 	lea    rdi,[rip+0x0]        # 12f5 <_ZL19load_GL_VERSION_2_0PFPvPKcE+0x615>
    12f5:	ff d0                	call   rax
    12f7:	48 89 05 00 00 00 00 	mov    QWORD PTR [rip+0x0],rax        # 12fe <_ZL19load_GL_VERSION_2_0PFPvPKcE+0x61e>
    12fe:	48 8b 45 f8          	mov    rax,QWORD PTR [rbp-0x8]
    1302:	48 8d 3d 00 00 00 00 	lea    rdi,[rip+0x0]        # 1309 <_ZL19load_GL_VERSION_2_0PFPvPKcE+0x629>
    1309:	ff d0                	call   rax
    130b:	48 89 05 00 00 00 00 	mov    QWORD PTR [rip+0x0],rax        # 1312 <_ZL19load_GL_VERSION_2_0PFPvPKcE+0x632>
    1312:	48 8b 45 f8          	mov    rax,QWORD PTR [rbp-0x8]
    1316:	48 8d 3d 00 00 00 00 	lea    rdi,[rip+0x0]        # 131d <_ZL19load_GL_VERSION_2_0PFPvPKcE+0x63d>
    131d:	ff d0                	call   rax
    131f:	48 89 05 00 00 00 00 	mov    QWORD PTR [rip+0x0],rax        # 1326 <_ZL19load_GL_VERSION_2_0PFPvPKcE+0x646>
    1326:	48 8b 45 f8          	mov    rax,QWORD PTR [rbp-0x8]
    132a:	48 8d 3d 00 00 00 00 	lea    rdi,[rip+0x0]        # 1331 <_ZL19load_GL_VERSION_2_0PFPvPKcE+0x651>
    1331:	ff d0                	call   rax
    1333:	48 89 05 00 00 00 00 	mov    QWORD PTR [rip+0x0],rax        # 133a <_ZL19load_GL_VERSION_2_0PFPvPKcE+0x65a>
    133a:	48 8b 45 f8          	mov    rax,QWORD PTR [rbp-0x8]
    133e:	48 8d 3d 00 00 00 00 	lea    rdi,[rip+0x0]        # 1345 <_ZL19load_GL_VERSION_2_0PFPvPKcE+0x665>
    1345:	ff d0                	call   rax
    1347:	48 89 05 00 00 00 00 	mov    QWORD PTR [rip+0x0],rax        # 134e <_ZL19load_GL_VERSION_2_0PFPvPKcE+0x66e>
    134e:	48 8b 45 f8          	mov    rax,QWORD PTR [rbp-0x8]
    1352:	48 8d 3d 00 00 00 00 	lea    rdi,[rip+0x0]        # 1359 <_ZL19load_GL_VERSION_2_0PFPvPKcE+0x679>
    1359:	ff d0                	call   rax
    135b:	48 89 05 00 00 00 00 	mov    QWORD PTR [rip+0x0],rax        # 1362 <_ZL19load_GL_VERSION_2_0PFPvPKcE+0x682>
    1362:	48 8b 45 f8          	mov    rax,QWORD PTR [rbp-0x8]
    1366:	48 8d 3d 00 00 00 00 	lea    rdi,[rip+0x0]        # 136d <_ZL19load_GL_VERSION_2_0PFPvPKcE+0x68d>
    136d:	ff d0                	call   rax
    136f:	48 89 05 00 00 00 00 	mov    QWORD PTR [rip+0x0],rax        # 1376 <_ZL19load_GL_VERSION_2_0PFPvPKcE+0x696>
    1376:	48 8b 45 f8          	mov    rax,QWORD PTR [rbp-0x8]
    137a:	48 8d 3d 00 00 00 00 	lea    rdi,[rip+0x0]        # 1381 <_ZL19load_GL_VERSION_2_0PFPvPKcE+0x6a1>
    1381:	ff d0                	call   rax
    1383:	48 89 05 00 00 00 00 	mov    QWORD PTR [rip+0x0],rax        # 138a <_ZL19load_GL_VERSION_2_0PFPvPKcE+0x6aa>
    138a:	48 8b 45 f8          	mov    rax,QWORD PTR [rbp-0x8]
    138e:	48 8d 3d 00 00 00 00 	lea    rdi,[rip+0x0]        # 1395 <_ZL19load_GL_VERSION_2_0PFPvPKcE+0x6b5>
    1395:	ff d0                	call   rax
    1397:	48 89 05 00 00 00 00 	mov    QWORD PTR [rip+0x0],rax        # 139e <_ZL19load_GL_VERSION_2_0PFPvPKcE+0x6be>
    139e:	48 8b 45 f8          	mov    rax,QWORD PTR [rbp-0x8]
    13a2:	48 8d 3d 00 00 00 00 	lea    rdi,[rip+0x0]        # 13a9 <_ZL19load_GL_VERSION_2_0PFPvPKcE+0x6c9>
    13a9:	ff d0                	call   rax
    13ab:	48 89 05 00 00 00 00 	mov    QWORD PTR [rip+0x0],rax        # 13b2 <_ZL19load_GL_VERSION_2_0PFPvPKcE+0x6d2>
    13b2:	48 8b 45 f8          	mov    rax,QWORD PTR [rbp-0x8]
    13b6:	48 8d 3d 00 00 00 00 	lea    rdi,[rip+0x0]        # 13bd <_ZL19load_GL_VERSION_2_0PFPvPKcE+0x6dd>
    13bd:	ff d0                	call   rax
    13bf:	48 89 05 00 00 00 00 	mov    QWORD PTR [rip+0x0],rax        # 13c6 <_ZL19load_GL_VERSION_2_0PFPvPKcE+0x6e6>
    13c6:	48 8b 45 f8          	mov    rax,QWORD PTR [rbp-0x8]
    13ca:	48 8d 3d 00 00 00 00 	lea    rdi,[rip+0x0]        # 13d1 <_ZL19load_GL_VERSION_2_0PFPvPKcE+0x6f1>
    13d1:	ff d0                	call   rax
    13d3:	48 89 05 00 00 00 00 	mov    QWORD PTR [rip+0x0],rax        # 13da <_ZL19load_GL_VERSION_2_0PFPvPKcE+0x6fa>
    13da:	48 8b 45 f8          	mov    rax,QWORD PTR [rbp-0x8]
    13de:	48 8d 3d 00 00 00 00 	lea    rdi,[rip+0x0]        # 13e5 <_ZL19load_GL_VERSION_2_0PFPvPKcE+0x705>
    13e5:	ff d0                	call   rax
    13e7:	48 89 05 00 00 00 00 	mov    QWORD PTR [rip+0x0],rax        # 13ee <_ZL19load_GL_VERSION_2_0PFPvPKcE+0x70e>
    13ee:	48 8b 45 f8          	mov    rax,QWORD PTR [rbp-0x8]
    13f2:	48 8d 3d 00 00 00 00 	lea    rdi,[rip+0x0]        # 13f9 <_ZL19load_GL_VERSION_2_0PFPvPKcE+0x719>
    13f9:	ff d0                	call   rax
    13fb:	48 89 05 00 00 00 00 	mov    QWORD PTR [rip+0x0],rax        # 1402 <_ZL19load_GL_VERSION_2_0PFPvPKcE+0x722>
    1402:	48 8b 45 f8          	mov    rax,QWORD PTR [rbp-0x8]
    1406:	48 8d 3d 00 00 00 00 	lea    rdi,[rip+0x0]        # 140d <_ZL19load_GL_VERSION_2_0PFPvPKcE+0x72d>
    140d:	ff d0                	call   rax
    140f:	48 89 05 00 00 00 00 	mov    QWORD PTR [rip+0x0],rax        # 1416 <_ZL19load_GL_VERSION_2_0PFPvPKcE+0x736>
    1416:	48 8b 45 f8          	mov    rax,QWORD PTR [rbp-0x8]
    141a:	48 8d 3d 00 00 00 00 	lea    rdi,[rip+0x0]        # 1421 <_ZL19load_GL_VERSION_2_0PFPvPKcE+0x741>
    1421:	ff d0                	call   rax
    1423:	48 89 05 00 00 00 00 	mov    QWORD PTR [rip+0x0],rax        # 142a <_ZL19load_GL_VERSION_2_0PFPvPKcE+0x74a>
    142a:	48 8b 45 f8          	mov    rax,QWORD PTR [rbp-0x8]
    142e:	48 8d 3d 00 00 00 00 	lea    rdi,[rip+0x0]        # 1435 <_ZL19load_GL_VERSION_2_0PFPvPKcE+0x755>
    1435:	ff d0                	call   rax
    1437:	48 89 05 00 00 00 00 	mov    QWORD PTR [rip+0x0],rax        # 143e <_ZL19load_GL_VERSION_2_0PFPvPKcE+0x75e>
    143e:	eb 01                	jmp    1441 <_ZL19load_GL_VERSION_2_0PFPvPKcE+0x761>
    1440:	90                   	nop
    1441:	c9                   	leave  
    1442:	c3                   	ret    

0000000000001443 <_ZL19load_GL_VERSION_2_1PFPvPKcE>:
    1443:	55                   	push   rbp
    1444:	48 89 e5             	mov    rbp,rsp
    1447:	48 83 ec 10          	sub    rsp,0x10
    144b:	48 89 7d f8          	mov    QWORD PTR [rbp-0x8],rdi
    144f:	8b 05 00 00 00 00    	mov    eax,DWORD PTR [rip+0x0]        # 1455 <_ZL19load_GL_VERSION_2_1PFPvPKcE+0x12>
    1455:	85 c0                	test   eax,eax
    1457:	74 7a                	je     14d3 <_ZL19load_GL_VERSION_2_1PFPvPKcE+0x90>
    1459:	48 8b 45 f8          	mov    rax,QWORD PTR [rbp-0x8]
    145d:	48 8d 3d 00 00 00 00 	lea    rdi,[rip+0x0]        # 1464 <_ZL19load_GL_VERSION_2_1PFPvPKcE+0x21>
    1464:	ff d0                	call   rax
    1466:	48 89 05 00 00 00 00 	mov    QWORD PTR [rip+0x0],rax        # 146d <_ZL19load_GL_VERSION_2_1PFPvPKcE+0x2a>
    146d:	48 8b 45 f8          	mov    rax,QWORD PTR [rbp-0x8]
    1471:	48 8d 3d 00 00 00 00 	lea    rdi,[rip+0x0]        # 1478 <_ZL19load_GL_VERSION_2_1PFPvPKcE+0x35>
    1478:	ff d0                	call   rax
    147a:	48 89 05 00 00 00 00 	mov    QWORD PTR [rip+0x0],rax        # 1481 <_ZL19load_GL_VERSION_2_1PFPvPKcE+0x3e>
    1481:	48 8b 45 f8          	mov    rax,QWORD PTR [rbp-0x8]
    1485:	48 8d 3d 00 00 00 00 	lea    rdi,[rip+0x0]        # 148c <_ZL19load_GL_VERSION_2_1PFPvPKcE+0x49>
    148c:	ff d0                	call   rax
    148e:	48 89 05 00 00 00 00 	mov    QWORD PTR [rip+0x0],rax        # 1495 <_ZL19load_GL_VERSION_2_1PFPvPKcE+0x52>
    1495:	48 8b 45 f8          	mov    rax,QWORD PTR [rbp-0x8]
    1499:	48 8d 3d 00 00 00 00 	lea    rdi,[rip+0x0]        # 14a0 <_ZL19load_GL_VERSION_2_1PFPvPKcE+0x5d>
    14a0:	ff d0                	call   rax
    14a2:	48 89 05 00 00 00 00 	mov    QWORD PTR [rip+0x0],rax        # 14a9 <_ZL19load_GL_VERSION_2_1PFPvPKcE+0x66>
    14a9:	48 8b 45 f8          	mov    rax,QWORD PTR [rbp-0x8]
    14ad:	48 8d 3d 00 00 00 00 	lea    rdi,[rip+0x0]        # 14b4 <_ZL19load_GL_VERSION_2_1PFPvPKcE+0x71>
    14b4:	ff d0                	call   rax
    14b6:	48 89 05 00 00 00 00 	mov    QWORD PTR [rip+0x0],rax        # 14bd <_ZL19load_GL_VERSION_2_1PFPvPKcE+0x7a>
    14bd:	48 8b 45 f8          	mov    rax,QWORD PTR [rbp-0x8]
    14c1:	48 8d 3d 00 00 00 00 	lea    rdi,[rip+0x0]        # 14c8 <_ZL19load_GL_VERSION_2_1PFPvPKcE+0x85>
    14c8:	ff d0                	call   rax
    14ca:	48 89 05 00 00 00 00 	mov    QWORD PTR [rip+0x0],rax        # 14d1 <_ZL19load_GL_VERSION_2_1PFPvPKcE+0x8e>
    14d1:	eb 01                	jmp    14d4 <_ZL19load_GL_VERSION_2_1PFPvPKcE+0x91>
    14d3:	90                   	nop
    14d4:	c9                   	leave  
    14d5:	c3                   	ret    

00000000000014d6 <_ZL19load_GL_VERSION_3_0PFPvPKcE>:
    14d6:	55                   	push   rbp
    14d7:	48 89 e5             	mov    rbp,rsp
    14da:	48 83 ec 10          	sub    rsp,0x10
    14de:	48 89 7d f8          	mov    QWORD PTR [rbp-0x8],rdi
    14e2:	8b 05 00 00 00 00    	mov    eax,DWORD PTR [rip+0x0]        # 14e8 <_ZL19load_GL_VERSION_3_0PFPvPKcE+0x12>
    14e8:	85 c0                	test   eax,eax
    14ea:	0f 84 92 06 00 00    	je     1b82 <_ZL19load_GL_VERSION_3_0PFPvPKcE+0x6ac>
    14f0:	48 8b 45 f8          	mov    rax,QWORD PTR [rbp-0x8]
    14f4:	48 8d 3d 00 00 00 00 	lea    rdi,[rip+0x0]        # 14fb <_ZL19load_GL_VERSION_3_0PFPvPKcE+0x25>
    14fb:	ff d0                	call   rax
    14fd:	48 89 05 00 00 00 00 	mov    QWORD PTR [rip+0x0],rax        # 1504 <_ZL19load_GL_VERSION_3_0PFPvPKcE+0x2e>
    1504:	48 8b 45 f8          	mov    rax,QWORD PTR [rbp-0x8]
    1508:	48 8d 3d 00 00 00 00 	lea    rdi,[rip+0x0]        # 150f <_ZL19load_GL_VERSION_3_0PFPvPKcE+0x39>
    150f:	ff d0                	call   rax
    1511:	48 89 05 00 00 00 00 	mov    QWORD PTR [rip+0x0],rax        # 1518 <_ZL19load_GL_VERSION_3_0PFPvPKcE+0x42>
    1518:	48 8b 45 f8          	mov    rax,QWORD PTR [rbp-0x8]
    151c:	48 8d 3d 00 00 00 00 	lea    rdi,[rip+0x0]        # 1523 <_ZL19load_GL_VERSION_3_0PFPvPKcE+0x4d>
    1523:	ff d0                	call   rax
    1525:	48 89 05 00 00 00 00 	mov    QWORD PTR [rip+0x0],rax        # 152c <_ZL19load_GL_VERSION_3_0PFPvPKcE+0x56>
    152c:	48 8b 45 f8          	mov    rax,QWORD PTR [rbp-0x8]
    1530:	48 8d 3d 00 00 00 00 	lea    rdi,[rip+0x0]        # 1537 <_ZL19load_GL_VERSION_3_0PFPvPKcE+0x61>
    1537:	ff d0                	call   rax
    1539:	48 89 05 00 00 00 00 	mov    QWORD PTR [rip+0x0],rax        # 1540 <_ZL19load_GL_VERSION_3_0PFPvPKcE+0x6a>
    1540:	48 8b 45 f8          	mov    rax,QWORD PTR [rbp-0x8]
    1544:	48 8d 3d 00 00 00 00 	lea    rdi,[rip+0x0]        # 154b <_ZL19load_GL_VERSION_3_0PFPvPKcE+0x75>
    154b:	ff d0                	call   rax
    154d:	48 89 05 00 00 00 00 	mov    QWORD PTR [rip+0x0],rax        # 1554 <_ZL19load_GL_VERSION_3_0PFPvPKcE+0x7e>
    1554:	48 8b 45 f8          	mov    rax,QWORD PTR [rbp-0x8]
    1558:	48 8d 3d 00 00 00 00 	lea    rdi,[rip+0x0]        # 155f <_ZL19load_GL_VERSION_3_0PFPvPKcE+0x89>
    155f:	ff d0                	call   rax
    1561:	48 89 05 00 00 00 00 	mov    QWORD PTR [rip+0x0],rax        # 1568 <_ZL19load_GL_VERSION_3_0PFPvPKcE+0x92>
    1568:	48 8b 45 f8          	mov    rax,QWORD PTR [rbp-0x8]
    156c:	48 8d 3d 00 00 00 00 	lea    rdi,[rip+0x0]        # 1573 <_ZL19load_GL_VERSION_3_0PFPvPKcE+0x9d>
    1573:	ff d0                	call   rax
    1575:	48 89 05 00 00 00 00 	mov    QWORD PTR [rip+0x0],rax        # 157c <_ZL19load_GL_VERSION_3_0PFPvPKcE+0xa6>
    157c:	48 8b 45 f8          	mov    rax,QWORD PTR [rbp-0x8]
    1580:	48 8d 3d 00 00 00 00 	lea    rdi,[rip+0x0]        # 1587 <_ZL19load_GL_VERSION_3_0PFPvPKcE+0xb1>
    1587:	ff d0                	call   rax
    1589:	48 89 05 00 00 00 00 	mov    QWORD PTR [rip+0x0],rax        # 1590 <_ZL19load_GL_VERSION_3_0PFPvPKcE+0xba>
    1590:	48 8b 45 f8          	mov    rax,QWORD PTR [rbp-0x8]
    1594:	48 8d 3d 00 00 00 00 	lea    rdi,[rip+0x0]        # 159b <_ZL19load_GL_VERSION_3_0PFPvPKcE+0xc5>
    159b:	ff d0                	call   rax
    159d:	48 89 05 00 00 00 00 	mov    QWORD PTR [rip+0x0],rax        # 15a4 <_ZL19load_GL_VERSION_3_0PFPvPKcE+0xce>
    15a4:	48 8b 45 f8          	mov    rax,QWORD PTR [rbp-0x8]
    15a8:	48 8d 3d 00 00 00 00 	lea    rdi,[rip+0x0]        # 15af <_ZL19load_GL_VERSION_3_0PFPvPKcE+0xd9>
    15af:	ff d0                	call   rax
    15b1:	48 89 05 00 00 00 00 	mov    QWORD PTR [rip+0x0],rax        # 15b8 <_ZL19load_GL_VERSION_3_0PFPvPKcE+0xe2>
    15b8:	48 8b 45 f8          	mov    rax,QWORD PTR [rbp-0x8]
    15bc:	48 8d 3d 00 00 00 00 	lea    rdi,[rip+0x0]        # 15c3 <_ZL19load_GL_VERSION_3_0PFPvPKcE+0xed>
    15c3:	ff d0                	call   rax
    15c5:	48 89 05 00 00 00 00 	mov    QWORD PTR [rip+0x0],rax        # 15cc <_ZL19load_GL_VERSION_3_0PFPvPKcE+0xf6>
    15cc:	48 8b 45 f8          	mov    rax,QWORD PTR [rbp-0x8]
    15d0:	48 8d 3d 00 00 00 00 	lea    rdi,[rip+0x0]        # 15d7 <_ZL19load_GL_VERSION_3_0PFPvPKcE+0x101>
    15d7:	ff d0                	call   rax
    15d9:	48 89 05 00 00 00 00 	mov    QWORD PTR [rip+0x0],rax        # 15e0 <_ZL19load_GL_VERSION_3_0PFPvPKcE+0x10a>
    15e0:	48 8b 45 f8          	mov    rax,QWORD PTR [rbp-0x8]
    15e4:	48 8d 3d 00 00 00 00 	lea    rdi,[rip+0x0]        # 15eb <_ZL19load_GL_VERSION_3_0PFPvPKcE+0x115>
    15eb:	ff d0                	call   rax
    15ed:	48 89 05 00 00 00 00 	mov    QWORD PTR [rip+0x0],rax        # 15f4 <_ZL19load_GL_VERSION_3_0PFPvPKcE+0x11e>
    15f4:	48 8b 45 f8          	mov    rax,QWORD PTR [rbp-0x8]
    15f8:	48 8d 3d 00 00 00 00 	lea    rdi,[rip+0x0]        # 15ff <_ZL19load_GL_VERSION_3_0PFPvPKcE+0x129>
    15ff:	ff d0                	call   rax
    1601:	48 89 05 00 00 00 00 	mov    QWORD PTR [rip+0x0],rax        # 1608 <_ZL19load_GL_VERSION_3_0PFPvPKcE+0x132>
    1608:	48 8b 45 f8          	mov    rax,QWORD PTR [rbp-0x8]
    160c:	48 8d 3d 00 00 00 00 	lea    rdi,[rip+0x0]        # 1613 <_ZL19load_GL_VERSION_3_0PFPvPKcE+0x13d>
    1613:	ff d0                	call   rax
    1615:	48 89 05 00 00 00 00 	mov    QWORD PTR [rip+0x0],rax        # 161c <_ZL19load_GL_VERSION_3_0PFPvPKcE+0x146>
    161c:	48 8b 45 f8          	mov    rax,QWORD PTR [rbp-0x8]
    1620:	48 8d 3d 00 00 00 00 	lea    rdi,[rip+0x0]        # 1627 <_ZL19load_GL_VERSION_3_0PFPvPKcE+0x151>
    1627:	ff d0                	call   rax
    1629:	48 89 05 00 00 00 00 	mov    QWORD PTR [rip+0x0],rax        # 1630 <_ZL19load_GL_VERSION_3_0PFPvPKcE+0x15a>
    1630:	48 8b 45 f8          	mov    rax,QWORD PTR [rbp-0x8]
    1634:	48 8d 3d 00 00 00 00 	lea    rdi,[rip+0x0]        # 163b <_ZL19load_GL_VERSION_3_0PFPvPKcE+0x165>
    163b:	ff d0                	call   rax
    163d:	48 89 05 00 00 00 00 	mov    QWORD PTR [rip+0x0],rax        # 1644 <_ZL19load_GL_VERSION_3_0PFPvPKcE+0x16e>
    1644:	48 8b 45 f8          	mov    rax,QWORD PTR [rbp-0x8]
    1648:	48 8d 3d 00 00 00 00 	lea    rdi,[rip+0x0]        # 164f <_ZL19load_GL_VERSION_3_0PFPvPKcE+0x179>
    164f:	ff d0                	call   rax
    1651:	48 89 05 00 00 00 00 	mov    QWORD PTR [rip+0x0],rax        # 1658 <_ZL19load_GL_VERSION_3_0PFPvPKcE+0x182>
    1658:	48 8b 45 f8          	mov    rax,QWORD PTR [rbp-0x8]
    165c:	48 8d 3d 00 00 00 00 	lea    rdi,[rip+0x0]        # 1663 <_ZL19load_GL_VERSION_3_0PFPvPKcE+0x18d>
    1663:	ff d0                	call   rax
    1665:	48 89 05 00 00 00 00 	mov    QWORD PTR [rip+0x0],rax        # 166c <_ZL19load_GL_VERSION_3_0PFPvPKcE+0x196>
    166c:	48 8b 45 f8          	mov    rax,QWORD PTR [rbp-0x8]
    1670:	48 8d 3d 00 00 00 00 	lea    rdi,[rip+0x0]        # 1677 <_ZL19load_GL_VERSION_3_0PFPvPKcE+0x1a1>
    1677:	ff d0                	call   rax
    1679:	48 89 05 00 00 00 00 	mov    QWORD PTR [rip+0x0],rax        # 1680 <_ZL19load_GL_VERSION_3_0PFPvPKcE+0x1aa>
    1680:	48 8b 45 f8          	mov    rax,QWORD PTR [rbp-0x8]
    1684:	48 8d 3d 00 00 00 00 	lea    rdi,[rip+0x0]        # 168b <_ZL19load_GL_VERSION_3_0PFPvPKcE+0x1b5>
    168b:	ff d0                	call   rax
    168d:	48 89 05 00 00 00 00 	mov    QWORD PTR [rip+0x0],rax        # 1694 <_ZL19load_GL_VERSION_3_0PFPvPKcE+0x1be>
    1694:	48 8b 45 f8          	mov    rax,QWORD PTR [rbp-0x8]
    1698:	48 8d 3d 00 00 00 00 	lea    rdi,[rip+0x0]        # 169f <_ZL19load_GL_VERSION_3_0PFPvPKcE+0x1c9>
    169f:	ff d0                	call   rax
    16a1:	48 89 05 00 00 00 00 	mov    QWORD PTR [rip+0x0],rax        # 16a8 <_ZL19load_GL_VERSION_3_0PFPvPKcE+0x1d2>
    16a8:	48 8b 45 f8          	mov    rax,QWORD PTR [rbp-0x8]
    16ac:	48 8d 3d 00 00 00 00 	lea    rdi,[rip+0x0]        # 16b3 <_ZL19load_GL_VERSION_3_0PFPvPKcE+0x1dd>
    16b3:	ff d0                	call   rax
    16b5:	48 89 05 00 00 00 00 	mov    QWORD PTR [rip+0x0],rax        # 16bc <_ZL19load_GL_VERSION_3_0PFPvPKcE+0x1e6>
    16bc:	48 8b 45 f8          	mov    rax,QWORD PTR [rbp-0x8]
    16c0:	48 8d 3d 00 00 00 00 	lea    rdi,[rip+0x0]        # 16c7 <_ZL19load_GL_VERSION_3_0PFPvPKcE+0x1f1>
    16c7:	ff d0                	call   rax
    16c9:	48 89 05 00 00 00 00 	mov    QWORD PTR [rip+0x0],rax        # 16d0 <_ZL19load_GL_VERSION_3_0PFPvPKcE+0x1fa>
    16d0:	48 8b 45 f8          	mov    rax,QWORD PTR [rbp-0x8]
    16d4:	48 8d 3d 00 00 00 00 	lea    rdi,[rip+0x0]        # 16db <_ZL19load_GL_VERSION_3_0PFPvPKcE+0x205>
    16db:	ff d0                	call   rax
    16dd:	48 89 05 00 00 00 00 	mov    QWORD PTR [rip+0x0],rax        # 16e4 <_ZL19load_GL_VERSION_3_0PFPvPKcE+0x20e>
    16e4:	48 8b 45 f8          	mov    rax,QWORD PTR [rbp-0x8]
    16e8:	48 8d 3d 00 00 00 00 	lea    rdi,[rip+0x0]        # 16ef <_ZL19load_GL_VERSION_3_0PFPvPKcE+0x219>
    16ef:	ff d0                	call   rax
    16f1:	48 89 05 00 00 00 00 	mov    QWORD PTR [rip+0x0],rax        # 16f8 <_ZL19load_GL_VERSION_3_0PFPvPKcE+0x222>
    16f8:	48 8b 45 f8          	mov    rax,QWORD PTR [rbp-0x8]
    16fc:	48 8d 3d 00 00 00 00 	lea    rdi,[rip+0x0]        # 1703 <_ZL19load_GL_VERSION_3_0PFPvPKcE+0x22d>
    1703:	ff d0                	call   rax
    1705:	48 89 05 00 00 00 00 	mov    QWORD PTR [rip+0x0],rax        # 170c <_ZL19load_GL_VERSION_3_0PFPvPKcE+0x236>
    170c:	48 8b 45 f8          	mov    rax,QWORD PTR [rbp-0x8]
    1710:	48 8d 3d 00 00 00 00 	lea    rdi,[rip+0x0]        # 1717 <_ZL19load_GL_VERSION_3_0PFPvPKcE+0x241>
    1717:	ff d0                	call   rax
    1719:	48 89 05 00 00 00 00 	mov    QWORD PTR [rip+0x0],rax        # 1720 <_ZL19load_GL_VERSION_3_0PFPvPKcE+0x24a>
    1720:	48 8b 45 f8          	mov    rax,QWORD PTR [rbp-0x8]
    1724:	48 8d 3d 00 00 00 00 	lea    rdi,[rip+0x0]        # 172b <_ZL19load_GL_VERSION_3_0PFPvPKcE+0x255>
    172b:	ff d0                	call   rax
    172d:	48 89 05 00 00 00 00 	mov    QWORD PTR [rip+0x0],rax        # 1734 <_ZL19load_GL_VERSION_3_0PFPvPKcE+0x25e>
    1734:	48 8b 45 f8          	mov    rax,QWORD PTR [rbp-0x8]
    1738:	48 8d 3d 00 00 00 00 	lea    rdi,[rip+0x0]        # 173f <_ZL19load_GL_VERSION_3_0PFPvPKcE+0x269>
    173f:	ff d0                	call   rax
    1741:	48 89 05 00 00 00 00 	mov    QWORD PTR [rip+0x0],rax        # 1748 <_ZL19load_GL_VERSION_3_0PFPvPKcE+0x272>
    1748:	48 8b 45 f8          	mov    rax,QWORD PTR [rbp-0x8]
    174c:	48 8d 3d 00 00 00 00 	lea    rdi,[rip+0x0]        # 1753 <_ZL19load_GL_VERSION_3_0PFPvPKcE+0x27d>
    1753:	ff d0                	call   rax
    1755:	48 89 05 00 00 00 00 	mov    QWORD PTR [rip+0x0],rax        # 175c <_ZL19load_GL_VERSION_3_0PFPvPKcE+0x286>
    175c:	48 8b 45 f8          	mov    rax,QWORD PTR [rbp-0x8]
    1760:	48 8d 3d 00 00 00 00 	lea    rdi,[rip+0x0]        # 1767 <_ZL19load_GL_VERSION_3_0PFPvPKcE+0x291>
    1767:	ff d0                	call   rax
    1769:	48 89 05 00 00 00 00 	mov    QWORD PTR [rip+0x0],rax        # 1770 <_ZL19load_GL_VERSION_3_0PFPvPKcE+0x29a>
    1770:	48 8b 45 f8          	mov    rax,QWORD PTR [rbp-0x8]
    1774:	48 8d 3d 00 00 00 00 	lea    rdi,[rip+0x0]        # 177b <_ZL19load_GL_VERSION_3_0PFPvPKcE+0x2a5>
    177b:	ff d0                	call   rax
    177d:	48 89 05 00 00 00 00 	mov    QWORD PTR [rip+0x0],rax        # 1784 <_ZL19load_GL_VERSION_3_0PFPvPKcE+0x2ae>
    1784:	48 8b 45 f8          	mov    rax,QWORD PTR [rbp-0x8]
    1788:	48 8d 3d 00 00 00 00 	lea    rdi,[rip+0x0]        # 178f <_ZL19load_GL_VERSION_3_0PFPvPKcE+0x2b9>
    178f:	ff d0                	call   rax
    1791:	48 89 05 00 00 00 00 	mov    QWORD PTR [rip+0x0],rax        # 1798 <_ZL19load_GL_VERSION_3_0PFPvPKcE+0x2c2>
    1798:	48 8b 45 f8          	mov    rax,QWORD PTR [rbp-0x8]
    179c:	48 8d 3d 00 00 00 00 	lea    rdi,[rip+0x0]        # 17a3 <_ZL19load_GL_VERSION_3_0PFPvPKcE+0x2cd>
    17a3:	ff d0                	call   rax
    17a5:	48 89 05 00 00 00 00 	mov    QWORD PTR [rip+0x0],rax        # 17ac <_ZL19load_GL_VERSION_3_0PFPvPKcE+0x2d6>
    17ac:	48 8b 45 f8          	mov    rax,QWORD PTR [rbp-0x8]
    17b0:	48 8d 3d 00 00 00 00 	lea    rdi,[rip+0x0]        # 17b7 <_ZL19load_GL_VERSION_3_0PFPvPKcE+0x2e1>
    17b7:	ff d0                	call   rax
    17b9:	48 89 05 00 00 00 00 	mov    QWORD PTR [rip+0x0],rax        # 17c0 <_ZL19load_GL_VERSION_3_0PFPvPKcE+0x2ea>
    17c0:	48 8b 45 f8          	mov    rax,QWORD PTR [rbp-0x8]
    17c4:	48 8d 3d 00 00 00 00 	lea    rdi,[rip+0x0]        # 17cb <_ZL19load_GL_VERSION_3_0PFPvPKcE+0x2f5>
    17cb:	ff d0                	call   rax
    17cd:	48 89 05 00 00 00 00 	mov    QWORD PTR [rip+0x0],rax        # 17d4 <_ZL19load_GL_VERSION_3_0PFPvPKcE+0x2fe>
    17d4:	48 8b 45 f8          	mov    rax,QWORD PTR [rbp-0x8]
    17d8:	48 8d 3d 00 00 00 00 	lea    rdi,[rip+0x0]        # 17df <_ZL19load_GL_VERSION_3_0PFPvPKcE+0x309>
    17df:	ff d0                	call   rax
    17e1:	48 89 05 00 00 00 00 	mov    QWORD PTR [rip+0x0],rax        # 17e8 <_ZL19load_GL_VERSION_3_0PFPvPKcE+0x312>
    17e8:	48 8b 45 f8          	mov    rax,QWORD PTR [rbp-0x8]
    17ec:	48 8d 3d 00 00 00 00 	lea    rdi,[rip+0x0]        # 17f3 <_ZL19load_GL_VERSION_3_0PFPvPKcE+0x31d>
    17f3:	ff d0                	call   rax
    17f5:	48 89 05 00 00 00 00 	mov    QWORD PTR [rip+0x0],rax        # 17fc <_ZL19load_GL_VERSION_3_0PFPvPKcE+0x326>
    17fc:	48 8b 45 f8          	mov    rax,QWORD PTR [rbp-0x8]
    1800:	48 8d 3d 00 00 00 00 	lea    rdi,[rip+0x0]        # 1807 <_ZL19load_GL_VERSION_3_0PFPvPKcE+0x331>
    1807:	ff d0                	call   rax
    1809:	48 89 05 00 00 00 00 	mov    QWORD PTR [rip+0x0],rax        # 1810 <_ZL19load_GL_VERSION_3_0PFPvPKcE+0x33a>
    1810:	48 8b 45 f8          	mov    rax,QWORD PTR [rbp-0x8]
    1814:	48 8d 3d 00 00 00 00 	lea    rdi,[rip+0x0]        # 181b <_ZL19load_GL_VERSION_3_0PFPvPKcE+0x345>
    181b:	ff d0                	call   rax
    181d:	48 89 05 00 00 00 00 	mov    QWORD PTR [rip+0x0],rax        # 1824 <_ZL19load_GL_VERSION_3_0PFPvPKcE+0x34e>
    1824:	48 8b 45 f8          	mov    rax,QWORD PTR [rbp-0x8]
    1828:	48 8d 3d 00 00 00 00 	lea    rdi,[rip+0x0]        # 182f <_ZL19load_GL_VERSION_3_0PFPvPKcE+0x359>
    182f:	ff d0                	call   rax
    1831:	48 89 05 00 00 00 00 	mov    QWORD PTR [rip+0x0],rax        # 1838 <_ZL19load_GL_VERSION_3_0PFPvPKcE+0x362>
    1838:	48 8b 45 f8          	mov    rax,QWORD PTR [rbp-0x8]
    183c:	48 8d 3d 00 00 00 00 	lea    rdi,[rip+0x0]        # 1843 <_ZL19load_GL_VERSION_3_0PFPvPKcE+0x36d>
    1843:	ff d0                	call   rax
    1845:	48 89 05 00 00 00 00 	mov    QWORD PTR [rip+0x0],rax        # 184c <_ZL19load_GL_VERSION_3_0PFPvPKcE+0x376>
    184c:	48 8b 45 f8          	mov    rax,QWORD PTR [rbp-0x8]
    1850:	48 8d 3d 00 00 00 00 	lea    rdi,[rip+0x0]        # 1857 <_ZL19load_GL_VERSION_3_0PFPvPKcE+0x381>
    1857:	ff d0                	call   rax
    1859:	48 89 05 00 00 00 00 	mov    QWORD PTR [rip+0x0],rax        # 1860 <_ZL19load_GL_VERSION_3_0PFPvPKcE+0x38a>
    1860:	48 8b 45 f8          	mov    rax,QWORD PTR [rbp-0x8]
    1864:	48 8d 3d 00 00 00 00 	lea    rdi,[rip+0x0]        # 186b <_ZL19load_GL_VERSION_3_0PFPvPKcE+0x395>
    186b:	ff d0                	call   rax
    186d:	48 89 05 00 00 00 00 	mov    QWORD PTR [rip+0x0],rax        # 1874 <_ZL19load_GL_VERSION_3_0PFPvPKcE+0x39e>
    1874:	48 8b 45 f8          	mov    rax,QWORD PTR [rbp-0x8]
    1878:	48 8d 3d 00 00 00 00 	lea    rdi,[rip+0x0]        # 187f <_ZL19load_GL_VERSION_3_0PFPvPKcE+0x3a9>
    187f:	ff d0                	call   rax
    1881:	48 89 05 00 00 00 00 	mov    QWORD PTR [rip+0x0],rax        # 1888 <_ZL19load_GL_VERSION_3_0PFPvPKcE+0x3b2>
    1888:	48 8b 45 f8          	mov    rax,QWORD PTR [rbp-0x8]
    188c:	48 8d 3d 00 00 00 00 	lea    rdi,[rip+0x0]        # 1893 <_ZL19load_GL_VERSION_3_0PFPvPKcE+0x3bd>
    1893:	ff d0                	call   rax
    1895:	48 89 05 00 00 00 00 	mov    QWORD PTR [rip+0x0],rax        # 189c <_ZL19load_GL_VERSION_3_0PFPvPKcE+0x3c6>
    189c:	48 8b 45 f8          	mov    rax,QWORD PTR [rbp-0x8]
    18a0:	48 8d 3d 00 00 00 00 	lea    rdi,[rip+0x0]        # 18a7 <_ZL19load_GL_VERSION_3_0PFPvPKcE+0x3d1>
    18a7:	ff d0                	call   rax
    18a9:	48 89 05 00 00 00 00 	mov    QWORD PTR [rip+0x0],rax        # 18b0 <_ZL19load_GL_VERSION_3_0PFPvPKcE+0x3da>
    18b0:	48 8b 45 f8          	mov    rax,QWORD PTR [rbp-0x8]
    18b4:	48 8d 3d 00 00 00 00 	lea    rdi,[rip+0x0]        # 18bb <_ZL19load_GL_VERSION_3_0PFPvPKcE+0x3e5>
    18bb:	ff d0                	call   rax
    18bd:	48 89 05 00 00 00 00 	mov    QWORD PTR [rip+0x0],rax        # 18c4 <_ZL19load_GL_VERSION_3_0PFPvPKcE+0x3ee>
    18c4:	48 8b 45 f8          	mov    rax,QWORD PTR [rbp-0x8]
    18c8:	48 8d 3d 00 00 00 00 	lea    rdi,[rip+0x0]        # 18cf <_ZL19load_GL_VERSION_3_0PFPvPKcE+0x3f9>
    18cf:	ff d0                	call   rax
    18d1:	48 89 05 00 00 00 00 	mov    QWORD PTR [rip+0x0],rax        # 18d8 <_ZL19load_GL_VERSION_3_0PFPvPKcE+0x402>
    18d8:	48 8b 45 f8          	mov    rax,QWORD PTR [rbp-0x8]
    18dc:	48 8d 3d 00 00 00 00 	lea    rdi,[rip+0x0]        # 18e3 <_ZL19load_GL_VERSION_3_0PFPvPKcE+0x40d>
    18e3:	ff d0                	call   rax
    18e5:	48 89 05 00 00 00 00 	mov    QWORD PTR [rip+0x0],rax        # 18ec <_ZL19load_GL_VERSION_3_0PFPvPKcE+0x416>
    18ec:	48 8b 45 f8          	mov    rax,QWORD PTR [rbp-0x8]
    18f0:	48 8d 3d 00 00 00 00 	lea    rdi,[rip+0x0]        # 18f7 <_ZL19load_GL_VERSION_3_0PFPvPKcE+0x421>
    18f7:	ff d0                	call   rax
    18f9:	48 89 05 00 00 00 00 	mov    QWORD PTR [rip+0x0],rax        # 1900 <_ZL19load_GL_VERSION_3_0PFPvPKcE+0x42a>
    1900:	48 8b 45 f8          	mov    rax,QWORD PTR [rbp-0x8]
    1904:	48 8d 3d 00 00 00 00 	lea    rdi,[rip+0x0]        # 190b <_ZL19load_GL_VERSION_3_0PFPvPKcE+0x435>
    190b:	ff d0                	call   rax
    190d:	48 89 05 00 00 00 00 	mov    QWORD PTR [rip+0x0],rax        # 1914 <_ZL19load_GL_VERSION_3_0PFPvPKcE+0x43e>
    1914:	48 8b 45 f8          	mov    rax,QWORD PTR [rbp-0x8]
    1918:	48 8d 3d 00 00 00 00 	lea    rdi,[rip+0x0]        # 191f <_ZL19load_GL_VERSION_3_0PFPvPKcE+0x449>
    191f:	ff d0                	call   rax
    1921:	48 89 05 00 00 00 00 	mov    QWORD PTR [rip+0x0],rax        # 1928 <_ZL19load_GL_VERSION_3_0PFPvPKcE+0x452>
    1928:	48 8b 45 f8          	mov    rax,QWORD PTR [rbp-0x8]
    192c:	48 8d 3d 00 00 00 00 	lea    rdi,[rip+0x0]        # 1933 <_ZL19load_GL_VERSION_3_0PFPvPKcE+0x45d>
    1933:	ff d0                	call   rax
    1935:	48 89 05 00 00 00 00 	mov    QWORD PTR [rip+0x0],rax        # 193c <_ZL19load_GL_VERSION_3_0PFPvPKcE+0x466>
    193c:	48 8b 45 f8          	mov    rax,QWORD PTR [rbp-0x8]
    1940:	48 8d 3d 00 00 00 00 	lea    rdi,[rip+0x0]        # 1947 <_ZL19load_GL_VERSION_3_0PFPvPKcE+0x471>
    1947:	ff d0                	call   rax
    1949:	48 89 05 00 00 00 00 	mov    QWORD PTR [rip+0x0],rax        # 1950 <_ZL19load_GL_VERSION_3_0PFPvPKcE+0x47a>
    1950:	48 8b 45 f8          	mov    rax,QWORD PTR [rbp-0x8]
    1954:	48 8d 3d 00 00 00 00 	lea    rdi,[rip+0x0]        # 195b <_ZL19load_GL_VERSION_3_0PFPvPKcE+0x485>
    195b:	ff d0                	call   rax
    195d:	48 89 05 00 00 00 00 	mov    QWORD PTR [rip+0x0],rax        # 1964 <_ZL19load_GL_VERSION_3_0PFPvPKcE+0x48e>
    1964:	48 8b 45 f8          	mov    rax,QWORD PTR [rbp-0x8]
    1968:	48 8d 3d 00 00 00 00 	lea    rdi,[rip+0x0]        # 196f <_ZL19load_GL_VERSION_3_0PFPvPKcE+0x499>
    196f:	ff d0                	call   rax
    1971:	48 89 05 00 00 00 00 	mov    QWORD PTR [rip+0x0],rax        # 1978 <_ZL19load_GL_VERSION_3_0PFPvPKcE+0x4a2>
    1978:	48 8b 45 f8          	mov    rax,QWORD PTR [rbp-0x8]
    197c:	48 8d 3d 00 00 00 00 	lea    rdi,[rip+0x0]        # 1983 <_ZL19load_GL_VERSION_3_0PFPvPKcE+0x4ad>
    1983:	ff d0                	call   rax
    1985:	48 89 05 00 00 00 00 	mov    QWORD PTR [rip+0x0],rax        # 198c <_ZL19load_GL_VERSION_3_0PFPvPKcE+0x4b6>
    198c:	48 8b 45 f8          	mov    rax,QWORD PTR [rbp-0x8]
    1990:	48 8d 3d 00 00 00 00 	lea    rdi,[rip+0x0]        # 1997 <_ZL19load_GL_VERSION_3_0PFPvPKcE+0x4c1>
    1997:	ff d0                	call   rax
    1999:	48 89 05 00 00 00 00 	mov    QWORD PTR [rip+0x0],rax        # 19a0 <_ZL19load_GL_VERSION_3_0PFPvPKcE+0x4ca>
    19a0:	48 8b 45 f8          	mov    rax,QWORD PTR [rbp-0x8]
    19a4:	48 8d 3d 00 00 00 00 	lea    rdi,[rip+0x0]        # 19ab <_ZL19load_GL_VERSION_3_0PFPvPKcE+0x4d5>
    19ab:	ff d0                	call   rax
    19ad:	48 89 05 00 00 00 00 	mov    QWORD PTR [rip+0x0],rax        # 19b4 <_ZL19load_GL_VERSION_3_0PFPvPKcE+0x4de>
    19b4:	48 8b 45 f8          	mov    rax,QWORD PTR [rbp-0x8]
    19b8:	48 8d 3d 00 00 00 00 	lea    rdi,[rip+0x0]        # 19bf <_ZL19load_GL_VERSION_3_0PFPvPKcE+0x4e9>
    19bf:	ff d0                	call   rax
    19c1:	48 89 05 00 00 00 00 	mov    QWORD PTR [rip+0x0],rax        # 19c8 <_ZL19load_GL_VERSION_3_0PFPvPKcE+0x4f2>
    19c8:	48 8b 45 f8          	mov    rax,QWORD PTR [rbp-0x8]
    19cc:	48 8d 3d 00 00 00 00 	lea    rdi,[rip+0x0]        # 19d3 <_ZL19load_GL_VERSION_3_0PFPvPKcE+0x4fd>
    19d3:	ff d0                	call   rax
    19d5:	48 89 05 00 00 00 00 	mov    QWORD PTR [rip+0x0],rax        # 19dc <_ZL19load_GL_VERSION_3_0PFPvPKcE+0x506>
    19dc:	48 8b 45 f8          	mov    rax,QWORD PTR [rbp-0x8]
    19e0:	48 8d 3d 00 00 00 00 	lea    rdi,[rip+0x0]        # 19e7 <_ZL19load_GL_VERSION_3_0PFPvPKcE+0x511>
    19e7:	ff d0                	call   rax
    19e9:	48 89 05 00 00 00 00 	mov    QWORD PTR [rip+0x0],rax        # 19f0 <_ZL19load_GL_VERSION_3_0PFPvPKcE+0x51a>
    19f0:	48 8b 45 f8          	mov    rax,QWORD PTR [rbp-0x8]
    19f4:	48 8d 3d 00 00 00 00 	lea    rdi,[rip+0x0]        # 19fb <_ZL19load_GL_VERSION_3_0PFPvPKcE+0x525>
    19fb:	ff d0                	call   rax
    19fd:	48 89 05 00 00 00 00 	mov    QWORD PTR [rip+0x0],rax        # 1a04 <_ZL19load_GL_VERSION_3_0PFPvPKcE+0x52e>
    1a04:	48 8b 45 f8          	mov    rax,QWORD PTR [rbp-0x8]
    1a08:	48 8d 3d 00 00 00 00 	lea    rdi,[rip+0x0]        # 1a0f <_ZL19load_GL_VERSION_3_0PFPvPKcE+0x539>
    1a0f:	ff d0                	call   rax
    1a11:	48 89 05 00 00 00 00 	mov    QWORD PTR [rip+0x0],rax        # 1a18 <_ZL19load_GL_VERSION_3_0PFPvPKcE+0x542>
    1a18:	48 8b 45 f8          	mov    rax,QWORD PTR [rbp-0x8]
    1a1c:	48 8d 3d 00 00 00 00 	lea    rdi,[rip+0x0]        # 1a23 <_ZL19load_GL_VERSION_3_0PFPvPKcE+0x54d>
    1a23:	ff d0                	call   rax
    1a25:	48 89 05 00 00 00 00 	mov    QWORD PTR [rip+0x0],rax        # 1a2c <_ZL19load_GL_VERSION_3_0PFPvPKcE+0x556>
    1a2c:	48 8b 45 f8          	mov    rax,QWORD PTR [rbp-0x8]
    1a30:	48 8d 3d 00 00 00 00 	lea    rdi,[rip+0x0]        # 1a37 <_ZL19load_GL_VERSION_3_0PFPvPKcE+0x561>
    1a37:	ff d0                	call   rax
    1a39:	48 89 05 00 00 00 00 	mov    QWORD PTR [rip+0x0],rax        # 1a40 <_ZL19load_GL_VERSION_3_0PFPvPKcE+0x56a>
    1a40:	48 8b 45 f8          	mov    rax,QWORD PTR [rbp-0x8]
    1a44:	48 8d 3d 00 00 00 00 	lea    rdi,[rip+0x0]        # 1a4b <_ZL19load_GL_VERSION_3_0PFPvPKcE+0x575>
    1a4b:	ff d0                	call   rax
    1a4d:	48 89 05 00 00 00 00 	mov    QWORD PTR [rip+0x0],rax        # 1a54 <_ZL19load_GL_VERSION_3_0PFPvPKcE+0x57e>
    1a54:	48 8b 45 f8          	mov    rax,QWORD PTR [rbp-0x8]
    1a58:	48 8d 3d 00 00 00 00 	lea    rdi,[rip+0x0]        # 1a5f <_ZL19load_GL_VERSION_3_0PFPvPKcE+0x589>
    1a5f:	ff d0                	call   rax
    1a61:	48 89 05 00 00 00 00 	mov    QWORD PTR [rip+0x0],rax        # 1a68 <_ZL19load_GL_VERSION_3_0PFPvPKcE+0x592>
    1a68:	48 8b 45 f8          	mov    rax,QWORD PTR [rbp-0x8]
    1a6c:	48 8d 3d 00 00 00 00 	lea    rdi,[rip+0x0]        # 1a73 <_ZL19load_GL_VERSION_3_0PFPvPKcE+0x59d>
    1a73:	ff d0                	call   rax
    1a75:	48 89 05 00 00 00 00 	mov    QWORD PTR [rip+0x0],rax        # 1a7c <_ZL19load_GL_VERSION_3_0PFPvPKcE+0x5a6>
    1a7c:	48 8b 45 f8          	mov    rax,QWORD PTR [rbp-0x8]
    1a80:	48 8d 3d 00 00 00 00 	lea    rdi,[rip+0x0]        # 1a87 <_ZL19load_GL_VERSION_3_0PFPvPKcE+0x5b1>
    1a87:	ff d0                	call   rax
    1a89:	48 89 05 00 00 00 00 	mov    QWORD PTR [rip+0x0],rax        # 1a90 <_ZL19load_GL_VERSION_3_0PFPvPKcE+0x5ba>
    1a90:	48 8b 45 f8          	mov    rax,QWORD PTR [rbp-0x8]
    1a94:	48 8d 3d 00 00 00 00 	lea    rdi,[rip+0x0]        # 1a9b <_ZL19load_GL_VERSION_3_0PFPvPKcE+0x5c5>
    1a9b:	ff d0                	call   rax
    1a9d:	48 89 05 00 00 00 00 	mov    QWORD PTR [rip+0x0],rax        # 1aa4 <_ZL19load_GL_VERSION_3_0PFPvPKcE+0x5ce>
    1aa4:	48 8b 45 f8          	mov    rax,QWORD PTR [rbp-0x8]
    1aa8:	48 8d 3d 00 00 00 00 	lea    rdi,[rip+0x0]        # 1aaf <_ZL19load_GL_VERSION_3_0PFPvPKcE+0x5d9>
    1aaf:	ff d0                	call   rax
    1ab1:	48 89 05 00 00 00 00 	mov    QWORD PTR [rip+0x0],rax        # 1ab8 <_ZL19load_GL_VERSION_3_0PFPvPKcE+0x5e2>
    1ab8:	48 8b 45 f8          	mov    rax,QWORD PTR [rbp-0x8]
    1abc:	48 8d 3d 00 00 00 00 	lea    rdi,[rip+0x0]        # 1ac3 <_ZL19load_GL_VERSION_3_0PFPvPKcE+0x5ed>
    1ac3:	ff d0                	call   rax
    1ac5:	48 89 05 00 00 00 00 	mov    QWORD PTR [rip+0x0],rax        # 1acc <_ZL19load_GL_VERSION_3_0PFPvPKcE+0x5f6>
    1acc:	48 8b 45 f8          	mov    rax,QWORD PTR [rbp-0x8]
    1ad0:	48 8d 3d 00 00 00 00 	lea    rdi,[rip+0x0]        # 1ad7 <_ZL19load_GL_VERSION_3_0PFPvPKcE+0x601>
    1ad7:	ff d0                	call   rax
    1ad9:	48 89 05 00 00 00 00 	mov    QWORD PTR [rip+0x0],rax        # 1ae0 <_ZL19load_GL_VERSION_3_0PFPvPKcE+0x60a>
    1ae0:	48 8b 45 f8          	mov    rax,QWORD PTR [rbp-0x8]
    1ae4:	48 8d 3d 00 00 00 00 	lea    rdi,[rip+0x0]        # 1aeb <_ZL19load_GL_VERSION_3_0PFPvPKcE+0x615>
    1aeb:	ff d0                	call   rax
    1aed:	48 89 05 00 00 00 00 	mov    QWORD PTR [rip+0x0],rax        # 1af4 <_ZL19load_GL_VERSION_3_0PFPvPKcE+0x61e>
    1af4:	48 8b 45 f8          	mov    rax,QWORD PTR [rbp-0x8]
    1af8:	48 8d 3d 00 00 00 00 	lea    rdi,[rip+0x0]        # 1aff <_ZL19load_GL_VERSION_3_0PFPvPKcE+0x629>
    1aff:	ff d0                	call   rax
    1b01:	48 89 05 00 00 00 00 	mov    QWORD PTR [rip+0x0],rax        # 1b08 <_ZL19load_GL_VERSION_3_0PFPvPKcE+0x632>
    1b08:	48 8b 45 f8          	mov    rax,QWORD PTR [rbp-0x8]
    1b0c:	48 8d 3d 00 00 00 00 	lea    rdi,[rip+0x0]        # 1b13 <_ZL19load_GL_VERSION_3_0PFPvPKcE+0x63d>
    1b13:	ff d0                	call   rax
    1b15:	48 89 05 00 00 00 00 	mov    QWORD PTR [rip+0x0],rax        # 1b1c <_ZL19load_GL_VERSION_3_0PFPvPKcE+0x646>
    1b1c:	48 8b 45 f8          	mov    rax,QWORD PTR [rbp-0x8]
    1b20:	48 8d 3d 00 00 00 00 	lea    rdi,[rip+0x0]        # 1b27 <_ZL19load_GL_VERSION_3_0PFPvPKcE+0x651>
    1b27:	ff d0                	call   rax
    1b29:	48 89 05 00 00 00 00 	mov    QWORD PTR [rip+0x0],rax        # 1b30 <_ZL19load_GL_VERSION_3_0PFPvPKcE+0x65a>
    1b30:	48 8b 45 f8          	mov    rax,QWORD PTR [rbp-0x8]
    1b34:	48 8d 3d 00 00 00 00 	lea    rdi,[rip+0x0]        # 1b3b <_ZL19load_GL_VERSION_3_0PFPvPKcE+0x665>
    1b3b:	ff d0                	call   rax
    1b3d:	48 89 05 00 00 00 00 	mov    QWORD PTR [rip+0x0],rax        # 1b44 <_ZL19load_GL_VERSION_3_0PFPvPKcE+0x66e>
    1b44:	48 8b 45 f8          	mov    rax,QWORD PTR [rbp-0x8]
    1b48:	48 8d 3d 00 00 00 00 	lea    rdi,[rip+0x0]        # 1b4f <_ZL19load_GL_VERSION_3_0PFPvPKcE+0x679>
    1b4f:	ff d0                	call   rax
    1b51:	48 89 05 00 00 00 00 	mov    QWORD PTR [rip+0x0],rax        # 1b58 <_ZL19load_GL_VERSION_3_0PFPvPKcE+0x682>
    1b58:	48 8b 45 f8          	mov    rax,QWORD PTR [rbp-0x8]
    1b5c:	48 8d 3d 00 00 00 00 	lea    rdi,[rip+0x0]        # 1b63 <_ZL19load_GL_VERSION_3_0PFPvPKcE+0x68d>
    1b63:	ff d0                	call   rax
    1b65:	48 89 05 00 00 00 00 	mov    QWORD PTR [rip+0x0],rax        # 1b6c <_ZL19load_GL_VERSION_3_0PFPvPKcE+0x696>
    1b6c:	48 8b 45 f8          	mov    rax,QWORD PTR [rbp-0x8]
    1b70:	48 8d 3d 00 00 00 00 	lea    rdi,[rip+0x0]        # 1b77 <_ZL19load_GL_VERSION_3_0PFPvPKcE+0x6a1>
    1b77:	ff d0                	call   rax
    1b79:	48 89 05 00 00 00 00 	mov    QWORD PTR [rip+0x0],rax        # 1b80 <_ZL19load_GL_VERSION_3_0PFPvPKcE+0x6aa>
    1b80:	eb 01                	jmp    1b83 <_ZL19load_GL_VERSION_3_0PFPvPKcE+0x6ad>
    1b82:	90                   	nop
    1b83:	c9                   	leave  
    1b84:	c3                   	ret    

0000000000001b85 <_ZL19load_GL_VERSION_3_1PFPvPKcE>:
    1b85:	55                   	push   rbp
    1b86:	48 89 e5             	mov    rbp,rsp
    1b89:	48 83 ec 10          	sub    rsp,0x10
    1b8d:	48 89 7d f8          	mov    QWORD PTR [rbp-0x8],rdi
    1b91:	8b 05 00 00 00 00    	mov    eax,DWORD PTR [rip+0x0]        # 1b97 <_ZL19load_GL_VERSION_3_1PFPvPKcE+0x12>
    1b97:	85 c0                	test   eax,eax
    1b99:	0f 84 2e 01 00 00    	je     1ccd <_ZL19load_GL_VERSION_3_1PFPvPKcE+0x148>
    1b9f:	48 8b 45 f8          	mov    rax,QWORD PTR [rbp-0x8]
    1ba3:	48 8d 3d 00 00 00 00 	lea    rdi,[rip+0x0]        # 1baa <_ZL19load_GL_VERSION_3_1PFPvPKcE+0x25>
    1baa:	ff d0                	call   rax
    1bac:	48 89 05 00 00 00 00 	mov    QWORD PTR [rip+0x0],rax        # 1bb3 <_ZL19load_GL_VERSION_3_1PFPvPKcE+0x2e>
    1bb3:	48 8b 45 f8          	mov    rax,QWORD PTR [rbp-0x8]
    1bb7:	48 8d 3d 00 00 00 00 	lea    rdi,[rip+0x0]        # 1bbe <_ZL19load_GL_VERSION_3_1PFPvPKcE+0x39>
    1bbe:	ff d0                	call   rax
    1bc0:	48 89 05 00 00 00 00 	mov    QWORD PTR [rip+0x0],rax        # 1bc7 <_ZL19load_GL_VERSION_3_1PFPvPKcE+0x42>
    1bc7:	48 8b 45 f8          	mov    rax,QWORD PTR [rbp-0x8]
    1bcb:	48 8d 3d 00 00 00 00 	lea    rdi,[rip+0x0]        # 1bd2 <_ZL19load_GL_VERSION_3_1PFPvPKcE+0x4d>
    1bd2:	ff d0                	call   rax
    1bd4:	48 89 05 00 00 00 00 	mov    QWORD PTR [rip+0x0],rax        # 1bdb <_ZL19load_GL_VERSION_3_1PFPvPKcE+0x56>
    1bdb:	48 8b 45 f8          	mov    rax,QWORD PTR [rbp-0x8]
    1bdf:	48 8d 3d 00 00 00 00 	lea    rdi,[rip+0x0]        # 1be6 <_ZL19load_GL_VERSION_3_1PFPvPKcE+0x61>
    1be6:	ff d0                	call   rax
    1be8:	48 89 05 00 00 00 00 	mov    QWORD PTR [rip+0x0],rax        # 1bef <_ZL19load_GL_VERSION_3_1PFPvPKcE+0x6a>
    1bef:	48 8b 45 f8          	mov    rax,QWORD PTR [rbp-0x8]
    1bf3:	48 8d 3d 00 00 00 00 	lea    rdi,[rip+0x0]        # 1bfa <_ZL19load_GL_VERSION_3_1PFPvPKcE+0x75>
    1bfa:	ff d0                	call   rax
    1bfc:	48 89 05 00 00 00 00 	mov    QWORD PTR [rip+0x0],rax        # 1c03 <_ZL19load_GL_VERSION_3_1PFPvPKcE+0x7e>
    1c03:	48 8b 45 f8          	mov    rax,QWORD PTR [rbp-0x8]
    1c07:	48 8d 3d 00 00 00 00 	lea    rdi,[rip+0x0]        # 1c0e <_ZL19load_GL_VERSION_3_1PFPvPKcE+0x89>
    1c0e:	ff d0                	call   rax
    1c10:	48 89 05 00 00 00 00 	mov    QWORD PTR [rip+0x0],rax        # 1c17 <_ZL19load_GL_VERSION_3_1PFPvPKcE+0x92>
    1c17:	48 8b 45 f8          	mov    rax,QWORD PTR [rbp-0x8]
    1c1b:	48 8d 3d 00 00 00 00 	lea    rdi,[rip+0x0]        # 1c22 <_ZL19load_GL_VERSION_3_1PFPvPKcE+0x9d>
    1c22:	ff d0                	call   rax
    1c24:	48 89 05 00 00 00 00 	mov    QWORD PTR [rip+0x0],rax        # 1c2b <_ZL19load_GL_VERSION_3_1PFPvPKcE+0xa6>
    1c2b:	48 8b 45 f8          	mov    rax,QWORD PTR [rbp-0x8]
    1c2f:	48 8d 3d 00 00 00 00 	lea    rdi,[rip+0x0]        # 1c36 <_ZL19load_GL_VERSION_3_1PFPvPKcE+0xb1>
    1c36:	ff d0                	call   rax
    1c38:	48 89 05 00 00 00 00 	mov    QWORD PTR [rip+0x0],rax        # 1c3f <_ZL19load_GL_VERSION_3_1PFPvPKcE+0xba>
    1c3f:	48 8b 45 f8          	mov    rax,QWORD PTR [rbp-0x8]
    1c43:	48 8d 3d 00 00 00 00 	lea    rdi,[rip+0x0]        # 1c4a <_ZL19load_GL_VERSION_3_1PFPvPKcE+0xc5>
    1c4a:	ff d0                	call   rax
    1c4c:	48 89 05 00 00 00 00 	mov    QWORD PTR [rip+0x0],rax        # 1c53 <_ZL19load_GL_VERSION_3_1PFPvPKcE+0xce>
    1c53:	48 8b 45 f8          	mov    rax,QWORD PTR [rbp-0x8]
    1c57:	48 8d 3d 00 00 00 00 	lea    rdi,[rip+0x0]        # 1c5e <_ZL19load_GL_VERSION_3_1PFPvPKcE+0xd9>
    1c5e:	ff d0                	call   rax
    1c60:	48 89 05 00 00 00 00 	mov    QWORD PTR [rip+0x0],rax        # 1c67 <_ZL19load_GL_VERSION_3_1PFPvPKcE+0xe2>
    1c67:	48 8b 45 f8          	mov    rax,QWORD PTR [rbp-0x8]
    1c6b:	48 8d 3d 00 00 00 00 	lea    rdi,[rip+0x0]        # 1c72 <_ZL19load_GL_VERSION_3_1PFPvPKcE+0xed>
    1c72:	ff d0                	call   rax
    1c74:	48 89 05 00 00 00 00 	mov    QWORD PTR [rip+0x0],rax        # 1c7b <_ZL19load_GL_VERSION_3_1PFPvPKcE+0xf6>
    1c7b:	48 8b 45 f8          	mov    rax,QWORD PTR [rbp-0x8]
    1c7f:	48 8d 3d 00 00 00 00 	lea    rdi,[rip+0x0]        # 1c86 <_ZL19load_GL_VERSION_3_1PFPvPKcE+0x101>
    1c86:	ff d0                	call   rax
    1c88:	48 89 05 00 00 00 00 	mov    QWORD PTR [rip+0x0],rax        # 1c8f <_ZL19load_GL_VERSION_3_1PFPvPKcE+0x10a>
    1c8f:	48 8b 45 f8          	mov    rax,QWORD PTR [rbp-0x8]
    1c93:	48 8d 3d 00 00 00 00 	lea    rdi,[rip+0x0]        # 1c9a <_ZL19load_GL_VERSION_3_1PFPvPKcE+0x115>
    1c9a:	ff d0                	call   rax
    1c9c:	48 89 05 00 00 00 00 	mov    QWORD PTR [rip+0x0],rax        # 1ca3 <_ZL19load_GL_VERSION_3_1PFPvPKcE+0x11e>
    1ca3:	48 8b 45 f8          	mov    rax,QWORD PTR [rbp-0x8]
    1ca7:	48 8d 3d 00 00 00 00 	lea    rdi,[rip+0x0]        # 1cae <_ZL19load_GL_VERSION_3_1PFPvPKcE+0x129>
    1cae:	ff d0                	call   rax
    1cb0:	48 89 05 00 00 00 00 	mov    QWORD PTR [rip+0x0],rax        # 1cb7 <_ZL19load_GL_VERSION_3_1PFPvPKcE+0x132>
    1cb7:	48 8b 45 f8          	mov    rax,QWORD PTR [rbp-0x8]
    1cbb:	48 8d 3d 00 00 00 00 	lea    rdi,[rip+0x0]        # 1cc2 <_ZL19load_GL_VERSION_3_1PFPvPKcE+0x13d>
    1cc2:	ff d0                	call   rax
    1cc4:	48 89 05 00 00 00 00 	mov    QWORD PTR [rip+0x0],rax        # 1ccb <_ZL19load_GL_VERSION_3_1PFPvPKcE+0x146>
    1ccb:	eb 01                	jmp    1cce <_ZL19load_GL_VERSION_3_1PFPvPKcE+0x149>
    1ccd:	90                   	nop
    1cce:	c9                   	leave  
    1ccf:	c3                   	ret    

0000000000001cd0 <_ZL19load_GL_VERSION_3_2PFPvPKcE>:
    1cd0:	55                   	push   rbp
    1cd1:	48 89 e5             	mov    rbp,rsp
    1cd4:	48 83 ec 10          	sub    rsp,0x10
    1cd8:	48 89 7d f8          	mov    QWORD PTR [rbp-0x8],rdi
    1cdc:	8b 05 00 00 00 00    	mov    eax,DWORD PTR [rip+0x0]        # 1ce2 <_ZL19load_GL_VERSION_3_2PFPvPKcE+0x12>
    1ce2:	85 c0                	test   eax,eax
    1ce4:	0f 84 7e 01 00 00    	je     1e68 <_ZL19load_GL_VERSION_3_2PFPvPKcE+0x198>
    1cea:	48 8b 45 f8          	mov    rax,QWORD PTR [rbp-0x8]
    1cee:	48 8d 3d 00 00 00 00 	lea    rdi,[rip+0x0]        # 1cf5 <_ZL19load_GL_VERSION_3_2PFPvPKcE+0x25>
    1cf5:	ff d0                	call   rax
    1cf7:	48 89 05 00 00 00 00 	mov    QWORD PTR [rip+0x0],rax        # 1cfe <_ZL19load_GL_VERSION_3_2PFPvPKcE+0x2e>
    1cfe:	48 8b 45 f8          	mov    rax,QWORD PTR [rbp-0x8]
    1d02:	48 8d 3d 00 00 00 00 	lea    rdi,[rip+0x0]        # 1d09 <_ZL19load_GL_VERSION_3_2PFPvPKcE+0x39>
    1d09:	ff d0                	call   rax
    1d0b:	48 89 05 00 00 00 00 	mov    QWORD PTR [rip+0x0],rax        # 1d12 <_ZL19load_GL_VERSION_3_2PFPvPKcE+0x42>
    1d12:	48 8b 45 f8          	mov    rax,QWORD PTR [rbp-0x8]
    1d16:	48 8d 3d 00 00 00 00 	lea    rdi,[rip+0x0]        # 1d1d <_ZL19load_GL_VERSION_3_2PFPvPKcE+0x4d>
    1d1d:	ff d0                	call   rax
    1d1f:	48 89 05 00 00 00 00 	mov    QWORD PTR [rip+0x0],rax        # 1d26 <_ZL19load_GL_VERSION_3_2PFPvPKcE+0x56>
    1d26:	48 8b 45 f8          	mov    rax,QWORD PTR [rbp-0x8]
    1d2a:	48 8d 3d 00 00 00 00 	lea    rdi,[rip+0x0]        # 1d31 <_ZL19load_GL_VERSION_3_2PFPvPKcE+0x61>
    1d31:	ff d0                	call   rax
    1d33:	48 89 05 00 00 00 00 	mov    QWORD PTR [rip+0x0],rax        # 1d3a <_ZL19load_GL_VERSION_3_2PFPvPKcE+0x6a>
    1d3a:	48 8b 45 f8          	mov    rax,QWORD PTR [rbp-0x8]
    1d3e:	48 8d 3d 00 00 00 00 	lea    rdi,[rip+0x0]        # 1d45 <_ZL19load_GL_VERSION_3_2PFPvPKcE+0x75>
    1d45:	ff d0                	call   rax
    1d47:	48 89 05 00 00 00 00 	mov    QWORD PTR [rip+0x0],rax        # 1d4e <_ZL19load_GL_VERSION_3_2PFPvPKcE+0x7e>
    1d4e:	48 8b 45 f8          	mov    rax,QWORD PTR [rbp-0x8]
    1d52:	48 8d 3d 00 00 00 00 	lea    rdi,[rip+0x0]        # 1d59 <_ZL19load_GL_VERSION_3_2PFPvPKcE+0x89>
    1d59:	ff d0                	call   rax
    1d5b:	48 89 05 00 00 00 00 	mov    QWORD PTR [rip+0x0],rax        # 1d62 <_ZL19load_GL_VERSION_3_2PFPvPKcE+0x92>
    1d62:	48 8b 45 f8          	mov    rax,QWORD PTR [rbp-0x8]
    1d66:	48 8d 3d 00 00 00 00 	lea    rdi,[rip+0x0]        # 1d6d <_ZL19load_GL_VERSION_3_2PFPvPKcE+0x9d>
    1d6d:	ff d0                	call   rax
    1d6f:	48 89 05 00 00 00 00 	mov    QWORD PTR [rip+0x0],rax        # 1d76 <_ZL19load_GL_VERSION_3_2PFPvPKcE+0xa6>
    1d76:	48 8b 45 f8          	mov    rax,QWORD PTR [rbp-0x8]
    1d7a:	48 8d 3d 00 00 00 00 	lea    rdi,[rip+0x0]        # 1d81 <_ZL19load_GL_VERSION_3_2PFPvPKcE+0xb1>
    1d81:	ff d0                	call   rax
    1d83:	48 89 05 00 00 00 00 	mov    QWORD PTR [rip+0x0],rax        # 1d8a <_ZL19load_GL_VERSION_3_2PFPvPKcE+0xba>
    1d8a:	48 8b 45 f8          	mov    rax,QWORD PTR [rbp-0x8]
    1d8e:	48 8d 3d 00 00 00 00 	lea    rdi,[rip+0x0]        # 1d95 <_ZL19load_GL_VERSION_3_2PFPvPKcE+0xc5>
    1d95:	ff d0                	call   rax
    1d97:	48 89 05 00 00 00 00 	mov    QWORD PTR [rip+0x0],rax        # 1d9e <_ZL19load_GL_VERSION_3_2PFPvPKcE+0xce>
    1d9e:	48 8b 45 f8          	mov    rax,QWORD PTR [rbp-0x8]
    1da2:	48 8d 3d 00 00 00 00 	lea    rdi,[rip+0x0]        # 1da9 <_ZL19load_GL_VERSION_3_2PFPvPKcE+0xd9>
    1da9:	ff d0                	call   rax
    1dab:	48 89 05 00 00 00 00 	mov    QWORD PTR [rip+0x0],rax        # 1db2 <_ZL19load_GL_VERSION_3_2PFPvPKcE+0xe2>
    1db2:	48 8b 45 f8          	mov    rax,QWORD PTR [rbp-0x8]
    1db6:	48 8d 3d 00 00 00 00 	lea    rdi,[rip+0x0]        # 1dbd <_ZL19load_GL_VERSION_3_2PFPvPKcE+0xed>
    1dbd:	ff d0                	call   rax
    1dbf:	48 89 05 00 00 00 00 	mov    QWORD PTR [rip+0x0],rax        # 1dc6 <_ZL19load_GL_VERSION_3_2PFPvPKcE+0xf6>
    1dc6:	48 8b 45 f8          	mov    rax,QWORD PTR [rbp-0x8]
    1dca:	48 8d 3d 00 00 00 00 	lea    rdi,[rip+0x0]        # 1dd1 <_ZL19load_GL_VERSION_3_2PFPvPKcE+0x101>
    1dd1:	ff d0                	call   rax
    1dd3:	48 89 05 00 00 00 00 	mov    QWORD PTR [rip+0x0],rax        # 1dda <_ZL19load_GL_VERSION_3_2PFPvPKcE+0x10a>
    1dda:	48 8b 45 f8          	mov    rax,QWORD PTR [rbp-0x8]
    1dde:	48 8d 3d 00 00 00 00 	lea    rdi,[rip+0x0]        # 1de5 <_ZL19load_GL_VERSION_3_2PFPvPKcE+0x115>
    1de5:	ff d0                	call   rax
    1de7:	48 89 05 00 00 00 00 	mov    QWORD PTR [rip+0x0],rax        # 1dee <_ZL19load_GL_VERSION_3_2PFPvPKcE+0x11e>
    1dee:	48 8b 45 f8          	mov    rax,QWORD PTR [rbp-0x8]
    1df2:	48 8d 3d 00 00 00 00 	lea    rdi,[rip+0x0]        # 1df9 <_ZL19load_GL_VERSION_3_2PFPvPKcE+0x129>
    1df9:	ff d0                	call   rax
    1dfb:	48 89 05 00 00 00 00 	mov    QWORD PTR [rip+0x0],rax        # 1e02 <_ZL19load_GL_VERSION_3_2PFPvPKcE+0x132>
    1e02:	48 8b 45 f8          	mov    rax,QWORD PTR [rbp-0x8]
    1e06:	48 8d 3d 00 00 00 00 	lea    rdi,[rip+0x0]        # 1e0d <_ZL19load_GL_VERSION_3_2PFPvPKcE+0x13d>
    1e0d:	ff d0                	call   rax
    1e0f:	48 89 05 00 00 00 00 	mov    QWORD PTR [rip+0x0],rax        # 1e16 <_ZL19load_GL_VERSION_3_2PFPvPKcE+0x146>
    1e16:	48 8b 45 f8          	mov    rax,QWORD PTR [rbp-0x8]
    1e1a:	48 8d 3d 00 00 00 00 	lea    rdi,[rip+0x0]        # 1e21 <_ZL19load_GL_VERSION_3_2PFPvPKcE+0x151>
    1e21:	ff d0                	call   rax
    1e23:	48 89 05 00 00 00 00 	mov    QWORD PTR [rip+0x0],rax        # 1e2a <_ZL19load_GL_VERSION_3_2PFPvPKcE+0x15a>
    1e2a:	48 8b 45 f8          	mov    rax,QWORD PTR [rbp-0x8]
    1e2e:	48 8d 3d 00 00 00 00 	lea    rdi,[rip+0x0]        # 1e35 <_ZL19load_GL_VERSION_3_2PFPvPKcE+0x165>
    1e35:	ff d0                	call   rax
    1e37:	48 89 05 00 00 00 00 	mov    QWORD PTR [rip+0x0],rax        # 1e3e <_ZL19load_GL_VERSION_3_2PFPvPKcE+0x16e>
    1e3e:	48 8b 45 f8          	mov    rax,QWORD PTR [rbp-0x8]
    1e42:	48 8d 3d 00 00 00 00 	lea    rdi,[rip+0x0]        # 1e49 <_ZL19load_GL_VERSION_3_2PFPvPKcE+0x179>
    1e49:	ff d0                	call   rax
    1e4b:	48 89 05 00 00 00 00 	mov    QWORD PTR [rip+0x0],rax        # 1e52 <_ZL19load_GL_VERSION_3_2PFPvPKcE+0x182>
    1e52:	48 8b 45 f8          	mov    rax,QWORD PTR [rbp-0x8]
    1e56:	48 8d 3d 00 00 00 00 	lea    rdi,[rip+0x0]        # 1e5d <_ZL19load_GL_VERSION_3_2PFPvPKcE+0x18d>
    1e5d:	ff d0                	call   rax
    1e5f:	48 89 05 00 00 00 00 	mov    QWORD PTR [rip+0x0],rax        # 1e66 <_ZL19load_GL_VERSION_3_2PFPvPKcE+0x196>
    1e66:	eb 01                	jmp    1e69 <_ZL19load_GL_VERSION_3_2PFPvPKcE+0x199>
    1e68:	90                   	nop
    1e69:	c9                   	leave  
    1e6a:	c3                   	ret    

0000000000001e6b <_ZL19load_GL_VERSION_3_3PFPvPKcE>:
    1e6b:	55                   	push   rbp
    1e6c:	48 89 e5             	mov    rbp,rsp
    1e6f:	48 83 ec 10          	sub    rsp,0x10
    1e73:	48 89 7d f8          	mov    QWORD PTR [rbp-0x8],rdi
    1e77:	8b 05 00 00 00 00    	mov    eax,DWORD PTR [rip+0x0]        # 1e7d <_ZL19load_GL_VERSION_3_3PFPvPKcE+0x12>
    1e7d:	85 c0                	test   eax,eax
    1e7f:	0f 84 8a 04 00 00    	je     230f <_ZL19load_GL_VERSION_3_3PFPvPKcE+0x4a4>
    1e85:	48 8b 45 f8          	mov    rax,QWORD PTR [rbp-0x8]
    1e89:	48 8d 3d 00 00 00 00 	lea    rdi,[rip+0x0]        # 1e90 <_ZL19load_GL_VERSION_3_3PFPvPKcE+0x25>
    1e90:	ff d0                	call   rax
    1e92:	48 89 05 00 00 00 00 	mov    QWORD PTR [rip+0x0],rax        # 1e99 <_ZL19load_GL_VERSION_3_3PFPvPKcE+0x2e>
    1e99:	48 8b 45 f8          	mov    rax,QWORD PTR [rbp-0x8]
    1e9d:	48 8d 3d 00 00 00 00 	lea    rdi,[rip+0x0]        # 1ea4 <_ZL19load_GL_VERSION_3_3PFPvPKcE+0x39>
    1ea4:	ff d0                	call   rax
    1ea6:	48 89 05 00 00 00 00 	mov    QWORD PTR [rip+0x0],rax        # 1ead <_ZL19load_GL_VERSION_3_3PFPvPKcE+0x42>
    1ead:	48 8b 45 f8          	mov    rax,QWORD PTR [rbp-0x8]
    1eb1:	48 8d 3d 00 00 00 00 	lea    rdi,[rip+0x0]        # 1eb8 <_ZL19load_GL_VERSION_3_3PFPvPKcE+0x4d>
    1eb8:	ff d0                	call   rax
    1eba:	48 89 05 00 00 00 00 	mov    QWORD PTR [rip+0x0],rax        # 1ec1 <_ZL19load_GL_VERSION_3_3PFPvPKcE+0x56>
    1ec1:	48 8b 45 f8          	mov    rax,QWORD PTR [rbp-0x8]
    1ec5:	48 8d 3d 00 00 00 00 	lea    rdi,[rip+0x0]        # 1ecc <_ZL19load_GL_VERSION_3_3PFPvPKcE+0x61>
    1ecc:	ff d0                	call   rax
    1ece:	48 89 05 00 00 00 00 	mov    QWORD PTR [rip+0x0],rax        # 1ed5 <_ZL19load_GL_VERSION_3_3PFPvPKcE+0x6a>
    1ed5:	48 8b 45 f8          	mov    rax,QWORD PTR [rbp-0x8]
    1ed9:	48 8d 3d 00 00 00 00 	lea    rdi,[rip+0x0]        # 1ee0 <_ZL19load_GL_VERSION_3_3PFPvPKcE+0x75>
    1ee0:	ff d0                	call   rax
    1ee2:	48 89 05 00 00 00 00 	mov    QWORD PTR [rip+0x0],rax        # 1ee9 <_ZL19load_GL_VERSION_3_3PFPvPKcE+0x7e>
    1ee9:	48 8b 45 f8          	mov    rax,QWORD PTR [rbp-0x8]
    1eed:	48 8d 3d 00 00 00 00 	lea    rdi,[rip+0x0]        # 1ef4 <_ZL19load_GL_VERSION_3_3PFPvPKcE+0x89>
    1ef4:	ff d0                	call   rax
    1ef6:	48 89 05 00 00 00 00 	mov    QWORD PTR [rip+0x0],rax        # 1efd <_ZL19load_GL_VERSION_3_3PFPvPKcE+0x92>
    1efd:	48 8b 45 f8          	mov    rax,QWORD PTR [rbp-0x8]
    1f01:	48 8d 3d 00 00 00 00 	lea    rdi,[rip+0x0]        # 1f08 <_ZL19load_GL_VERSION_3_3PFPvPKcE+0x9d>
    1f08:	ff d0                	call   rax
    1f0a:	48 89 05 00 00 00 00 	mov    QWORD PTR [rip+0x0],rax        # 1f11 <_ZL19load_GL_VERSION_3_3PFPvPKcE+0xa6>
    1f11:	48 8b 45 f8          	mov    rax,QWORD PTR [rbp-0x8]
    1f15:	48 8d 3d 00 00 00 00 	lea    rdi,[rip+0x0]        # 1f1c <_ZL19load_GL_VERSION_3_3PFPvPKcE+0xb1>
    1f1c:	ff d0                	call   rax
    1f1e:	48 89 05 00 00 00 00 	mov    QWORD PTR [rip+0x0],rax        # 1f25 <_ZL19load_GL_VERSION_3_3PFPvPKcE+0xba>
    1f25:	48 8b 45 f8          	mov    rax,QWORD PTR [rbp-0x8]
    1f29:	48 8d 3d 00 00 00 00 	lea    rdi,[rip+0x0]        # 1f30 <_ZL19load_GL_VERSION_3_3PFPvPKcE+0xc5>
    1f30:	ff d0                	call   rax
    1f32:	48 89 05 00 00 00 00 	mov    QWORD PTR [rip+0x0],rax        # 1f39 <_ZL19load_GL_VERSION_3_3PFPvPKcE+0xce>
    1f39:	48 8b 45 f8          	mov    rax,QWORD PTR [rbp-0x8]
    1f3d:	48 8d 3d 00 00 00 00 	lea    rdi,[rip+0x0]        # 1f44 <_ZL19load_GL_VERSION_3_3PFPvPKcE+0xd9>
    1f44:	ff d0                	call   rax
    1f46:	48 89 05 00 00 00 00 	mov    QWORD PTR [rip+0x0],rax        # 1f4d <_ZL19load_GL_VERSION_3_3PFPvPKcE+0xe2>
    1f4d:	48 8b 45 f8          	mov    rax,QWORD PTR [rbp-0x8]
    1f51:	48 8d 3d 00 00 00 00 	lea    rdi,[rip+0x0]        # 1f58 <_ZL19load_GL_VERSION_3_3PFPvPKcE+0xed>
    1f58:	ff d0                	call   rax
    1f5a:	48 89 05 00 00 00 00 	mov    QWORD PTR [rip+0x0],rax        # 1f61 <_ZL19load_GL_VERSION_3_3PFPvPKcE+0xf6>
    1f61:	48 8b 45 f8          	mov    rax,QWORD PTR [rbp-0x8]
    1f65:	48 8d 3d 00 00 00 00 	lea    rdi,[rip+0x0]        # 1f6c <_ZL19load_GL_VERSION_3_3PFPvPKcE+0x101>
    1f6c:	ff d0                	call   rax
    1f6e:	48 89 05 00 00 00 00 	mov    QWORD PTR [rip+0x0],rax        # 1f75 <_ZL19load_GL_VERSION_3_3PFPvPKcE+0x10a>
    1f75:	48 8b 45 f8          	mov    rax,QWORD PTR [rbp-0x8]
    1f79:	48 8d 3d 00 00 00 00 	lea    rdi,[rip+0x0]        # 1f80 <_ZL19load_GL_VERSION_3_3PFPvPKcE+0x115>
    1f80:	ff d0                	call   rax
    1f82:	48 89 05 00 00 00 00 	mov    QWORD PTR [rip+0x0],rax        # 1f89 <_ZL19load_GL_VERSION_3_3PFPvPKcE+0x11e>
    1f89:	48 8b 45 f8          	mov    rax,QWORD PTR [rbp-0x8]
    1f8d:	48 8d 3d 00 00 00 00 	lea    rdi,[rip+0x0]        # 1f94 <_ZL19load_GL_VERSION_3_3PFPvPKcE+0x129>
    1f94:	ff d0                	call   rax
    1f96:	48 89 05 00 00 00 00 	mov    QWORD PTR [rip+0x0],rax        # 1f9d <_ZL19load_GL_VERSION_3_3PFPvPKcE+0x132>
    1f9d:	48 8b 45 f8          	mov    rax,QWORD PTR [rbp-0x8]
    1fa1:	48 8d 3d 00 00 00 00 	lea    rdi,[rip+0x0]        # 1fa8 <_ZL19load_GL_VERSION_3_3PFPvPKcE+0x13d>
    1fa8:	ff d0                	call   rax
    1faa:	48 89 05 00 00 00 00 	mov    QWORD PTR [rip+0x0],rax        # 1fb1 <_ZL19load_GL_VERSION_3_3PFPvPKcE+0x146>
    1fb1:	48 8b 45 f8          	mov    rax,QWORD PTR [rbp-0x8]
    1fb5:	48 8d 3d 00 00 00 00 	lea    rdi,[rip+0x0]        # 1fbc <_ZL19load_GL_VERSION_3_3PFPvPKcE+0x151>
    1fbc:	ff d0                	call   rax
    1fbe:	48 89 05 00 00 00 00 	mov    QWORD PTR [rip+0x0],rax        # 1fc5 <_ZL19load_GL_VERSION_3_3PFPvPKcE+0x15a>
    1fc5:	48 8b 45 f8          	mov    rax,QWORD PTR [rbp-0x8]
    1fc9:	48 8d 3d 00 00 00 00 	lea    rdi,[rip+0x0]        # 1fd0 <_ZL19load_GL_VERSION_3_3PFPvPKcE+0x165>
    1fd0:	ff d0                	call   rax
    1fd2:	48 89 05 00 00 00 00 	mov    QWORD PTR [rip+0x0],rax        # 1fd9 <_ZL19load_GL_VERSION_3_3PFPvPKcE+0x16e>
    1fd9:	48 8b 45 f8          	mov    rax,QWORD PTR [rbp-0x8]
    1fdd:	48 8d 3d 00 00 00 00 	lea    rdi,[rip+0x0]        # 1fe4 <_ZL19load_GL_VERSION_3_3PFPvPKcE+0x179>
    1fe4:	ff d0                	call   rax
    1fe6:	48 89 05 00 00 00 00 	mov    QWORD PTR [rip+0x0],rax        # 1fed <_ZL19load_GL_VERSION_3_3PFPvPKcE+0x182>
    1fed:	48 8b 45 f8          	mov    rax,QWORD PTR [rbp-0x8]
    1ff1:	48 8d 3d 00 00 00 00 	lea    rdi,[rip+0x0]        # 1ff8 <_ZL19load_GL_VERSION_3_3PFPvPKcE+0x18d>
    1ff8:	ff d0                	call   rax
    1ffa:	48 89 05 00 00 00 00 	mov    QWORD PTR [rip+0x0],rax        # 2001 <_ZL19load_GL_VERSION_3_3PFPvPKcE+0x196>
    2001:	48 8b 45 f8          	mov    rax,QWORD PTR [rbp-0x8]
    2005:	48 8d 3d 00 00 00 00 	lea    rdi,[rip+0x0]        # 200c <_ZL19load_GL_VERSION_3_3PFPvPKcE+0x1a1>
    200c:	ff d0                	call   rax
    200e:	48 89 05 00 00 00 00 	mov    QWORD PTR [rip+0x0],rax        # 2015 <_ZL19load_GL_VERSION_3_3PFPvPKcE+0x1aa>
    2015:	48 8b 45 f8          	mov    rax,QWORD PTR [rbp-0x8]
    2019:	48 8d 3d 00 00 00 00 	lea    rdi,[rip+0x0]        # 2020 <_ZL19load_GL_VERSION_3_3PFPvPKcE+0x1b5>
    2020:	ff d0                	call   rax
    2022:	48 89 05 00 00 00 00 	mov    QWORD PTR [rip+0x0],rax        # 2029 <_ZL19load_GL_VERSION_3_3PFPvPKcE+0x1be>
    2029:	48 8b 45 f8          	mov    rax,QWORD PTR [rbp-0x8]
    202d:	48 8d 3d 00 00 00 00 	lea    rdi,[rip+0x0]        # 2034 <_ZL19load_GL_VERSION_3_3PFPvPKcE+0x1c9>
    2034:	ff d0                	call   rax
    2036:	48 89 05 00 00 00 00 	mov    QWORD PTR [rip+0x0],rax        # 203d <_ZL19load_GL_VERSION_3_3PFPvPKcE+0x1d2>
    203d:	48 8b 45 f8          	mov    rax,QWORD PTR [rbp-0x8]
    2041:	48 8d 3d 00 00 00 00 	lea    rdi,[rip+0x0]        # 2048 <_ZL19load_GL_VERSION_3_3PFPvPKcE+0x1dd>
    2048:	ff d0                	call   rax
    204a:	48 89 05 00 00 00 00 	mov    QWORD PTR [rip+0x0],rax        # 2051 <_ZL19load_GL_VERSION_3_3PFPvPKcE+0x1e6>
    2051:	48 8b 45 f8          	mov    rax,QWORD PTR [rbp-0x8]
    2055:	48 8d 3d 00 00 00 00 	lea    rdi,[rip+0x0]        # 205c <_ZL19load_GL_VERSION_3_3PFPvPKcE+0x1f1>
    205c:	ff d0                	call   rax
    205e:	48 89 05 00 00 00 00 	mov    QWORD PTR [rip+0x0],rax        # 2065 <_ZL19load_GL_VERSION_3_3PFPvPKcE+0x1fa>
    2065:	48 8b 45 f8          	mov    rax,QWORD PTR [rbp-0x8]
    2069:	48 8d 3d 00 00 00 00 	lea    rdi,[rip+0x0]        # 2070 <_ZL19load_GL_VERSION_3_3PFPvPKcE+0x205>
    2070:	ff d0                	call   rax
    2072:	48 89 05 00 00 00 00 	mov    QWORD PTR [rip+0x0],rax        # 2079 <_ZL19load_GL_VERSION_3_3PFPvPKcE+0x20e>
    2079:	48 8b 45 f8          	mov    rax,QWORD PTR [rbp-0x8]
    207d:	48 8d 3d 00 00 00 00 	lea    rdi,[rip+0x0]        # 2084 <_ZL19load_GL_VERSION_3_3PFPvPKcE+0x219>
    2084:	ff d0                	call   rax
    2086:	48 89 05 00 00 00 00 	mov    QWORD PTR [rip+0x0],rax        # 208d <_ZL19load_GL_VERSION_3_3PFPvPKcE+0x222>
    208d:	48 8b 45 f8          	mov    rax,QWORD PTR [rbp-0x8]
    2091:	48 8d 3d 00 00 00 00 	lea    rdi,[rip+0x0]        # 2098 <_ZL19load_GL_VERSION_3_3PFPvPKcE+0x22d>
    2098:	ff d0                	call   rax
    209a:	48 89 05 00 00 00 00 	mov    QWORD PTR [rip+0x0],rax        # 20a1 <_ZL19load_GL_VERSION_3_3PFPvPKcE+0x236>
    20a1:	48 8b 45 f8          	mov    rax,QWORD PTR [rbp-0x8]
    20a5:	48 8d 3d 00 00 00 00 	lea    rdi,[rip+0x0]        # 20ac <_ZL19load_GL_VERSION_3_3PFPvPKcE+0x241>
    20ac:	ff d0                	call   rax
    20ae:	48 89 05 00 00 00 00 	mov    QWORD PTR [rip+0x0],rax        # 20b5 <_ZL19load_GL_VERSION_3_3PFPvPKcE+0x24a>
    20b5:	48 8b 45 f8          	mov    rax,QWORD PTR [rbp-0x8]
    20b9:	48 8d 3d 00 00 00 00 	lea    rdi,[rip+0x0]        # 20c0 <_ZL19load_GL_VERSION_3_3PFPvPKcE+0x255>
    20c0:	ff d0                	call   rax
    20c2:	48 89 05 00 00 00 00 	mov    QWORD PTR [rip+0x0],rax        # 20c9 <_ZL19load_GL_VERSION_3_3PFPvPKcE+0x25e>
    20c9:	48 8b 45 f8          	mov    rax,QWORD PTR [rbp-0x8]
    20cd:	48 8d 3d 00 00 00 00 	lea    rdi,[rip+0x0]        # 20d4 <_ZL19load_GL_VERSION_3_3PFPvPKcE+0x269>
    20d4:	ff d0                	call   rax
    20d6:	48 89 05 00 00 00 00 	mov    QWORD PTR [rip+0x0],rax        # 20dd <_ZL19load_GL_VERSION_3_3PFPvPKcE+0x272>
    20dd:	48 8b 45 f8          	mov    rax,QWORD PTR [rbp-0x8]
    20e1:	48 8d 3d 00 00 00 00 	lea    rdi,[rip+0x0]        # 20e8 <_ZL19load_GL_VERSION_3_3PFPvPKcE+0x27d>
    20e8:	ff d0                	call   rax
    20ea:	48 89 05 00 00 00 00 	mov    QWORD PTR [rip+0x0],rax        # 20f1 <_ZL19load_GL_VERSION_3_3PFPvPKcE+0x286>
    20f1:	48 8b 45 f8          	mov    rax,QWORD PTR [rbp-0x8]
    20f5:	48 8d 3d 00 00 00 00 	lea    rdi,[rip+0x0]        # 20fc <_ZL19load_GL_VERSION_3_3PFPvPKcE+0x291>
    20fc:	ff d0                	call   rax
    20fe:	48 89 05 00 00 00 00 	mov    QWORD PTR [rip+0x0],rax        # 2105 <_ZL19load_GL_VERSION_3_3PFPvPKcE+0x29a>
    2105:	48 8b 45 f8          	mov    rax,QWORD PTR [rbp-0x8]
    2109:	48 8d 3d 00 00 00 00 	lea    rdi,[rip+0x0]        # 2110 <_ZL19load_GL_VERSION_3_3PFPvPKcE+0x2a5>
    2110:	ff d0                	call   rax
    2112:	48 89 05 00 00 00 00 	mov    QWORD PTR [rip+0x0],rax        # 2119 <_ZL19load_GL_VERSION_3_3PFPvPKcE+0x2ae>
    2119:	48 8b 45 f8          	mov    rax,QWORD PTR [rbp-0x8]
    211d:	48 8d 3d 00 00 00 00 	lea    rdi,[rip+0x0]        # 2124 <_ZL19load_GL_VERSION_3_3PFPvPKcE+0x2b9>
    2124:	ff d0                	call   rax
    2126:	48 89 05 00 00 00 00 	mov    QWORD PTR [rip+0x0],rax        # 212d <_ZL19load_GL_VERSION_3_3PFPvPKcE+0x2c2>
    212d:	48 8b 45 f8          	mov    rax,QWORD PTR [rbp-0x8]
    2131:	48 8d 3d 00 00 00 00 	lea    rdi,[rip+0x0]        # 2138 <_ZL19load_GL_VERSION_3_3PFPvPKcE+0x2cd>
    2138:	ff d0                	call   rax
    213a:	48 89 05 00 00 00 00 	mov    QWORD PTR [rip+0x0],rax        # 2141 <_ZL19load_GL_VERSION_3_3PFPvPKcE+0x2d6>
    2141:	48 8b 45 f8          	mov    rax,QWORD PTR [rbp-0x8]
    2145:	48 8d 3d 00 00 00 00 	lea    rdi,[rip+0x0]        # 214c <_ZL19load_GL_VERSION_3_3PFPvPKcE+0x2e1>
    214c:	ff d0                	call   rax
    214e:	48 89 05 00 00 00 00 	mov    QWORD PTR [rip+0x0],rax        # 2155 <_ZL19load_GL_VERSION_3_3PFPvPKcE+0x2ea>
    2155:	48 8b 45 f8          	mov    rax,QWORD PTR [rbp-0x8]
    2159:	48 8d 3d 00 00 00 00 	lea    rdi,[rip+0x0]        # 2160 <_ZL19load_GL_VERSION_3_3PFPvPKcE+0x2f5>
    2160:	ff d0                	call   rax
    2162:	48 89 05 00 00 00 00 	mov    QWORD PTR [rip+0x0],rax        # 2169 <_ZL19load_GL_VERSION_3_3PFPvPKcE+0x2fe>
    2169:	48 8b 45 f8          	mov    rax,QWORD PTR [rbp-0x8]
    216d:	48 8d 3d 00 00 00 00 	lea    rdi,[rip+0x0]        # 2174 <_ZL19load_GL_VERSION_3_3PFPvPKcE+0x309>
    2174:	ff d0                	call   rax
    2176:	48 89 05 00 00 00 00 	mov    QWORD PTR [rip+0x0],rax        # 217d <_ZL19load_GL_VERSION_3_3PFPvPKcE+0x312>
    217d:	48 8b 45 f8          	mov    rax,QWORD PTR [rbp-0x8]
    2181:	48 8d 3d 00 00 00 00 	lea    rdi,[rip+0x0]        # 2188 <_ZL19load_GL_VERSION_3_3PFPvPKcE+0x31d>
    2188:	ff d0                	call   rax
    218a:	48 89 05 00 00 00 00 	mov    QWORD PTR [rip+0x0],rax        # 2191 <_ZL19load_GL_VERSION_3_3PFPvPKcE+0x326>
    2191:	48 8b 45 f8          	mov    rax,QWORD PTR [rbp-0x8]
    2195:	48 8d 3d 00 00 00 00 	lea    rdi,[rip+0x0]        # 219c <_ZL19load_GL_VERSION_3_3PFPvPKcE+0x331>
    219c:	ff d0                	call   rax
    219e:	48 89 05 00 00 00 00 	mov    QWORD PTR [rip+0x0],rax        # 21a5 <_ZL19load_GL_VERSION_3_3PFPvPKcE+0x33a>
    21a5:	48 8b 45 f8          	mov    rax,QWORD PTR [rbp-0x8]
    21a9:	48 8d 3d 00 00 00 00 	lea    rdi,[rip+0x0]        # 21b0 <_ZL19load_GL_VERSION_3_3PFPvPKcE+0x345>
    21b0:	ff d0                	call   rax
    21b2:	48 89 05 00 00 00 00 	mov    QWORD PTR [rip+0x0],rax        # 21b9 <_ZL19load_GL_VERSION_3_3PFPvPKcE+0x34e>
    21b9:	48 8b 45 f8          	mov    rax,QWORD PTR [rbp-0x8]
    21bd:	48 8d 3d 00 00 00 00 	lea    rdi,[rip+0x0]        # 21c4 <_ZL19load_GL_VERSION_3_3PFPvPKcE+0x359>
    21c4:	ff d0                	call   rax
    21c6:	48 89 05 00 00 00 00 	mov    QWORD PTR [rip+0x0],rax        # 21cd <_ZL19load_GL_VERSION_3_3PFPvPKcE+0x362>
    21cd:	48 8b 45 f8          	mov    rax,QWORD PTR [rbp-0x8]
    21d1:	48 8d 3d 00 00 00 00 	lea    rdi,[rip+0x0]        # 21d8 <_ZL19load_GL_VERSION_3_3PFPvPKcE+0x36d>
    21d8:	ff d0                	call   rax
    21da:	48 89 05 00 00 00 00 	mov    QWORD PTR [rip+0x0],rax        # 21e1 <_ZL19load_GL_VERSION_3_3PFPvPKcE+0x376>
    21e1:	48 8b 45 f8          	mov    rax,QWORD PTR [rbp-0x8]
    21e5:	48 8d 3d 00 00 00 00 	lea    rdi,[rip+0x0]        # 21ec <_ZL19load_GL_VERSION_3_3PFPvPKcE+0x381>
    21ec:	ff d0                	call   rax
    21ee:	48 89 05 00 00 00 00 	mov    QWORD PTR [rip+0x0],rax        # 21f5 <_ZL19load_GL_VERSION_3_3PFPvPKcE+0x38a>
    21f5:	48 8b 45 f8          	mov    rax,QWORD PTR [rbp-0x8]
    21f9:	48 8d 3d 00 00 00 00 	lea    rdi,[rip+0x0]        # 2200 <_ZL19load_GL_VERSION_3_3PFPvPKcE+0x395>
    2200:	ff d0                	call   rax
    2202:	48 89 05 00 00 00 00 	mov    QWORD PTR [rip+0x0],rax        # 2209 <_ZL19load_GL_VERSION_3_3PFPvPKcE+0x39e>
    2209:	48 8b 45 f8          	mov    rax,QWORD PTR [rbp-0x8]
    220d:	48 8d 3d 00 00 00 00 	lea    rdi,[rip+0x0]        # 2214 <_ZL19load_GL_VERSION_3_3PFPvPKcE+0x3a9>
    2214:	ff d0                	call   rax
    2216:	48 89 05 00 00 00 00 	mov    QWORD PTR [rip+0x0],rax        # 221d <_ZL19load_GL_VERSION_3_3PFPvPKcE+0x3b2>
    221d:	48 8b 45 f8          	mov    rax,QWORD PTR [rbp-0x8]
    2221:	48 8d 3d 00 00 00 00 	lea    rdi,[rip+0x0]        # 2228 <_ZL19load_GL_VERSION_3_3PFPvPKcE+0x3bd>
    2228:	ff d0                	call   rax
    222a:	48 89 05 00 00 00 00 	mov    QWORD PTR [rip+0x0],rax        # 2231 <_ZL19load_GL_VERSION_3_3PFPvPKcE+0x3c6>
    2231:	48 8b 45 f8          	mov    rax,QWORD PTR [rbp-0x8]
    2235:	48 8d 3d 00 00 00 00 	lea    rdi,[rip+0x0]        # 223c <_ZL19load_GL_VERSION_3_3PFPvPKcE+0x3d1>
    223c:	ff d0                	call   rax
    223e:	48 89 05 00 00 00 00 	mov    QWORD PTR [rip+0x0],rax        # 2245 <_ZL19load_GL_VERSION_3_3PFPvPKcE+0x3da>
    2245:	48 8b 45 f8          	mov    rax,QWORD PTR [rbp-0x8]
    2249:	48 8d 3d 00 00 00 00 	lea    rdi,[rip+0x0]        # 2250 <_ZL19load_GL_VERSION_3_3PFPvPKcE+0x3e5>
    2250:	ff d0                	call   rax
    2252:	48 89 05 00 00 00 00 	mov    QWORD PTR [rip+0x0],rax        # 2259 <_ZL19load_GL_VERSION_3_3PFPvPKcE+0x3ee>
    2259:	48 8b 45 f8          	mov    rax,QWORD PTR [rbp-0x8]
    225d:	48 8d 3d 00 00 00 00 	lea    rdi,[rip+0x0]        # 2264 <_ZL19load_GL_VERSION_3_3PFPvPKcE+0x3f9>
    2264:	ff d0                	call   rax
    2266:	48 89 05 00 00 00 00 	mov    QWORD PTR [rip+0x0],rax        # 226d <_ZL19load_GL_VERSION_3_3PFPvPKcE+0x402>
    226d:	48 8b 45 f8          	mov    rax,QWORD PTR [rbp-0x8]
    2271:	48 8d 3d 00 00 00 00 	lea    rdi,[rip+0x0]        # 2278 <_ZL19load_GL_VERSION_3_3PFPvPKcE+0x40d>
    2278:	ff d0                	call   rax
    227a:	48 89 05 00 00 00 00 	mov    QWORD PTR [rip+0x0],rax        # 2281 <_ZL19load_GL_VERSION_3_3PFPvPKcE+0x416>
    2281:	48 8b 45 f8          	mov    rax,QWORD PTR [rbp-0x8]
    2285:	48 8d 3d 00 00 00 00 	lea    rdi,[rip+0x0]        # 228c <_ZL19load_GL_VERSION_3_3PFPvPKcE+0x421>
    228c:	ff d0                	call   rax
    228e:	48 89 05 00 00 00 00 	mov    QWORD PTR [rip+0x0],rax        # 2295 <_ZL19load_GL_VERSION_3_3PFPvPKcE+0x42a>
    2295:	48 8b 45 f8          	mov    rax,QWORD PTR [rbp-0x8]
    2299:	48 8d 3d 00 00 00 00 	lea    rdi,[rip+0x0]        # 22a0 <_ZL19load_GL_VERSION_3_3PFPvPKcE+0x435>
    22a0:	ff d0                	call   rax
    22a2:	48 89 05 00 00 00 00 	mov    QWORD PTR [rip+0x0],rax        # 22a9 <_ZL19load_GL_VERSION_3_3PFPvPKcE+0x43e>
    22a9:	48 8b 45 f8          	mov    rax,QWORD PTR [rbp-0x8]
    22ad:	48 8d 3d 00 00 00 00 	lea    rdi,[rip+0x0]        # 22b4 <_ZL19load_GL_VERSION_3_3PFPvPKcE+0x449>
    22b4:	ff d0                	call   rax
    22b6:	48 89 05 00 00 00 00 	mov    QWORD PTR [rip+0x0],rax        # 22bd <_ZL19load_GL_VERSION_3_3PFPvPKcE+0x452>
    22bd:	48 8b 45 f8          	mov    rax,QWORD PTR [rbp-0x8]
    22c1:	48 8d 3d 00 00 00 00 	lea    rdi,[rip+0x0]        # 22c8 <_ZL19load_GL_VERSION_3_3PFPvPKcE+0x45d>
    22c8:	ff d0                	call   rax
    22ca:	48 89 05 00 00 00 00 	mov    QWORD PTR [rip+0x0],rax        # 22d1 <_ZL19load_GL_VERSION_3_3PFPvPKcE+0x466>
    22d1:	48 8b 45 f8          	mov    rax,QWORD PTR [rbp-0x8]
    22d5:	48 8d 3d 00 00 00 00 	lea    rdi,[rip+0x0]        # 22dc <_ZL19load_GL_VERSION_3_3PFPvPKcE+0x471>
    22dc:	ff d0                	call   rax
    22de:	48 89 05 00 00 00 00 	mov    QWORD PTR [rip+0x0],rax        # 22e5 <_ZL19load_GL_VERSION_3_3PFPvPKcE+0x47a>
    22e5:	48 8b 45 f8          	mov    rax,QWORD PTR [rbp-0x8]
    22e9:	48 8d 3d 00 00 00 00 	lea    rdi,[rip+0x0]        # 22f0 <_ZL19load_GL_VERSION_3_3PFPvPKcE+0x485>
    22f0:	ff d0                	call   rax
    22f2:	48 89 05 00 00 00 00 	mov    QWORD PTR [rip+0x0],rax        # 22f9 <_ZL19load_GL_VERSION_3_3PFPvPKcE+0x48e>
    22f9:	48 8b 45 f8          	mov    rax,QWORD PTR [rbp-0x8]
    22fd:	48 8d 3d 00 00 00 00 	lea    rdi,[rip+0x0]        # 2304 <_ZL19load_GL_VERSION_3_3PFPvPKcE+0x499>
    2304:	ff d0                	call   rax
    2306:	48 89 05 00 00 00 00 	mov    QWORD PTR [rip+0x0],rax        # 230d <_ZL19load_GL_VERSION_3_3PFPvPKcE+0x4a2>
    230d:	eb 01                	jmp    2310 <_ZL19load_GL_VERSION_3_3PFPvPKcE+0x4a5>
    230f:	90                   	nop
    2310:	c9                   	leave  
    2311:	c3                   	ret    

0000000000002312 <_ZL19load_GL_VERSION_4_0PFPvPKcE>:
    2312:	55                   	push   rbp
    2313:	48 89 e5             	mov    rbp,rsp
    2316:	48 83 ec 10          	sub    rsp,0x10
    231a:	48 89 7d f8          	mov    QWORD PTR [rbp-0x8],rdi
    231e:	8b 05 00 00 00 00    	mov    eax,DWORD PTR [rip+0x0]        # 2324 <_ZL19load_GL_VERSION_4_0PFPvPKcE+0x12>
    2324:	85 c0                	test   eax,eax
    2326:	0f 84 9a 03 00 00    	je     26c6 <_ZL19load_GL_VERSION_4_0PFPvPKcE+0x3b4>
    232c:	48 8b 45 f8          	mov    rax,QWORD PTR [rbp-0x8]
    2330:	48 8d 3d 00 00 00 00 	lea    rdi,[rip+0x0]        # 2337 <_ZL19load_GL_VERSION_4_0PFPvPKcE+0x25>
    2337:	ff d0                	call   rax
    2339:	48 89 05 00 00 00 00 	mov    QWORD PTR [rip+0x0],rax        # 2340 <_ZL19load_GL_VERSION_4_0PFPvPKcE+0x2e>
    2340:	48 8b 45 f8          	mov    rax,QWORD PTR [rbp-0x8]
    2344:	48 8d 3d 00 00 00 00 	lea    rdi,[rip+0x0]        # 234b <_ZL19load_GL_VERSION_4_0PFPvPKcE+0x39>
    234b:	ff d0                	call   rax
    234d:	48 89 05 00 00 00 00 	mov    QWORD PTR [rip+0x0],rax        # 2354 <_ZL19load_GL_VERSION_4_0PFPvPKcE+0x42>
    2354:	48 8b 45 f8          	mov    rax,QWORD PTR [rbp-0x8]
    2358:	48 8d 3d 00 00 00 00 	lea    rdi,[rip+0x0]        # 235f <_ZL19load_GL_VERSION_4_0PFPvPKcE+0x4d>
    235f:	ff d0                	call   rax
    2361:	48 89 05 00 00 00 00 	mov    QWORD PTR [rip+0x0],rax        # 2368 <_ZL19load_GL_VERSION_4_0PFPvPKcE+0x56>
    2368:	48 8b 45 f8          	mov    rax,QWORD PTR [rbp-0x8]
    236c:	48 8d 3d 00 00 00 00 	lea    rdi,[rip+0x0]        # 2373 <_ZL19load_GL_VERSION_4_0PFPvPKcE+0x61>
    2373:	ff d0                	call   rax
    2375:	48 89 05 00 00 00 00 	mov    QWORD PTR [rip+0x0],rax        # 237c <_ZL19load_GL_VERSION_4_0PFPvPKcE+0x6a>
    237c:	48 8b 45 f8          	mov    rax,QWORD PTR [rbp-0x8]
    2380:	48 8d 3d 00 00 00 00 	lea    rdi,[rip+0x0]        # 2387 <_ZL19load_GL_VERSION_4_0PFPvPKcE+0x75>
    2387:	ff d0                	call   rax
    2389:	48 89 05 00 00 00 00 	mov    QWORD PTR [rip+0x0],rax        # 2390 <_ZL19load_GL_VERSION_4_0PFPvPKcE+0x7e>
    2390:	48 8b 45 f8          	mov    rax,QWORD PTR [rbp-0x8]
    2394:	48 8d 3d 00 00 00 00 	lea    rdi,[rip+0x0]        # 239b <_ZL19load_GL_VERSION_4_0PFPvPKcE+0x89>
    239b:	ff d0                	call   rax
    239d:	48 89 05 00 00 00 00 	mov    QWORD PTR [rip+0x0],rax        # 23a4 <_ZL19load_GL_VERSION_4_0PFPvPKcE+0x92>
    23a4:	48 8b 45 f8          	mov    rax,QWORD PTR [rbp-0x8]
    23a8:	48 8d 3d 00 00 00 00 	lea    rdi,[rip+0x0]        # 23af <_ZL19load_GL_VERSION_4_0PFPvPKcE+0x9d>
    23af:	ff d0                	call   rax
    23b1:	48 89 05 00 00 00 00 	mov    QWORD PTR [rip+0x0],rax        # 23b8 <_ZL19load_GL_VERSION_4_0PFPvPKcE+0xa6>
    23b8:	48 8b 45 f8          	mov    rax,QWORD PTR [rbp-0x8]
    23bc:	48 8d 3d 00 00 00 00 	lea    rdi,[rip+0x0]        # 23c3 <_ZL19load_GL_VERSION_4_0PFPvPKcE+0xb1>
    23c3:	ff d0                	call   rax
    23c5:	48 89 05 00 00 00 00 	mov    QWORD PTR [rip+0x0],rax        # 23cc <_ZL19load_GL_VERSION_4_0PFPvPKcE+0xba>
    23cc:	48 8b 45 f8          	mov    rax,QWORD PTR [rbp-0x8]
    23d0:	48 8d 3d 00 00 00 00 	lea    rdi,[rip+0x0]        # 23d7 <_ZL19load_GL_VERSION_4_0PFPvPKcE+0xc5>
    23d7:	ff d0                	call   rax
    23d9:	48 89 05 00 00 00 00 	mov    QWORD PTR [rip+0x0],rax        # 23e0 <_ZL19load_GL_VERSION_4_0PFPvPKcE+0xce>
    23e0:	48 8b 45 f8          	mov    rax,QWORD PTR [rbp-0x8]
    23e4:	48 8d 3d 00 00 00 00 	lea    rdi,[rip+0x0]        # 23eb <_ZL19load_GL_VERSION_4_0PFPvPKcE+0xd9>
    23eb:	ff d0                	call   rax
    23ed:	48 89 05 00 00 00 00 	mov    QWORD PTR [rip+0x0],rax        # 23f4 <_ZL19load_GL_VERSION_4_0PFPvPKcE+0xe2>
    23f4:	48 8b 45 f8          	mov    rax,QWORD PTR [rbp-0x8]
    23f8:	48 8d 3d 00 00 00 00 	lea    rdi,[rip+0x0]        # 23ff <_ZL19load_GL_VERSION_4_0PFPvPKcE+0xed>
    23ff:	ff d0                	call   rax
    2401:	48 89 05 00 00 00 00 	mov    QWORD PTR [rip+0x0],rax        # 2408 <_ZL19load_GL_VERSION_4_0PFPvPKcE+0xf6>
    2408:	48 8b 45 f8          	mov    rax,QWORD PTR [rbp-0x8]
    240c:	48 8d 3d 00 00 00 00 	lea    rdi,[rip+0x0]        # 2413 <_ZL19load_GL_VERSION_4_0PFPvPKcE+0x101>
    2413:	ff d0                	call   rax
    2415:	48 89 05 00 00 00 00 	mov    QWORD PTR [rip+0x0],rax        # 241c <_ZL19load_GL_VERSION_4_0PFPvPKcE+0x10a>
    241c:	48 8b 45 f8          	mov    rax,QWORD PTR [rbp-0x8]
    2420:	48 8d 3d 00 00 00 00 	lea    rdi,[rip+0x0]        # 2427 <_ZL19load_GL_VERSION_4_0PFPvPKcE+0x115>
    2427:	ff d0                	call   rax
    2429:	48 89 05 00 00 00 00 	mov    QWORD PTR [rip+0x0],rax        # 2430 <_ZL19load_GL_VERSION_4_0PFPvPKcE+0x11e>
    2430:	48 8b 45 f8          	mov    rax,QWORD PTR [rbp-0x8]
    2434:	48 8d 3d 00 00 00 00 	lea    rdi,[rip+0x0]        # 243b <_ZL19load_GL_VERSION_4_0PFPvPKcE+0x129>
    243b:	ff d0                	call   rax
    243d:	48 89 05 00 00 00 00 	mov    QWORD PTR [rip+0x0],rax        # 2444 <_ZL19load_GL_VERSION_4_0PFPvPKcE+0x132>
    2444:	48 8b 45 f8          	mov    rax,QWORD PTR [rbp-0x8]
    2448:	48 8d 3d 00 00 00 00 	lea    rdi,[rip+0x0]        # 244f <_ZL19load_GL_VERSION_4_0PFPvPKcE+0x13d>
    244f:	ff d0                	call   rax
    2451:	48 89 05 00 00 00 00 	mov    QWORD PTR [rip+0x0],rax        # 2458 <_ZL19load_GL_VERSION_4_0PFPvPKcE+0x146>
    2458:	48 8b 45 f8          	mov    rax,QWORD PTR [rbp-0x8]
    245c:	48 8d 3d 00 00 00 00 	lea    rdi,[rip+0x0]        # 2463 <_ZL19load_GL_VERSION_4_0PFPvPKcE+0x151>
    2463:	ff d0                	call   rax
    2465:	48 89 05 00 00 00 00 	mov    QWORD PTR [rip+0x0],rax        # 246c <_ZL19load_GL_VERSION_4_0PFPvPKcE+0x15a>
    246c:	48 8b 45 f8          	mov    rax,QWORD PTR [rbp-0x8]
    2470:	48 8d 3d 00 00 00 00 	lea    rdi,[rip+0x0]        # 2477 <_ZL19load_GL_VERSION_4_0PFPvPKcE+0x165>
    2477:	ff d0                	call   rax
    2479:	48 89 05 00 00 00 00 	mov    QWORD PTR [rip+0x0],rax        # 2480 <_ZL19load_GL_VERSION_4_0PFPvPKcE+0x16e>
    2480:	48 8b 45 f8          	mov    rax,QWORD PTR [rbp-0x8]
    2484:	48 8d 3d 00 00 00 00 	lea    rdi,[rip+0x0]        # 248b <_ZL19load_GL_VERSION_4_0PFPvPKcE+0x179>
    248b:	ff d0                	call   rax
    248d:	48 89 05 00 00 00 00 	mov    QWORD PTR [rip+0x0],rax        # 2494 <_ZL19load_GL_VERSION_4_0PFPvPKcE+0x182>
    2494:	48 8b 45 f8          	mov    rax,QWORD PTR [rbp-0x8]
    2498:	48 8d 3d 00 00 00 00 	lea    rdi,[rip+0x0]        # 249f <_ZL19load_GL_VERSION_4_0PFPvPKcE+0x18d>
    249f:	ff d0                	call   rax
    24a1:	48 89 05 00 00 00 00 	mov    QWORD PTR [rip+0x0],rax        # 24a8 <_ZL19load_GL_VERSION_4_0PFPvPKcE+0x196>
    24a8:	48 8b 45 f8          	mov    rax,QWORD PTR [rbp-0x8]
    24ac:	48 8d 3d 00 00 00 00 	lea    rdi,[rip+0x0]        # 24b3 <_ZL19load_GL_VERSION_4_0PFPvPKcE+0x1a1>
    24b3:	ff d0                	call   rax
    24b5:	48 89 05 00 00 00 00 	mov    QWORD PTR [rip+0x0],rax        # 24bc <_ZL19load_GL_VERSION_4_0PFPvPKcE+0x1aa>
    24bc:	48 8b 45 f8          	mov    rax,QWORD PTR [rbp-0x8]
    24c0:	48 8d 3d 00 00 00 00 	lea    rdi,[rip+0x0]        # 24c7 <_ZL19load_GL_VERSION_4_0PFPvPKcE+0x1b5>
    24c7:	ff d0                	call   rax
    24c9:	48 89 05 00 00 00 00 	mov    QWORD PTR [rip+0x0],rax        # 24d0 <_ZL19load_GL_VERSION_4_0PFPvPKcE+0x1be>
    24d0:	48 8b 45 f8          	mov    rax,QWORD PTR [rbp-0x8]
    24d4:	48 8d 3d 00 00 00 00 	lea    rdi,[rip+0x0]        # 24db <_ZL19load_GL_VERSION_4_0PFPvPKcE+0x1c9>
    24db:	ff d0                	call   rax
    24dd:	48 89 05 00 00 00 00 	mov    QWORD PTR [rip+0x0],rax        # 24e4 <_ZL19load_GL_VERSION_4_0PFPvPKcE+0x1d2>
    24e4:	48 8b 45 f8          	mov    rax,QWORD PTR [rbp-0x8]
    24e8:	48 8d 3d 00 00 00 00 	lea    rdi,[rip+0x0]        # 24ef <_ZL19load_GL_VERSION_4_0PFPvPKcE+0x1dd>
    24ef:	ff d0                	call   rax
    24f1:	48 89 05 00 00 00 00 	mov    QWORD PTR [rip+0x0],rax        # 24f8 <_ZL19load_GL_VERSION_4_0PFPvPKcE+0x1e6>
    24f8:	48 8b 45 f8          	mov    rax,QWORD PTR [rbp-0x8]
    24fc:	48 8d 3d 00 00 00 00 	lea    rdi,[rip+0x0]        # 2503 <_ZL19load_GL_VERSION_4_0PFPvPKcE+0x1f1>
    2503:	ff d0                	call   rax
    2505:	48 89 05 00 00 00 00 	mov    QWORD PTR [rip+0x0],rax        # 250c <_ZL19load_GL_VERSION_4_0PFPvPKcE+0x1fa>
    250c:	48 8b 45 f8          	mov    rax,QWORD PTR [rbp-0x8]
    2510:	48 8d 3d 00 00 00 00 	lea    rdi,[rip+0x0]        # 2517 <_ZL19load_GL_VERSION_4_0PFPvPKcE+0x205>
    2517:	ff d0                	call   rax
    2519:	48 89 05 00 00 00 00 	mov    QWORD PTR [rip+0x0],rax        # 2520 <_ZL19load_GL_VERSION_4_0PFPvPKcE+0x20e>
    2520:	48 8b 45 f8          	mov    rax,QWORD PTR [rbp-0x8]
    2524:	48 8d 3d 00 00 00 00 	lea    rdi,[rip+0x0]        # 252b <_ZL19load_GL_VERSION_4_0PFPvPKcE+0x219>
    252b:	ff d0                	call   rax
    252d:	48 89 05 00 00 00 00 	mov    QWORD PTR [rip+0x0],rax        # 2534 <_ZL19load_GL_VERSION_4_0PFPvPKcE+0x222>
    2534:	48 8b 45 f8          	mov    rax,QWORD PTR [rbp-0x8]
    2538:	48 8d 3d 00 00 00 00 	lea    rdi,[rip+0x0]        # 253f <_ZL19load_GL_VERSION_4_0PFPvPKcE+0x22d>
    253f:	ff d0                	call   rax
    2541:	48 89 05 00 00 00 00 	mov    QWORD PTR [rip+0x0],rax        # 2548 <_ZL19load_GL_VERSION_4_0PFPvPKcE+0x236>
    2548:	48 8b 45 f8          	mov    rax,QWORD PTR [rbp-0x8]
    254c:	48 8d 3d 00 00 00 00 	lea    rdi,[rip+0x0]        # 2553 <_ZL19load_GL_VERSION_4_0PFPvPKcE+0x241>
    2553:	ff d0                	call   rax
    2555:	48 89 05 00 00 00 00 	mov    QWORD PTR [rip+0x0],rax        # 255c <_ZL19load_GL_VERSION_4_0PFPvPKcE+0x24a>
    255c:	48 8b 45 f8          	mov    rax,QWORD PTR [rbp-0x8]
    2560:	48 8d 3d 00 00 00 00 	lea    rdi,[rip+0x0]        # 2567 <_ZL19load_GL_VERSION_4_0PFPvPKcE+0x255>
    2567:	ff d0                	call   rax
    2569:	48 89 05 00 00 00 00 	mov    QWORD PTR [rip+0x0],rax        # 2570 <_ZL19load_GL_VERSION_4_0PFPvPKcE+0x25e>
    2570:	48 8b 45 f8          	mov    rax,QWORD PTR [rbp-0x8]
    2574:	48 8d 3d 00 00 00 00 	lea    rdi,[rip+0x0]        # 257b <_ZL19load_GL_VERSION_4_0PFPvPKcE+0x269>
    257b:	ff d0                	call   rax
    257d:	48 89 05 00 00 00 00 	mov    QWORD PTR [rip+0x0],rax        # 2584 <_ZL19load_GL_VERSION_4_0PFPvPKcE+0x272>
    2584:	48 8b 45 f8          	mov    rax,QWORD PTR [rbp-0x8]
    2588:	48 8d 3d 00 00 00 00 	lea    rdi,[rip+0x0]        # 258f <_ZL19load_GL_VERSION_4_0PFPvPKcE+0x27d>
    258f:	ff d0                	call   rax
    2591:	48 89 05 00 00 00 00 	mov    QWORD PTR [rip+0x0],rax        # 2598 <_ZL19load_GL_VERSION_4_0PFPvPKcE+0x286>
    2598:	48 8b 45 f8          	mov    rax,QWORD PTR [rbp-0x8]
    259c:	48 8d 3d 00 00 00 00 	lea    rdi,[rip+0x0]        # 25a3 <_ZL19load_GL_VERSION_4_0PFPvPKcE+0x291>
    25a3:	ff d0                	call   rax
    25a5:	48 89 05 00 00 00 00 	mov    QWORD PTR [rip+0x0],rax        # 25ac <_ZL19load_GL_VERSION_4_0PFPvPKcE+0x29a>
    25ac:	48 8b 45 f8          	mov    rax,QWORD PTR [rbp-0x8]
    25b0:	48 8d 3d 00 00 00 00 	lea    rdi,[rip+0x0]        # 25b7 <_ZL19load_GL_VERSION_4_0PFPvPKcE+0x2a5>
    25b7:	ff d0                	call   rax
    25b9:	48 89 05 00 00 00 00 	mov    QWORD PTR [rip+0x0],rax        # 25c0 <_ZL19load_GL_VERSION_4_0PFPvPKcE+0x2ae>
    25c0:	48 8b 45 f8          	mov    rax,QWORD PTR [rbp-0x8]
    25c4:	48 8d 3d 00 00 00 00 	lea    rdi,[rip+0x0]        # 25cb <_ZL19load_GL_VERSION_4_0PFPvPKcE+0x2b9>
    25cb:	ff d0                	call   rax
    25cd:	48 89 05 00 00 00 00 	mov    QWORD PTR [rip+0x0],rax        # 25d4 <_ZL19load_GL_VERSION_4_0PFPvPKcE+0x2c2>
    25d4:	48 8b 45 f8          	mov    rax,QWORD PTR [rbp-0x8]
    25d8:	48 8d 3d 00 00 00 00 	lea    rdi,[rip+0x0]        # 25df <_ZL19load_GL_VERSION_4_0PFPvPKcE+0x2cd>
    25df:	ff d0                	call   rax
    25e1:	48 89 05 00 00 00 00 	mov    QWORD PTR [rip+0x0],rax        # 25e8 <_ZL19load_GL_VERSION_4_0PFPvPKcE+0x2d6>
    25e8:	48 8b 45 f8          	mov    rax,QWORD PTR [rbp-0x8]
    25ec:	48 8d 3d 00 00 00 00 	lea    rdi,[rip+0x0]        # 25f3 <_ZL19load_GL_VERSION_4_0PFPvPKcE+0x2e1>
    25f3:	ff d0                	call   rax
    25f5:	48 89 05 00 00 00 00 	mov    QWORD PTR [rip+0x0],rax        # 25fc <_ZL19load_GL_VERSION_4_0PFPvPKcE+0x2ea>
    25fc:	48 8b 45 f8          	mov    rax,QWORD PTR [rbp-0x8]
    2600:	48 8d 3d 00 00 00 00 	lea    rdi,[rip+0x0]        # 2607 <_ZL19load_GL_VERSION_4_0PFPvPKcE+0x2f5>
    2607:	ff d0                	call   rax
    2609:	48 89 05 00 00 00 00 	mov    QWORD PTR [rip+0x0],rax        # 2610 <_ZL19load_GL_VERSION_4_0PFPvPKcE+0x2fe>
    2610:	48 8b 45 f8          	mov    rax,QWORD PTR [rbp-0x8]
    2614:	48 8d 3d 00 00 00 00 	lea    rdi,[rip+0x0]        # 261b <_ZL19load_GL_VERSION_4_0PFPvPKcE+0x309>
    261b:	ff d0                	call   rax
    261d:	48 89 05 00 00 00 00 	mov    QWORD PTR [rip+0x0],rax        # 2624 <_ZL19load_GL_VERSION_4_0PFPvPKcE+0x312>
    2624:	48 8b 45 f8          	mov    rax,QWORD PTR [rbp-0x8]
    2628:	48 8d 3d 00 00 00 00 	lea    rdi,[rip+0x0]        # 262f <_ZL19load_GL_VERSION_4_0PFPvPKcE+0x31d>
    262f:	ff d0                	call   rax
    2631:	48 89 05 00 00 00 00 	mov    QWORD PTR [rip+0x0],rax        # 2638 <_ZL19load_GL_VERSION_4_0PFPvPKcE+0x326>
    2638:	48 8b 45 f8          	mov    rax,QWORD PTR [rbp-0x8]
    263c:	48 8d 3d 00 00 00 00 	lea    rdi,[rip+0x0]        # 2643 <_ZL19load_GL_VERSION_4_0PFPvPKcE+0x331>
    2643:	ff d0                	call   rax
    2645:	48 89 05 00 00 00 00 	mov    QWORD PTR [rip+0x0],rax        # 264c <_ZL19load_GL_VERSION_4_0PFPvPKcE+0x33a>
    264c:	48 8b 45 f8          	mov    rax,QWORD PTR [rbp-0x8]
    2650:	48 8d 3d 00 00 00 00 	lea    rdi,[rip+0x0]        # 2657 <_ZL19load_GL_VERSION_4_0PFPvPKcE+0x345>
    2657:	ff d0                	call   rax
    2659:	48 89 05 00 00 00 00 	mov    QWORD PTR [rip+0x0],rax        # 2660 <_ZL19load_GL_VERSION_4_0PFPvPKcE+0x34e>
    2660:	48 8b 45 f8          	mov    rax,QWORD PTR [rbp-0x8]
    2664:	48 8d 3d 00 00 00 00 	lea    rdi,[rip+0x0]        # 266b <_ZL19load_GL_VERSION_4_0PFPvPKcE+0x359>
    266b:	ff d0                	call   rax
    266d:	48 89 05 00 00 00 00 	mov    QWORD PTR [rip+0x0],rax        # 2674 <_ZL19load_GL_VERSION_4_0PFPvPKcE+0x362>
    2674:	48 8b 45 f8          	mov    rax,QWORD PTR [rbp-0x8]
    2678:	48 8d 3d 00 00 00 00 	lea    rdi,[rip+0x0]        # 267f <_ZL19load_GL_VERSION_4_0PFPvPKcE+0x36d>
    267f:	ff d0                	call   rax
    2681:	48 89 05 00 00 00 00 	mov    QWORD PTR [rip+0x0],rax        # 2688 <_ZL19load_GL_VERSION_4_0PFPvPKcE+0x376>
    2688:	48 8b 45 f8          	mov    rax,QWORD PTR [rbp-0x8]
    268c:	48 8d 3d 00 00 00 00 	lea    rdi,[rip+0x0]        # 2693 <_ZL19load_GL_VERSION_4_0PFPvPKcE+0x381>
    2693:	ff d0                	call   rax
    2695:	48 89 05 00 00 00 00 	mov    QWORD PTR [rip+0x0],rax        # 269c <_ZL19load_GL_VERSION_4_0PFPvPKcE+0x38a>
    269c:	48 8b 45 f8          	mov    rax,QWORD PTR [rbp-0x8]
    26a0:	48 8d 3d 00 00 00 00 	lea    rdi,[rip+0x0]        # 26a7 <_ZL19load_GL_VERSION_4_0PFPvPKcE+0x395>
    26a7:	ff d0                	call   rax
    26a9:	48 89 05 00 00 00 00 	mov    QWORD PTR [rip+0x0],rax        # 26b0 <_ZL19load_GL_VERSION_4_0PFPvPKcE+0x39e>
    26b0:	48 8b 45 f8          	mov    rax,QWORD PTR [rbp-0x8]
    26b4:	48 8d 3d 00 00 00 00 	lea    rdi,[rip+0x0]        # 26bb <_ZL19load_GL_VERSION_4_0PFPvPKcE+0x3a9>
    26bb:	ff d0                	call   rax
    26bd:	48 89 05 00 00 00 00 	mov    QWORD PTR [rip+0x0],rax        # 26c4 <_ZL19load_GL_VERSION_4_0PFPvPKcE+0x3b2>
    26c4:	eb 01                	jmp    26c7 <_ZL19load_GL_VERSION_4_0PFPvPKcE+0x3b5>
    26c6:	90                   	nop
    26c7:	c9                   	leave  
    26c8:	c3                   	ret    

00000000000026c9 <_ZL19load_GL_VERSION_4_1PFPvPKcE>:
    26c9:	55                   	push   rbp
    26ca:	48 89 e5             	mov    rbp,rsp
    26cd:	48 83 ec 10          	sub    rsp,0x10
    26d1:	48 89 7d f8          	mov    QWORD PTR [rbp-0x8],rdi
    26d5:	8b 05 00 00 00 00    	mov    eax,DWORD PTR [rip+0x0]        # 26db <_ZL19load_GL_VERSION_4_1PFPvPKcE+0x12>
    26db:	85 c0                	test   eax,eax
    26dd:	0f 84 f6 06 00 00    	je     2dd9 <_ZL19load_GL_VERSION_4_1PFPvPKcE+0x710>
    26e3:	48 8b 45 f8          	mov    rax,QWORD PTR [rbp-0x8]
    26e7:	48 8d 3d 00 00 00 00 	lea    rdi,[rip+0x0]        # 26ee <_ZL19load_GL_VERSION_4_1PFPvPKcE+0x25>
    26ee:	ff d0                	call   rax
    26f0:	48 89 05 00 00 00 00 	mov    QWORD PTR [rip+0x0],rax        # 26f7 <_ZL19load_GL_VERSION_4_1PFPvPKcE+0x2e>
    26f7:	48 8b 45 f8          	mov    rax,QWORD PTR [rbp-0x8]
    26fb:	48 8d 3d 00 00 00 00 	lea    rdi,[rip+0x0]        # 2702 <_ZL19load_GL_VERSION_4_1PFPvPKcE+0x39>
    2702:	ff d0                	call   rax
    2704:	48 89 05 00 00 00 00 	mov    QWORD PTR [rip+0x0],rax        # 270b <_ZL19load_GL_VERSION_4_1PFPvPKcE+0x42>
    270b:	48 8b 45 f8          	mov    rax,QWORD PTR [rbp-0x8]
    270f:	48 8d 3d 00 00 00 00 	lea    rdi,[rip+0x0]        # 2716 <_ZL19load_GL_VERSION_4_1PFPvPKcE+0x4d>
    2716:	ff d0                	call   rax
    2718:	48 89 05 00 00 00 00 	mov    QWORD PTR [rip+0x0],rax        # 271f <_ZL19load_GL_VERSION_4_1PFPvPKcE+0x56>
    271f:	48 8b 45 f8          	mov    rax,QWORD PTR [rbp-0x8]
    2723:	48 8d 3d 00 00 00 00 	lea    rdi,[rip+0x0]        # 272a <_ZL19load_GL_VERSION_4_1PFPvPKcE+0x61>
    272a:	ff d0                	call   rax
    272c:	48 89 05 00 00 00 00 	mov    QWORD PTR [rip+0x0],rax        # 2733 <_ZL19load_GL_VERSION_4_1PFPvPKcE+0x6a>
    2733:	48 8b 45 f8          	mov    rax,QWORD PTR [rbp-0x8]
    2737:	48 8d 3d 00 00 00 00 	lea    rdi,[rip+0x0]        # 273e <_ZL19load_GL_VERSION_4_1PFPvPKcE+0x75>
    273e:	ff d0                	call   rax
    2740:	48 89 05 00 00 00 00 	mov    QWORD PTR [rip+0x0],rax        # 2747 <_ZL19load_GL_VERSION_4_1PFPvPKcE+0x7e>
    2747:	48 8b 45 f8          	mov    rax,QWORD PTR [rbp-0x8]
    274b:	48 8d 3d 00 00 00 00 	lea    rdi,[rip+0x0]        # 2752 <_ZL19load_GL_VERSION_4_1PFPvPKcE+0x89>
    2752:	ff d0                	call   rax
    2754:	48 89 05 00 00 00 00 	mov    QWORD PTR [rip+0x0],rax        # 275b <_ZL19load_GL_VERSION_4_1PFPvPKcE+0x92>
    275b:	48 8b 45 f8          	mov    rax,QWORD PTR [rbp-0x8]
    275f:	48 8d 3d 00 00 00 00 	lea    rdi,[rip+0x0]        # 2766 <_ZL19load_GL_VERSION_4_1PFPvPKcE+0x9d>
    2766:	ff d0                	call   rax
    2768:	48 89 05 00 00 00 00 	mov    QWORD PTR [rip+0x0],rax        # 276f <_ZL19load_GL_VERSION_4_1PFPvPKcE+0xa6>
    276f:	48 8b 45 f8          	mov    rax,QWORD PTR [rbp-0x8]
    2773:	48 8d 3d 00 00 00 00 	lea    rdi,[rip+0x0]        # 277a <_ZL19load_GL_VERSION_4_1PFPvPKcE+0xb1>
    277a:	ff d0                	call   rax
    277c:	48 89 05 00 00 00 00 	mov    QWORD PTR [rip+0x0],rax        # 2783 <_ZL19load_GL_VERSION_4_1PFPvPKcE+0xba>
    2783:	48 8b 45 f8          	mov    rax,QWORD PTR [rbp-0x8]
    2787:	48 8d 3d 00 00 00 00 	lea    rdi,[rip+0x0]        # 278e <_ZL19load_GL_VERSION_4_1PFPvPKcE+0xc5>
    278e:	ff d0                	call   rax
    2790:	48 89 05 00 00 00 00 	mov    QWORD PTR [rip+0x0],rax        # 2797 <_ZL19load_GL_VERSION_4_1PFPvPKcE+0xce>
    2797:	48 8b 45 f8          	mov    rax,QWORD PTR [rbp-0x8]
    279b:	48 8d 3d 00 00 00 00 	lea    rdi,[rip+0x0]        # 27a2 <_ZL19load_GL_VERSION_4_1PFPvPKcE+0xd9>
    27a2:	ff d0                	call   rax
    27a4:	48 89 05 00 00 00 00 	mov    QWORD PTR [rip+0x0],rax        # 27ab <_ZL19load_GL_VERSION_4_1PFPvPKcE+0xe2>
    27ab:	48 8b 45 f8          	mov    rax,QWORD PTR [rbp-0x8]
    27af:	48 8d 3d 00 00 00 00 	lea    rdi,[rip+0x0]        # 27b6 <_ZL19load_GL_VERSION_4_1PFPvPKcE+0xed>
    27b6:	ff d0                	call   rax
    27b8:	48 89 05 00 00 00 00 	mov    QWORD PTR [rip+0x0],rax        # 27bf <_ZL19load_GL_VERSION_4_1PFPvPKcE+0xf6>
    27bf:	48 8b 45 f8          	mov    rax,QWORD PTR [rbp-0x8]
    27c3:	48 8d 3d 00 00 00 00 	lea    rdi,[rip+0x0]        # 27ca <_ZL19load_GL_VERSION_4_1PFPvPKcE+0x101>
    27ca:	ff d0                	call   rax
    27cc:	48 89 05 00 00 00 00 	mov    QWORD PTR [rip+0x0],rax        # 27d3 <_ZL19load_GL_VERSION_4_1PFPvPKcE+0x10a>
    27d3:	48 8b 45 f8          	mov    rax,QWORD PTR [rbp-0x8]
    27d7:	48 8d 3d 00 00 00 00 	lea    rdi,[rip+0x0]        # 27de <_ZL19load_GL_VERSION_4_1PFPvPKcE+0x115>
    27de:	ff d0                	call   rax
    27e0:	48 89 05 00 00 00 00 	mov    QWORD PTR [rip+0x0],rax        # 27e7 <_ZL19load_GL_VERSION_4_1PFPvPKcE+0x11e>
    27e7:	48 8b 45 f8          	mov    rax,QWORD PTR [rbp-0x8]
    27eb:	48 8d 3d 00 00 00 00 	lea    rdi,[rip+0x0]        # 27f2 <_ZL19load_GL_VERSION_4_1PFPvPKcE+0x129>
    27f2:	ff d0                	call   rax
    27f4:	48 89 05 00 00 00 00 	mov    QWORD PTR [rip+0x0],rax        # 27fb <_ZL19load_GL_VERSION_4_1PFPvPKcE+0x132>
    27fb:	48 8b 45 f8          	mov    rax,QWORD PTR [rbp-0x8]
    27ff:	48 8d 3d 00 00 00 00 	lea    rdi,[rip+0x0]        # 2806 <_ZL19load_GL_VERSION_4_1PFPvPKcE+0x13d>
    2806:	ff d0                	call   rax
    2808:	48 89 05 00 00 00 00 	mov    QWORD PTR [rip+0x0],rax        # 280f <_ZL19load_GL_VERSION_4_1PFPvPKcE+0x146>
    280f:	48 8b 45 f8          	mov    rax,QWORD PTR [rbp-0x8]
    2813:	48 8d 3d 00 00 00 00 	lea    rdi,[rip+0x0]        # 281a <_ZL19load_GL_VERSION_4_1PFPvPKcE+0x151>
    281a:	ff d0                	call   rax
    281c:	48 89 05 00 00 00 00 	mov    QWORD PTR [rip+0x0],rax        # 2823 <_ZL19load_GL_VERSION_4_1PFPvPKcE+0x15a>
    2823:	48 8b 45 f8          	mov    rax,QWORD PTR [rbp-0x8]
    2827:	48 8d 3d 00 00 00 00 	lea    rdi,[rip+0x0]        # 282e <_ZL19load_GL_VERSION_4_1PFPvPKcE+0x165>
    282e:	ff d0                	call   rax
    2830:	48 89 05 00 00 00 00 	mov    QWORD PTR [rip+0x0],rax        # 2837 <_ZL19load_GL_VERSION_4_1PFPvPKcE+0x16e>
    2837:	48 8b 45 f8          	mov    rax,QWORD PTR [rbp-0x8]
    283b:	48 8d 3d 00 00 00 00 	lea    rdi,[rip+0x0]        # 2842 <_ZL19load_GL_VERSION_4_1PFPvPKcE+0x179>
    2842:	ff d0                	call   rax
    2844:	48 89 05 00 00 00 00 	mov    QWORD PTR [rip+0x0],rax        # 284b <_ZL19load_GL_VERSION_4_1PFPvPKcE+0x182>
    284b:	48 8b 45 f8          	mov    rax,QWORD PTR [rbp-0x8]
    284f:	48 8d 3d 00 00 00 00 	lea    rdi,[rip+0x0]        # 2856 <_ZL19load_GL_VERSION_4_1PFPvPKcE+0x18d>
    2856:	ff d0                	call   rax
    2858:	48 89 05 00 00 00 00 	mov    QWORD PTR [rip+0x0],rax        # 285f <_ZL19load_GL_VERSION_4_1PFPvPKcE+0x196>
    285f:	48 8b 45 f8          	mov    rax,QWORD PTR [rbp-0x8]
    2863:	48 8d 3d 00 00 00 00 	lea    rdi,[rip+0x0]        # 286a <_ZL19load_GL_VERSION_4_1PFPvPKcE+0x1a1>
    286a:	ff d0                	call   rax
    286c:	48 89 05 00 00 00 00 	mov    QWORD PTR [rip+0x0],rax        # 2873 <_ZL19load_GL_VERSION_4_1PFPvPKcE+0x1aa>
    2873:	48 8b 45 f8          	mov    rax,QWORD PTR [rbp-0x8]
    2877:	48 8d 3d 00 00 00 00 	lea    rdi,[rip+0x0]        # 287e <_ZL19load_GL_VERSION_4_1PFPvPKcE+0x1b5>
    287e:	ff d0                	call   rax
    2880:	48 89 05 00 00 00 00 	mov    QWORD PTR [rip+0x0],rax        # 2887 <_ZL19load_GL_VERSION_4_1PFPvPKcE+0x1be>
    2887:	48 8b 45 f8          	mov    rax,QWORD PTR [rbp-0x8]
    288b:	48 8d 3d 00 00 00 00 	lea    rdi,[rip+0x0]        # 2892 <_ZL19load_GL_VERSION_4_1PFPvPKcE+0x1c9>
    2892:	ff d0                	call   rax
    2894:	48 89 05 00 00 00 00 	mov    QWORD PTR [rip+0x0],rax        # 289b <_ZL19load_GL_VERSION_4_1PFPvPKcE+0x1d2>
    289b:	48 8b 45 f8          	mov    rax,QWORD PTR [rbp-0x8]
    289f:	48 8d 3d 00 00 00 00 	lea    rdi,[rip+0x0]        # 28a6 <_ZL19load_GL_VERSION_4_1PFPvPKcE+0x1dd>
    28a6:	ff d0                	call   rax
    28a8:	48 89 05 00 00 00 00 	mov    QWORD PTR [rip+0x0],rax        # 28af <_ZL19load_GL_VERSION_4_1PFPvPKcE+0x1e6>
    28af:	48 8b 45 f8          	mov    rax,QWORD PTR [rbp-0x8]
    28b3:	48 8d 3d 00 00 00 00 	lea    rdi,[rip+0x0]        # 28ba <_ZL19load_GL_VERSION_4_1PFPvPKcE+0x1f1>
    28ba:	ff d0                	call   rax
    28bc:	48 89 05 00 00 00 00 	mov    QWORD PTR [rip+0x0],rax        # 28c3 <_ZL19load_GL_VERSION_4_1PFPvPKcE+0x1fa>
    28c3:	48 8b 45 f8          	mov    rax,QWORD PTR [rbp-0x8]
    28c7:	48 8d 3d 00 00 00 00 	lea    rdi,[rip+0x0]        # 28ce <_ZL19load_GL_VERSION_4_1PFPvPKcE+0x205>
    28ce:	ff d0                	call   rax
    28d0:	48 89 05 00 00 00 00 	mov    QWORD PTR [rip+0x0],rax        # 28d7 <_ZL19load_GL_VERSION_4_1PFPvPKcE+0x20e>
    28d7:	48 8b 45 f8          	mov    rax,QWORD PTR [rbp-0x8]
    28db:	48 8d 3d 00 00 00 00 	lea    rdi,[rip+0x0]        # 28e2 <_ZL19load_GL_VERSION_4_1PFPvPKcE+0x219>
    28e2:	ff d0                	call   rax
    28e4:	48 89 05 00 00 00 00 	mov    QWORD PTR [rip+0x0],rax        # 28eb <_ZL19load_GL_VERSION_4_1PFPvPKcE+0x222>
    28eb:	48 8b 45 f8          	mov    rax,QWORD PTR [rbp-0x8]
    28ef:	48 8d 3d 00 00 00 00 	lea    rdi,[rip+0x0]        # 28f6 <_ZL19load_GL_VERSION_4_1PFPvPKcE+0x22d>
    28f6:	ff d0                	call   rax
    28f8:	48 89 05 00 00 00 00 	mov    QWORD PTR [rip+0x0],rax        # 28ff <_ZL19load_GL_VERSION_4_1PFPvPKcE+0x236>
    28ff:	48 8b 45 f8          	mov    rax,QWORD PTR [rbp-0x8]
    2903:	48 8d 3d 00 00 00 00 	lea    rdi,[rip+0x0]        # 290a <_ZL19load_GL_VERSION_4_1PFPvPKcE+0x241>
    290a:	ff d0                	call   rax
    290c:	48 89 05 00 00 00 00 	mov    QWORD PTR [rip+0x0],rax        # 2913 <_ZL19load_GL_VERSION_4_1PFPvPKcE+0x24a>
    2913:	48 8b 45 f8          	mov    rax,QWORD PTR [rbp-0x8]
    2917:	48 8d 3d 00 00 00 00 	lea    rdi,[rip+0x0]        # 291e <_ZL19load_GL_VERSION_4_1PFPvPKcE+0x255>
    291e:	ff d0                	call   rax
    2920:	48 89 05 00 00 00 00 	mov    QWORD PTR [rip+0x0],rax        # 2927 <_ZL19load_GL_VERSION_4_1PFPvPKcE+0x25e>
    2927:	48 8b 45 f8          	mov    rax,QWORD PTR [rbp-0x8]
    292b:	48 8d 3d 00 00 00 00 	lea    rdi,[rip+0x0]        # 2932 <_ZL19load_GL_VERSION_4_1PFPvPKcE+0x269>
    2932:	ff d0                	call   rax
    2934:	48 89 05 00 00 00 00 	mov    QWORD PTR [rip+0x0],rax        # 293b <_ZL19load_GL_VERSION_4_1PFPvPKcE+0x272>
    293b:	48 8b 45 f8          	mov    rax,QWORD PTR [rbp-0x8]
    293f:	48 8d 3d 00 00 00 00 	lea    rdi,[rip+0x0]        # 2946 <_ZL19load_GL_VERSION_4_1PFPvPKcE+0x27d>
    2946:	ff d0                	call   rax
    2948:	48 89 05 00 00 00 00 	mov    QWORD PTR [rip+0x0],rax        # 294f <_ZL19load_GL_VERSION_4_1PFPvPKcE+0x286>
    294f:	48 8b 45 f8          	mov    rax,QWORD PTR [rbp-0x8]
    2953:	48 8d 3d 00 00 00 00 	lea    rdi,[rip+0x0]        # 295a <_ZL19load_GL_VERSION_4_1PFPvPKcE+0x291>
    295a:	ff d0                	call   rax
    295c:	48 89 05 00 00 00 00 	mov    QWORD PTR [rip+0x0],rax        # 2963 <_ZL19load_GL_VERSION_4_1PFPvPKcE+0x29a>
    2963:	48 8b 45 f8          	mov    rax,QWORD PTR [rbp-0x8]
    2967:	48 8d 3d 00 00 00 00 	lea    rdi,[rip+0x0]        # 296e <_ZL19load_GL_VERSION_4_1PFPvPKcE+0x2a5>
    296e:	ff d0                	call   rax
    2970:	48 89 05 00 00 00 00 	mov    QWORD PTR [rip+0x0],rax        # 2977 <_ZL19load_GL_VERSION_4_1PFPvPKcE+0x2ae>
    2977:	48 8b 45 f8          	mov    rax,QWORD PTR [rbp-0x8]
    297b:	48 8d 3d 00 00 00 00 	lea    rdi,[rip+0x0]        # 2982 <_ZL19load_GL_VERSION_4_1PFPvPKcE+0x2b9>
    2982:	ff d0                	call   rax
    2984:	48 89 05 00 00 00 00 	mov    QWORD PTR [rip+0x0],rax        # 298b <_ZL19load_GL_VERSION_4_1PFPvPKcE+0x2c2>
    298b:	48 8b 45 f8          	mov    rax,QWORD PTR [rbp-0x8]
    298f:	48 8d 3d 00 00 00 00 	lea    rdi,[rip+0x0]        # 2996 <_ZL19load_GL_VERSION_4_1PFPvPKcE+0x2cd>
    2996:	ff d0                	call   rax
    2998:	48 89 05 00 00 00 00 	mov    QWORD PTR [rip+0x0],rax        # 299f <_ZL19load_GL_VERSION_4_1PFPvPKcE+0x2d6>
    299f:	48 8b 45 f8          	mov    rax,QWORD PTR [rbp-0x8]
    29a3:	48 8d 3d 00 00 00 00 	lea    rdi,[rip+0x0]        # 29aa <_ZL19load_GL_VERSION_4_1PFPvPKcE+0x2e1>
    29aa:	ff d0                	call   rax
    29ac:	48 89 05 00 00 00 00 	mov    QWORD PTR [rip+0x0],rax        # 29b3 <_ZL19load_GL_VERSION_4_1PFPvPKcE+0x2ea>
    29b3:	48 8b 45 f8          	mov    rax,QWORD PTR [rbp-0x8]
    29b7:	48 8d 3d 00 00 00 00 	lea    rdi,[rip+0x0]        # 29be <_ZL19load_GL_VERSION_4_1PFPvPKcE+0x2f5>
    29be:	ff d0                	call   rax
    29c0:	48 89 05 00 00 00 00 	mov    QWORD PTR [rip+0x0],rax        # 29c7 <_ZL19load_GL_VERSION_4_1PFPvPKcE+0x2fe>
    29c7:	48 8b 45 f8          	mov    rax,QWORD PTR [rbp-0x8]
    29cb:	48 8d 3d 00 00 00 00 	lea    rdi,[rip+0x0]        # 29d2 <_ZL19load_GL_VERSION_4_1PFPvPKcE+0x309>
    29d2:	ff d0                	call   rax
    29d4:	48 89 05 00 00 00 00 	mov    QWORD PTR [rip+0x0],rax        # 29db <_ZL19load_GL_VERSION_4_1PFPvPKcE+0x312>
    29db:	48 8b 45 f8          	mov    rax,QWORD PTR [rbp-0x8]
    29df:	48 8d 3d 00 00 00 00 	lea    rdi,[rip+0x0]        # 29e6 <_ZL19load_GL_VERSION_4_1PFPvPKcE+0x31d>
    29e6:	ff d0                	call   rax
    29e8:	48 89 05 00 00 00 00 	mov    QWORD PTR [rip+0x0],rax        # 29ef <_ZL19load_GL_VERSION_4_1PFPvPKcE+0x326>
    29ef:	48 8b 45 f8          	mov    rax,QWORD PTR [rbp-0x8]
    29f3:	48 8d 3d 00 00 00 00 	lea    rdi,[rip+0x0]        # 29fa <_ZL19load_GL_VERSION_4_1PFPvPKcE+0x331>
    29fa:	ff d0                	call   rax
    29fc:	48 89 05 00 00 00 00 	mov    QWORD PTR [rip+0x0],rax        # 2a03 <_ZL19load_GL_VERSION_4_1PFPvPKcE+0x33a>
    2a03:	48 8b 45 f8          	mov    rax,QWORD PTR [rbp-0x8]
    2a07:	48 8d 3d 00 00 00 00 	lea    rdi,[rip+0x0]        # 2a0e <_ZL19load_GL_VERSION_4_1PFPvPKcE+0x345>
    2a0e:	ff d0                	call   rax
    2a10:	48 89 05 00 00 00 00 	mov    QWORD PTR [rip+0x0],rax        # 2a17 <_ZL19load_GL_VERSION_4_1PFPvPKcE+0x34e>
    2a17:	48 8b 45 f8          	mov    rax,QWORD PTR [rbp-0x8]
    2a1b:	48 8d 3d 00 00 00 00 	lea    rdi,[rip+0x0]        # 2a22 <_ZL19load_GL_VERSION_4_1PFPvPKcE+0x359>
    2a22:	ff d0                	call   rax
    2a24:	48 89 05 00 00 00 00 	mov    QWORD PTR [rip+0x0],rax        # 2a2b <_ZL19load_GL_VERSION_4_1PFPvPKcE+0x362>
    2a2b:	48 8b 45 f8          	mov    rax,QWORD PTR [rbp-0x8]
    2a2f:	48 8d 3d 00 00 00 00 	lea    rdi,[rip+0x0]        # 2a36 <_ZL19load_GL_VERSION_4_1PFPvPKcE+0x36d>
    2a36:	ff d0                	call   rax
    2a38:	48 89 05 00 00 00 00 	mov    QWORD PTR [rip+0x0],rax        # 2a3f <_ZL19load_GL_VERSION_4_1PFPvPKcE+0x376>
    2a3f:	48 8b 45 f8          	mov    rax,QWORD PTR [rbp-0x8]
    2a43:	48 8d 3d 00 00 00 00 	lea    rdi,[rip+0x0]        # 2a4a <_ZL19load_GL_VERSION_4_1PFPvPKcE+0x381>
    2a4a:	ff d0                	call   rax
    2a4c:	48 89 05 00 00 00 00 	mov    QWORD PTR [rip+0x0],rax        # 2a53 <_ZL19load_GL_VERSION_4_1PFPvPKcE+0x38a>
    2a53:	48 8b 45 f8          	mov    rax,QWORD PTR [rbp-0x8]
    2a57:	48 8d 3d 00 00 00 00 	lea    rdi,[rip+0x0]        # 2a5e <_ZL19load_GL_VERSION_4_1PFPvPKcE+0x395>
    2a5e:	ff d0                	call   rax
    2a60:	48 89 05 00 00 00 00 	mov    QWORD PTR [rip+0x0],rax        # 2a67 <_ZL19load_GL_VERSION_4_1PFPvPKcE+0x39e>
    2a67:	48 8b 45 f8          	mov    rax,QWORD PTR [rbp-0x8]
    2a6b:	48 8d 3d 00 00 00 00 	lea    rdi,[rip+0x0]        # 2a72 <_ZL19load_GL_VERSION_4_1PFPvPKcE+0x3a9>
    2a72:	ff d0                	call   rax
    2a74:	48 89 05 00 00 00 00 	mov    QWORD PTR [rip+0x0],rax        # 2a7b <_ZL19load_GL_VERSION_4_1PFPvPKcE+0x3b2>
    2a7b:	48 8b 45 f8          	mov    rax,QWORD PTR [rbp-0x8]
    2a7f:	48 8d 3d 00 00 00 00 	lea    rdi,[rip+0x0]        # 2a86 <_ZL19load_GL_VERSION_4_1PFPvPKcE+0x3bd>
    2a86:	ff d0                	call   rax
    2a88:	48 89 05 00 00 00 00 	mov    QWORD PTR [rip+0x0],rax        # 2a8f <_ZL19load_GL_VERSION_4_1PFPvPKcE+0x3c6>
    2a8f:	48 8b 45 f8          	mov    rax,QWORD PTR [rbp-0x8]
    2a93:	48 8d 3d 00 00 00 00 	lea    rdi,[rip+0x0]        # 2a9a <_ZL19load_GL_VERSION_4_1PFPvPKcE+0x3d1>
    2a9a:	ff d0                	call   rax
    2a9c:	48 89 05 00 00 00 00 	mov    QWORD PTR [rip+0x0],rax        # 2aa3 <_ZL19load_GL_VERSION_4_1PFPvPKcE+0x3da>
    2aa3:	48 8b 45 f8          	mov    rax,QWORD PTR [rbp-0x8]
    2aa7:	48 8d 3d 00 00 00 00 	lea    rdi,[rip+0x0]        # 2aae <_ZL19load_GL_VERSION_4_1PFPvPKcE+0x3e5>
    2aae:	ff d0                	call   rax
    2ab0:	48 89 05 00 00 00 00 	mov    QWORD PTR [rip+0x0],rax        # 2ab7 <_ZL19load_GL_VERSION_4_1PFPvPKcE+0x3ee>
    2ab7:	48 8b 45 f8          	mov    rax,QWORD PTR [rbp-0x8]
    2abb:	48 8d 3d 00 00 00 00 	lea    rdi,[rip+0x0]        # 2ac2 <_ZL19load_GL_VERSION_4_1PFPvPKcE+0x3f9>
    2ac2:	ff d0                	call   rax
    2ac4:	48 89 05 00 00 00 00 	mov    QWORD PTR [rip+0x0],rax        # 2acb <_ZL19load_GL_VERSION_4_1PFPvPKcE+0x402>
    2acb:	48 8b 45 f8          	mov    rax,QWORD PTR [rbp-0x8]
    2acf:	48 8d 3d 00 00 00 00 	lea    rdi,[rip+0x0]        # 2ad6 <_ZL19load_GL_VERSION_4_1PFPvPKcE+0x40d>
    2ad6:	ff d0                	call   rax
    2ad8:	48 89 05 00 00 00 00 	mov    QWORD PTR [rip+0x0],rax        # 2adf <_ZL19load_GL_VERSION_4_1PFPvPKcE+0x416>
    2adf:	48 8b 45 f8          	mov    rax,QWORD PTR [rbp-0x8]
    2ae3:	48 8d 3d 00 00 00 00 	lea    rdi,[rip+0x0]        # 2aea <_ZL19load_GL_VERSION_4_1PFPvPKcE+0x421>
    2aea:	ff d0                	call   rax
    2aec:	48 89 05 00 00 00 00 	mov    QWORD PTR [rip+0x0],rax        # 2af3 <_ZL19load_GL_VERSION_4_1PFPvPKcE+0x42a>
    2af3:	48 8b 45 f8          	mov    rax,QWORD PTR [rbp-0x8]
    2af7:	48 8d 3d 00 00 00 00 	lea    rdi,[rip+0x0]        # 2afe <_ZL19load_GL_VERSION_4_1PFPvPKcE+0x435>
    2afe:	ff d0                	call   rax
    2b00:	48 89 05 00 00 00 00 	mov    QWORD PTR [rip+0x0],rax        # 2b07 <_ZL19load_GL_VERSION_4_1PFPvPKcE+0x43e>
    2b07:	48 8b 45 f8          	mov    rax,QWORD PTR [rbp-0x8]
    2b0b:	48 8d 3d 00 00 00 00 	lea    rdi,[rip+0x0]        # 2b12 <_ZL19load_GL_VERSION_4_1PFPvPKcE+0x449>
    2b12:	ff d0                	call   rax
    2b14:	48 89 05 00 00 00 00 	mov    QWORD PTR [rip+0x0],rax        # 2b1b <_ZL19load_GL_VERSION_4_1PFPvPKcE+0x452>
    2b1b:	48 8b 45 f8          	mov    rax,QWORD PTR [rbp-0x8]
    2b1f:	48 8d 3d 00 00 00 00 	lea    rdi,[rip+0x0]        # 2b26 <_ZL19load_GL_VERSION_4_1PFPvPKcE+0x45d>
    2b26:	ff d0                	call   rax
    2b28:	48 89 05 00 00 00 00 	mov    QWORD PTR [rip+0x0],rax        # 2b2f <_ZL19load_GL_VERSION_4_1PFPvPKcE+0x466>
    2b2f:	48 8b 45 f8          	mov    rax,QWORD PTR [rbp-0x8]
    2b33:	48 8d 3d 00 00 00 00 	lea    rdi,[rip+0x0]        # 2b3a <_ZL19load_GL_VERSION_4_1PFPvPKcE+0x471>
    2b3a:	ff d0                	call   rax
    2b3c:	48 89 05 00 00 00 00 	mov    QWORD PTR [rip+0x0],rax        # 2b43 <_ZL19load_GL_VERSION_4_1PFPvPKcE+0x47a>
    2b43:	48 8b 45 f8          	mov    rax,QWORD PTR [rbp-0x8]
    2b47:	48 8d 3d 00 00 00 00 	lea    rdi,[rip+0x0]        # 2b4e <_ZL19load_GL_VERSION_4_1PFPvPKcE+0x485>
    2b4e:	ff d0                	call   rax
    2b50:	48 89 05 00 00 00 00 	mov    QWORD PTR [rip+0x0],rax        # 2b57 <_ZL19load_GL_VERSION_4_1PFPvPKcE+0x48e>
    2b57:	48 8b 45 f8          	mov    rax,QWORD PTR [rbp-0x8]
    2b5b:	48 8d 3d 00 00 00 00 	lea    rdi,[rip+0x0]        # 2b62 <_ZL19load_GL_VERSION_4_1PFPvPKcE+0x499>
    2b62:	ff d0                	call   rax
    2b64:	48 89 05 00 00 00 00 	mov    QWORD PTR [rip+0x0],rax        # 2b6b <_ZL19load_GL_VERSION_4_1PFPvPKcE+0x4a2>
    2b6b:	48 8b 45 f8          	mov    rax,QWORD PTR [rbp-0x8]
    2b6f:	48 8d 3d 00 00 00 00 	lea    rdi,[rip+0x0]        # 2b76 <_ZL19load_GL_VERSION_4_1PFPvPKcE+0x4ad>
    2b76:	ff d0                	call   rax
    2b78:	48 89 05 00 00 00 00 	mov    QWORD PTR [rip+0x0],rax        # 2b7f <_ZL19load_GL_VERSION_4_1PFPvPKcE+0x4b6>
    2b7f:	48 8b 45 f8          	mov    rax,QWORD PTR [rbp-0x8]
    2b83:	48 8d 3d 00 00 00 00 	lea    rdi,[rip+0x0]        # 2b8a <_ZL19load_GL_VERSION_4_1PFPvPKcE+0x4c1>
    2b8a:	ff d0                	call   rax
    2b8c:	48 89 05 00 00 00 00 	mov    QWORD PTR [rip+0x0],rax        # 2b93 <_ZL19load_GL_VERSION_4_1PFPvPKcE+0x4ca>
    2b93:	48 8b 45 f8          	mov    rax,QWORD PTR [rbp-0x8]
    2b97:	48 8d 3d 00 00 00 00 	lea    rdi,[rip+0x0]        # 2b9e <_ZL19load_GL_VERSION_4_1PFPvPKcE+0x4d5>
    2b9e:	ff d0                	call   rax
    2ba0:	48 89 05 00 00 00 00 	mov    QWORD PTR [rip+0x0],rax        # 2ba7 <_ZL19load_GL_VERSION_4_1PFPvPKcE+0x4de>
    2ba7:	48 8b 45 f8          	mov    rax,QWORD PTR [rbp-0x8]
    2bab:	48 8d 3d 00 00 00 00 	lea    rdi,[rip+0x0]        # 2bb2 <_ZL19load_GL_VERSION_4_1PFPvPKcE+0x4e9>
    2bb2:	ff d0                	call   rax
    2bb4:	48 89 05 00 00 00 00 	mov    QWORD PTR [rip+0x0],rax        # 2bbb <_ZL19load_GL_VERSION_4_1PFPvPKcE+0x4f2>
    2bbb:	48 8b 45 f8          	mov    rax,QWORD PTR [rbp-0x8]
    2bbf:	48 8d 3d 00 00 00 00 	lea    rdi,[rip+0x0]        # 2bc6 <_ZL19load_GL_VERSION_4_1PFPvPKcE+0x4fd>
    2bc6:	ff d0                	call   rax
    2bc8:	48 89 05 00 00 00 00 	mov    QWORD PTR [rip+0x0],rax        # 2bcf <_ZL19load_GL_VERSION_4_1PFPvPKcE+0x506>
    2bcf:	48 8b 45 f8          	mov    rax,QWORD PTR [rbp-0x8]
    2bd3:	48 8d 3d 00 00 00 00 	lea    rdi,[rip+0x0]        # 2bda <_ZL19load_GL_VERSION_4_1PFPvPKcE+0x511>
    2bda:	ff d0                	call   rax
    2bdc:	48 89 05 00 00 00 00 	mov    QWORD PTR [rip+0x0],rax        # 2be3 <_ZL19load_GL_VERSION_4_1PFPvPKcE+0x51a>
    2be3:	48 8b 45 f8          	mov    rax,QWORD PTR [rbp-0x8]
    2be7:	48 8d 3d 00 00 00 00 	lea    rdi,[rip+0x0]        # 2bee <_ZL19load_GL_VERSION_4_1PFPvPKcE+0x525>
    2bee:	ff d0                	call   rax
    2bf0:	48 89 05 00 00 00 00 	mov    QWORD PTR [rip+0x0],rax        # 2bf7 <_ZL19load_GL_VERSION_4_1PFPvPKcE+0x52e>
    2bf7:	48 8b 45 f8          	mov    rax,QWORD PTR [rbp-0x8]
    2bfb:	48 8d 3d 00 00 00 00 	lea    rdi,[rip+0x0]        # 2c02 <_ZL19load_GL_VERSION_4_1PFPvPKcE+0x539>
    2c02:	ff d0                	call   rax
    2c04:	48 89 05 00 00 00 00 	mov    QWORD PTR [rip+0x0],rax        # 2c0b <_ZL19load_GL_VERSION_4_1PFPvPKcE+0x542>
    2c0b:	48 8b 45 f8          	mov    rax,QWORD PTR [rbp-0x8]
    2c0f:	48 8d 3d 00 00 00 00 	lea    rdi,[rip+0x0]        # 2c16 <_ZL19load_GL_VERSION_4_1PFPvPKcE+0x54d>
    2c16:	ff d0                	call   rax
    2c18:	48 89 05 00 00 00 00 	mov    QWORD PTR [rip+0x0],rax        # 2c1f <_ZL19load_GL_VERSION_4_1PFPvPKcE+0x556>
    2c1f:	48 8b 45 f8          	mov    rax,QWORD PTR [rbp-0x8]
    2c23:	48 8d 3d 00 00 00 00 	lea    rdi,[rip+0x0]        # 2c2a <_ZL19load_GL_VERSION_4_1PFPvPKcE+0x561>
    2c2a:	ff d0                	call   rax
    2c2c:	48 89 05 00 00 00 00 	mov    QWORD PTR [rip+0x0],rax        # 2c33 <_ZL19load_GL_VERSION_4_1PFPvPKcE+0x56a>
    2c33:	48 8b 45 f8          	mov    rax,QWORD PTR [rbp-0x8]
    2c37:	48 8d 3d 00 00 00 00 	lea    rdi,[rip+0x0]        # 2c3e <_ZL19load_GL_VERSION_4_1PFPvPKcE+0x575>
    2c3e:	ff d0                	call   rax
    2c40:	48 89 05 00 00 00 00 	mov    QWORD PTR [rip+0x0],rax        # 2c47 <_ZL19load_GL_VERSION_4_1PFPvPKcE+0x57e>
    2c47:	48 8b 45 f8          	mov    rax,QWORD PTR [rbp-0x8]
    2c4b:	48 8d 3d 00 00 00 00 	lea    rdi,[rip+0x0]        # 2c52 <_ZL19load_GL_VERSION_4_1PFPvPKcE+0x589>
    2c52:	ff d0                	call   rax
    2c54:	48 89 05 00 00 00 00 	mov    QWORD PTR [rip+0x0],rax        # 2c5b <_ZL19load_GL_VERSION_4_1PFPvPKcE+0x592>
    2c5b:	48 8b 45 f8          	mov    rax,QWORD PTR [rbp-0x8]
    2c5f:	48 8d 3d 00 00 00 00 	lea    rdi,[rip+0x0]        # 2c66 <_ZL19load_GL_VERSION_4_1PFPvPKcE+0x59d>
    2c66:	ff d0                	call   rax
    2c68:	48 89 05 00 00 00 00 	mov    QWORD PTR [rip+0x0],rax        # 2c6f <_ZL19load_GL_VERSION_4_1PFPvPKcE+0x5a6>
    2c6f:	48 8b 45 f8          	mov    rax,QWORD PTR [rbp-0x8]
    2c73:	48 8d 3d 00 00 00 00 	lea    rdi,[rip+0x0]        # 2c7a <_ZL19load_GL_VERSION_4_1PFPvPKcE+0x5b1>
    2c7a:	ff d0                	call   rax
    2c7c:	48 89 05 00 00 00 00 	mov    QWORD PTR [rip+0x0],rax        # 2c83 <_ZL19load_GL_VERSION_4_1PFPvPKcE+0x5ba>
    2c83:	48 8b 45 f8          	mov    rax,QWORD PTR [rbp-0x8]
    2c87:	48 8d 3d 00 00 00 00 	lea    rdi,[rip+0x0]        # 2c8e <_ZL19load_GL_VERSION_4_1PFPvPKcE+0x5c5>
    2c8e:	ff d0                	call   rax
    2c90:	48 89 05 00 00 00 00 	mov    QWORD PTR [rip+0x0],rax        # 2c97 <_ZL19load_GL_VERSION_4_1PFPvPKcE+0x5ce>
    2c97:	48 8b 45 f8          	mov    rax,QWORD PTR [rbp-0x8]
    2c9b:	48 8d 3d 00 00 00 00 	lea    rdi,[rip+0x0]        # 2ca2 <_ZL19load_GL_VERSION_4_1PFPvPKcE+0x5d9>
    2ca2:	ff d0                	call   rax
    2ca4:	48 89 05 00 00 00 00 	mov    QWORD PTR [rip+0x0],rax        # 2cab <_ZL19load_GL_VERSION_4_1PFPvPKcE+0x5e2>
    2cab:	48 8b 45 f8          	mov    rax,QWORD PTR [rbp-0x8]
    2caf:	48 8d 3d 00 00 00 00 	lea    rdi,[rip+0x0]        # 2cb6 <_ZL19load_GL_VERSION_4_1PFPvPKcE+0x5ed>
    2cb6:	ff d0                	call   rax
    2cb8:	48 89 05 00 00 00 00 	mov    QWORD PTR [rip+0x0],rax        # 2cbf <_ZL19load_GL_VERSION_4_1PFPvPKcE+0x5f6>
    2cbf:	48 8b 45 f8          	mov    rax,QWORD PTR [rbp-0x8]
    2cc3:	48 8d 3d 00 00 00 00 	lea    rdi,[rip+0x0]        # 2cca <_ZL19load_GL_VERSION_4_1PFPvPKcE+0x601>
    2cca:	ff d0                	call   rax
    2ccc:	48 89 05 00 00 00 00 	mov    QWORD PTR [rip+0x0],rax        # 2cd3 <_ZL19load_GL_VERSION_4_1PFPvPKcE+0x60a>
    2cd3:	48 8b 45 f8          	mov    rax,QWORD PTR [rbp-0x8]
    2cd7:	48 8d 3d 00 00 00 00 	lea    rdi,[rip+0x0]        # 2cde <_ZL19load_GL_VERSION_4_1PFPvPKcE+0x615>
    2cde:	ff d0                	call   rax
    2ce0:	48 89 05 00 00 00 00 	mov    QWORD PTR [rip+0x0],rax        # 2ce7 <_ZL19load_GL_VERSION_4_1PFPvPKcE+0x61e>
    2ce7:	48 8b 45 f8          	mov    rax,QWORD PTR [rbp-0x8]
    2ceb:	48 8d 3d 00 00 00 00 	lea    rdi,[rip+0x0]        # 2cf2 <_ZL19load_GL_VERSION_4_1PFPvPKcE+0x629>
    2cf2:	ff d0                	call   rax
    2cf4:	48 89 05 00 00 00 00 	mov    QWORD PTR [rip+0x0],rax        # 2cfb <_ZL19load_GL_VERSION_4_1PFPvPKcE+0x632>
    2cfb:	48 8b 45 f8          	mov    rax,QWORD PTR [rbp-0x8]
    2cff:	48 8d 3d 00 00 00 00 	lea    rdi,[rip+0x0]        # 2d06 <_ZL19load_GL_VERSION_4_1PFPvPKcE+0x63d>
    2d06:	ff d0                	call   rax
    2d08:	48 89 05 00 00 00 00 	mov    QWORD PTR [rip+0x0],rax        # 2d0f <_ZL19load_GL_VERSION_4_1PFPvPKcE+0x646>
    2d0f:	48 8b 45 f8          	mov    rax,QWORD PTR [rbp-0x8]
    2d13:	48 8d 3d 00 00 00 00 	lea    rdi,[rip+0x0]        # 2d1a <_ZL19load_GL_VERSION_4_1PFPvPKcE+0x651>
    2d1a:	ff d0                	call   rax
    2d1c:	48 89 05 00 00 00 00 	mov    QWORD PTR [rip+0x0],rax        # 2d23 <_ZL19load_GL_VERSION_4_1PFPvPKcE+0x65a>
    2d23:	48 8b 45 f8          	mov    rax,QWORD PTR [rbp-0x8]
    2d27:	48 8d 3d 00 00 00 00 	lea    rdi,[rip+0x0]        # 2d2e <_ZL19load_GL_VERSION_4_1PFPvPKcE+0x665>
    2d2e:	ff d0                	call   rax
    2d30:	48 89 05 00 00 00 00 	mov    QWORD PTR [rip+0x0],rax        # 2d37 <_ZL19load_GL_VERSION_4_1PFPvPKcE+0x66e>
    2d37:	48 8b 45 f8          	mov    rax,QWORD PTR [rbp-0x8]
    2d3b:	48 8d 3d 00 00 00 00 	lea    rdi,[rip+0x0]        # 2d42 <_ZL19load_GL_VERSION_4_1PFPvPKcE+0x679>
    2d42:	ff d0                	call   rax
    2d44:	48 89 05 00 00 00 00 	mov    QWORD PTR [rip+0x0],rax        # 2d4b <_ZL19load_GL_VERSION_4_1PFPvPKcE+0x682>
    2d4b:	48 8b 45 f8          	mov    rax,QWORD PTR [rbp-0x8]
    2d4f:	48 8d 3d 00 00 00 00 	lea    rdi,[rip+0x0]        # 2d56 <_ZL19load_GL_VERSION_4_1PFPvPKcE+0x68d>
    2d56:	ff d0                	call   rax
    2d58:	48 89 05 00 00 00 00 	mov    QWORD PTR [rip+0x0],rax        # 2d5f <_ZL19load_GL_VERSION_4_1PFPvPKcE+0x696>
    2d5f:	48 8b 45 f8          	mov    rax,QWORD PTR [rbp-0x8]
    2d63:	48 8d 3d 00 00 00 00 	lea    rdi,[rip+0x0]        # 2d6a <_ZL19load_GL_VERSION_4_1PFPvPKcE+0x6a1>
    2d6a:	ff d0                	call   rax
    2d6c:	48 89 05 00 00 00 00 	mov    QWORD PTR [rip+0x0],rax        # 2d73 <_ZL19load_GL_VERSION_4_1PFPvPKcE+0x6aa>
    2d73:	48 8b 45 f8          	mov    rax,QWORD PTR [rbp-0x8]
    2d77:	48 8d 3d 00 00 00 00 	lea    rdi,[rip+0x0]        # 2d7e <_ZL19load_GL_VERSION_4_1PFPvPKcE+0x6b5>
    2d7e:	ff d0                	call   rax
    2d80:	48 89 05 00 00 00 00 	mov    QWORD PTR [rip+0x0],rax        # 2d87 <_ZL19load_GL_VERSION_4_1PFPvPKcE+0x6be>
    2d87:	48 8b 45 f8          	mov    rax,QWORD PTR [rbp-0x8]
    2d8b:	48 8d 3d 00 00 00 00 	lea    rdi,[rip+0x0]        # 2d92 <_ZL19load_GL_VERSION_4_1PFPvPKcE+0x6c9>
    2d92:	ff d0                	call   rax
    2d94:	48 89 05 00 00 00 00 	mov    QWORD PTR [rip+0x0],rax        # 2d9b <_ZL19load_GL_VERSION_4_1PFPvPKcE+0x6d2>
    2d9b:	48 8b 45 f8          	mov    rax,QWORD PTR [rbp-0x8]
    2d9f:	48 8d 3d 00 00 00 00 	lea    rdi,[rip+0x0]        # 2da6 <_ZL19load_GL_VERSION_4_1PFPvPKcE+0x6dd>
    2da6:	ff d0                	call   rax
    2da8:	48 89 05 00 00 00 00 	mov    QWORD PTR [rip+0x0],rax        # 2daf <_ZL19load_GL_VERSION_4_1PFPvPKcE+0x6e6>
    2daf:	48 8b 45 f8          	mov    rax,QWORD PTR [rbp-0x8]
    2db3:	48 8d 3d 00 00 00 00 	lea    rdi,[rip+0x0]        # 2dba <_ZL19load_GL_VERSION_4_1PFPvPKcE+0x6f1>
    2dba:	ff d0                	call   rax
    2dbc:	48 89 05 00 00 00 00 	mov    QWORD PTR [rip+0x0],rax        # 2dc3 <_ZL19load_GL_VERSION_4_1PFPvPKcE+0x6fa>
    2dc3:	48 8b 45 f8          	mov    rax,QWORD PTR [rbp-0x8]
    2dc7:	48 8d 3d 00 00 00 00 	lea    rdi,[rip+0x0]        # 2dce <_ZL19load_GL_VERSION_4_1PFPvPKcE+0x705>
    2dce:	ff d0                	call   rax
    2dd0:	48 89 05 00 00 00 00 	mov    QWORD PTR [rip+0x0],rax        # 2dd7 <_ZL19load_GL_VERSION_4_1PFPvPKcE+0x70e>
    2dd7:	eb 01                	jmp    2dda <_ZL19load_GL_VERSION_4_1PFPvPKcE+0x711>
    2dd9:	90                   	nop
    2dda:	c9                   	leave  
    2ddb:	c3                   	ret    

0000000000002ddc <_ZL19load_GL_VERSION_4_2PFPvPKcE>:
    2ddc:	55                   	push   rbp
    2ddd:	48 89 e5             	mov    rbp,rsp
    2de0:	48 83 ec 10          	sub    rsp,0x10
    2de4:	48 89 7d f8          	mov    QWORD PTR [rbp-0x8],rdi
    2de8:	8b 05 00 00 00 00    	mov    eax,DWORD PTR [rip+0x0]        # 2dee <_ZL19load_GL_VERSION_4_2PFPvPKcE+0x12>
    2dee:	85 c0                	test   eax,eax
    2df0:	0f 84 f2 00 00 00    	je     2ee8 <_ZL19load_GL_VERSION_4_2PFPvPKcE+0x10c>
    2df6:	48 8b 45 f8          	mov    rax,QWORD PTR [rbp-0x8]
    2dfa:	48 8d 3d 00 00 00 00 	lea    rdi,[rip+0x0]        # 2e01 <_ZL19load_GL_VERSION_4_2PFPvPKcE+0x25>
    2e01:	ff d0                	call   rax
    2e03:	48 89 05 00 00 00 00 	mov    QWORD PTR [rip+0x0],rax        # 2e0a <_ZL19load_GL_VERSION_4_2PFPvPKcE+0x2e>
    2e0a:	48 8b 45 f8          	mov    rax,QWORD PTR [rbp-0x8]
    2e0e:	48 8d 3d 00 00 00 00 	lea    rdi,[rip+0x0]        # 2e15 <_ZL19load_GL_VERSION_4_2PFPvPKcE+0x39>
    2e15:	ff d0                	call   rax
    2e17:	48 89 05 00 00 00 00 	mov    QWORD PTR [rip+0x0],rax        # 2e1e <_ZL19load_GL_VERSION_4_2PFPvPKcE+0x42>
    2e1e:	48 8b 45 f8          	mov    rax,QWORD PTR [rbp-0x8]
    2e22:	48 8d 3d 00 00 00 00 	lea    rdi,[rip+0x0]        # 2e29 <_ZL19load_GL_VERSION_4_2PFPvPKcE+0x4d>
    2e29:	ff d0                	call   rax
    2e2b:	48 89 05 00 00 00 00 	mov    QWORD PTR [rip+0x0],rax        # 2e32 <_ZL19load_GL_VERSION_4_2PFPvPKcE+0x56>
    2e32:	48 8b 45 f8          	mov    rax,QWORD PTR [rbp-0x8]
    2e36:	48 8d 3d 00 00 00 00 	lea    rdi,[rip+0x0]        # 2e3d <_ZL19load_GL_VERSION_4_2PFPvPKcE+0x61>
    2e3d:	ff d0                	call   rax
    2e3f:	48 89 05 00 00 00 00 	mov    QWORD PTR [rip+0x0],rax        # 2e46 <_ZL19load_GL_VERSION_4_2PFPvPKcE+0x6a>
    2e46:	48 8b 45 f8          	mov    rax,QWORD PTR [rbp-0x8]
    2e4a:	48 8d 3d 00 00 00 00 	lea    rdi,[rip+0x0]        # 2e51 <_ZL19load_GL_VERSION_4_2PFPvPKcE+0x75>
    2e51:	ff d0                	call   rax
    2e53:	48 89 05 00 00 00 00 	mov    QWORD PTR [rip+0x0],rax        # 2e5a <_ZL19load_GL_VERSION_4_2PFPvPKcE+0x7e>
    2e5a:	48 8b 45 f8          	mov    rax,QWORD PTR [rbp-0x8]
    2e5e:	48 8d 3d 00 00 00 00 	lea    rdi,[rip+0x0]        # 2e65 <_ZL19load_GL_VERSION_4_2PFPvPKcE+0x89>
    2e65:	ff d0                	call   rax
    2e67:	48 89 05 00 00 00 00 	mov    QWORD PTR [rip+0x0],rax        # 2e6e <_ZL19load_GL_VERSION_4_2PFPvPKcE+0x92>
    2e6e:	48 8b 45 f8          	mov    rax,QWORD PTR [rbp-0x8]
    2e72:	48 8d 3d 00 00 00 00 	lea    rdi,[rip+0x0]        # 2e79 <_ZL19load_GL_VERSION_4_2PFPvPKcE+0x9d>
    2e79:	ff d0                	call   rax
    2e7b:	48 89 05 00 00 00 00 	mov    QWORD PTR [rip+0x0],rax        # 2e82 <_ZL19load_GL_VERSION_4_2PFPvPKcE+0xa6>
    2e82:	48 8b 45 f8          	mov    rax,QWORD PTR [rbp-0x8]
    2e86:	48 8d 3d 00 00 00 00 	lea    rdi,[rip+0x0]        # 2e8d <_ZL19load_GL_VERSION_4_2PFPvPKcE+0xb1>
    2e8d:	ff d0                	call   rax
    2e8f:	48 89 05 00 00 00 00 	mov    QWORD PTR [rip+0x0],rax        # 2e96 <_ZL19load_GL_VERSION_4_2PFPvPKcE+0xba>
    2e96:	48 8b 45 f8          	mov    rax,QWORD PTR [rbp-0x8]
    2e9a:	48 8d 3d 00 00 00 00 	lea    rdi,[rip+0x0]        # 2ea1 <_ZL19load_GL_VERSION_4_2PFPvPKcE+0xc5>
    2ea1:	ff d0                	call   rax
    2ea3:	48 89 05 00 00 00 00 	mov    QWORD PTR [rip+0x0],rax        # 2eaa <_ZL19load_GL_VERSION_4_2PFPvPKcE+0xce>
    2eaa:	48 8b 45 f8          	mov    rax,QWORD PTR [rbp-0x8]
    2eae:	48 8d 3d 00 00 00 00 	lea    rdi,[rip+0x0]        # 2eb5 <_ZL19load_GL_VERSION_4_2PFPvPKcE+0xd9>
    2eb5:	ff d0                	call   rax
    2eb7:	48 89 05 00 00 00 00 	mov    QWORD PTR [rip+0x0],rax        # 2ebe <_ZL19load_GL_VERSION_4_2PFPvPKcE+0xe2>
    2ebe:	48 8b 45 f8          	mov    rax,QWORD PTR [rbp-0x8]
    2ec2:	48 8d 3d 00 00 00 00 	lea    rdi,[rip+0x0]        # 2ec9 <_ZL19load_GL_VERSION_4_2PFPvPKcE+0xed>
    2ec9:	ff d0                	call   rax
    2ecb:	48 89 05 00 00 00 00 	mov    QWORD PTR [rip+0x0],rax        # 2ed2 <_ZL19load_GL_VERSION_4_2PFPvPKcE+0xf6>
    2ed2:	48 8b 45 f8          	mov    rax,QWORD PTR [rbp-0x8]
    2ed6:	48 8d 3d 00 00 00 00 	lea    rdi,[rip+0x0]        # 2edd <_ZL19load_GL_VERSION_4_2PFPvPKcE+0x101>
    2edd:	ff d0                	call   rax
    2edf:	48 89 05 00 00 00 00 	mov    QWORD PTR [rip+0x0],rax        # 2ee6 <_ZL19load_GL_VERSION_4_2PFPvPKcE+0x10a>
    2ee6:	eb 01                	jmp    2ee9 <_ZL19load_GL_VERSION_4_2PFPvPKcE+0x10d>
    2ee8:	90                   	nop
    2ee9:	c9                   	leave  
    2eea:	c3                   	ret    

0000000000002eeb <_ZL19load_GL_VERSION_4_3PFPvPKcE>:
    2eeb:	55                   	push   rbp
    2eec:	48 89 e5             	mov    rbp,rsp
    2eef:	48 83 ec 10          	sub    rsp,0x10
    2ef3:	48 89 7d f8          	mov    QWORD PTR [rbp-0x8],rdi
    2ef7:	8b 05 00 00 00 00    	mov    eax,DWORD PTR [rip+0x0]        # 2efd <_ZL19load_GL_VERSION_4_3PFPvPKcE+0x12>
    2efd:	85 c0                	test   eax,eax
    2eff:	0f 84 72 03 00 00    	je     3277 <_ZL19load_GL_VERSION_4_3PFPvPKcE+0x38c>
    2f05:	48 8b 45 f8          	mov    rax,QWORD PTR [rbp-0x8]
    2f09:	48 8d 3d 00 00 00 00 	lea    rdi,[rip+0x0]        # 2f10 <_ZL19load_GL_VERSION_4_3PFPvPKcE+0x25>
    2f10:	ff d0                	call   rax
    2f12:	48 89 05 00 00 00 00 	mov    QWORD PTR [rip+0x0],rax        # 2f19 <_ZL19load_GL_VERSION_4_3PFPvPKcE+0x2e>
    2f19:	48 8b 45 f8          	mov    rax,QWORD PTR [rbp-0x8]
    2f1d:	48 8d 3d 00 00 00 00 	lea    rdi,[rip+0x0]        # 2f24 <_ZL19load_GL_VERSION_4_3PFPvPKcE+0x39>
    2f24:	ff d0                	call   rax
    2f26:	48 89 05 00 00 00 00 	mov    QWORD PTR [rip+0x0],rax        # 2f2d <_ZL19load_GL_VERSION_4_3PFPvPKcE+0x42>
    2f2d:	48 8b 45 f8          	mov    rax,QWORD PTR [rbp-0x8]
    2f31:	48 8d 3d 00 00 00 00 	lea    rdi,[rip+0x0]        # 2f38 <_ZL19load_GL_VERSION_4_3PFPvPKcE+0x4d>
    2f38:	ff d0                	call   rax
    2f3a:	48 89 05 00 00 00 00 	mov    QWORD PTR [rip+0x0],rax        # 2f41 <_ZL19load_GL_VERSION_4_3PFPvPKcE+0x56>
    2f41:	48 8b 45 f8          	mov    rax,QWORD PTR [rbp-0x8]
    2f45:	48 8d 3d 00 00 00 00 	lea    rdi,[rip+0x0]        # 2f4c <_ZL19load_GL_VERSION_4_3PFPvPKcE+0x61>
    2f4c:	ff d0                	call   rax
    2f4e:	48 89 05 00 00 00 00 	mov    QWORD PTR [rip+0x0],rax        # 2f55 <_ZL19load_GL_VERSION_4_3PFPvPKcE+0x6a>
    2f55:	48 8b 45 f8          	mov    rax,QWORD PTR [rbp-0x8]
    2f59:	48 8d 3d 00 00 00 00 	lea    rdi,[rip+0x0]        # 2f60 <_ZL19load_GL_VERSION_4_3PFPvPKcE+0x75>
    2f60:	ff d0                	call   rax
    2f62:	48 89 05 00 00 00 00 	mov    QWORD PTR [rip+0x0],rax        # 2f69 <_ZL19load_GL_VERSION_4_3PFPvPKcE+0x7e>
    2f69:	48 8b 45 f8          	mov    rax,QWORD PTR [rbp-0x8]
    2f6d:	48 8d 3d 00 00 00 00 	lea    rdi,[rip+0x0]        # 2f74 <_ZL19load_GL_VERSION_4_3PFPvPKcE+0x89>
    2f74:	ff d0                	call   rax
    2f76:	48 89 05 00 00 00 00 	mov    QWORD PTR [rip+0x0],rax        # 2f7d <_ZL19load_GL_VERSION_4_3PFPvPKcE+0x92>
    2f7d:	48 8b 45 f8          	mov    rax,QWORD PTR [rbp-0x8]
    2f81:	48 8d 3d 00 00 00 00 	lea    rdi,[rip+0x0]        # 2f88 <_ZL19load_GL_VERSION_4_3PFPvPKcE+0x9d>
    2f88:	ff d0                	call   rax
    2f8a:	48 89 05 00 00 00 00 	mov    QWORD PTR [rip+0x0],rax        # 2f91 <_ZL19load_GL_VERSION_4_3PFPvPKcE+0xa6>
    2f91:	48 8b 45 f8          	mov    rax,QWORD PTR [rbp-0x8]
    2f95:	48 8d 3d 00 00 00 00 	lea    rdi,[rip+0x0]        # 2f9c <_ZL19load_GL_VERSION_4_3PFPvPKcE+0xb1>
    2f9c:	ff d0                	call   rax
    2f9e:	48 89 05 00 00 00 00 	mov    QWORD PTR [rip+0x0],rax        # 2fa5 <_ZL19load_GL_VERSION_4_3PFPvPKcE+0xba>
    2fa5:	48 8b 45 f8          	mov    rax,QWORD PTR [rbp-0x8]
    2fa9:	48 8d 3d 00 00 00 00 	lea    rdi,[rip+0x0]        # 2fb0 <_ZL19load_GL_VERSION_4_3PFPvPKcE+0xc5>
    2fb0:	ff d0                	call   rax
    2fb2:	48 89 05 00 00 00 00 	mov    QWORD PTR [rip+0x0],rax        # 2fb9 <_ZL19load_GL_VERSION_4_3PFPvPKcE+0xce>
    2fb9:	48 8b 45 f8          	mov    rax,QWORD PTR [rbp-0x8]
    2fbd:	48 8d 3d 00 00 00 00 	lea    rdi,[rip+0x0]        # 2fc4 <_ZL19load_GL_VERSION_4_3PFPvPKcE+0xd9>
    2fc4:	ff d0                	call   rax
    2fc6:	48 89 05 00 00 00 00 	mov    QWORD PTR [rip+0x0],rax        # 2fcd <_ZL19load_GL_VERSION_4_3PFPvPKcE+0xe2>
    2fcd:	48 8b 45 f8          	mov    rax,QWORD PTR [rbp-0x8]
    2fd1:	48 8d 3d 00 00 00 00 	lea    rdi,[rip+0x0]        # 2fd8 <_ZL19load_GL_VERSION_4_3PFPvPKcE+0xed>
    2fd8:	ff d0                	call   rax
    2fda:	48 89 05 00 00 00 00 	mov    QWORD PTR [rip+0x0],rax        # 2fe1 <_ZL19load_GL_VERSION_4_3PFPvPKcE+0xf6>
    2fe1:	48 8b 45 f8          	mov    rax,QWORD PTR [rbp-0x8]
    2fe5:	48 8d 3d 00 00 00 00 	lea    rdi,[rip+0x0]        # 2fec <_ZL19load_GL_VERSION_4_3PFPvPKcE+0x101>
    2fec:	ff d0                	call   rax
    2fee:	48 89 05 00 00 00 00 	mov    QWORD PTR [rip+0x0],rax        # 2ff5 <_ZL19load_GL_VERSION_4_3PFPvPKcE+0x10a>
    2ff5:	48 8b 45 f8          	mov    rax,QWORD PTR [rbp-0x8]
    2ff9:	48 8d 3d 00 00 00 00 	lea    rdi,[rip+0x0]        # 3000 <_ZL19load_GL_VERSION_4_3PFPvPKcE+0x115>
    3000:	ff d0                	call   rax
    3002:	48 89 05 00 00 00 00 	mov    QWORD PTR [rip+0x0],rax        # 3009 <_ZL19load_GL_VERSION_4_3PFPvPKcE+0x11e>
    3009:	48 8b 45 f8          	mov    rax,QWORD PTR [rbp-0x8]
    300d:	48 8d 3d 00 00 00 00 	lea    rdi,[rip+0x0]        # 3014 <_ZL19load_GL_VERSION_4_3PFPvPKcE+0x129>
    3014:	ff d0                	call   rax
    3016:	48 89 05 00 00 00 00 	mov    QWORD PTR [rip+0x0],rax        # 301d <_ZL19load_GL_VERSION_4_3PFPvPKcE+0x132>
    301d:	48 8b 45 f8          	mov    rax,QWORD PTR [rbp-0x8]
    3021:	48 8d 3d 00 00 00 00 	lea    rdi,[rip+0x0]        # 3028 <_ZL19load_GL_VERSION_4_3PFPvPKcE+0x13d>
    3028:	ff d0                	call   rax
    302a:	48 89 05 00 00 00 00 	mov    QWORD PTR [rip+0x0],rax        # 3031 <_ZL19load_GL_VERSION_4_3PFPvPKcE+0x146>
    3031:	48 8b 45 f8          	mov    rax,QWORD PTR [rbp-0x8]
    3035:	48 8d 3d 00 00 00 00 	lea    rdi,[rip+0x0]        # 303c <_ZL19load_GL_VERSION_4_3PFPvPKcE+0x151>
    303c:	ff d0                	call   rax
    303e:	48 89 05 00 00 00 00 	mov    QWORD PTR [rip+0x0],rax        # 3045 <_ZL19load_GL_VERSION_4_3PFPvPKcE+0x15a>
    3045:	48 8b 45 f8          	mov    rax,QWORD PTR [rbp-0x8]
    3049:	48 8d 3d 00 00 00 00 	lea    rdi,[rip+0x0]        # 3050 <_ZL19load_GL_VERSION_4_3PFPvPKcE+0x165>
    3050:	ff d0                	call   rax
    3052:	48 89 05 00 00 00 00 	mov    QWORD PTR [rip+0x0],rax        # 3059 <_ZL19load_GL_VERSION_4_3PFPvPKcE+0x16e>
    3059:	48 8b 45 f8          	mov    rax,QWORD PTR [rbp-0x8]
    305d:	48 8d 3d 00 00 00 00 	lea    rdi,[rip+0x0]        # 3064 <_ZL19load_GL_VERSION_4_3PFPvPKcE+0x179>
    3064:	ff d0                	call   rax
    3066:	48 89 05 00 00 00 00 	mov    QWORD PTR [rip+0x0],rax        # 306d <_ZL19load_GL_VERSION_4_3PFPvPKcE+0x182>
    306d:	48 8b 45 f8          	mov    rax,QWORD PTR [rbp-0x8]
    3071:	48 8d 3d 00 00 00 00 	lea    rdi,[rip+0x0]        # 3078 <_ZL19load_GL_VERSION_4_3PFPvPKcE+0x18d>
    3078:	ff d0                	call   rax
    307a:	48 89 05 00 00 00 00 	mov    QWORD PTR [rip+0x0],rax        # 3081 <_ZL19load_GL_VERSION_4_3PFPvPKcE+0x196>
    3081:	48 8b 45 f8          	mov    rax,QWORD PTR [rbp-0x8]
    3085:	48 8d 3d 00 00 00 00 	lea    rdi,[rip+0x0]        # 308c <_ZL19load_GL_VERSION_4_3PFPvPKcE+0x1a1>
    308c:	ff d0                	call   rax
    308e:	48 89 05 00 00 00 00 	mov    QWORD PTR [rip+0x0],rax        # 3095 <_ZL19load_GL_VERSION_4_3PFPvPKcE+0x1aa>
    3095:	48 8b 45 f8          	mov    rax,QWORD PTR [rbp-0x8]
    3099:	48 8d 3d 00 00 00 00 	lea    rdi,[rip+0x0]        # 30a0 <_ZL19load_GL_VERSION_4_3PFPvPKcE+0x1b5>
    30a0:	ff d0                	call   rax
    30a2:	48 89 05 00 00 00 00 	mov    QWORD PTR [rip+0x0],rax        # 30a9 <_ZL19load_GL_VERSION_4_3PFPvPKcE+0x1be>
    30a9:	48 8b 45 f8          	mov    rax,QWORD PTR [rbp-0x8]
    30ad:	48 8d 3d 00 00 00 00 	lea    rdi,[rip+0x0]        # 30b4 <_ZL19load_GL_VERSION_4_3PFPvPKcE+0x1c9>
    30b4:	ff d0                	call   rax
    30b6:	48 89 05 00 00 00 00 	mov    QWORD PTR [rip+0x0],rax        # 30bd <_ZL19load_GL_VERSION_4_3PFPvPKcE+0x1d2>
    30bd:	48 8b 45 f8          	mov    rax,QWORD PTR [rbp-0x8]
    30c1:	48 8d 3d 00 00 00 00 	lea    rdi,[rip+0x0]        # 30c8 <_ZL19load_GL_VERSION_4_3PFPvPKcE+0x1dd>
    30c8:	ff d0                	call   rax
    30ca:	48 89 05 00 00 00 00 	mov    QWORD PTR [rip+0x0],rax        # 30d1 <_ZL19load_GL_VERSION_4_3PFPvPKcE+0x1e6>
    30d1:	48 8b 45 f8          	mov    rax,QWORD PTR [rbp-0x8]
    30d5:	48 8d 3d 00 00 00 00 	lea    rdi,[rip+0x0]        # 30dc <_ZL19load_GL_VERSION_4_3PFPvPKcE+0x1f1>
    30dc:	ff d0                	call   rax
    30de:	48 89 05 00 00 00 00 	mov    QWORD PTR [rip+0x0],rax        # 30e5 <_ZL19load_GL_VERSION_4_3PFPvPKcE+0x1fa>
    30e5:	48 8b 45 f8          	mov    rax,QWORD PTR [rbp-0x8]
    30e9:	48 8d 3d 00 00 00 00 	lea    rdi,[rip+0x0]        # 30f0 <_ZL19load_GL_VERSION_4_3PFPvPKcE+0x205>
    30f0:	ff d0                	call   rax
    30f2:	48 89 05 00 00 00 00 	mov    QWORD PTR [rip+0x0],rax        # 30f9 <_ZL19load_GL_VERSION_4_3PFPvPKcE+0x20e>
    30f9:	48 8b 45 f8          	mov    rax,QWORD PTR [rbp-0x8]
    30fd:	48 8d 3d 00 00 00 00 	lea    rdi,[rip+0x0]        # 3104 <_ZL19load_GL_VERSION_4_3PFPvPKcE+0x219>
    3104:	ff d0                	call   rax
    3106:	48 89 05 00 00 00 00 	mov    QWORD PTR [rip+0x0],rax        # 310d <_ZL19load_GL_VERSION_4_3PFPvPKcE+0x222>
    310d:	48 8b 45 f8          	mov    rax,QWORD PTR [rbp-0x8]
    3111:	48 8d 3d 00 00 00 00 	lea    rdi,[rip+0x0]        # 3118 <_ZL19load_GL_VERSION_4_3PFPvPKcE+0x22d>
    3118:	ff d0                	call   rax
    311a:	48 89 05 00 00 00 00 	mov    QWORD PTR [rip+0x0],rax        # 3121 <_ZL19load_GL_VERSION_4_3PFPvPKcE+0x236>
    3121:	48 8b 45 f8          	mov    rax,QWORD PTR [rbp-0x8]
    3125:	48 8d 3d 00 00 00 00 	lea    rdi,[rip+0x0]        # 312c <_ZL19load_GL_VERSION_4_3PFPvPKcE+0x241>
    312c:	ff d0                	call   rax
    312e:	48 89 05 00 00 00 00 	mov    QWORD PTR [rip+0x0],rax        # 3135 <_ZL19load_GL_VERSION_4_3PFPvPKcE+0x24a>
    3135:	48 8b 45 f8          	mov    rax,QWORD PTR [rbp-0x8]
    3139:	48 8d 3d 00 00 00 00 	lea    rdi,[rip+0x0]        # 3140 <_ZL19load_GL_VERSION_4_3PFPvPKcE+0x255>
    3140:	ff d0                	call   rax
    3142:	48 89 05 00 00 00 00 	mov    QWORD PTR [rip+0x0],rax        # 3149 <_ZL19load_GL_VERSION_4_3PFPvPKcE+0x25e>
    3149:	48 8b 45 f8          	mov    rax,QWORD PTR [rbp-0x8]
    314d:	48 8d 3d 00 00 00 00 	lea    rdi,[rip+0x0]        # 3154 <_ZL19load_GL_VERSION_4_3PFPvPKcE+0x269>
    3154:	ff d0                	call   rax
    3156:	48 89 05 00 00 00 00 	mov    QWORD PTR [rip+0x0],rax        # 315d <_ZL19load_GL_VERSION_4_3PFPvPKcE+0x272>
    315d:	48 8b 45 f8          	mov    rax,QWORD PTR [rbp-0x8]
    3161:	48 8d 3d 00 00 00 00 	lea    rdi,[rip+0x0]        # 3168 <_ZL19load_GL_VERSION_4_3PFPvPKcE+0x27d>
    3168:	ff d0                	call   rax
    316a:	48 89 05 00 00 00 00 	mov    QWORD PTR [rip+0x0],rax        # 3171 <_ZL19load_GL_VERSION_4_3PFPvPKcE+0x286>
    3171:	48 8b 45 f8          	mov    rax,QWORD PTR [rbp-0x8]
    3175:	48 8d 3d 00 00 00 00 	lea    rdi,[rip+0x0]        # 317c <_ZL19load_GL_VERSION_4_3PFPvPKcE+0x291>
    317c:	ff d0                	call   rax
    317e:	48 89 05 00 00 00 00 	mov    QWORD PTR [rip+0x0],rax        # 3185 <_ZL19load_GL_VERSION_4_3PFPvPKcE+0x29a>
    3185:	48 8b 45 f8          	mov    rax,QWORD PTR [rbp-0x8]
    3189:	48 8d 3d 00 00 00 00 	lea    rdi,[rip+0x0]        # 3190 <_ZL19load_GL_VERSION_4_3PFPvPKcE+0x2a5>
    3190:	ff d0                	call   rax
    3192:	48 89 05 00 00 00 00 	mov    QWORD PTR [rip+0x0],rax        # 3199 <_ZL19load_GL_VERSION_4_3PFPvPKcE+0x2ae>
    3199:	48 8b 45 f8          	mov    rax,QWORD PTR [rbp-0x8]
    319d:	48 8d 3d 00 00 00 00 	lea    rdi,[rip+0x0]        # 31a4 <_ZL19load_GL_VERSION_4_3PFPvPKcE+0x2b9>
    31a4:	ff d0                	call   rax
    31a6:	48 89 05 00 00 00 00 	mov    QWORD PTR [rip+0x0],rax        # 31ad <_ZL19load_GL_VERSION_4_3PFPvPKcE+0x2c2>
    31ad:	48 8b 45 f8          	mov    rax,QWORD PTR [rbp-0x8]
    31b1:	48 8d 3d 00 00 00 00 	lea    rdi,[rip+0x0]        # 31b8 <_ZL19load_GL_VERSION_4_3PFPvPKcE+0x2cd>
    31b8:	ff d0                	call   rax
    31ba:	48 89 05 00 00 00 00 	mov    QWORD PTR [rip+0x0],rax        # 31c1 <_ZL19load_GL_VERSION_4_3PFPvPKcE+0x2d6>
    31c1:	48 8b 45 f8          	mov    rax,QWORD PTR [rbp-0x8]
    31c5:	48 8d 3d 00 00 00 00 	lea    rdi,[rip+0x0]        # 31cc <_ZL19load_GL_VERSION_4_3PFPvPKcE+0x2e1>
    31cc:	ff d0                	call   rax
    31ce:	48 89 05 00 00 00 00 	mov    QWORD PTR [rip+0x0],rax        # 31d5 <_ZL19load_GL_VERSION_4_3PFPvPKcE+0x2ea>
    31d5:	48 8b 45 f8          	mov    rax,QWORD PTR [rbp-0x8]
    31d9:	48 8d 3d 00 00 00 00 	lea    rdi,[rip+0x0]        # 31e0 <_ZL19load_GL_VERSION_4_3PFPvPKcE+0x2f5>
    31e0:	ff d0                	call   rax
    31e2:	48 89 05 00 00 00 00 	mov    QWORD PTR [rip+0x0],rax        # 31e9 <_ZL19load_GL_VERSION_4_3PFPvPKcE+0x2fe>
    31e9:	48 8b 45 f8          	mov    rax,QWORD PTR [rbp-0x8]
    31ed:	48 8d 3d 00 00 00 00 	lea    rdi,[rip+0x0]        # 31f4 <_ZL19load_GL_VERSION_4_3PFPvPKcE+0x309>
    31f4:	ff d0                	call   rax
    31f6:	48 89 05 00 00 00 00 	mov    QWORD PTR [rip+0x0],rax        # 31fd <_ZL19load_GL_VERSION_4_3PFPvPKcE+0x312>
    31fd:	48 8b 45 f8          	mov    rax,QWORD PTR [rbp-0x8]
    3201:	48 8d 3d 00 00 00 00 	lea    rdi,[rip+0x0]        # 3208 <_ZL19load_GL_VERSION_4_3PFPvPKcE+0x31d>
    3208:	ff d0                	call   rax
    320a:	48 89 05 00 00 00 00 	mov    QWORD PTR [rip+0x0],rax        # 3211 <_ZL19load_GL_VERSION_4_3PFPvPKcE+0x326>
    3211:	48 8b 45 f8          	mov    rax,QWORD PTR [rbp-0x8]
    3215:	48 8d 3d 00 00 00 00 	lea    rdi,[rip+0x0]        # 321c <_ZL19load_GL_VERSION_4_3PFPvPKcE+0x331>
    321c:	ff d0                	call   rax
    321e:	48 89 05 00 00 00 00 	mov    QWORD PTR [rip+0x0],rax        # 3225 <_ZL19load_GL_VERSION_4_3PFPvPKcE+0x33a>
    3225:	48 8b 45 f8          	mov    rax,QWORD PTR [rbp-0x8]
    3229:	48 8d 3d 00 00 00 00 	lea    rdi,[rip+0x0]        # 3230 <_ZL19load_GL_VERSION_4_3PFPvPKcE+0x345>
    3230:	ff d0                	call   rax
    3232:	48 89 05 00 00 00 00 	mov    QWORD PTR [rip+0x0],rax        # 3239 <_ZL19load_GL_VERSION_4_3PFPvPKcE+0x34e>
    3239:	48 8b 45 f8          	mov    rax,QWORD PTR [rbp-0x8]
    323d:	48 8d 3d 00 00 00 00 	lea    rdi,[rip+0x0]        # 3244 <_ZL19load_GL_VERSION_4_3PFPvPKcE+0x359>
    3244:	ff d0                	call   rax
    3246:	48 89 05 00 00 00 00 	mov    QWORD PTR [rip+0x0],rax        # 324d <_ZL19load_GL_VERSION_4_3PFPvPKcE+0x362>
    324d:	48 8b 45 f8          	mov    rax,QWORD PTR [rbp-0x8]
    3251:	48 8d 3d 00 00 00 00 	lea    rdi,[rip+0x0]        # 3258 <_ZL19load_GL_VERSION_4_3PFPvPKcE+0x36d>
    3258:	ff d0                	call   rax
    325a:	48 89 05 00 00 00 00 	mov    QWORD PTR [rip+0x0],rax        # 3261 <_ZL19load_GL_VERSION_4_3PFPvPKcE+0x376>
    3261:	48 8b 45 f8          	mov    rax,QWORD PTR [rbp-0x8]
    3265:	48 8d 3d 00 00 00 00 	lea    rdi,[rip+0x0]        # 326c <_ZL19load_GL_VERSION_4_3PFPvPKcE+0x381>
    326c:	ff d0                	call   rax
    326e:	48 89 05 00 00 00 00 	mov    QWORD PTR [rip+0x0],rax        # 3275 <_ZL19load_GL_VERSION_4_3PFPvPKcE+0x38a>
    3275:	eb 01                	jmp    3278 <_ZL19load_GL_VERSION_4_3PFPvPKcE+0x38d>
    3277:	90                   	nop
    3278:	c9                   	leave  
    3279:	c3                   	ret    

000000000000327a <_ZL19load_GL_VERSION_4_4PFPvPKcE>:
    327a:	55                   	push   rbp
    327b:	48 89 e5             	mov    rbp,rsp
    327e:	48 83 ec 10          	sub    rsp,0x10
    3282:	48 89 7d f8          	mov    QWORD PTR [rbp-0x8],rdi
    3286:	8b 05 00 00 00 00    	mov    eax,DWORD PTR [rip+0x0]        # 328c <_ZL19load_GL_VERSION_4_4PFPvPKcE+0x12>
    328c:	85 c0                	test   eax,eax
    328e:	0f 84 b6 00 00 00    	je     334a <_ZL19load_GL_VERSION_4_4PFPvPKcE+0xd0>
    3294:	48 8b 45 f8          	mov    rax,QWORD PTR [rbp-0x8]
    3298:	48 8d 3d 00 00 00 00 	lea    rdi,[rip+0x0]        # 329f <_ZL19load_GL_VERSION_4_4PFPvPKcE+0x25>
    329f:	ff d0                	call   rax
    32a1:	48 89 05 00 00 00 00 	mov    QWORD PTR [rip+0x0],rax        # 32a8 <_ZL19load_GL_VERSION_4_4PFPvPKcE+0x2e>
    32a8:	48 8b 45 f8          	mov    rax,QWORD PTR [rbp-0x8]
    32ac:	48 8d 3d 00 00 00 00 	lea    rdi,[rip+0x0]        # 32b3 <_ZL19load_GL_VERSION_4_4PFPvPKcE+0x39>
    32b3:	ff d0                	call   rax
    32b5:	48 89 05 00 00 00 00 	mov    QWORD PTR [rip+0x0],rax        # 32bc <_ZL19load_GL_VERSION_4_4PFPvPKcE+0x42>
    32bc:	48 8b 45 f8          	mov    rax,QWORD PTR [rbp-0x8]
    32c0:	48 8d 3d 00 00 00 00 	lea    rdi,[rip+0x0]        # 32c7 <_ZL19load_GL_VERSION_4_4PFPvPKcE+0x4d>
    32c7:	ff d0                	call   rax
    32c9:	48 89 05 00 00 00 00 	mov    QWORD PTR [rip+0x0],rax        # 32d0 <_ZL19load_GL_VERSION_4_4PFPvPKcE+0x56>
    32d0:	48 8b 45 f8          	mov    rax,QWORD PTR [rbp-0x8]
    32d4:	48 8d 3d 00 00 00 00 	lea    rdi,[rip+0x0]        # 32db <_ZL19load_GL_VERSION_4_4PFPvPKcE+0x61>
    32db:	ff d0                	call   rax
    32dd:	48 89 05 00 00 00 00 	mov    QWORD PTR [rip+0x0],rax        # 32e4 <_ZL19load_GL_VERSION_4_4PFPvPKcE+0x6a>
    32e4:	48 8b 45 f8          	mov    rax,QWORD PTR [rbp-0x8]
    32e8:	48 8d 3d 00 00 00 00 	lea    rdi,[rip+0x0]        # 32ef <_ZL19load_GL_VERSION_4_4PFPvPKcE+0x75>
    32ef:	ff d0                	call   rax
    32f1:	48 89 05 00 00 00 00 	mov    QWORD PTR [rip+0x0],rax        # 32f8 <_ZL19load_GL_VERSION_4_4PFPvPKcE+0x7e>
    32f8:	48 8b 45 f8          	mov    rax,QWORD PTR [rbp-0x8]
    32fc:	48 8d 3d 00 00 00 00 	lea    rdi,[rip+0x0]        # 3303 <_ZL19load_GL_VERSION_4_4PFPvPKcE+0x89>
    3303:	ff d0                	call   rax
    3305:	48 89 05 00 00 00 00 	mov    QWORD PTR [rip+0x0],rax        # 330c <_ZL19load_GL_VERSION_4_4PFPvPKcE+0x92>
    330c:	48 8b 45 f8          	mov    rax,QWORD PTR [rbp-0x8]
    3310:	48 8d 3d 00 00 00 00 	lea    rdi,[rip+0x0]        # 3317 <_ZL19load_GL_VERSION_4_4PFPvPKcE+0x9d>
    3317:	ff d0                	call   rax
    3319:	48 89 05 00 00 00 00 	mov    QWORD PTR [rip+0x0],rax        # 3320 <_ZL19load_GL_VERSION_4_4PFPvPKcE+0xa6>
    3320:	48 8b 45 f8          	mov    rax,QWORD PTR [rbp-0x8]
    3324:	48 8d 3d 00 00 00 00 	lea    rdi,[rip+0x0]        # 332b <_ZL19load_GL_VERSION_4_4PFPvPKcE+0xb1>
    332b:	ff d0                	call   rax
    332d:	48 89 05 00 00 00 00 	mov    QWORD PTR [rip+0x0],rax        # 3334 <_ZL19load_GL_VERSION_4_4PFPvPKcE+0xba>
    3334:	48 8b 45 f8          	mov    rax,QWORD PTR [rbp-0x8]
    3338:	48 8d 3d 00 00 00 00 	lea    rdi,[rip+0x0]        # 333f <_ZL19load_GL_VERSION_4_4PFPvPKcE+0xc5>
    333f:	ff d0                	call   rax
    3341:	48 89 05 00 00 00 00 	mov    QWORD PTR [rip+0x0],rax        # 3348 <_ZL19load_GL_VERSION_4_4PFPvPKcE+0xce>
    3348:	eb 01                	jmp    334b <_ZL19load_GL_VERSION_4_4PFPvPKcE+0xd1>
    334a:	90                   	nop
    334b:	c9                   	leave  
    334c:	c3                   	ret    

000000000000334d <_ZL19load_GL_VERSION_4_5PFPvPKcE>:
    334d:	55                   	push   rbp
    334e:	48 89 e5             	mov    rbp,rsp
    3351:	48 83 ec 10          	sub    rsp,0x10
    3355:	48 89 7d f8          	mov    QWORD PTR [rbp-0x8],rdi
    3359:	8b 05 00 00 00 00    	mov    eax,DWORD PTR [rip+0x0]        # 335f <_ZL19load_GL_VERSION_4_5PFPvPKcE+0x12>
    335f:	85 c0                	test   eax,eax
    3361:	0f 84 8a 09 00 00    	je     3cf1 <_ZL19load_GL_VERSION_4_5PFPvPKcE+0x9a4>
    3367:	48 8b 45 f8          	mov    rax,QWORD PTR [rbp-0x8]
    336b:	48 8d 3d 00 00 00 00 	lea    rdi,[rip+0x0]        # 3372 <_ZL19load_GL_VERSION_4_5PFPvPKcE+0x25>
    3372:	ff d0                	call   rax
    3374:	48 89 05 00 00 00 00 	mov    QWORD PTR [rip+0x0],rax        # 337b <_ZL19load_GL_VERSION_4_5PFPvPKcE+0x2e>
    337b:	48 8b 45 f8          	mov    rax,QWORD PTR [rbp-0x8]
    337f:	48 8d 3d 00 00 00 00 	lea    rdi,[rip+0x0]        # 3386 <_ZL19load_GL_VERSION_4_5PFPvPKcE+0x39>
    3386:	ff d0                	call   rax
    3388:	48 89 05 00 00 00 00 	mov    QWORD PTR [rip+0x0],rax        # 338f <_ZL19load_GL_VERSION_4_5PFPvPKcE+0x42>
    338f:	48 8b 45 f8          	mov    rax,QWORD PTR [rbp-0x8]
    3393:	48 8d 3d 00 00 00 00 	lea    rdi,[rip+0x0]        # 339a <_ZL19load_GL_VERSION_4_5PFPvPKcE+0x4d>
    339a:	ff d0                	call   rax
    339c:	48 89 05 00 00 00 00 	mov    QWORD PTR [rip+0x0],rax        # 33a3 <_ZL19load_GL_VERSION_4_5PFPvPKcE+0x56>
    33a3:	48 8b 45 f8          	mov    rax,QWORD PTR [rbp-0x8]
    33a7:	48 8d 3d 00 00 00 00 	lea    rdi,[rip+0x0]        # 33ae <_ZL19load_GL_VERSION_4_5PFPvPKcE+0x61>
    33ae:	ff d0                	call   rax
    33b0:	48 89 05 00 00 00 00 	mov    QWORD PTR [rip+0x0],rax        # 33b7 <_ZL19load_GL_VERSION_4_5PFPvPKcE+0x6a>
    33b7:	48 8b 45 f8          	mov    rax,QWORD PTR [rbp-0x8]
    33bb:	48 8d 3d 00 00 00 00 	lea    rdi,[rip+0x0]        # 33c2 <_ZL19load_GL_VERSION_4_5PFPvPKcE+0x75>
    33c2:	ff d0                	call   rax
    33c4:	48 89 05 00 00 00 00 	mov    QWORD PTR [rip+0x0],rax        # 33cb <_ZL19load_GL_VERSION_4_5PFPvPKcE+0x7e>
    33cb:	48 8b 45 f8          	mov    rax,QWORD PTR [rbp-0x8]
    33cf:	48 8d 3d 00 00 00 00 	lea    rdi,[rip+0x0]        # 33d6 <_ZL19load_GL_VERSION_4_5PFPvPKcE+0x89>
    33d6:	ff d0                	call   rax
    33d8:	48 89 05 00 00 00 00 	mov    QWORD PTR [rip+0x0],rax        # 33df <_ZL19load_GL_VERSION_4_5PFPvPKcE+0x92>
    33df:	48 8b 45 f8          	mov    rax,QWORD PTR [rbp-0x8]
    33e3:	48 8d 3d 00 00 00 00 	lea    rdi,[rip+0x0]        # 33ea <_ZL19load_GL_VERSION_4_5PFPvPKcE+0x9d>
    33ea:	ff d0                	call   rax
    33ec:	48 89 05 00 00 00 00 	mov    QWORD PTR [rip+0x0],rax        # 33f3 <_ZL19load_GL_VERSION_4_5PFPvPKcE+0xa6>
    33f3:	48 8b 45 f8          	mov    rax,QWORD PTR [rbp-0x8]
    33f7:	48 8d 3d 00 00 00 00 	lea    rdi,[rip+0x0]        # 33fe <_ZL19load_GL_VERSION_4_5PFPvPKcE+0xb1>
    33fe:	ff d0                	call   rax
    3400:	48 89 05 00 00 00 00 	mov    QWORD PTR [rip+0x0],rax        # 3407 <_ZL19load_GL_VERSION_4_5PFPvPKcE+0xba>
    3407:	48 8b 45 f8          	mov    rax,QWORD PTR [rbp-0x8]
    340b:	48 8d 3d 00 00 00 00 	lea    rdi,[rip+0x0]        # 3412 <_ZL19load_GL_VERSION_4_5PFPvPKcE+0xc5>
    3412:	ff d0                	call   rax
    3414:	48 89 05 00 00 00 00 	mov    QWORD PTR [rip+0x0],rax        # 341b <_ZL19load_GL_VERSION_4_5PFPvPKcE+0xce>
    341b:	48 8b 45 f8          	mov    rax,QWORD PTR [rbp-0x8]
    341f:	48 8d 3d 00 00 00 00 	lea    rdi,[rip+0x0]        # 3426 <_ZL19load_GL_VERSION_4_5PFPvPKcE+0xd9>
    3426:	ff d0                	call   rax
    3428:	48 89 05 00 00 00 00 	mov    QWORD PTR [rip+0x0],rax        # 342f <_ZL19load_GL_VERSION_4_5PFPvPKcE+0xe2>
    342f:	48 8b 45 f8          	mov    rax,QWORD PTR [rbp-0x8]
    3433:	48 8d 3d 00 00 00 00 	lea    rdi,[rip+0x0]        # 343a <_ZL19load_GL_VERSION_4_5PFPvPKcE+0xed>
    343a:	ff d0                	call   rax
    343c:	48 89 05 00 00 00 00 	mov    QWORD PTR [rip+0x0],rax        # 3443 <_ZL19load_GL_VERSION_4_5PFPvPKcE+0xf6>
    3443:	48 8b 45 f8          	mov    rax,QWORD PTR [rbp-0x8]
    3447:	48 8d 3d 00 00 00 00 	lea    rdi,[rip+0x0]        # 344e <_ZL19load_GL_VERSION_4_5PFPvPKcE+0x101>
    344e:	ff d0                	call   rax
    3450:	48 89 05 00 00 00 00 	mov    QWORD PTR [rip+0x0],rax        # 3457 <_ZL19load_GL_VERSION_4_5PFPvPKcE+0x10a>
    3457:	48 8b 45 f8          	mov    rax,QWORD PTR [rbp-0x8]
    345b:	48 8d 3d 00 00 00 00 	lea    rdi,[rip+0x0]        # 3462 <_ZL19load_GL_VERSION_4_5PFPvPKcE+0x115>
    3462:	ff d0                	call   rax
    3464:	48 89 05 00 00 00 00 	mov    QWORD PTR [rip+0x0],rax        # 346b <_ZL19load_GL_VERSION_4_5PFPvPKcE+0x11e>
    346b:	48 8b 45 f8          	mov    rax,QWORD PTR [rbp-0x8]
    346f:	48 8d 3d 00 00 00 00 	lea    rdi,[rip+0x0]        # 3476 <_ZL19load_GL_VERSION_4_5PFPvPKcE+0x129>
    3476:	ff d0                	call   rax
    3478:	48 89 05 00 00 00 00 	mov    QWORD PTR [rip+0x0],rax        # 347f <_ZL19load_GL_VERSION_4_5PFPvPKcE+0x132>
    347f:	48 8b 45 f8          	mov    rax,QWORD PTR [rbp-0x8]
    3483:	48 8d 3d 00 00 00 00 	lea    rdi,[rip+0x0]        # 348a <_ZL19load_GL_VERSION_4_5PFPvPKcE+0x13d>
    348a:	ff d0                	call   rax
    348c:	48 89 05 00 00 00 00 	mov    QWORD PTR [rip+0x0],rax        # 3493 <_ZL19load_GL_VERSION_4_5PFPvPKcE+0x146>
    3493:	48 8b 45 f8          	mov    rax,QWORD PTR [rbp-0x8]
    3497:	48 8d 3d 00 00 00 00 	lea    rdi,[rip+0x0]        # 349e <_ZL19load_GL_VERSION_4_5PFPvPKcE+0x151>
    349e:	ff d0                	call   rax
    34a0:	48 89 05 00 00 00 00 	mov    QWORD PTR [rip+0x0],rax        # 34a7 <_ZL19load_GL_VERSION_4_5PFPvPKcE+0x15a>
    34a7:	48 8b 45 f8          	mov    rax,QWORD PTR [rbp-0x8]
    34ab:	48 8d 3d 00 00 00 00 	lea    rdi,[rip+0x0]        # 34b2 <_ZL19load_GL_VERSION_4_5PFPvPKcE+0x165>
    34b2:	ff d0                	call   rax
    34b4:	48 89 05 00 00 00 00 	mov    QWORD PTR [rip+0x0],rax        # 34bb <_ZL19load_GL_VERSION_4_5PFPvPKcE+0x16e>
    34bb:	48 8b 45 f8          	mov    rax,QWORD PTR [rbp-0x8]
    34bf:	48 8d 3d 00 00 00 00 	lea    rdi,[rip+0x0]        # 34c6 <_ZL19load_GL_VERSION_4_5PFPvPKcE+0x179>
    34c6:	ff d0                	call   rax
    34c8:	48 89 05 00 00 00 00 	mov    QWORD PTR [rip+0x0],rax        # 34cf <_ZL19load_GL_VERSION_4_5PFPvPKcE+0x182>
    34cf:	48 8b 45 f8          	mov    rax,QWORD PTR [rbp-0x8]
    34d3:	48 8d 3d 00 00 00 00 	lea    rdi,[rip+0x0]        # 34da <_ZL19load_GL_VERSION_4_5PFPvPKcE+0x18d>
    34da:	ff d0                	call   rax
    34dc:	48 89 05 00 00 00 00 	mov    QWORD PTR [rip+0x0],rax        # 34e3 <_ZL19load_GL_VERSION_4_5PFPvPKcE+0x196>
    34e3:	48 8b 45 f8          	mov    rax,QWORD PTR [rbp-0x8]
    34e7:	48 8d 3d 00 00 00 00 	lea    rdi,[rip+0x0]        # 34ee <_ZL19load_GL_VERSION_4_5PFPvPKcE+0x1a1>
    34ee:	ff d0                	call   rax
    34f0:	48 89 05 00 00 00 00 	mov    QWORD PTR [rip+0x0],rax        # 34f7 <_ZL19load_GL_VERSION_4_5PFPvPKcE+0x1aa>
    34f7:	48 8b 45 f8          	mov    rax,QWORD PTR [rbp-0x8]
    34fb:	48 8d 3d 00 00 00 00 	lea    rdi,[rip+0x0]        # 3502 <_ZL19load_GL_VERSION_4_5PFPvPKcE+0x1b5>
    3502:	ff d0                	call   rax
    3504:	48 89 05 00 00 00 00 	mov    QWORD PTR [rip+0x0],rax        # 350b <_ZL19load_GL_VERSION_4_5PFPvPKcE+0x1be>
    350b:	48 8b 45 f8          	mov    rax,QWORD PTR [rbp-0x8]
    350f:	48 8d 3d 00 00 00 00 	lea    rdi,[rip+0x0]        # 3516 <_ZL19load_GL_VERSION_4_5PFPvPKcE+0x1c9>
    3516:	ff d0                	call   rax
    3518:	48 89 05 00 00 00 00 	mov    QWORD PTR [rip+0x0],rax        # 351f <_ZL19load_GL_VERSION_4_5PFPvPKcE+0x1d2>
    351f:	48 8b 45 f8          	mov    rax,QWORD PTR [rbp-0x8]
    3523:	48 8d 3d 00 00 00 00 	lea    rdi,[rip+0x0]        # 352a <_ZL19load_GL_VERSION_4_5PFPvPKcE+0x1dd>
    352a:	ff d0                	call   rax
    352c:	48 89 05 00 00 00 00 	mov    QWORD PTR [rip+0x0],rax        # 3533 <_ZL19load_GL_VERSION_4_5PFPvPKcE+0x1e6>
    3533:	48 8b 45 f8          	mov    rax,QWORD PTR [rbp-0x8]
    3537:	48 8d 3d 00 00 00 00 	lea    rdi,[rip+0x0]        # 353e <_ZL19load_GL_VERSION_4_5PFPvPKcE+0x1f1>
    353e:	ff d0                	call   rax
    3540:	48 89 05 00 00 00 00 	mov    QWORD PTR [rip+0x0],rax        # 3547 <_ZL19load_GL_VERSION_4_5PFPvPKcE+0x1fa>
    3547:	48 8b 45 f8          	mov    rax,QWORD PTR [rbp-0x8]
    354b:	48 8d 3d 00 00 00 00 	lea    rdi,[rip+0x0]        # 3552 <_ZL19load_GL_VERSION_4_5PFPvPKcE+0x205>
    3552:	ff d0                	call   rax
    3554:	48 89 05 00 00 00 00 	mov    QWORD PTR [rip+0x0],rax        # 355b <_ZL19load_GL_VERSION_4_5PFPvPKcE+0x20e>
    355b:	48 8b 45 f8          	mov    rax,QWORD PTR [rbp-0x8]
    355f:	48 8d 3d 00 00 00 00 	lea    rdi,[rip+0x0]        # 3566 <_ZL19load_GL_VERSION_4_5PFPvPKcE+0x219>
    3566:	ff d0                	call   rax
    3568:	48 89 05 00 00 00 00 	mov    QWORD PTR [rip+0x0],rax        # 356f <_ZL19load_GL_VERSION_4_5PFPvPKcE+0x222>
    356f:	48 8b 45 f8          	mov    rax,QWORD PTR [rbp-0x8]
    3573:	48 8d 3d 00 00 00 00 	lea    rdi,[rip+0x0]        # 357a <_ZL19load_GL_VERSION_4_5PFPvPKcE+0x22d>
    357a:	ff d0                	call   rax
    357c:	48 89 05 00 00 00 00 	mov    QWORD PTR [rip+0x0],rax        # 3583 <_ZL19load_GL_VERSION_4_5PFPvPKcE+0x236>
    3583:	48 8b 45 f8          	mov    rax,QWORD PTR [rbp-0x8]
    3587:	48 8d 3d 00 00 00 00 	lea    rdi,[rip+0x0]        # 358e <_ZL19load_GL_VERSION_4_5PFPvPKcE+0x241>
    358e:	ff d0                	call   rax
    3590:	48 89 05 00 00 00 00 	mov    QWORD PTR [rip+0x0],rax        # 3597 <_ZL19load_GL_VERSION_4_5PFPvPKcE+0x24a>
    3597:	48 8b 45 f8          	mov    rax,QWORD PTR [rbp-0x8]
    359b:	48 8d 3d 00 00 00 00 	lea    rdi,[rip+0x0]        # 35a2 <_ZL19load_GL_VERSION_4_5PFPvPKcE+0x255>
    35a2:	ff d0                	call   rax
    35a4:	48 89 05 00 00 00 00 	mov    QWORD PTR [rip+0x0],rax        # 35ab <_ZL19load_GL_VERSION_4_5PFPvPKcE+0x25e>
    35ab:	48 8b 45 f8          	mov    rax,QWORD PTR [rbp-0x8]
    35af:	48 8d 3d 00 00 00 00 	lea    rdi,[rip+0x0]        # 35b6 <_ZL19load_GL_VERSION_4_5PFPvPKcE+0x269>
    35b6:	ff d0                	call   rax
    35b8:	48 89 05 00 00 00 00 	mov    QWORD PTR [rip+0x0],rax        # 35bf <_ZL19load_GL_VERSION_4_5PFPvPKcE+0x272>
    35bf:	48 8b 45 f8          	mov    rax,QWORD PTR [rbp-0x8]
    35c3:	48 8d 3d 00 00 00 00 	lea    rdi,[rip+0x0]        # 35ca <_ZL19load_GL_VERSION_4_5PFPvPKcE+0x27d>
    35ca:	ff d0                	call   rax
    35cc:	48 89 05 00 00 00 00 	mov    QWORD PTR [rip+0x0],rax        # 35d3 <_ZL19load_GL_VERSION_4_5PFPvPKcE+0x286>
    35d3:	48 8b 45 f8          	mov    rax,QWORD PTR [rbp-0x8]
    35d7:	48 8d 3d 00 00 00 00 	lea    rdi,[rip+0x0]        # 35de <_ZL19load_GL_VERSION_4_5PFPvPKcE+0x291>
    35de:	ff d0                	call   rax
    35e0:	48 89 05 00 00 00 00 	mov    QWORD PTR [rip+0x0],rax        # 35e7 <_ZL19load_GL_VERSION_4_5PFPvPKcE+0x29a>
    35e7:	48 8b 45 f8          	mov    rax,QWORD PTR [rbp-0x8]
    35eb:	48 8d 3d 00 00 00 00 	lea    rdi,[rip+0x0]        # 35f2 <_ZL19load_GL_VERSION_4_5PFPvPKcE+0x2a5>
    35f2:	ff d0                	call   rax
    35f4:	48 89 05 00 00 00 00 	mov    QWORD PTR [rip+0x0],rax        # 35fb <_ZL19load_GL_VERSION_4_5PFPvPKcE+0x2ae>
    35fb:	48 8b 45 f8          	mov    rax,QWORD PTR [rbp-0x8]
    35ff:	48 8d 3d 00 00 00 00 	lea    rdi,[rip+0x0]        # 3606 <_ZL19load_GL_VERSION_4_5PFPvPKcE+0x2b9>
    3606:	ff d0                	call   rax
    3608:	48 89 05 00 00 00 00 	mov    QWORD PTR [rip+0x0],rax        # 360f <_ZL19load_GL_VERSION_4_5PFPvPKcE+0x2c2>
    360f:	48 8b 45 f8          	mov    rax,QWORD PTR [rbp-0x8]
    3613:	48 8d 3d 00 00 00 00 	lea    rdi,[rip+0x0]        # 361a <_ZL19load_GL_VERSION_4_5PFPvPKcE+0x2cd>
    361a:	ff d0                	call   rax
    361c:	48 89 05 00 00 00 00 	mov    QWORD PTR [rip+0x0],rax        # 3623 <_ZL19load_GL_VERSION_4_5PFPvPKcE+0x2d6>
    3623:	48 8b 45 f8          	mov    rax,QWORD PTR [rbp-0x8]
    3627:	48 8d 3d 00 00 00 00 	lea    rdi,[rip+0x0]        # 362e <_ZL19load_GL_VERSION_4_5PFPvPKcE+0x2e1>
    362e:	ff d0                	call   rax
    3630:	48 89 05 00 00 00 00 	mov    QWORD PTR [rip+0x0],rax        # 3637 <_ZL19load_GL_VERSION_4_5PFPvPKcE+0x2ea>
    3637:	48 8b 45 f8          	mov    rax,QWORD PTR [rbp-0x8]
    363b:	48 8d 3d 00 00 00 00 	lea    rdi,[rip+0x0]        # 3642 <_ZL19load_GL_VERSION_4_5PFPvPKcE+0x2f5>
    3642:	ff d0                	call   rax
    3644:	48 89 05 00 00 00 00 	mov    QWORD PTR [rip+0x0],rax        # 364b <_ZL19load_GL_VERSION_4_5PFPvPKcE+0x2fe>
    364b:	48 8b 45 f8          	mov    rax,QWORD PTR [rbp-0x8]
    364f:	48 8d 3d 00 00 00 00 	lea    rdi,[rip+0x0]        # 3656 <_ZL19load_GL_VERSION_4_5PFPvPKcE+0x309>
    3656:	ff d0                	call   rax
    3658:	48 89 05 00 00 00 00 	mov    QWORD PTR [rip+0x0],rax        # 365f <_ZL19load_GL_VERSION_4_5PFPvPKcE+0x312>
    365f:	48 8b 45 f8          	mov    rax,QWORD PTR [rbp-0x8]
    3663:	48 8d 3d 00 00 00 00 	lea    rdi,[rip+0x0]        # 366a <_ZL19load_GL_VERSION_4_5PFPvPKcE+0x31d>
    366a:	ff d0                	call   rax
    366c:	48 89 05 00 00 00 00 	mov    QWORD PTR [rip+0x0],rax        # 3673 <_ZL19load_GL_VERSION_4_5PFPvPKcE+0x326>
    3673:	48 8b 45 f8          	mov    rax,QWORD PTR [rbp-0x8]
    3677:	48 8d 3d 00 00 00 00 	lea    rdi,[rip+0x0]        # 367e <_ZL19load_GL_VERSION_4_5PFPvPKcE+0x331>
    367e:	ff d0                	call   rax
    3680:	48 89 05 00 00 00 00 	mov    QWORD PTR [rip+0x0],rax        # 3687 <_ZL19load_GL_VERSION_4_5PFPvPKcE+0x33a>
    3687:	48 8b 45 f8          	mov    rax,QWORD PTR [rbp-0x8]
    368b:	48 8d 3d 00 00 00 00 	lea    rdi,[rip+0x0]        # 3692 <_ZL19load_GL_VERSION_4_5PFPvPKcE+0x345>
    3692:	ff d0                	call   rax
    3694:	48 89 05 00 00 00 00 	mov    QWORD PTR [rip+0x0],rax        # 369b <_ZL19load_GL_VERSION_4_5PFPvPKcE+0x34e>
    369b:	48 8b 45 f8          	mov    rax,QWORD PTR [rbp-0x8]
    369f:	48 8d 3d 00 00 00 00 	lea    rdi,[rip+0x0]        # 36a6 <_ZL19load_GL_VERSION_4_5PFPvPKcE+0x359>
    36a6:	ff d0                	call   rax
    36a8:	48 89 05 00 00 00 00 	mov    QWORD PTR [rip+0x0],rax        # 36af <_ZL19load_GL_VERSION_4_5PFPvPKcE+0x362>
    36af:	48 8b 45 f8          	mov    rax,QWORD PTR [rbp-0x8]
    36b3:	48 8d 3d 00 00 00 00 	lea    rdi,[rip+0x0]        # 36ba <_ZL19load_GL_VERSION_4_5PFPvPKcE+0x36d>
    36ba:	ff d0                	call   rax
    36bc:	48 89 05 00 00 00 00 	mov    QWORD PTR [rip+0x0],rax        # 36c3 <_ZL19load_GL_VERSION_4_5PFPvPKcE+0x376>
    36c3:	48 8b 45 f8          	mov    rax,QWORD PTR [rbp-0x8]
    36c7:	48 8d 3d 00 00 00 00 	lea    rdi,[rip+0x0]        # 36ce <_ZL19load_GL_VERSION_4_5PFPvPKcE+0x381>
    36ce:	ff d0                	call   rax
    36d0:	48 89 05 00 00 00 00 	mov    QWORD PTR [rip+0x0],rax        # 36d7 <_ZL19load_GL_VERSION_4_5PFPvPKcE+0x38a>
    36d7:	48 8b 45 f8          	mov    rax,QWORD PTR [rbp-0x8]
    36db:	48 8d 3d 00 00 00 00 	lea    rdi,[rip+0x0]        # 36e2 <_ZL19load_GL_VERSION_4_5PFPvPKcE+0x395>
    36e2:	ff d0                	call   rax
    36e4:	48 89 05 00 00 00 00 	mov    QWORD PTR [rip+0x0],rax        # 36eb <_ZL19load_GL_VERSION_4_5PFPvPKcE+0x39e>
    36eb:	48 8b 45 f8          	mov    rax,QWORD PTR [rbp-0x8]
    36ef:	48 8d 3d 00 00 00 00 	lea    rdi,[rip+0x0]        # 36f6 <_ZL19load_GL_VERSION_4_5PFPvPKcE+0x3a9>
    36f6:	ff d0                	call   rax
    36f8:	48 89 05 00 00 00 00 	mov    QWORD PTR [rip+0x0],rax        # 36ff <_ZL19load_GL_VERSION_4_5PFPvPKcE+0x3b2>
    36ff:	48 8b 45 f8          	mov    rax,QWORD PTR [rbp-0x8]
    3703:	48 8d 3d 00 00 00 00 	lea    rdi,[rip+0x0]        # 370a <_ZL19load_GL_VERSION_4_5PFPvPKcE+0x3bd>
    370a:	ff d0                	call   rax
    370c:	48 89 05 00 00 00 00 	mov    QWORD PTR [rip+0x0],rax        # 3713 <_ZL19load_GL_VERSION_4_5PFPvPKcE+0x3c6>
    3713:	48 8b 45 f8          	mov    rax,QWORD PTR [rbp-0x8]
    3717:	48 8d 3d 00 00 00 00 	lea    rdi,[rip+0x0]        # 371e <_ZL19load_GL_VERSION_4_5PFPvPKcE+0x3d1>
    371e:	ff d0                	call   rax
    3720:	48 89 05 00 00 00 00 	mov    QWORD PTR [rip+0x0],rax        # 3727 <_ZL19load_GL_VERSION_4_5PFPvPKcE+0x3da>
    3727:	48 8b 45 f8          	mov    rax,QWORD PTR [rbp-0x8]
    372b:	48 8d 3d 00 00 00 00 	lea    rdi,[rip+0x0]        # 3732 <_ZL19load_GL_VERSION_4_5PFPvPKcE+0x3e5>
    3732:	ff d0                	call   rax
    3734:	48 89 05 00 00 00 00 	mov    QWORD PTR [rip+0x0],rax        # 373b <_ZL19load_GL_VERSION_4_5PFPvPKcE+0x3ee>
    373b:	48 8b 45 f8          	mov    rax,QWORD PTR [rbp-0x8]
    373f:	48 8d 3d 00 00 00 00 	lea    rdi,[rip+0x0]        # 3746 <_ZL19load_GL_VERSION_4_5PFPvPKcE+0x3f9>
    3746:	ff d0                	call   rax
    3748:	48 89 05 00 00 00 00 	mov    QWORD PTR [rip+0x0],rax        # 374f <_ZL19load_GL_VERSION_4_5PFPvPKcE+0x402>
    374f:	48 8b 45 f8          	mov    rax,QWORD PTR [rbp-0x8]
    3753:	48 8d 3d 00 00 00 00 	lea    rdi,[rip+0x0]        # 375a <_ZL19load_GL_VERSION_4_5PFPvPKcE+0x40d>
    375a:	ff d0                	call   rax
    375c:	48 89 05 00 00 00 00 	mov    QWORD PTR [rip+0x0],rax        # 3763 <_ZL19load_GL_VERSION_4_5PFPvPKcE+0x416>
    3763:	48 8b 45 f8          	mov    rax,QWORD PTR [rbp-0x8]
    3767:	48 8d 3d 00 00 00 00 	lea    rdi,[rip+0x0]        # 376e <_ZL19load_GL_VERSION_4_5PFPvPKcE+0x421>
    376e:	ff d0                	call   rax
    3770:	48 89 05 00 00 00 00 	mov    QWORD PTR [rip+0x0],rax        # 3777 <_ZL19load_GL_VERSION_4_5PFPvPKcE+0x42a>
    3777:	48 8b 45 f8          	mov    rax,QWORD PTR [rbp-0x8]
    377b:	48 8d 3d 00 00 00 00 	lea    rdi,[rip+0x0]        # 3782 <_ZL19load_GL_VERSION_4_5PFPvPKcE+0x435>
    3782:	ff d0                	call   rax
    3784:	48 89 05 00 00 00 00 	mov    QWORD PTR [rip+0x0],rax        # 378b <_ZL19load_GL_VERSION_4_5PFPvPKcE+0x43e>
    378b:	48 8b 45 f8          	mov    rax,QWORD PTR [rbp-0x8]
    378f:	48 8d 3d 00 00 00 00 	lea    rdi,[rip+0x0]        # 3796 <_ZL19load_GL_VERSION_4_5PFPvPKcE+0x449>
    3796:	ff d0                	call   rax
    3798:	48 89 05 00 00 00 00 	mov    QWORD PTR [rip+0x0],rax        # 379f <_ZL19load_GL_VERSION_4_5PFPvPKcE+0x452>
    379f:	48 8b 45 f8          	mov    rax,QWORD PTR [rbp-0x8]
    37a3:	48 8d 3d 00 00 00 00 	lea    rdi,[rip+0x0]        # 37aa <_ZL19load_GL_VERSION_4_5PFPvPKcE+0x45d>
    37aa:	ff d0                	call   rax
    37ac:	48 89 05 00 00 00 00 	mov    QWORD PTR [rip+0x0],rax        # 37b3 <_ZL19load_GL_VERSION_4_5PFPvPKcE+0x466>
    37b3:	48 8b 45 f8          	mov    rax,QWORD PTR [rbp-0x8]
    37b7:	48 8d 3d 00 00 00 00 	lea    rdi,[rip+0x0]        # 37be <_ZL19load_GL_VERSION_4_5PFPvPKcE+0x471>
    37be:	ff d0                	call   rax
    37c0:	48 89 05 00 00 00 00 	mov    QWORD PTR [rip+0x0],rax        # 37c7 <_ZL19load_GL_VERSION_4_5PFPvPKcE+0x47a>
    37c7:	48 8b 45 f8          	mov    rax,QWORD PTR [rbp-0x8]
    37cb:	48 8d 3d 00 00 00 00 	lea    rdi,[rip+0x0]        # 37d2 <_ZL19load_GL_VERSION_4_5PFPvPKcE+0x485>
    37d2:	ff d0                	call   rax
    37d4:	48 89 05 00 00 00 00 	mov    QWORD PTR [rip+0x0],rax        # 37db <_ZL19load_GL_VERSION_4_5PFPvPKcE+0x48e>
    37db:	48 8b 45 f8          	mov    rax,QWORD PTR [rbp-0x8]
    37df:	48 8d 3d 00 00 00 00 	lea    rdi,[rip+0x0]        # 37e6 <_ZL19load_GL_VERSION_4_5PFPvPKcE+0x499>
    37e6:	ff d0                	call   rax
    37e8:	48 89 05 00 00 00 00 	mov    QWORD PTR [rip+0x0],rax        # 37ef <_ZL19load_GL_VERSION_4_5PFPvPKcE+0x4a2>
    37ef:	48 8b 45 f8          	mov    rax,QWORD PTR [rbp-0x8]
    37f3:	48 8d 3d 00 00 00 00 	lea    rdi,[rip+0x0]        # 37fa <_ZL19load_GL_VERSION_4_5PFPvPKcE+0x4ad>
    37fa:	ff d0                	call   rax
    37fc:	48 89 05 00 00 00 00 	mov    QWORD PTR [rip+0x0],rax        # 3803 <_ZL19load_GL_VERSION_4_5PFPvPKcE+0x4b6>
    3803:	48 8b 45 f8          	mov    rax,QWORD PTR [rbp-0x8]
    3807:	48 8d 3d 00 00 00 00 	lea    rdi,[rip+0x0]        # 380e <_ZL19load_GL_VERSION_4_5PFPvPKcE+0x4c1>
    380e:	ff d0                	call   rax
    3810:	48 89 05 00 00 00 00 	mov    QWORD PTR [rip+0x0],rax        # 3817 <_ZL19load_GL_VERSION_4_5PFPvPKcE+0x4ca>
    3817:	48 8b 45 f8          	mov    rax,QWORD PTR [rbp-0x8]
    381b:	48 8d 3d 00 00 00 00 	lea    rdi,[rip+0x0]        # 3822 <_ZL19load_GL_VERSION_4_5PFPvPKcE+0x4d5>
    3822:	ff d0                	call   rax
    3824:	48 89 05 00 00 00 00 	mov    QWORD PTR [rip+0x0],rax        # 382b <_ZL19load_GL_VERSION_4_5PFPvPKcE+0x4de>
    382b:	48 8b 45 f8          	mov    rax,QWORD PTR [rbp-0x8]
    382f:	48 8d 3d 00 00 00 00 	lea    rdi,[rip+0x0]        # 3836 <_ZL19load_GL_VERSION_4_5PFPvPKcE+0x4e9>
    3836:	ff d0                	call   rax
    3838:	48 89 05 00 00 00 00 	mov    QWORD PTR [rip+0x0],rax        # 383f <_ZL19load_GL_VERSION_4_5PFPvPKcE+0x4f2>
    383f:	48 8b 45 f8          	mov    rax,QWORD PTR [rbp-0x8]
    3843:	48 8d 3d 00 00 00 00 	lea    rdi,[rip+0x0]        # 384a <_ZL19load_GL_VERSION_4_5PFPvPKcE+0x4fd>
    384a:	ff d0                	call   rax
    384c:	48 89 05 00 00 00 00 	mov    QWORD PTR [rip+0x0],rax        # 3853 <_ZL19load_GL_VERSION_4_5PFPvPKcE+0x506>
    3853:	48 8b 45 f8          	mov    rax,QWORD PTR [rbp-0x8]
    3857:	48 8d 3d 00 00 00 00 	lea    rdi,[rip+0x0]        # 385e <_ZL19load_GL_VERSION_4_5PFPvPKcE+0x511>
    385e:	ff d0                	call   rax
    3860:	48 89 05 00 00 00 00 	mov    QWORD PTR [rip+0x0],rax        # 3867 <_ZL19load_GL_VERSION_4_5PFPvPKcE+0x51a>
    3867:	48 8b 45 f8          	mov    rax,QWORD PTR [rbp-0x8]
    386b:	48 8d 3d 00 00 00 00 	lea    rdi,[rip+0x0]        # 3872 <_ZL19load_GL_VERSION_4_5PFPvPKcE+0x525>
    3872:	ff d0                	call   rax
    3874:	48 89 05 00 00 00 00 	mov    QWORD PTR [rip+0x0],rax        # 387b <_ZL19load_GL_VERSION_4_5PFPvPKcE+0x52e>
    387b:	48 8b 45 f8          	mov    rax,QWORD PTR [rbp-0x8]
    387f:	48 8d 3d 00 00 00 00 	lea    rdi,[rip+0x0]        # 3886 <_ZL19load_GL_VERSION_4_5PFPvPKcE+0x539>
    3886:	ff d0                	call   rax
    3888:	48 89 05 00 00 00 00 	mov    QWORD PTR [rip+0x0],rax        # 388f <_ZL19load_GL_VERSION_4_5PFPvPKcE+0x542>
    388f:	48 8b 45 f8          	mov    rax,QWORD PTR [rbp-0x8]
    3893:	48 8d 3d 00 00 00 00 	lea    rdi,[rip+0x0]        # 389a <_ZL19load_GL_VERSION_4_5PFPvPKcE+0x54d>
    389a:	ff d0                	call   rax
    389c:	48 89 05 00 00 00 00 	mov    QWORD PTR [rip+0x0],rax        # 38a3 <_ZL19load_GL_VERSION_4_5PFPvPKcE+0x556>
    38a3:	48 8b 45 f8          	mov    rax,QWORD PTR [rbp-0x8]
    38a7:	48 8d 3d 00 00 00 00 	lea    rdi,[rip+0x0]        # 38ae <_ZL19load_GL_VERSION_4_5PFPvPKcE+0x561>
    38ae:	ff d0                	call   rax
    38b0:	48 89 05 00 00 00 00 	mov    QWORD PTR [rip+0x0],rax        # 38b7 <_ZL19load_GL_VERSION_4_5PFPvPKcE+0x56a>
    38b7:	48 8b 45 f8          	mov    rax,QWORD PTR [rbp-0x8]
    38bb:	48 8d 3d 00 00 00 00 	lea    rdi,[rip+0x0]        # 38c2 <_ZL19load_GL_VERSION_4_5PFPvPKcE+0x575>
    38c2:	ff d0                	call   rax
    38c4:	48 89 05 00 00 00 00 	mov    QWORD PTR [rip+0x0],rax        # 38cb <_ZL19load_GL_VERSION_4_5PFPvPKcE+0x57e>
    38cb:	48 8b 45 f8          	mov    rax,QWORD PTR [rbp-0x8]
    38cf:	48 8d 3d 00 00 00 00 	lea    rdi,[rip+0x0]        # 38d6 <_ZL19load_GL_VERSION_4_5PFPvPKcE+0x589>
    38d6:	ff d0                	call   rax
    38d8:	48 89 05 00 00 00 00 	mov    QWORD PTR [rip+0x0],rax        # 38df <_ZL19load_GL_VERSION_4_5PFPvPKcE+0x592>
    38df:	48 8b 45 f8          	mov    rax,QWORD PTR [rbp-0x8]
    38e3:	48 8d 3d 00 00 00 00 	lea    rdi,[rip+0x0]        # 38ea <_ZL19load_GL_VERSION_4_5PFPvPKcE+0x59d>
    38ea:	ff d0                	call   rax
    38ec:	48 89 05 00 00 00 00 	mov    QWORD PTR [rip+0x0],rax        # 38f3 <_ZL19load_GL_VERSION_4_5PFPvPKcE+0x5a6>
    38f3:	48 8b 45 f8          	mov    rax,QWORD PTR [rbp-0x8]
    38f7:	48 8d 3d 00 00 00 00 	lea    rdi,[rip+0x0]        # 38fe <_ZL19load_GL_VERSION_4_5PFPvPKcE+0x5b1>
    38fe:	ff d0                	call   rax
    3900:	48 89 05 00 00 00 00 	mov    QWORD PTR [rip+0x0],rax        # 3907 <_ZL19load_GL_VERSION_4_5PFPvPKcE+0x5ba>
    3907:	48 8b 45 f8          	mov    rax,QWORD PTR [rbp-0x8]
    390b:	48 8d 3d 00 00 00 00 	lea    rdi,[rip+0x0]        # 3912 <_ZL19load_GL_VERSION_4_5PFPvPKcE+0x5c5>
    3912:	ff d0                	call   rax
    3914:	48 89 05 00 00 00 00 	mov    QWORD PTR [rip+0x0],rax        # 391b <_ZL19load_GL_VERSION_4_5PFPvPKcE+0x5ce>
    391b:	48 8b 45 f8          	mov    rax,QWORD PTR [rbp-0x8]
    391f:	48 8d 3d 00 00 00 00 	lea    rdi,[rip+0x0]        # 3926 <_ZL19load_GL_VERSION_4_5PFPvPKcE+0x5d9>
    3926:	ff d0                	call   rax
    3928:	48 89 05 00 00 00 00 	mov    QWORD PTR [rip+0x0],rax        # 392f <_ZL19load_GL_VERSION_4_5PFPvPKcE+0x5e2>
    392f:	48 8b 45 f8          	mov    rax,QWORD PTR [rbp-0x8]
    3933:	48 8d 3d 00 00 00 00 	lea    rdi,[rip+0x0]        # 393a <_ZL19load_GL_VERSION_4_5PFPvPKcE+0x5ed>
    393a:	ff d0                	call   rax
    393c:	48 89 05 00 00 00 00 	mov    QWORD PTR [rip+0x0],rax        # 3943 <_ZL19load_GL_VERSION_4_5PFPvPKcE+0x5f6>
    3943:	48 8b 45 f8          	mov    rax,QWORD PTR [rbp-0x8]
    3947:	48 8d 3d 00 00 00 00 	lea    rdi,[rip+0x0]        # 394e <_ZL19load_GL_VERSION_4_5PFPvPKcE+0x601>
    394e:	ff d0                	call   rax
    3950:	48 89 05 00 00 00 00 	mov    QWORD PTR [rip+0x0],rax        # 3957 <_ZL19load_GL_VERSION_4_5PFPvPKcE+0x60a>
    3957:	48 8b 45 f8          	mov    rax,QWORD PTR [rbp-0x8]
    395b:	48 8d 3d 00 00 00 00 	lea    rdi,[rip+0x0]        # 3962 <_ZL19load_GL_VERSION_4_5PFPvPKcE+0x615>
    3962:	ff d0                	call   rax
    3964:	48 89 05 00 00 00 00 	mov    QWORD PTR [rip+0x0],rax        # 396b <_ZL19load_GL_VERSION_4_5PFPvPKcE+0x61e>
    396b:	48 8b 45 f8          	mov    rax,QWORD PTR [rbp-0x8]
    396f:	48 8d 3d 00 00 00 00 	lea    rdi,[rip+0x0]        # 3976 <_ZL19load_GL_VERSION_4_5PFPvPKcE+0x629>
    3976:	ff d0                	call   rax
    3978:	48 89 05 00 00 00 00 	mov    QWORD PTR [rip+0x0],rax        # 397f <_ZL19load_GL_VERSION_4_5PFPvPKcE+0x632>
    397f:	48 8b 45 f8          	mov    rax,QWORD PTR [rbp-0x8]
    3983:	48 8d 3d 00 00 00 00 	lea    rdi,[rip+0x0]        # 398a <_ZL19load_GL_VERSION_4_5PFPvPKcE+0x63d>
    398a:	ff d0                	call   rax
    398c:	48 89 05 00 00 00 00 	mov    QWORD PTR [rip+0x0],rax        # 3993 <_ZL19load_GL_VERSION_4_5PFPvPKcE+0x646>
    3993:	48 8b 45 f8          	mov    rax,QWORD PTR [rbp-0x8]
    3997:	48 8d 3d 00 00 00 00 	lea    rdi,[rip+0x0]        # 399e <_ZL19load_GL_VERSION_4_5PFPvPKcE+0x651>
    399e:	ff d0                	call   rax
    39a0:	48 89 05 00 00 00 00 	mov    QWORD PTR [rip+0x0],rax        # 39a7 <_ZL19load_GL_VERSION_4_5PFPvPKcE+0x65a>
    39a7:	48 8b 45 f8          	mov    rax,QWORD PTR [rbp-0x8]
    39ab:	48 8d 3d 00 00 00 00 	lea    rdi,[rip+0x0]        # 39b2 <_ZL19load_GL_VERSION_4_5PFPvPKcE+0x665>
    39b2:	ff d0                	call   rax
    39b4:	48 89 05 00 00 00 00 	mov    QWORD PTR [rip+0x0],rax        # 39bb <_ZL19load_GL_VERSION_4_5PFPvPKcE+0x66e>
    39bb:	48 8b 45 f8          	mov    rax,QWORD PTR [rbp-0x8]
    39bf:	48 8d 3d 00 00 00 00 	lea    rdi,[rip+0x0]        # 39c6 <_ZL19load_GL_VERSION_4_5PFPvPKcE+0x679>
    39c6:	ff d0                	call   rax
    39c8:	48 89 05 00 00 00 00 	mov    QWORD PTR [rip+0x0],rax        # 39cf <_ZL19load_GL_VERSION_4_5PFPvPKcE+0x682>
    39cf:	48 8b 45 f8          	mov    rax,QWORD PTR [rbp-0x8]
    39d3:	48 8d 3d 00 00 00 00 	lea    rdi,[rip+0x0]        # 39da <_ZL19load_GL_VERSION_4_5PFPvPKcE+0x68d>
    39da:	ff d0                	call   rax
    39dc:	48 89 05 00 00 00 00 	mov    QWORD PTR [rip+0x0],rax        # 39e3 <_ZL19load_GL_VERSION_4_5PFPvPKcE+0x696>
    39e3:	48 8b 45 f8          	mov    rax,QWORD PTR [rbp-0x8]
    39e7:	48 8d 3d 00 00 00 00 	lea    rdi,[rip+0x0]        # 39ee <_ZL19load_GL_VERSION_4_5PFPvPKcE+0x6a1>
    39ee:	ff d0                	call   rax
    39f0:	48 89 05 00 00 00 00 	mov    QWORD PTR [rip+0x0],rax        # 39f7 <_ZL19load_GL_VERSION_4_5PFPvPKcE+0x6aa>
    39f7:	48 8b 45 f8          	mov    rax,QWORD PTR [rbp-0x8]
    39fb:	48 8d 3d 00 00 00 00 	lea    rdi,[rip+0x0]        # 3a02 <_ZL19load_GL_VERSION_4_5PFPvPKcE+0x6b5>
    3a02:	ff d0                	call   rax
    3a04:	48 89 05 00 00 00 00 	mov    QWORD PTR [rip+0x0],rax        # 3a0b <_ZL19load_GL_VERSION_4_5PFPvPKcE+0x6be>
    3a0b:	48 8b 45 f8          	mov    rax,QWORD PTR [rbp-0x8]
    3a0f:	48 8d 3d 00 00 00 00 	lea    rdi,[rip+0x0]        # 3a16 <_ZL19load_GL_VERSION_4_5PFPvPKcE+0x6c9>
    3a16:	ff d0                	call   rax
    3a18:	48 89 05 00 00 00 00 	mov    QWORD PTR [rip+0x0],rax        # 3a1f <_ZL19load_GL_VERSION_4_5PFPvPKcE+0x6d2>
    3a1f:	48 8b 45 f8          	mov    rax,QWORD PTR [rbp-0x8]
    3a23:	48 8d 3d 00 00 00 00 	lea    rdi,[rip+0x0]        # 3a2a <_ZL19load_GL_VERSION_4_5PFPvPKcE+0x6dd>
    3a2a:	ff d0                	call   rax
    3a2c:	48 89 05 00 00 00 00 	mov    QWORD PTR [rip+0x0],rax        # 3a33 <_ZL19load_GL_VERSION_4_5PFPvPKcE+0x6e6>
    3a33:	48 8b 45 f8          	mov    rax,QWORD PTR [rbp-0x8]
    3a37:	48 8d 3d 00 00 00 00 	lea    rdi,[rip+0x0]        # 3a3e <_ZL19load_GL_VERSION_4_5PFPvPKcE+0x6f1>
    3a3e:	ff d0                	call   rax
    3a40:	48 89 05 00 00 00 00 	mov    QWORD PTR [rip+0x0],rax        # 3a47 <_ZL19load_GL_VERSION_4_5PFPvPKcE+0x6fa>
    3a47:	48 8b 45 f8          	mov    rax,QWORD PTR [rbp-0x8]
