
/home/denis/reps/denis-belov/c-test/xgk/build/gnu-x64/o/imgui.o:     file format elf64-x86-64


Disassembly of section .text:

0000000000000000 <_ZL14ImIsPowerOfTwoi>:
       0:	55                   	push   rbp
       1:	48 89 e5             	mov    rbp,rsp
       4:	89 7d fc             	mov    DWORD PTR [rbp-0x4],edi
       7:	83 7d fc 00          	cmp    DWORD PTR [rbp-0x4],0x0
       b:	74 14                	je     21 <_ZL14ImIsPowerOfTwoi+0x21>
       d:	8b 45 fc             	mov    eax,DWORD PTR [rbp-0x4]
      10:	83 e8 01             	sub    eax,0x1
      13:	23 45 fc             	and    eax,DWORD PTR [rbp-0x4]
      16:	85 c0                	test   eax,eax
      18:	75 07                	jne    21 <_ZL14ImIsPowerOfTwoi+0x21>
      1a:	b8 01 00 00 00       	mov    eax,0x1
      1f:	eb 05                	jmp    26 <_ZL14ImIsPowerOfTwoi+0x26>
      21:	b8 00 00 00 00       	mov    eax,0x0
      26:	5d                   	pop    rbp
      27:	c3                   	ret    

0000000000000028 <_ZL14ImCharIsBlankAc>:
      28:	55                   	push   rbp
      29:	48 89 e5             	mov    rbp,rsp
      2c:	89 f8                	mov    eax,edi
      2e:	88 45 fc             	mov    BYTE PTR [rbp-0x4],al
      31:	80 7d fc 20          	cmp    BYTE PTR [rbp-0x4],0x20
      35:	74 06                	je     3d <_ZL14ImCharIsBlankAc+0x15>
      37:	80 7d fc 09          	cmp    BYTE PTR [rbp-0x4],0x9
      3b:	75 07                	jne    44 <_ZL14ImCharIsBlankAc+0x1c>
      3d:	b8 01 00 00 00       	mov    eax,0x1
      42:	eb 05                	jmp    49 <_ZL14ImCharIsBlankAc+0x21>
      44:	b8 00 00 00 00       	mov    eax,0x0
      49:	5d                   	pop    rbp
      4a:	c3                   	ret    

000000000000004b <_ZmlRK6ImVec2f>:
      4b:	55                   	push   rbp
      4c:	48 89 e5             	mov    rbp,rsp
      4f:	48 83 ec 30          	sub    rsp,0x30
      53:	48 89 7d e8          	mov    QWORD PTR [rbp-0x18],rdi
      57:	f3 0f 11 45 e4       	movss  DWORD PTR [rbp-0x1c],xmm0
      5c:	64 48 8b 04 25 28 00 	mov    rax,QWORD PTR fs:0x28
      63:	00 00 
      65:	48 89 45 f8          	mov    QWORD PTR [rbp-0x8],rax
      69:	31 c0                	xor    eax,eax
      6b:	48 8b 45 e8          	mov    rax,QWORD PTR [rbp-0x18]
      6f:	f3 0f 10 40 04       	movss  xmm0,DWORD PTR [rax+0x4]
      74:	0f 28 c8             	movaps xmm1,xmm0
      77:	f3 0f 59 4d e4       	mulss  xmm1,DWORD PTR [rbp-0x1c]
      7c:	48 8b 45 e8          	mov    rax,QWORD PTR [rbp-0x18]
      80:	f3 0f 10 00          	movss  xmm0,DWORD PTR [rax]
      84:	f3 0f 59 45 e4       	mulss  xmm0,DWORD PTR [rbp-0x1c]
      89:	48 8d 45 f0          	lea    rax,[rbp-0x10]
      8d:	48 89 c7             	mov    rdi,rax
      90:	e8 00 00 00 00       	call   95 <_ZmlRK6ImVec2f+0x4a>
      95:	48 8b 45 f0          	mov    rax,QWORD PTR [rbp-0x10]
      99:	48 89 45 d8          	mov    QWORD PTR [rbp-0x28],rax
      9d:	f3 0f 7e 45 d8       	movq   xmm0,QWORD PTR [rbp-0x28]
      a2:	48 8b 45 f8          	mov    rax,QWORD PTR [rbp-0x8]
      a6:	64 48 33 04 25 28 00 	xor    rax,QWORD PTR fs:0x28
      ad:	00 00 
      af:	74 05                	je     b6 <_ZmlRK6ImVec2f+0x6b>
      b1:	e8 00 00 00 00       	call   b6 <_ZmlRK6ImVec2f+0x6b>
      b6:	c9                   	leave  
      b7:	c3                   	ret    

00000000000000b8 <_ZdvRK6ImVec2f>:
      b8:	55                   	push   rbp
      b9:	48 89 e5             	mov    rbp,rsp
      bc:	48 83 ec 30          	sub    rsp,0x30
      c0:	48 89 7d e8          	mov    QWORD PTR [rbp-0x18],rdi
      c4:	f3 0f 11 45 e4       	movss  DWORD PTR [rbp-0x1c],xmm0
      c9:	64 48 8b 04 25 28 00 	mov    rax,QWORD PTR fs:0x28
      d0:	00 00 
      d2:	48 89 45 f8          	mov    QWORD PTR [rbp-0x8],rax
      d6:	31 c0                	xor    eax,eax
      d8:	48 8b 45 e8          	mov    rax,QWORD PTR [rbp-0x18]
      dc:	f3 0f 10 40 04       	movss  xmm0,DWORD PTR [rax+0x4]
      e1:	0f 28 c8             	movaps xmm1,xmm0
      e4:	f3 0f 5e 4d e4       	divss  xmm1,DWORD PTR [rbp-0x1c]
      e9:	48 8b 45 e8          	mov    rax,QWORD PTR [rbp-0x18]
      ed:	f3 0f 10 00          	movss  xmm0,DWORD PTR [rax]
      f1:	f3 0f 5e 45 e4       	divss  xmm0,DWORD PTR [rbp-0x1c]
      f6:	48 8d 45 f0          	lea    rax,[rbp-0x10]
      fa:	48 89 c7             	mov    rdi,rax
      fd:	e8 00 00 00 00       	call   102 <_ZdvRK6ImVec2f+0x4a>
     102:	48 8b 45 f0          	mov    rax,QWORD PTR [rbp-0x10]
     106:	48 89 45 d8          	mov    QWORD PTR [rbp-0x28],rax
     10a:	f3 0f 7e 45 d8       	movq   xmm0,QWORD PTR [rbp-0x28]
     10f:	48 8b 45 f8          	mov    rax,QWORD PTR [rbp-0x8]
     113:	64 48 33 04 25 28 00 	xor    rax,QWORD PTR fs:0x28
     11a:	00 00 
     11c:	74 05                	je     123 <_ZdvRK6ImVec2f+0x6b>
     11e:	e8 00 00 00 00       	call   123 <_ZdvRK6ImVec2f+0x6b>
     123:	c9                   	leave  
     124:	c3                   	ret    

0000000000000125 <_ZplRK6ImVec2S1_>:
     125:	55                   	push   rbp
     126:	48 89 e5             	mov    rbp,rsp
     129:	48 83 ec 30          	sub    rsp,0x30
     12d:	48 89 7d e8          	mov    QWORD PTR [rbp-0x18],rdi
     131:	48 89 75 e0          	mov    QWORD PTR [rbp-0x20],rsi
     135:	64 48 8b 04 25 28 00 	mov    rax,QWORD PTR fs:0x28
     13c:	00 00 
     13e:	48 89 45 f8          	mov    QWORD PTR [rbp-0x8],rax
     142:	31 c0                	xor    eax,eax
     144:	48 8b 45 e8          	mov    rax,QWORD PTR [rbp-0x18]
     148:	f3 0f 10 48 04       	movss  xmm1,DWORD PTR [rax+0x4]
     14d:	48 8b 45 e0          	mov    rax,QWORD PTR [rbp-0x20]
     151:	f3 0f 10 40 04       	movss  xmm0,DWORD PTR [rax+0x4]
     156:	0f 28 d1             	movaps xmm2,xmm1
     159:	f3 0f 58 d0          	addss  xmm2,xmm0
     15d:	48 8b 45 e8          	mov    rax,QWORD PTR [rbp-0x18]
     161:	f3 0f 10 08          	movss  xmm1,DWORD PTR [rax]
     165:	48 8b 45 e0          	mov    rax,QWORD PTR [rbp-0x20]
     169:	f3 0f 10 00          	movss  xmm0,DWORD PTR [rax]
     16d:	f3 0f 58 c1          	addss  xmm0,xmm1
     171:	48 8d 45 f0          	lea    rax,[rbp-0x10]
     175:	0f 28 ca             	movaps xmm1,xmm2
     178:	48 89 c7             	mov    rdi,rax
     17b:	e8 00 00 00 00       	call   180 <_ZplRK6ImVec2S1_+0x5b>
     180:	48 8b 45 f0          	mov    rax,QWORD PTR [rbp-0x10]
     184:	48 89 45 d8          	mov    QWORD PTR [rbp-0x28],rax
     188:	f3 0f 7e 45 d8       	movq   xmm0,QWORD PTR [rbp-0x28]
     18d:	48 8b 45 f8          	mov    rax,QWORD PTR [rbp-0x8]
     191:	64 48 33 04 25 28 00 	xor    rax,QWORD PTR fs:0x28
     198:	00 00 
     19a:	74 05                	je     1a1 <_ZplRK6ImVec2S1_+0x7c>
     19c:	e8 00 00 00 00       	call   1a1 <_ZplRK6ImVec2S1_+0x7c>
     1a1:	c9                   	leave  
     1a2:	c3                   	ret    

00000000000001a3 <_ZmiRK6ImVec2S1_>:
     1a3:	55                   	push   rbp
     1a4:	48 89 e5             	mov    rbp,rsp
     1a7:	48 83 ec 30          	sub    rsp,0x30
     1ab:	48 89 7d e8          	mov    QWORD PTR [rbp-0x18],rdi
     1af:	48 89 75 e0          	mov    QWORD PTR [rbp-0x20],rsi
     1b3:	64 48 8b 04 25 28 00 	mov    rax,QWORD PTR fs:0x28
     1ba:	00 00 
     1bc:	48 89 45 f8          	mov    QWORD PTR [rbp-0x8],rax
     1c0:	31 c0                	xor    eax,eax
     1c2:	48 8b 45 e8          	mov    rax,QWORD PTR [rbp-0x18]
     1c6:	f3 0f 10 40 04       	movss  xmm0,DWORD PTR [rax+0x4]
     1cb:	48 8b 45 e0          	mov    rax,QWORD PTR [rbp-0x20]
     1cf:	f3 0f 10 48 04       	movss  xmm1,DWORD PTR [rax+0x4]
     1d4:	0f 28 d0             	movaps xmm2,xmm0
     1d7:	f3 0f 5c d1          	subss  xmm2,xmm1
     1db:	48 8b 45 e8          	mov    rax,QWORD PTR [rbp-0x18]
     1df:	f3 0f 10 00          	movss  xmm0,DWORD PTR [rax]
     1e3:	48 8b 45 e0          	mov    rax,QWORD PTR [rbp-0x20]
     1e7:	f3 0f 10 08          	movss  xmm1,DWORD PTR [rax]
     1eb:	f3 0f 5c c1          	subss  xmm0,xmm1
     1ef:	48 8d 45 f0          	lea    rax,[rbp-0x10]
     1f3:	0f 28 ca             	movaps xmm1,xmm2
     1f6:	48 89 c7             	mov    rdi,rax
     1f9:	e8 00 00 00 00       	call   1fe <_ZmiRK6ImVec2S1_+0x5b>
     1fe:	48 8b 45 f0          	mov    rax,QWORD PTR [rbp-0x10]
     202:	48 89 45 d8          	mov    QWORD PTR [rbp-0x28],rax
     206:	f3 0f 7e 45 d8       	movq   xmm0,QWORD PTR [rbp-0x28]
     20b:	48 8b 45 f8          	mov    rax,QWORD PTR [rbp-0x8]
     20f:	64 48 33 04 25 28 00 	xor    rax,QWORD PTR fs:0x28
     216:	00 00 
     218:	74 05                	je     21f <_ZmiRK6ImVec2S1_+0x7c>
     21a:	e8 00 00 00 00       	call   21f <_ZmiRK6ImVec2S1_+0x7c>
     21f:	c9                   	leave  
     220:	c3                   	ret    

0000000000000221 <_ZmlRK6ImVec2S1_>:
     221:	55                   	push   rbp
     222:	48 89 e5             	mov    rbp,rsp
     225:	48 83 ec 30          	sub    rsp,0x30
     229:	48 89 7d e8          	mov    QWORD PTR [rbp-0x18],rdi
     22d:	48 89 75 e0          	mov    QWORD PTR [rbp-0x20],rsi
     231:	64 48 8b 04 25 28 00 	mov    rax,QWORD PTR fs:0x28
     238:	00 00 
     23a:	48 89 45 f8          	mov    QWORD PTR [rbp-0x8],rax
     23e:	31 c0                	xor    eax,eax
     240:	48 8b 45 e8          	mov    rax,QWORD PTR [rbp-0x18]
     244:	f3 0f 10 48 04       	movss  xmm1,DWORD PTR [rax+0x4]
     249:	48 8b 45 e0          	mov    rax,QWORD PTR [rbp-0x20]
     24d:	f3 0f 10 40 04       	movss  xmm0,DWORD PTR [rax+0x4]
     252:	0f 28 d1             	movaps xmm2,xmm1
     255:	f3 0f 59 d0          	mulss  xmm2,xmm0
     259:	48 8b 45 e8          	mov    rax,QWORD PTR [rbp-0x18]
     25d:	f3 0f 10 08          	movss  xmm1,DWORD PTR [rax]
     261:	48 8b 45 e0          	mov    rax,QWORD PTR [rbp-0x20]
     265:	f3 0f 10 00          	movss  xmm0,DWORD PTR [rax]
     269:	f3 0f 59 c1          	mulss  xmm0,xmm1
     26d:	48 8d 45 f0          	lea    rax,[rbp-0x10]
     271:	0f 28 ca             	movaps xmm1,xmm2
     274:	48 89 c7             	mov    rdi,rax
     277:	e8 00 00 00 00       	call   27c <_ZmlRK6ImVec2S1_+0x5b>
     27c:	48 8b 45 f0          	mov    rax,QWORD PTR [rbp-0x10]
     280:	48 89 45 d8          	mov    QWORD PTR [rbp-0x28],rax
     284:	f3 0f 7e 45 d8       	movq   xmm0,QWORD PTR [rbp-0x28]
     289:	48 8b 45 f8          	mov    rax,QWORD PTR [rbp-0x8]
     28d:	64 48 33 04 25 28 00 	xor    rax,QWORD PTR fs:0x28
     294:	00 00 
     296:	74 05                	je     29d <_ZmlRK6ImVec2S1_+0x7c>
     298:	e8 00 00 00 00       	call   29d <_ZmlRK6ImVec2S1_+0x7c>
     29d:	c9                   	leave  
     29e:	c3                   	ret    

000000000000029f <_ZdvRK6ImVec2S1_>:
     29f:	55                   	push   rbp
     2a0:	48 89 e5             	mov    rbp,rsp
     2a3:	48 83 ec 30          	sub    rsp,0x30
     2a7:	48 89 7d e8          	mov    QWORD PTR [rbp-0x18],rdi
     2ab:	48 89 75 e0          	mov    QWORD PTR [rbp-0x20],rsi
     2af:	64 48 8b 04 25 28 00 	mov    rax,QWORD PTR fs:0x28
     2b6:	00 00 
     2b8:	48 89 45 f8          	mov    QWORD PTR [rbp-0x8],rax
     2bc:	31 c0                	xor    eax,eax
     2be:	48 8b 45 e8          	mov    rax,QWORD PTR [rbp-0x18]
     2c2:	f3 0f 10 40 04       	movss  xmm0,DWORD PTR [rax+0x4]
     2c7:	48 8b 45 e0          	mov    rax,QWORD PTR [rbp-0x20]
     2cb:	f3 0f 10 48 04       	movss  xmm1,DWORD PTR [rax+0x4]
     2d0:	0f 28 d0             	movaps xmm2,xmm0
     2d3:	f3 0f 5e d1          	divss  xmm2,xmm1
     2d7:	48 8b 45 e8          	mov    rax,QWORD PTR [rbp-0x18]
     2db:	f3 0f 10 00          	movss  xmm0,DWORD PTR [rax]
     2df:	48 8b 45 e0          	mov    rax,QWORD PTR [rbp-0x20]
     2e3:	f3 0f 10 08          	movss  xmm1,DWORD PTR [rax]
     2e7:	f3 0f 5e c1          	divss  xmm0,xmm1
     2eb:	48 8d 45 f0          	lea    rax,[rbp-0x10]
     2ef:	0f 28 ca             	movaps xmm1,xmm2
     2f2:	48 89 c7             	mov    rdi,rax
     2f5:	e8 00 00 00 00       	call   2fa <_ZdvRK6ImVec2S1_+0x5b>
     2fa:	48 8b 45 f0          	mov    rax,QWORD PTR [rbp-0x10]
     2fe:	48 89 45 d8          	mov    QWORD PTR [rbp-0x28],rax
     302:	f3 0f 7e 45 d8       	movq   xmm0,QWORD PTR [rbp-0x28]
     307:	48 8b 45 f8          	mov    rax,QWORD PTR [rbp-0x8]
     30b:	64 48 33 04 25 28 00 	xor    rax,QWORD PTR fs:0x28
     312:	00 00 
     314:	74 05                	je     31b <_ZdvRK6ImVec2S1_+0x7c>
     316:	e8 00 00 00 00       	call   31b <_ZdvRK6ImVec2S1_+0x7c>
     31b:	c9                   	leave  
     31c:	c3                   	ret    

000000000000031d <_ZmLR6ImVec2f>:
     31d:	55                   	push   rbp
     31e:	48 89 e5             	mov    rbp,rsp
     321:	48 89 7d f8          	mov    QWORD PTR [rbp-0x8],rdi
     325:	f3 0f 11 45 f4       	movss  DWORD PTR [rbp-0xc],xmm0
     32a:	48 8b 45 f8          	mov    rax,QWORD PTR [rbp-0x8]
     32e:	f3 0f 10 00          	movss  xmm0,DWORD PTR [rax]
     332:	f3 0f 59 45 f4       	mulss  xmm0,DWORD PTR [rbp-0xc]
     337:	48 8b 45 f8          	mov    rax,QWORD PTR [rbp-0x8]
     33b:	f3 0f 11 00          	movss  DWORD PTR [rax],xmm0
     33f:	48 8b 45 f8          	mov    rax,QWORD PTR [rbp-0x8]
     343:	f3 0f 10 40 04       	movss  xmm0,DWORD PTR [rax+0x4]
     348:	f3 0f 59 45 f4       	mulss  xmm0,DWORD PTR [rbp-0xc]
     34d:	48 8b 45 f8          	mov    rax,QWORD PTR [rbp-0x8]
     351:	f3 0f 11 40 04       	movss  DWORD PTR [rax+0x4],xmm0
     356:	48 8b 45 f8          	mov    rax,QWORD PTR [rbp-0x8]
     35a:	5d                   	pop    rbp
     35b:	c3                   	ret    

000000000000035c <_ZpLR6ImVec2RKS_>:
     35c:	55                   	push   rbp
     35d:	48 89 e5             	mov    rbp,rsp
     360:	48 89 7d f8          	mov    QWORD PTR [rbp-0x8],rdi
     364:	48 89 75 f0          	mov    QWORD PTR [rbp-0x10],rsi
     368:	48 8b 45 f8          	mov    rax,QWORD PTR [rbp-0x8]
     36c:	f3 0f 10 08          	movss  xmm1,DWORD PTR [rax]
     370:	48 8b 45 f0          	mov    rax,QWORD PTR [rbp-0x10]
     374:	f3 0f 10 00          	movss  xmm0,DWORD PTR [rax]
     378:	f3 0f 58 c1          	addss  xmm0,xmm1
     37c:	48 8b 45 f8          	mov    rax,QWORD PTR [rbp-0x8]
     380:	f3 0f 11 00          	movss  DWORD PTR [rax],xmm0
     384:	48 8b 45 f8          	mov    rax,QWORD PTR [rbp-0x8]
     388:	f3 0f 10 48 04       	movss  xmm1,DWORD PTR [rax+0x4]
     38d:	48 8b 45 f0          	mov    rax,QWORD PTR [rbp-0x10]
     391:	f3 0f 10 40 04       	movss  xmm0,DWORD PTR [rax+0x4]
     396:	f3 0f 58 c1          	addss  xmm0,xmm1
     39a:	48 8b 45 f8          	mov    rax,QWORD PTR [rbp-0x8]
     39e:	f3 0f 11 40 04       	movss  DWORD PTR [rax+0x4],xmm0
     3a3:	48 8b 45 f8          	mov    rax,QWORD PTR [rbp-0x8]
     3a7:	5d                   	pop    rbp
     3a8:	c3                   	ret    

00000000000003a9 <_ZmIR6ImVec2RKS_>:
     3a9:	55                   	push   rbp
     3aa:	48 89 e5             	mov    rbp,rsp
     3ad:	48 89 7d f8          	mov    QWORD PTR [rbp-0x8],rdi
     3b1:	48 89 75 f0          	mov    QWORD PTR [rbp-0x10],rsi
     3b5:	48 8b 45 f8          	mov    rax,QWORD PTR [rbp-0x8]
     3b9:	f3 0f 10 00          	movss  xmm0,DWORD PTR [rax]
     3bd:	48 8b 45 f0          	mov    rax,QWORD PTR [rbp-0x10]
     3c1:	f3 0f 10 08          	movss  xmm1,DWORD PTR [rax]
     3c5:	f3 0f 5c c1          	subss  xmm0,xmm1
     3c9:	48 8b 45 f8          	mov    rax,QWORD PTR [rbp-0x8]
     3cd:	f3 0f 11 00          	movss  DWORD PTR [rax],xmm0
     3d1:	48 8b 45 f8          	mov    rax,QWORD PTR [rbp-0x8]
     3d5:	f3 0f 10 40 04       	movss  xmm0,DWORD PTR [rax+0x4]
     3da:	48 8b 45 f0          	mov    rax,QWORD PTR [rbp-0x10]
     3de:	f3 0f 10 48 04       	movss  xmm1,DWORD PTR [rax+0x4]
     3e3:	f3 0f 5c c1          	subss  xmm0,xmm1
     3e7:	48 8b 45 f8          	mov    rax,QWORD PTR [rbp-0x8]
     3eb:	f3 0f 11 40 04       	movss  DWORD PTR [rax+0x4],xmm0
     3f0:	48 8b 45 f8          	mov    rax,QWORD PTR [rbp-0x8]
     3f4:	5d                   	pop    rbp
     3f5:	c3                   	ret    

00000000000003f6 <_ZL5ImMinRK6ImVec2S1_>:
     3f6:	55                   	push   rbp
     3f7:	48 89 e5             	mov    rbp,rsp
     3fa:	48 83 ec 30          	sub    rsp,0x30
     3fe:	48 89 7d e8          	mov    QWORD PTR [rbp-0x18],rdi
     402:	48 89 75 e0          	mov    QWORD PTR [rbp-0x20],rsi
     406:	64 48 8b 04 25 28 00 	mov    rax,QWORD PTR fs:0x28
     40d:	00 00 
     40f:	48 89 45 f8          	mov    QWORD PTR [rbp-0x8],rax
     413:	31 c0                	xor    eax,eax
     415:	48 8b 45 e8          	mov    rax,QWORD PTR [rbp-0x18]
     419:	f3 0f 10 48 04       	movss  xmm1,DWORD PTR [rax+0x4]
     41e:	48 8b 45 e0          	mov    rax,QWORD PTR [rbp-0x20]
     422:	f3 0f 10 40 04       	movss  xmm0,DWORD PTR [rax+0x4]
     427:	0f 2e c1             	ucomiss xmm0,xmm1
     42a:	76 0b                	jbe    437 <_ZL5ImMinRK6ImVec2S1_+0x41>
     42c:	48 8b 45 e8          	mov    rax,QWORD PTR [rbp-0x18]
     430:	f3 0f 10 48 04       	movss  xmm1,DWORD PTR [rax+0x4]
     435:	eb 09                	jmp    440 <_ZL5ImMinRK6ImVec2S1_+0x4a>
     437:	48 8b 45 e0          	mov    rax,QWORD PTR [rbp-0x20]
     43b:	f3 0f 10 48 04       	movss  xmm1,DWORD PTR [rax+0x4]
     440:	48 8b 45 e8          	mov    rax,QWORD PTR [rbp-0x18]
     444:	f3 0f 10 10          	movss  xmm2,DWORD PTR [rax]
     448:	48 8b 45 e0          	mov    rax,QWORD PTR [rbp-0x20]
     44c:	f3 0f 10 00          	movss  xmm0,DWORD PTR [rax]
     450:	0f 2e c2             	ucomiss xmm0,xmm2
     453:	76 08                	jbe    45d <_ZL5ImMinRK6ImVec2S1_+0x67>
     455:	48 8b 45 e8          	mov    rax,QWORD PTR [rbp-0x18]
     459:	8b 00                	mov    eax,DWORD PTR [rax]
     45b:	eb 06                	jmp    463 <_ZL5ImMinRK6ImVec2S1_+0x6d>
     45d:	48 8b 45 e0          	mov    rax,QWORD PTR [rbp-0x20]
     461:	8b 00                	mov    eax,DWORD PTR [rax]
     463:	48 8d 55 f0          	lea    rdx,[rbp-0x10]
     467:	89 45 d8             	mov    DWORD PTR [rbp-0x28],eax
     46a:	f3 0f 10 45 d8       	movss  xmm0,DWORD PTR [rbp-0x28]
     46f:	48 89 d7             	mov    rdi,rdx
     472:	e8 00 00 00 00       	call   477 <_ZL5ImMinRK6ImVec2S1_+0x81>
     477:	48 8b 45 f0          	mov    rax,QWORD PTR [rbp-0x10]
     47b:	48 89 45 d8          	mov    QWORD PTR [rbp-0x28],rax
     47f:	f3 0f 7e 45 d8       	movq   xmm0,QWORD PTR [rbp-0x28]
     484:	48 8b 45 f8          	mov    rax,QWORD PTR [rbp-0x8]
     488:	64 48 33 04 25 28 00 	xor    rax,QWORD PTR fs:0x28
     48f:	00 00 
     491:	74 05                	je     498 <_ZL5ImMinRK6ImVec2S1_+0xa2>
     493:	e8 00 00 00 00       	call   498 <_ZL5ImMinRK6ImVec2S1_+0xa2>
     498:	c9                   	leave  
     499:	c3                   	ret    

000000000000049a <_ZL5ImMaxRK6ImVec2S1_>:
     49a:	55                   	push   rbp
     49b:	48 89 e5             	mov    rbp,rsp
     49e:	48 83 ec 30          	sub    rsp,0x30
     4a2:	48 89 7d e8          	mov    QWORD PTR [rbp-0x18],rdi
     4a6:	48 89 75 e0          	mov    QWORD PTR [rbp-0x20],rsi
     4aa:	64 48 8b 04 25 28 00 	mov    rax,QWORD PTR fs:0x28
     4b1:	00 00 
     4b3:	48 89 45 f8          	mov    QWORD PTR [rbp-0x8],rax
     4b7:	31 c0                	xor    eax,eax
     4b9:	48 8b 45 e8          	mov    rax,QWORD PTR [rbp-0x18]
     4bd:	f3 0f 10 40 04       	movss  xmm0,DWORD PTR [rax+0x4]
     4c2:	48 8b 45 e0          	mov    rax,QWORD PTR [rbp-0x20]
     4c6:	f3 0f 10 48 04       	movss  xmm1,DWORD PTR [rax+0x4]
     4cb:	0f 2e c1             	ucomiss xmm0,xmm1
     4ce:	72 0b                	jb     4db <_ZL5ImMaxRK6ImVec2S1_+0x41>
     4d0:	48 8b 45 e8          	mov    rax,QWORD PTR [rbp-0x18]
     4d4:	f3 0f 10 48 04       	movss  xmm1,DWORD PTR [rax+0x4]
     4d9:	eb 09                	jmp    4e4 <_ZL5ImMaxRK6ImVec2S1_+0x4a>
     4db:	48 8b 45 e0          	mov    rax,QWORD PTR [rbp-0x20]
     4df:	f3 0f 10 48 04       	movss  xmm1,DWORD PTR [rax+0x4]
     4e4:	48 8b 45 e8          	mov    rax,QWORD PTR [rbp-0x18]
     4e8:	f3 0f 10 00          	movss  xmm0,DWORD PTR [rax]
     4ec:	48 8b 45 e0          	mov    rax,QWORD PTR [rbp-0x20]
     4f0:	f3 0f 10 10          	movss  xmm2,DWORD PTR [rax]
     4f4:	0f 2e c2             	ucomiss xmm0,xmm2
     4f7:	72 08                	jb     501 <_ZL5ImMaxRK6ImVec2S1_+0x67>
     4f9:	48 8b 45 e8          	mov    rax,QWORD PTR [rbp-0x18]
     4fd:	8b 00                	mov    eax,DWORD PTR [rax]
     4ff:	eb 06                	jmp    507 <_ZL5ImMaxRK6ImVec2S1_+0x6d>
     501:	48 8b 45 e0          	mov    rax,QWORD PTR [rbp-0x20]
     505:	8b 00                	mov    eax,DWORD PTR [rax]
     507:	48 8d 55 f0          	lea    rdx,[rbp-0x10]
     50b:	89 45 d8             	mov    DWORD PTR [rbp-0x28],eax
     50e:	f3 0f 10 45 d8       	movss  xmm0,DWORD PTR [rbp-0x28]
     513:	48 89 d7             	mov    rdi,rdx
     516:	e8 00 00 00 00       	call   51b <_ZL5ImMaxRK6ImVec2S1_+0x81>
     51b:	48 8b 45 f0          	mov    rax,QWORD PTR [rbp-0x10]
     51f:	48 89 45 d8          	mov    QWORD PTR [rbp-0x28],rax
     523:	f3 0f 7e 45 d8       	movq   xmm0,QWORD PTR [rbp-0x28]
     528:	48 8b 45 f8          	mov    rax,QWORD PTR [rbp-0x8]
     52c:	64 48 33 04 25 28 00 	xor    rax,QWORD PTR fs:0x28
     533:	00 00 
     535:	74 05                	je     53c <_ZL5ImMaxRK6ImVec2S1_+0xa2>
     537:	e8 00 00 00 00       	call   53c <_ZL5ImMaxRK6ImVec2S1_+0xa2>
     53c:	c9                   	leave  
     53d:	c3                   	ret    

000000000000053e <_ZL7ImClampRK6ImVec2S1_S_>:
     53e:	55                   	push   rbp
     53f:	48 89 e5             	mov    rbp,rsp
     542:	48 83 ec 30          	sub    rsp,0x30
     546:	48 89 7d e8          	mov    QWORD PTR [rbp-0x18],rdi
     54a:	48 89 75 e0          	mov    QWORD PTR [rbp-0x20],rsi
     54e:	66 0f d6 45 d8       	movq   QWORD PTR [rbp-0x28],xmm0
     553:	64 48 8b 04 25 28 00 	mov    rax,QWORD PTR fs:0x28
     55a:	00 00 
     55c:	48 89 45 f8          	mov    QWORD PTR [rbp-0x8],rax
     560:	31 c0                	xor    eax,eax
     562:	48 8b 45 e8          	mov    rax,QWORD PTR [rbp-0x18]
     566:	f3 0f 10 48 04       	movss  xmm1,DWORD PTR [rax+0x4]
     56b:	48 8b 45 e0          	mov    rax,QWORD PTR [rbp-0x20]
     56f:	f3 0f 10 40 04       	movss  xmm0,DWORD PTR [rax+0x4]
     574:	0f 2e c1             	ucomiss xmm0,xmm1
     577:	76 0b                	jbe    584 <_ZL7ImClampRK6ImVec2S1_S_+0x46>
     579:	48 8b 45 e0          	mov    rax,QWORD PTR [rbp-0x20]
     57d:	f3 0f 10 40 04       	movss  xmm0,DWORD PTR [rax+0x4]
     582:	eb 23                	jmp    5a7 <_ZL7ImClampRK6ImVec2S1_S_+0x69>
     584:	48 8b 45 e8          	mov    rax,QWORD PTR [rbp-0x18]
     588:	f3 0f 10 40 04       	movss  xmm0,DWORD PTR [rax+0x4]
     58d:	f3 0f 10 4d dc       	movss  xmm1,DWORD PTR [rbp-0x24]
     592:	0f 2e c1             	ucomiss xmm0,xmm1
     595:	76 07                	jbe    59e <_ZL7ImClampRK6ImVec2S1_S_+0x60>
     597:	f3 0f 10 45 dc       	movss  xmm0,DWORD PTR [rbp-0x24]
     59c:	eb 09                	jmp    5a7 <_ZL7ImClampRK6ImVec2S1_S_+0x69>
     59e:	48 8b 45 e8          	mov    rax,QWORD PTR [rbp-0x18]
     5a2:	f3 0f 10 40 04       	movss  xmm0,DWORD PTR [rax+0x4]
     5a7:	48 8b 45 e8          	mov    rax,QWORD PTR [rbp-0x18]
     5ab:	f3 0f 10 10          	movss  xmm2,DWORD PTR [rax]
     5af:	48 8b 45 e0          	mov    rax,QWORD PTR [rbp-0x20]
     5b3:	f3 0f 10 08          	movss  xmm1,DWORD PTR [rax]
     5b7:	0f 2e ca             	ucomiss xmm1,xmm2
     5ba:	76 08                	jbe    5c4 <_ZL7ImClampRK6ImVec2S1_S_+0x86>
     5bc:	48 8b 45 e0          	mov    rax,QWORD PTR [rbp-0x20]
     5c0:	8b 00                	mov    eax,DWORD PTR [rax]
     5c2:	eb 1d                	jmp    5e1 <_ZL7ImClampRK6ImVec2S1_S_+0xa3>
     5c4:	48 8b 45 e8          	mov    rax,QWORD PTR [rbp-0x18]
     5c8:	f3 0f 10 08          	movss  xmm1,DWORD PTR [rax]
     5cc:	f3 0f 10 55 d8       	movss  xmm2,DWORD PTR [rbp-0x28]
     5d1:	0f 2e ca             	ucomiss xmm1,xmm2
     5d4:	76 05                	jbe    5db <_ZL7ImClampRK6ImVec2S1_S_+0x9d>
     5d6:	8b 45 d8             	mov    eax,DWORD PTR [rbp-0x28]
     5d9:	eb 06                	jmp    5e1 <_ZL7ImClampRK6ImVec2S1_S_+0xa3>
     5db:	48 8b 45 e8          	mov    rax,QWORD PTR [rbp-0x18]
     5df:	8b 00                	mov    eax,DWORD PTR [rax]
     5e1:	48 8d 55 f0          	lea    rdx,[rbp-0x10]
     5e5:	0f 28 c8             	movaps xmm1,xmm0
     5e8:	89 45 d0             	mov    DWORD PTR [rbp-0x30],eax
     5eb:	f3 0f 10 45 d0       	movss  xmm0,DWORD PTR [rbp-0x30]
     5f0:	48 89 d7             	mov    rdi,rdx
     5f3:	e8 00 00 00 00       	call   5f8 <_ZL7ImClampRK6ImVec2S1_S_+0xba>
     5f8:	48 8b 45 f0          	mov    rax,QWORD PTR [rbp-0x10]
     5fc:	48 89 45 d0          	mov    QWORD PTR [rbp-0x30],rax
     600:	f3 0f 7e 45 d0       	movq   xmm0,QWORD PTR [rbp-0x30]
     605:	48 8b 45 f8          	mov    rax,QWORD PTR [rbp-0x8]
     609:	64 48 33 04 25 28 00 	xor    rax,QWORD PTR fs:0x28
     610:	00 00 
     612:	74 05                	je     619 <_ZL7ImClampRK6ImVec2S1_S_+0xdb>
     614:	e8 00 00 00 00       	call   619 <_ZL7ImClampRK6ImVec2S1_S_+0xdb>
     619:	c9                   	leave  
     61a:	c3                   	ret    

000000000000061b <_ZL6ImLerpRK6ImVec2S1_S1_>:
     61b:	55                   	push   rbp
     61c:	48 89 e5             	mov    rbp,rsp
     61f:	48 83 ec 30          	sub    rsp,0x30
     623:	48 89 7d e8          	mov    QWORD PTR [rbp-0x18],rdi
     627:	48 89 75 e0          	mov    QWORD PTR [rbp-0x20],rsi
     62b:	48 89 55 d8          	mov    QWORD PTR [rbp-0x28],rdx
     62f:	64 48 8b 04 25 28 00 	mov    rax,QWORD PTR fs:0x28
     636:	00 00 
     638:	48 89 45 f8          	mov    QWORD PTR [rbp-0x8],rax
     63c:	31 c0                	xor    eax,eax
     63e:	48 8b 45 e8          	mov    rax,QWORD PTR [rbp-0x18]
     642:	f3 0f 10 48 04       	movss  xmm1,DWORD PTR [rax+0x4]
     647:	48 8b 45 e0          	mov    rax,QWORD PTR [rbp-0x20]
     64b:	f3 0f 10 40 04       	movss  xmm0,DWORD PTR [rax+0x4]
     650:	48 8b 45 e8          	mov    rax,QWORD PTR [rbp-0x18]
     654:	f3 0f 10 50 04       	movss  xmm2,DWORD PTR [rax+0x4]
     659:	f3 0f 5c c2          	subss  xmm0,xmm2
     65d:	48 8b 45 d8          	mov    rax,QWORD PTR [rbp-0x28]
     661:	f3 0f 10 50 04       	movss  xmm2,DWORD PTR [rax+0x4]
     666:	f3 0f 59 c2          	mulss  xmm0,xmm2
     66a:	0f 28 d9             	movaps xmm3,xmm1
     66d:	f3 0f 58 d8          	addss  xmm3,xmm0
     671:	48 8b 45 e8          	mov    rax,QWORD PTR [rbp-0x18]
     675:	f3 0f 10 08          	movss  xmm1,DWORD PTR [rax]
     679:	48 8b 45 e0          	mov    rax,QWORD PTR [rbp-0x20]
     67d:	f3 0f 10 00          	movss  xmm0,DWORD PTR [rax]
     681:	48 8b 45 e8          	mov    rax,QWORD PTR [rbp-0x18]
     685:	f3 0f 10 10          	movss  xmm2,DWORD PTR [rax]
     689:	f3 0f 5c c2          	subss  xmm0,xmm2
     68d:	48 8b 45 d8          	mov    rax,QWORD PTR [rbp-0x28]
     691:	f3 0f 10 10          	movss  xmm2,DWORD PTR [rax]
     695:	f3 0f 59 c2          	mulss  xmm0,xmm2
     699:	f3 0f 58 c1          	addss  xmm0,xmm1
     69d:	48 8d 45 f0          	lea    rax,[rbp-0x10]
     6a1:	0f 28 cb             	movaps xmm1,xmm3
     6a4:	48 89 c7             	mov    rdi,rax
     6a7:	e8 00 00 00 00       	call   6ac <_ZL6ImLerpRK6ImVec2S1_S1_+0x91>
     6ac:	48 8b 45 f0          	mov    rax,QWORD PTR [rbp-0x10]
     6b0:	48 89 45 d0          	mov    QWORD PTR [rbp-0x30],rax
     6b4:	f3 0f 7e 45 d0       	movq   xmm0,QWORD PTR [rbp-0x30]
     6b9:	48 8b 45 f8          	mov    rax,QWORD PTR [rbp-0x8]
     6bd:	64 48 33 04 25 28 00 	xor    rax,QWORD PTR fs:0x28
     6c4:	00 00 
     6c6:	74 05                	je     6cd <_ZL6ImLerpRK6ImVec2S1_S1_+0xb2>
     6c8:	e8 00 00 00 00       	call   6cd <_ZL6ImLerpRK6ImVec2S1_S1_+0xb2>
     6cd:	c9                   	leave  
     6ce:	c3                   	ret    

00000000000006cf <_ZL10ImSaturatef>:
     6cf:	55                   	push   rbp
     6d0:	48 89 e5             	mov    rbp,rsp
     6d3:	f3 0f 11 45 fc       	movss  DWORD PTR [rbp-0x4],xmm0
     6d8:	66 0f ef c0          	pxor   xmm0,xmm0
     6dc:	0f 2e 45 fc          	ucomiss xmm0,DWORD PTR [rbp-0x4]
     6e0:	76 06                	jbe    6e8 <_ZL10ImSaturatef+0x19>
     6e2:	66 0f ef c0          	pxor   xmm0,xmm0
     6e6:	eb 21                	jmp    709 <_ZL10ImSaturatef+0x3a>
     6e8:	f3 0f 10 45 fc       	movss  xmm0,DWORD PTR [rbp-0x4]
     6ed:	f3 0f 10 0d 00 00 00 	movss  xmm1,DWORD PTR [rip+0x0]        # 6f5 <_ZL10ImSaturatef+0x26>
     6f4:	00 
     6f5:	0f 2e c1             	ucomiss xmm0,xmm1
     6f8:	76 0a                	jbe    704 <_ZL10ImSaturatef+0x35>
     6fa:	f3 0f 10 05 00 00 00 	movss  xmm0,DWORD PTR [rip+0x0]        # 702 <_ZL10ImSaturatef+0x33>
     701:	00 
     702:	eb 05                	jmp    709 <_ZL10ImSaturatef+0x3a>
     704:	f3 0f 10 45 fc       	movss  xmm0,DWORD PTR [rbp-0x4]
     709:	5d                   	pop    rbp
     70a:	c3                   	ret    

000000000000070b <_ZL11ImLengthSqrRK6ImVec2>:
     70b:	55                   	push   rbp
     70c:	48 89 e5             	mov    rbp,rsp
     70f:	48 89 7d f8          	mov    QWORD PTR [rbp-0x8],rdi
     713:	48 8b 45 f8          	mov    rax,QWORD PTR [rbp-0x8]
     717:	f3 0f 10 08          	movss  xmm1,DWORD PTR [rax]
     71b:	48 8b 45 f8          	mov    rax,QWORD PTR [rbp-0x8]
     71f:	f3 0f 10 00          	movss  xmm0,DWORD PTR [rax]
     723:	f3 0f 59 c8          	mulss  xmm1,xmm0
     727:	48 8b 45 f8          	mov    rax,QWORD PTR [rbp-0x8]
     72b:	f3 0f 10 50 04       	movss  xmm2,DWORD PTR [rax+0x4]
     730:	48 8b 45 f8          	mov    rax,QWORD PTR [rbp-0x8]
     734:	f3 0f 10 40 04       	movss  xmm0,DWORD PTR [rax+0x4]
     739:	f3 0f 59 c2          	mulss  xmm0,xmm2
     73d:	f3 0f 58 c1          	addss  xmm0,xmm1
     741:	5d                   	pop    rbp
     742:	c3                   	ret    

0000000000000743 <_ZL7ImFloorf>:
     743:	55                   	push   rbp
     744:	48 89 e5             	mov    rbp,rsp
     747:	f3 0f 11 45 fc       	movss  DWORD PTR [rbp-0x4],xmm0
     74c:	f3 0f 10 45 fc       	movss  xmm0,DWORD PTR [rbp-0x4]
     751:	f3 0f 2c c0          	cvttss2si eax,xmm0
     755:	f3 0f 2a c0          	cvtsi2ss xmm0,eax
     759:	5d                   	pop    rbp
     75a:	c3                   	ret    

000000000000075b <_ZL7ImFloorRK6ImVec2>:
     75b:	55                   	push   rbp
     75c:	48 89 e5             	mov    rbp,rsp
     75f:	48 83 ec 20          	sub    rsp,0x20
     763:	48 89 7d e8          	mov    QWORD PTR [rbp-0x18],rdi
     767:	64 48 8b 04 25 28 00 	mov    rax,QWORD PTR fs:0x28
     76e:	00 00 
     770:	48 89 45 f8          	mov    QWORD PTR [rbp-0x8],rax
     774:	31 c0                	xor    eax,eax
     776:	48 8b 45 e8          	mov    rax,QWORD PTR [rbp-0x18]
     77a:	f3 0f 10 40 04       	movss  xmm0,DWORD PTR [rax+0x4]
     77f:	f3 0f 2c c0          	cvttss2si eax,xmm0
     783:	f3 0f 2a c8          	cvtsi2ss xmm1,eax
     787:	48 8b 45 e8          	mov    rax,QWORD PTR [rbp-0x18]
     78b:	f3 0f 10 00          	movss  xmm0,DWORD PTR [rax]
     78f:	f3 0f 2c c0          	cvttss2si eax,xmm0
     793:	f3 0f 2a c0          	cvtsi2ss xmm0,eax
     797:	48 8d 45 f0          	lea    rax,[rbp-0x10]
     79b:	48 89 c7             	mov    rdi,rax
     79e:	e8 00 00 00 00       	call   7a3 <_ZL7ImFloorRK6ImVec2+0x48>
     7a3:	48 8b 45 f0          	mov    rax,QWORD PTR [rbp-0x10]
     7a7:	48 89 45 e0          	mov    QWORD PTR [rbp-0x20],rax
     7ab:	f3 0f 7e 45 e0       	movq   xmm0,QWORD PTR [rbp-0x20]
     7b0:	48 8b 45 f8          	mov    rax,QWORD PTR [rbp-0x8]
     7b4:	64 48 33 04 25 28 00 	xor    rax,QWORD PTR fs:0x28
     7bb:	00 00 
     7bd:	74 05                	je     7c4 <_ZL7ImFloorRK6ImVec2+0x69>
     7bf:	e8 00 00 00 00       	call   7c4 <_ZL7ImFloorRK6ImVec2+0x69>
     7c4:	c9                   	leave  
     7c5:	c3                   	ret    

00000000000007c6 <_ZL13ImModPositiveii>:
     7c6:	55                   	push   rbp
     7c7:	48 89 e5             	mov    rbp,rsp
     7ca:	89 7d fc             	mov    DWORD PTR [rbp-0x4],edi
     7cd:	89 75 f8             	mov    DWORD PTR [rbp-0x8],esi
     7d0:	8b 55 fc             	mov    edx,DWORD PTR [rbp-0x4]
     7d3:	8b 45 f8             	mov    eax,DWORD PTR [rbp-0x8]
     7d6:	01 d0                	add    eax,edx
     7d8:	99                   	cdq    
     7d9:	f7 7d f8             	idiv   DWORD PTR [rbp-0x8]
     7dc:	89 d0                	mov    eax,edx
     7de:	5d                   	pop    rbp
     7df:	c3                   	ret    

00000000000007e0 <_ZL13MallocWrappermPv>:
     7e0:	55                   	push   rbp
     7e1:	48 89 e5             	mov    rbp,rsp
     7e4:	48 83 ec 10          	sub    rsp,0x10
     7e8:	48 89 7d f8          	mov    QWORD PTR [rbp-0x8],rdi
     7ec:	48 89 75 f0          	mov    QWORD PTR [rbp-0x10],rsi
     7f0:	48 8b 45 f8          	mov    rax,QWORD PTR [rbp-0x8]
     7f4:	48 89 c7             	mov    rdi,rax
     7f7:	e8 00 00 00 00       	call   7fc <_ZL13MallocWrappermPv+0x1c>
     7fc:	c9                   	leave  
     7fd:	c3                   	ret    

00000000000007fe <_ZL11FreeWrapperPvS_>:
     7fe:	55                   	push   rbp
     7ff:	48 89 e5             	mov    rbp,rsp
     802:	48 83 ec 10          	sub    rsp,0x10
     806:	48 89 7d f8          	mov    QWORD PTR [rbp-0x8],rdi
     80a:	48 89 75 f0          	mov    QWORD PTR [rbp-0x10],rsi
     80e:	48 8b 45 f8          	mov    rax,QWORD PTR [rbp-0x8]
     812:	48 89 c7             	mov    rdi,rax
     815:	e8 00 00 00 00       	call   81a <_ZL11FreeWrapperPvS_+0x1c>
     81a:	90                   	nop
     81b:	c9                   	leave  
     81c:	c3                   	ret    
     81d:	90                   	nop

000000000000081e <_ZN10ImGuiStyleC1Ev>:
     81e:	55                   	push   rbp
     81f:	48 89 e5             	mov    rbp,rsp
     822:	41 54                	push   r12
     824:	53                   	push   rbx
     825:	48 83 ec 20          	sub    rsp,0x20
     829:	48 89 7d d8          	mov    QWORD PTR [rbp-0x28],rdi
     82d:	64 48 8b 04 25 28 00 	mov    rax,QWORD PTR fs:0x28
     834:	00 00 
     836:	48 89 45 e8          	mov    QWORD PTR [rbp-0x18],rax
     83a:	31 c0                	xor    eax,eax
     83c:	48 8b 45 d8          	mov    rax,QWORD PTR [rbp-0x28]
     840:	48 83 c0 04          	add    rax,0x4
     844:	48 89 c7             	mov    rdi,rax
     847:	e8 00 00 00 00       	call   84c <_ZN10ImGuiStyleC1Ev+0x2e>
     84c:	48 8b 45 d8          	mov    rax,QWORD PTR [rbp-0x28]
     850:	48 83 c0 14          	add    rax,0x14
     854:	48 89 c7             	mov    rdi,rax
     857:	e8 00 00 00 00       	call   85c <_ZN10ImGuiStyleC1Ev+0x3e>
     85c:	48 8b 45 d8          	mov    rax,QWORD PTR [rbp-0x28]
     860:	48 83 c0 1c          	add    rax,0x1c
     864:	48 89 c7             	mov    rdi,rax
     867:	e8 00 00 00 00       	call   86c <_ZN10ImGuiStyleC1Ev+0x4e>
     86c:	48 8b 45 d8          	mov    rax,QWORD PTR [rbp-0x28]
     870:	48 83 c0 38          	add    rax,0x38
     874:	48 89 c7             	mov    rdi,rax
     877:	e8 00 00 00 00       	call   87c <_ZN10ImGuiStyleC1Ev+0x5e>
     87c:	48 8b 45 d8          	mov    rax,QWORD PTR [rbp-0x28]
     880:	48 83 c0 48          	add    rax,0x48
     884:	48 89 c7             	mov    rdi,rax
     887:	e8 00 00 00 00       	call   88c <_ZN10ImGuiStyleC1Ev+0x6e>
     88c:	48 8b 45 d8          	mov    rax,QWORD PTR [rbp-0x28]
     890:	48 83 c0 50          	add    rax,0x50
     894:	48 89 c7             	mov    rdi,rax
     897:	e8 00 00 00 00       	call   89c <_ZN10ImGuiStyleC1Ev+0x7e>
     89c:	48 8b 45 d8          	mov    rax,QWORD PTR [rbp-0x28]
     8a0:	48 83 c0 58          	add    rax,0x58
     8a4:	48 89 c7             	mov    rdi,rax
     8a7:	e8 00 00 00 00       	call   8ac <_ZN10ImGuiStyleC1Ev+0x8e>
     8ac:	48 8b 45 d8          	mov    rax,QWORD PTR [rbp-0x28]
     8b0:	48 05 8c 00 00 00    	add    rax,0x8c
     8b6:	48 89 c7             	mov    rdi,rax
     8b9:	e8 00 00 00 00       	call   8be <_ZN10ImGuiStyleC1Ev+0xa0>
     8be:	48 8b 45 d8          	mov    rax,QWORD PTR [rbp-0x28]
     8c2:	48 05 94 00 00 00    	add    rax,0x94
     8c8:	48 89 c7             	mov    rdi,rax
     8cb:	e8 00 00 00 00       	call   8d0 <_ZN10ImGuiStyleC1Ev+0xb2>
     8d0:	48 8b 45 d8          	mov    rax,QWORD PTR [rbp-0x28]
     8d4:	48 05 9c 00 00 00    	add    rax,0x9c
     8da:	48 89 c7             	mov    rdi,rax
     8dd:	e8 00 00 00 00       	call   8e2 <_ZN10ImGuiStyleC1Ev+0xc4>
     8e2:	48 8b 45 d8          	mov    rax,QWORD PTR [rbp-0x28]
     8e6:	48 05 a4 00 00 00    	add    rax,0xa4
     8ec:	48 89 c7             	mov    rdi,rax
     8ef:	e8 00 00 00 00       	call   8f4 <_ZN10ImGuiStyleC1Ev+0xd6>
     8f4:	48 8b 45 d8          	mov    rax,QWORD PTR [rbp-0x28]
     8f8:	48 05 bc 00 00 00    	add    rax,0xbc
     8fe:	bb 2f 00 00 00       	mov    ebx,0x2f
     903:	49 89 c4             	mov    r12,rax
     906:	48 85 db             	test   rbx,rbx
     909:	78 12                	js     91d <_ZN10ImGuiStyleC1Ev+0xff>
     90b:	4c 89 e7             	mov    rdi,r12
     90e:	e8 00 00 00 00       	call   913 <_ZN10ImGuiStyleC1Ev+0xf5>
     913:	49 83 c4 10          	add    r12,0x10
     917:	48 83 eb 01          	sub    rbx,0x1
     91b:	eb e9                	jmp    906 <_ZN10ImGuiStyleC1Ev+0xe8>
     91d:	48 8b 45 d8          	mov    rax,QWORD PTR [rbp-0x28]
     921:	f3 0f 10 05 00 00 00 	movss  xmm0,DWORD PTR [rip+0x0]        # 929 <_ZN10ImGuiStyleC1Ev+0x10b>
     928:	00 
     929:	f3 0f 11 00          	movss  DWORD PTR [rax],xmm0
     92d:	48 8d 45 e0          	lea    rax,[rbp-0x20]
     931:	f3 0f 10 0d 00 00 00 	movss  xmm1,DWORD PTR [rip+0x0]        # 939 <_ZN10ImGuiStyleC1Ev+0x11b>
     938:	00 
     939:	f3 0f 10 05 00 00 00 	movss  xmm0,DWORD PTR [rip+0x0]        # 941 <_ZN10ImGuiStyleC1Ev+0x123>
     940:	00 
     941:	48 89 c7             	mov    rdi,rax
     944:	e8 00 00 00 00       	call   949 <_ZN10ImGuiStyleC1Ev+0x12b>
     949:	48 8b 45 d8          	mov    rax,QWORD PTR [rbp-0x28]
     94d:	48 8b 55 e0          	mov    rdx,QWORD PTR [rbp-0x20]
     951:	48 89 50 04          	mov    QWORD PTR [rax+0x4],rdx
     955:	48 8b 45 d8          	mov    rax,QWORD PTR [rbp-0x28]
     959:	f3 0f 10 05 00 00 00 	movss  xmm0,DWORD PTR [rip+0x0]        # 961 <_ZN10ImGuiStyleC1Ev+0x143>
     960:	00 
     961:	f3 0f 11 40 0c       	movss  DWORD PTR [rax+0xc],xmm0
     966:	48 8b 45 d8          	mov    rax,QWORD PTR [rbp-0x28]
     96a:	f3 0f 10 05 00 00 00 	movss  xmm0,DWORD PTR [rip+0x0]        # 972 <_ZN10ImGuiStyleC1Ev+0x154>
     971:	00 
     972:	f3 0f 11 40 10       	movss  DWORD PTR [rax+0x10],xmm0
     977:	48 8d 45 e0          	lea    rax,[rbp-0x20]
     97b:	f3 0f 10 0d 00 00 00 	movss  xmm1,DWORD PTR [rip+0x0]        # 983 <_ZN10ImGuiStyleC1Ev+0x165>
     982:	00 
     983:	f3 0f 10 05 00 00 00 	movss  xmm0,DWORD PTR [rip+0x0]        # 98b <_ZN10ImGuiStyleC1Ev+0x16d>
     98a:	00 
     98b:	48 89 c7             	mov    rdi,rax
     98e:	e8 00 00 00 00       	call   993 <_ZN10ImGuiStyleC1Ev+0x175>
     993:	48 8b 45 d8          	mov    rax,QWORD PTR [rbp-0x28]
     997:	48 8b 55 e0          	mov    rdx,QWORD PTR [rbp-0x20]
     99b:	48 89 50 14          	mov    QWORD PTR [rax+0x14],rdx
     99f:	48 8d 45 e0          	lea    rax,[rbp-0x20]
     9a3:	f3 0f 10 0d 00 00 00 	movss  xmm1,DWORD PTR [rip+0x0]        # 9ab <_ZN10ImGuiStyleC1Ev+0x18d>
     9aa:	00 
     9ab:	66 0f ef c0          	pxor   xmm0,xmm0
     9af:	48 89 c7             	mov    rdi,rax
     9b2:	e8 00 00 00 00       	call   9b7 <_ZN10ImGuiStyleC1Ev+0x199>
     9b7:	48 8b 45 d8          	mov    rax,QWORD PTR [rbp-0x28]
     9bb:	48 8b 55 e0          	mov    rdx,QWORD PTR [rbp-0x20]
     9bf:	48 89 50 1c          	mov    QWORD PTR [rax+0x1c],rdx
     9c3:	48 8b 45 d8          	mov    rax,QWORD PTR [rbp-0x28]
     9c7:	c7 40 24 00 00 00 00 	mov    DWORD PTR [rax+0x24],0x0
     9ce:	48 8b 45 d8          	mov    rax,QWORD PTR [rbp-0x28]
     9d2:	66 0f ef c0          	pxor   xmm0,xmm0
     9d6:	f3 0f 11 40 28       	movss  DWORD PTR [rax+0x28],xmm0
     9db:	48 8b 45 d8          	mov    rax,QWORD PTR [rbp-0x28]
     9df:	f3 0f 10 05 00 00 00 	movss  xmm0,DWORD PTR [rip+0x0]        # 9e7 <_ZN10ImGuiStyleC1Ev+0x1c9>
     9e6:	00 
     9e7:	f3 0f 11 40 2c       	movss  DWORD PTR [rax+0x2c],xmm0
     9ec:	48 8b 45 d8          	mov    rax,QWORD PTR [rbp-0x28]
     9f0:	66 0f ef c0          	pxor   xmm0,xmm0
     9f4:	f3 0f 11 40 30       	movss  DWORD PTR [rax+0x30],xmm0
     9f9:	48 8b 45 d8          	mov    rax,QWORD PTR [rbp-0x28]
     9fd:	f3 0f 10 05 00 00 00 	movss  xmm0,DWORD PTR [rip+0x0]        # a05 <_ZN10ImGuiStyleC1Ev+0x1e7>
     a04:	00 
     a05:	f3 0f 11 40 34       	movss  DWORD PTR [rax+0x34],xmm0
     a0a:	48 8d 45 e0          	lea    rax,[rbp-0x20]
     a0e:	f3 0f 10 0d 00 00 00 	movss  xmm1,DWORD PTR [rip+0x0]        # a16 <_ZN10ImGuiStyleC1Ev+0x1f8>
     a15:	00 
     a16:	f3 0f 10 05 00 00 00 	movss  xmm0,DWORD PTR [rip+0x0]        # a1e <_ZN10ImGuiStyleC1Ev+0x200>
     a1d:	00 
     a1e:	48 89 c7             	mov    rdi,rax
     a21:	e8 00 00 00 00       	call   a26 <_ZN10ImGuiStyleC1Ev+0x208>
     a26:	48 8b 45 d8          	mov    rax,QWORD PTR [rbp-0x28]
     a2a:	48 8b 55 e0          	mov    rdx,QWORD PTR [rbp-0x20]
     a2e:	48 89 50 38          	mov    QWORD PTR [rax+0x38],rdx
     a32:	48 8b 45 d8          	mov    rax,QWORD PTR [rbp-0x28]
     a36:	66 0f ef c0          	pxor   xmm0,xmm0
     a3a:	f3 0f 11 40 40       	movss  DWORD PTR [rax+0x40],xmm0
     a3f:	48 8b 45 d8          	mov    rax,QWORD PTR [rbp-0x28]
     a43:	66 0f ef c0          	pxor   xmm0,xmm0
     a47:	f3 0f 11 40 44       	movss  DWORD PTR [rax+0x44],xmm0
     a4c:	48 8d 45 e0          	lea    rax,[rbp-0x20]
     a50:	f3 0f 10 0d 00 00 00 	movss  xmm1,DWORD PTR [rip+0x0]        # a58 <_ZN10ImGuiStyleC1Ev+0x23a>
     a57:	00 
     a58:	f3 0f 10 05 00 00 00 	movss  xmm0,DWORD PTR [rip+0x0]        # a60 <_ZN10ImGuiStyleC1Ev+0x242>
     a5f:	00 
     a60:	48 89 c7             	mov    rdi,rax
     a63:	e8 00 00 00 00       	call   a68 <_ZN10ImGuiStyleC1Ev+0x24a>
     a68:	48 8b 45 d8          	mov    rax,QWORD PTR [rbp-0x28]
     a6c:	48 8b 55 e0          	mov    rdx,QWORD PTR [rbp-0x20]
     a70:	48 89 50 48          	mov    QWORD PTR [rax+0x48],rdx
     a74:	48 8d 45 e0          	lea    rax,[rbp-0x20]
     a78:	f3 0f 10 0d 00 00 00 	movss  xmm1,DWORD PTR [rip+0x0]        # a80 <_ZN10ImGuiStyleC1Ev+0x262>
     a7f:	00 
     a80:	f3 0f 10 05 00 00 00 	movss  xmm0,DWORD PTR [rip+0x0]        # a88 <_ZN10ImGuiStyleC1Ev+0x26a>
     a87:	00 
     a88:	48 89 c7             	mov    rdi,rax
     a8b:	e8 00 00 00 00       	call   a90 <_ZN10ImGuiStyleC1Ev+0x272>
     a90:	48 8b 45 d8          	mov    rax,QWORD PTR [rbp-0x28]
     a94:	48 8b 55 e0          	mov    rdx,QWORD PTR [rbp-0x20]
     a98:	48 89 50 50          	mov    QWORD PTR [rax+0x50],rdx
     a9c:	48 8d 45 e0          	lea    rax,[rbp-0x20]
     aa0:	66 0f ef c9          	pxor   xmm1,xmm1
     aa4:	66 0f ef c0          	pxor   xmm0,xmm0
     aa8:	48 89 c7             	mov    rdi,rax
     aab:	e8 00 00 00 00       	call   ab0 <_ZN10ImGuiStyleC1Ev+0x292>
     ab0:	48 8b 45 d8          	mov    rax,QWORD PTR [rbp-0x28]
     ab4:	48 8b 55 e0          	mov    rdx,QWORD PTR [rbp-0x20]
     ab8:	48 89 50 58          	mov    QWORD PTR [rax+0x58],rdx
     abc:	48 8b 45 d8          	mov    rax,QWORD PTR [rbp-0x28]
     ac0:	f3 0f 10 05 00 00 00 	movss  xmm0,DWORD PTR [rip+0x0]        # ac8 <_ZN10ImGuiStyleC1Ev+0x2aa>
     ac7:	00 
     ac8:	f3 0f 11 40 60       	movss  DWORD PTR [rax+0x60],xmm0
     acd:	48 8b 45 d8          	mov    rax,QWORD PTR [rbp-0x28]
     ad1:	f3 0f 10 05 00 00 00 	movss  xmm0,DWORD PTR [rip+0x0]        # ad9 <_ZN10ImGuiStyleC1Ev+0x2bb>
     ad8:	00 
     ad9:	f3 0f 11 40 64       	movss  DWORD PTR [rax+0x64],xmm0
     ade:	48 8b 45 d8          	mov    rax,QWORD PTR [rbp-0x28]
     ae2:	f3 0f 10 05 00 00 00 	movss  xmm0,DWORD PTR [rip+0x0]        # aea <_ZN10ImGuiStyleC1Ev+0x2cc>
     ae9:	00 
     aea:	f3 0f 11 40 68       	movss  DWORD PTR [rax+0x68],xmm0
     aef:	48 8b 45 d8          	mov    rax,QWORD PTR [rbp-0x28]
     af3:	f3 0f 10 05 00 00 00 	movss  xmm0,DWORD PTR [rip+0x0]        # afb <_ZN10ImGuiStyleC1Ev+0x2dd>
     afa:	00 
     afb:	f3 0f 11 40 6c       	movss  DWORD PTR [rax+0x6c],xmm0
     b00:	48 8b 45 d8          	mov    rax,QWORD PTR [rbp-0x28]
     b04:	f3 0f 10 05 00 00 00 	movss  xmm0,DWORD PTR [rip+0x0]        # b0c <_ZN10ImGuiStyleC1Ev+0x2ee>
     b0b:	00 
     b0c:	f3 0f 11 40 70       	movss  DWORD PTR [rax+0x70],xmm0
     b11:	48 8b 45 d8          	mov    rax,QWORD PTR [rbp-0x28]
     b15:	66 0f ef c0          	pxor   xmm0,xmm0
     b19:	f3 0f 11 40 74       	movss  DWORD PTR [rax+0x74],xmm0
     b1e:	48 8b 45 d8          	mov    rax,QWORD PTR [rbp-0x28]
     b22:	f3 0f 10 05 00 00 00 	movss  xmm0,DWORD PTR [rip+0x0]        # b2a <_ZN10ImGuiStyleC1Ev+0x30c>
     b29:	00 
     b2a:	f3 0f 11 40 78       	movss  DWORD PTR [rax+0x78],xmm0
     b2f:	48 8b 45 d8          	mov    rax,QWORD PTR [rbp-0x28]
     b33:	f3 0f 10 05 00 00 00 	movss  xmm0,DWORD PTR [rip+0x0]        # b3b <_ZN10ImGuiStyleC1Ev+0x31d>
     b3a:	00 
     b3b:	f3 0f 11 40 7c       	movss  DWORD PTR [rax+0x7c],xmm0
     b40:	48 8b 45 d8          	mov    rax,QWORD PTR [rbp-0x28]
     b44:	66 0f ef c0          	pxor   xmm0,xmm0
     b48:	f3 0f 11 80 80 00 00 	movss  DWORD PTR [rax+0x80],xmm0
     b4f:	00 
     b50:	48 8b 45 d8          	mov    rax,QWORD PTR [rbp-0x28]
     b54:	66 0f ef c0          	pxor   xmm0,xmm0
     b58:	f3 0f 11 80 84 00 00 	movss  DWORD PTR [rax+0x84],xmm0
     b5f:	00 
     b60:	48 8b 45 d8          	mov    rax,QWORD PTR [rbp-0x28]
     b64:	c7 80 88 00 00 00 01 	mov    DWORD PTR [rax+0x88],0x1
     b6b:	00 00 00 
     b6e:	48 8d 45 e0          	lea    rax,[rbp-0x20]
     b72:	f3 0f 10 0d 00 00 00 	movss  xmm1,DWORD PTR [rip+0x0]        # b7a <_ZN10ImGuiStyleC1Ev+0x35c>
     b79:	00 
     b7a:	f3 0f 10 05 00 00 00 	movss  xmm0,DWORD PTR [rip+0x0]        # b82 <_ZN10ImGuiStyleC1Ev+0x364>
     b81:	00 
     b82:	48 89 c7             	mov    rdi,rax
     b85:	e8 00 00 00 00       	call   b8a <_ZN10ImGuiStyleC1Ev+0x36c>
     b8a:	48 8b 45 d8          	mov    rax,QWORD PTR [rbp-0x28]
     b8e:	48 8b 55 e0          	mov    rdx,QWORD PTR [rbp-0x20]
     b92:	48 89 90 8c 00 00 00 	mov    QWORD PTR [rax+0x8c],rdx
     b99:	48 8d 45 e0          	lea    rax,[rbp-0x20]
     b9d:	66 0f ef c9          	pxor   xmm1,xmm1
     ba1:	66 0f ef c0          	pxor   xmm0,xmm0
     ba5:	48 89 c7             	mov    rdi,rax
     ba8:	e8 00 00 00 00       	call   bad <_ZN10ImGuiStyleC1Ev+0x38f>
     bad:	48 8b 45 d8          	mov    rax,QWORD PTR [rbp-0x28]
     bb1:	48 8b 55 e0          	mov    rdx,QWORD PTR [rbp-0x20]
     bb5:	48 89 90 94 00 00 00 	mov    QWORD PTR [rax+0x94],rdx
     bbc:	48 8d 45 e0          	lea    rax,[rbp-0x20]
     bc0:	f3 0f 10 0d 00 00 00 	movss  xmm1,DWORD PTR [rip+0x0]        # bc8 <_ZN10ImGuiStyleC1Ev+0x3aa>
     bc7:	00 
     bc8:	f3 0f 10 05 00 00 00 	movss  xmm0,DWORD PTR [rip+0x0]        # bd0 <_ZN10ImGuiStyleC1Ev+0x3b2>
     bcf:	00 
     bd0:	48 89 c7             	mov    rdi,rax
     bd3:	e8 00 00 00 00       	call   bd8 <_ZN10ImGuiStyleC1Ev+0x3ba>
     bd8:	48 8b 45 d8          	mov    rax,QWORD PTR [rbp-0x28]
     bdc:	48 8b 55 e0          	mov    rdx,QWORD PTR [rbp-0x20]
     be0:	48 89 90 9c 00 00 00 	mov    QWORD PTR [rax+0x9c],rdx
     be7:	48 8d 45 e0          	lea    rax,[rbp-0x20]
     beb:	f3 0f 10 0d 00 00 00 	movss  xmm1,DWORD PTR [rip+0x0]        # bf3 <_ZN10ImGuiStyleC1Ev+0x3d5>
     bf2:	00 
     bf3:	f3 0f 10 05 00 00 00 	movss  xmm0,DWORD PTR [rip+0x0]        # bfb <_ZN10ImGuiStyleC1Ev+0x3dd>
     bfa:	00 
     bfb:	48 89 c7             	mov    rdi,rax
     bfe:	e8 00 00 00 00       	call   c03 <_ZN10ImGuiStyleC1Ev+0x3e5>
     c03:	48 8b 45 d8          	mov    rax,QWORD PTR [rbp-0x28]
     c07:	48 8b 55 e0          	mov    rdx,QWORD PTR [rbp-0x20]
     c0b:	48 89 90 a4 00 00 00 	mov    QWORD PTR [rax+0xa4],rdx
     c12:	48 8b 45 d8          	mov    rax,QWORD PTR [rbp-0x28]
     c16:	f3 0f 10 05 00 00 00 	movss  xmm0,DWORD PTR [rip+0x0]        # c1e <_ZN10ImGuiStyleC1Ev+0x400>
     c1d:	00 
     c1e:	f3 0f 11 80 ac 00 00 	movss  DWORD PTR [rax+0xac],xmm0
     c25:	00 
     c26:	48 8b 45 d8          	mov    rax,QWORD PTR [rbp-0x28]
     c2a:	c6 80 b0 00 00 00 01 	mov    BYTE PTR [rax+0xb0],0x1
     c31:	48 8b 45 d8          	mov    rax,QWORD PTR [rbp-0x28]
     c35:	c6 80 b1 00 00 00 01 	mov    BYTE PTR [rax+0xb1],0x1
     c3c:	48 8b 45 d8          	mov    rax,QWORD PTR [rbp-0x28]
     c40:	c6 80 b2 00 00 00 01 	mov    BYTE PTR [rax+0xb2],0x1
     c47:	48 8b 45 d8          	mov    rax,QWORD PTR [rbp-0x28]
     c4b:	f3 0f 10 05 00 00 00 	movss  xmm0,DWORD PTR [rip+0x0]        # c53 <_ZN10ImGuiStyleC1Ev+0x435>
     c52:	00 
     c53:	f3 0f 11 80 b4 00 00 	movss  DWORD PTR [rax+0xb4],xmm0
     c5a:	00 
     c5b:	48 8b 45 d8          	mov    rax,QWORD PTR [rbp-0x28]
     c5f:	f3 0f 10 05 00 00 00 	movss  xmm0,DWORD PTR [rip+0x0]        # c67 <_ZN10ImGuiStyleC1Ev+0x449>
     c66:	00 
     c67:	f3 0f 11 80 b8 00 00 	movss  DWORD PTR [rax+0xb8],xmm0
     c6e:	00 
     c6f:	48 8b 45 d8          	mov    rax,QWORD PTR [rbp-0x28]
     c73:	48 89 c7             	mov    rdi,rax
     c76:	e8 00 00 00 00       	call   c7b <_ZN10ImGuiStyleC1Ev+0x45d>
     c7b:	90                   	nop
     c7c:	48 8b 45 e8          	mov    rax,QWORD PTR [rbp-0x18]
     c80:	64 48 33 04 25 28 00 	xor    rax,QWORD PTR fs:0x28
     c87:	00 00 
     c89:	74 05                	je     c90 <_ZN10ImGuiStyleC1Ev+0x472>
     c8b:	e8 00 00 00 00       	call   c90 <_ZN10ImGuiStyleC1Ev+0x472>
     c90:	48 83 c4 20          	add    rsp,0x20
     c94:	5b                   	pop    rbx
     c95:	41 5c                	pop    r12
     c97:	5d                   	pop    rbp
     c98:	c3                   	ret    
     c99:	90                   	nop

0000000000000c9a <_ZN10ImGuiStyle13ScaleAllSizesEf>:
     c9a:	55                   	push   rbp
     c9b:	48 89 e5             	mov    rbp,rsp
     c9e:	53                   	push   rbx
     c9f:	48 83 ec 28          	sub    rsp,0x28
     ca3:	48 89 7d d8          	mov    QWORD PTR [rbp-0x28],rdi
     ca7:	f3 0f 11 45 d4       	movss  DWORD PTR [rbp-0x2c],xmm0
     cac:	64 48 8b 04 25 28 00 	mov    rax,QWORD PTR fs:0x28
     cb3:	00 00 
     cb5:	48 89 45 e8          	mov    QWORD PTR [rbp-0x18],rax
     cb9:	31 c0                	xor    eax,eax
     cbb:	48 8b 45 d8          	mov    rax,QWORD PTR [rbp-0x28]
     cbf:	48 8d 50 04          	lea    rdx,[rax+0x4]
     cc3:	8b 45 d4             	mov    eax,DWORD PTR [rbp-0x2c]
     cc6:	89 45 d0             	mov    DWORD PTR [rbp-0x30],eax
     cc9:	f3 0f 10 45 d0       	movss  xmm0,DWORD PTR [rbp-0x30]
     cce:	48 89 d7             	mov    rdi,rdx
     cd1:	e8 75 f3 ff ff       	call   4b <_ZmlRK6ImVec2f>
     cd6:	66 48 0f 7e c0       	movq   rax,xmm0
     cdb:	48 89 45 e0          	mov    QWORD PTR [rbp-0x20],rax
     cdf:	48 8b 5d d8          	mov    rbx,QWORD PTR [rbp-0x28]
     ce3:	48 8d 45 e0          	lea    rax,[rbp-0x20]
     ce7:	48 89 c7             	mov    rdi,rax
     cea:	e8 6c fa ff ff       	call   75b <_ZL7ImFloorRK6ImVec2>
     cef:	66 48 0f 7e c0       	movq   rax,xmm0
     cf4:	48 89 43 04          	mov    QWORD PTR [rbx+0x4],rax
     cf8:	48 8b 45 d8          	mov    rax,QWORD PTR [rbp-0x28]
     cfc:	f3 0f 10 40 0c       	movss  xmm0,DWORD PTR [rax+0xc]
     d01:	f3 0f 59 45 d4       	mulss  xmm0,DWORD PTR [rbp-0x2c]
     d06:	e8 38 fa ff ff       	call   743 <_ZL7ImFloorf>
     d0b:	66 0f 7e c2          	movd   edx,xmm0
     d0f:	48 8b 45 d8          	mov    rax,QWORD PTR [rbp-0x28]
     d13:	89 50 0c             	mov    DWORD PTR [rax+0xc],edx
     d16:	48 8b 45 d8          	mov    rax,QWORD PTR [rbp-0x28]
     d1a:	48 8d 50 14          	lea    rdx,[rax+0x14]
     d1e:	8b 45 d4             	mov    eax,DWORD PTR [rbp-0x2c]
     d21:	89 45 d0             	mov    DWORD PTR [rbp-0x30],eax
     d24:	f3 0f 10 45 d0       	movss  xmm0,DWORD PTR [rbp-0x30]
     d29:	48 89 d7             	mov    rdi,rdx
     d2c:	e8 1a f3 ff ff       	call   4b <_ZmlRK6ImVec2f>
     d31:	66 48 0f 7e c0       	movq   rax,xmm0
     d36:	48 89 45 e0          	mov    QWORD PTR [rbp-0x20],rax
     d3a:	48 8b 5d d8          	mov    rbx,QWORD PTR [rbp-0x28]
     d3e:	48 8d 45 e0          	lea    rax,[rbp-0x20]
     d42:	48 89 c7             	mov    rdi,rax
     d45:	e8 11 fa ff ff       	call   75b <_ZL7ImFloorRK6ImVec2>
     d4a:	66 48 0f 7e c0       	movq   rax,xmm0
     d4f:	48 89 43 14          	mov    QWORD PTR [rbx+0x14],rax
     d53:	48 8b 45 d8          	mov    rax,QWORD PTR [rbp-0x28]
     d57:	f3 0f 10 40 28       	movss  xmm0,DWORD PTR [rax+0x28]
     d5c:	f3 0f 59 45 d4       	mulss  xmm0,DWORD PTR [rbp-0x2c]
     d61:	e8 dd f9 ff ff       	call   743 <_ZL7ImFloorf>
     d66:	66 0f 7e c2          	movd   edx,xmm0
     d6a:	48 8b 45 d8          	mov    rax,QWORD PTR [rbp-0x28]
     d6e:	89 50 28             	mov    DWORD PTR [rax+0x28],edx
     d71:	48 8b 45 d8          	mov    rax,QWORD PTR [rbp-0x28]
     d75:	f3 0f 10 40 30       	movss  xmm0,DWORD PTR [rax+0x30]
     d7a:	f3 0f 59 45 d4       	mulss  xmm0,DWORD PTR [rbp-0x2c]
     d7f:	e8 bf f9 ff ff       	call   743 <_ZL7ImFloorf>
     d84:	66 0f 7e c2          	movd   edx,xmm0
     d88:	48 8b 45 d8          	mov    rax,QWORD PTR [rbp-0x28]
     d8c:	89 50 30             	mov    DWORD PTR [rax+0x30],edx
     d8f:	48 8b 45 d8          	mov    rax,QWORD PTR [rbp-0x28]
     d93:	48 8d 50 38          	lea    rdx,[rax+0x38]
     d97:	8b 45 d4             	mov    eax,DWORD PTR [rbp-0x2c]
     d9a:	89 45 d0             	mov    DWORD PTR [rbp-0x30],eax
     d9d:	f3 0f 10 45 d0       	movss  xmm0,DWORD PTR [rbp-0x30]
     da2:	48 89 d7             	mov    rdi,rdx
     da5:	e8 a1 f2 ff ff       	call   4b <_ZmlRK6ImVec2f>
     daa:	66 48 0f 7e c0       	movq   rax,xmm0
     daf:	48 89 45 e0          	mov    QWORD PTR [rbp-0x20],rax
     db3:	48 8b 5d d8          	mov    rbx,QWORD PTR [rbp-0x28]
     db7:	48 8d 45 e0          	lea    rax,[rbp-0x20]
     dbb:	48 89 c7             	mov    rdi,rax
     dbe:	e8 98 f9 ff ff       	call   75b <_ZL7ImFloorRK6ImVec2>
     dc3:	66 48 0f 7e c0       	movq   rax,xmm0
     dc8:	48 89 43 38          	mov    QWORD PTR [rbx+0x38],rax
     dcc:	48 8b 45 d8          	mov    rax,QWORD PTR [rbp-0x28]
     dd0:	f3 0f 10 40 40       	movss  xmm0,DWORD PTR [rax+0x40]
     dd5:	f3 0f 59 45 d4       	mulss  xmm0,DWORD PTR [rbp-0x2c]
     dda:	e8 64 f9 ff ff       	call   743 <_ZL7ImFloorf>
     ddf:	66 0f 7e c2          	movd   edx,xmm0
     de3:	48 8b 45 d8          	mov    rax,QWORD PTR [rbp-0x28]
     de7:	89 50 40             	mov    DWORD PTR [rax+0x40],edx
     dea:	48 8b 45 d8          	mov    rax,QWORD PTR [rbp-0x28]
     dee:	48 8d 50 48          	lea    rdx,[rax+0x48]
     df2:	8b 45 d4             	mov    eax,DWORD PTR [rbp-0x2c]
     df5:	89 45 d0             	mov    DWORD PTR [rbp-0x30],eax
     df8:	f3 0f 10 45 d0       	movss  xmm0,DWORD PTR [rbp-0x30]
     dfd:	48 89 d7             	mov    rdi,rdx
     e00:	e8 46 f2 ff ff       	call   4b <_ZmlRK6ImVec2f>
     e05:	66 48 0f 7e c0       	movq   rax,xmm0
     e0a:	48 89 45 e0          	mov    QWORD PTR [rbp-0x20],rax
     e0e:	48 8b 5d d8          	mov    rbx,QWORD PTR [rbp-0x28]
     e12:	48 8d 45 e0          	lea    rax,[rbp-0x20]
     e16:	48 89 c7             	mov    rdi,rax
     e19:	e8 3d f9 ff ff       	call   75b <_ZL7ImFloorRK6ImVec2>
     e1e:	66 48 0f 7e c0       	movq   rax,xmm0
     e23:	48 89 43 48          	mov    QWORD PTR [rbx+0x48],rax
     e27:	48 8b 45 d8          	mov    rax,QWORD PTR [rbp-0x28]
     e2b:	48 8d 50 50          	lea    rdx,[rax+0x50]
     e2f:	8b 45 d4             	mov    eax,DWORD PTR [rbp-0x2c]
     e32:	89 45 d0             	mov    DWORD PTR [rbp-0x30],eax
     e35:	f3 0f 10 45 d0       	movss  xmm0,DWORD PTR [rbp-0x30]
     e3a:	48 89 d7             	mov    rdi,rdx
     e3d:	e8 09 f2 ff ff       	call   4b <_ZmlRK6ImVec2f>
     e42:	66 48 0f 7e c0       	movq   rax,xmm0
     e47:	48 89 45 e0          	mov    QWORD PTR [rbp-0x20],rax
     e4b:	48 8b 5d d8          	mov    rbx,QWORD PTR [rbp-0x28]
     e4f:	48 8d 45 e0          	lea    rax,[rbp-0x20]
     e53:	48 89 c7             	mov    rdi,rax
     e56:	e8 00 f9 ff ff       	call   75b <_ZL7ImFloorRK6ImVec2>
     e5b:	66 48 0f 7e c0       	movq   rax,xmm0
     e60:	48 89 43 50          	mov    QWORD PTR [rbx+0x50],rax
     e64:	48 8b 45 d8          	mov    rax,QWORD PTR [rbp-0x28]
     e68:	48 8d 50 58          	lea    rdx,[rax+0x58]
     e6c:	8b 45 d4             	mov    eax,DWORD PTR [rbp-0x2c]
     e6f:	89 45 d0             	mov    DWORD PTR [rbp-0x30],eax
     e72:	f3 0f 10 45 d0       	movss  xmm0,DWORD PTR [rbp-0x30]
     e77:	48 89 d7             	mov    rdi,rdx
     e7a:	e8 cc f1 ff ff       	call   4b <_ZmlRK6ImVec2f>
     e7f:	66 48 0f 7e c0       	movq   rax,xmm0
     e84:	48 89 45 e0          	mov    QWORD PTR [rbp-0x20],rax
     e88:	48 8b 5d d8          	mov    rbx,QWORD PTR [rbp-0x28]
     e8c:	48 8d 45 e0          	lea    rax,[rbp-0x20]
     e90:	48 89 c7             	mov    rdi,rax
     e93:	e8 c3 f8 ff ff       	call   75b <_ZL7ImFloorRK6ImVec2>
     e98:	66 48 0f 7e c0       	movq   rax,xmm0
     e9d:	48 89 43 58          	mov    QWORD PTR [rbx+0x58],rax
     ea1:	48 8b 45 d8          	mov    rax,QWORD PTR [rbp-0x28]
     ea5:	f3 0f 10 40 60       	movss  xmm0,DWORD PTR [rax+0x60]
     eaa:	f3 0f 59 45 d4       	mulss  xmm0,DWORD PTR [rbp-0x2c]
     eaf:	e8 8f f8 ff ff       	call   743 <_ZL7ImFloorf>
     eb4:	66 0f 7e c2          	movd   edx,xmm0
     eb8:	48 8b 45 d8          	mov    rax,QWORD PTR [rbp-0x28]
     ebc:	89 50 60             	mov    DWORD PTR [rax+0x60],edx
     ebf:	48 8b 45 d8          	mov    rax,QWORD PTR [rbp-0x28]
     ec3:	f3 0f 10 40 64       	movss  xmm0,DWORD PTR [rax+0x64]
     ec8:	f3 0f 59 45 d4       	mulss  xmm0,DWORD PTR [rbp-0x2c]
     ecd:	e8 71 f8 ff ff       	call   743 <_ZL7ImFloorf>
     ed2:	66 0f 7e c2          	movd   edx,xmm0
     ed6:	48 8b 45 d8          	mov    rax,QWORD PTR [rbp-0x28]
     eda:	89 50 64             	mov    DWORD PTR [rax+0x64],edx
     edd:	48 8b 45 d8          	mov    rax,QWORD PTR [rbp-0x28]
     ee1:	f3 0f 10 40 68       	movss  xmm0,DWORD PTR [rax+0x68]
     ee6:	f3 0f 59 45 d4       	mulss  xmm0,DWORD PTR [rbp-0x2c]
     eeb:	e8 53 f8 ff ff       	call   743 <_ZL7ImFloorf>
     ef0:	66 0f 7e c2          	movd   edx,xmm0
     ef4:	48 8b 45 d8          	mov    rax,QWORD PTR [rbp-0x28]
     ef8:	89 50 68             	mov    DWORD PTR [rax+0x68],edx
     efb:	48 8b 45 d8          	mov    rax,QWORD PTR [rbp-0x28]
     eff:	f3 0f 10 40 6c       	movss  xmm0,DWORD PTR [rax+0x6c]
     f04:	f3 0f 59 45 d4       	mulss  xmm0,DWORD PTR [rbp-0x2c]
     f09:	e8 35 f8 ff ff       	call   743 <_ZL7ImFloorf>
     f0e:	66 0f 7e c2          	movd   edx,xmm0
     f12:	48 8b 45 d8          	mov    rax,QWORD PTR [rbp-0x28]
     f16:	89 50 6c             	mov    DWORD PTR [rax+0x6c],edx
     f19:	48 8b 45 d8          	mov    rax,QWORD PTR [rbp-0x28]
     f1d:	f3 0f 10 40 70       	movss  xmm0,DWORD PTR [rax+0x70]
     f22:	f3 0f 59 45 d4       	mulss  xmm0,DWORD PTR [rbp-0x2c]
     f27:	e8 17 f8 ff ff       	call   743 <_ZL7ImFloorf>
     f2c:	66 0f 7e c2          	movd   edx,xmm0
     f30:	48 8b 45 d8          	mov    rax,QWORD PTR [rbp-0x28]
     f34:	89 50 70             	mov    DWORD PTR [rax+0x70],edx
     f37:	48 8b 45 d8          	mov    rax,QWORD PTR [rbp-0x28]
     f3b:	f3 0f 10 40 74       	movss  xmm0,DWORD PTR [rax+0x74]
     f40:	f3 0f 59 45 d4       	mulss  xmm0,DWORD PTR [rbp-0x2c]
     f45:	e8 f9 f7 ff ff       	call   743 <_ZL7ImFloorf>
     f4a:	66 0f 7e c2          	movd   edx,xmm0
     f4e:	48 8b 45 d8          	mov    rax,QWORD PTR [rbp-0x28]
     f52:	89 50 74             	mov    DWORD PTR [rax+0x74],edx
     f55:	48 8b 45 d8          	mov    rax,QWORD PTR [rbp-0x28]
     f59:	f3 0f 10 40 78       	movss  xmm0,DWORD PTR [rax+0x78]
     f5e:	f3 0f 59 45 d4       	mulss  xmm0,DWORD PTR [rbp-0x2c]
     f63:	e8 db f7 ff ff       	call   743 <_ZL7ImFloorf>
     f68:	66 0f 7e c2          	movd   edx,xmm0
     f6c:	48 8b 45 d8          	mov    rax,QWORD PTR [rbp-0x28]
     f70:	89 50 78             	mov    DWORD PTR [rax+0x78],edx
     f73:	48 8b 45 d8          	mov    rax,QWORD PTR [rbp-0x28]
     f77:	f3 0f 10 40 7c       	movss  xmm0,DWORD PTR [rax+0x7c]
     f7c:	f3 0f 59 45 d4       	mulss  xmm0,DWORD PTR [rbp-0x2c]
     f81:	e8 bd f7 ff ff       	call   743 <_ZL7ImFloorf>
     f86:	66 0f 7e c2          	movd   edx,xmm0
     f8a:	48 8b 45 d8          	mov    rax,QWORD PTR [rbp-0x28]
     f8e:	89 50 7c             	mov    DWORD PTR [rax+0x7c],edx
     f91:	48 8b 45 d8          	mov    rax,QWORD PTR [rbp-0x28]
     f95:	f3 0f 10 80 84 00 00 	movss  xmm0,DWORD PTR [rax+0x84]
     f9c:	00 
     f9d:	0f 2e 05 00 00 00 00 	ucomiss xmm0,DWORD PTR [rip+0x0]        # fa4 <_ZN10ImGuiStyle13ScaleAllSizesEf+0x30a>
     fa4:	7a 09                	jp     faf <_ZN10ImGuiStyle13ScaleAllSizesEf+0x315>
     fa6:	0f 2e 05 00 00 00 00 	ucomiss xmm0,DWORD PTR [rip+0x0]        # fad <_ZN10ImGuiStyle13ScaleAllSizesEf+0x313>
     fad:	74 24                	je     fd3 <_ZN10ImGuiStyle13ScaleAllSizesEf+0x339>
     faf:	48 8b 45 d8          	mov    rax,QWORD PTR [rbp-0x28]
     fb3:	f3 0f 10 80 84 00 00 	movss  xmm0,DWORD PTR [rax+0x84]
     fba:	00 
     fbb:	f3 0f 59 45 d4       	mulss  xmm0,DWORD PTR [rbp-0x2c]
     fc0:	e8 7e f7 ff ff       	call   743 <_ZL7ImFloorf>
     fc5:	66 0f 7e c2          	movd   edx,xmm0
     fc9:	48 8b 45 d8          	mov    rax,QWORD PTR [rbp-0x28]
     fcd:	89 90 84 00 00 00    	mov    DWORD PTR [rax+0x84],edx
     fd3:	48 8b 45 d8          	mov    rax,QWORD PTR [rbp-0x28]
     fd7:	48 8d 90 9c 00 00 00 	lea    rdx,[rax+0x9c]
     fde:	8b 45 d4             	mov    eax,DWORD PTR [rbp-0x2c]
     fe1:	89 45 d0             	mov    DWORD PTR [rbp-0x30],eax
     fe4:	f3 0f 10 45 d0       	movss  xmm0,DWORD PTR [rbp-0x30]
     fe9:	48 89 d7             	mov    rdi,rdx
     fec:	e8 5a f0 ff ff       	call   4b <_ZmlRK6ImVec2f>
     ff1:	66 48 0f 7e c0       	movq   rax,xmm0
     ff6:	48 89 45 e0          	mov    QWORD PTR [rbp-0x20],rax
     ffa:	48 8b 5d d8          	mov    rbx,QWORD PTR [rbp-0x28]
     ffe:	48 8d 45 e0          	lea    rax,[rbp-0x20]
    1002:	48 89 c7             	mov    rdi,rax
    1005:	e8 51 f7 ff ff       	call   75b <_ZL7ImFloorRK6ImVec2>
    100a:	66 48 0f 7e c0       	movq   rax,xmm0
    100f:	48 89 83 9c 00 00 00 	mov    QWORD PTR [rbx+0x9c],rax
    1016:	48 8b 45 d8          	mov    rax,QWORD PTR [rbp-0x28]
    101a:	48 8d 90 a4 00 00 00 	lea    rdx,[rax+0xa4]
    1021:	8b 45 d4             	mov    eax,DWORD PTR [rbp-0x2c]
    1024:	89 45 d0             	mov    DWORD PTR [rbp-0x30],eax
    1027:	f3 0f 10 45 d0       	movss  xmm0,DWORD PTR [rbp-0x30]
    102c:	48 89 d7             	mov    rdi,rdx
    102f:	e8 17 f0 ff ff       	call   4b <_ZmlRK6ImVec2f>
    1034:	66 48 0f 7e c0       	movq   rax,xmm0
    1039:	48 89 45 e0          	mov    QWORD PTR [rbp-0x20],rax
    103d:	48 8b 5d d8          	mov    rbx,QWORD PTR [rbp-0x28]
    1041:	48 8d 45 e0          	lea    rax,[rbp-0x20]
    1045:	48 89 c7             	mov    rdi,rax
    1048:	e8 0e f7 ff ff       	call   75b <_ZL7ImFloorRK6ImVec2>
    104d:	66 48 0f 7e c0       	movq   rax,xmm0
    1052:	48 89 83 a4 00 00 00 	mov    QWORD PTR [rbx+0xa4],rax
    1059:	48 8b 45 d8          	mov    rax,QWORD PTR [rbp-0x28]
    105d:	f3 0f 10 80 ac 00 00 	movss  xmm0,DWORD PTR [rax+0xac]
    1064:	00 
    1065:	f3 0f 59 45 d4       	mulss  xmm0,DWORD PTR [rbp-0x2c]
    106a:	e8 d4 f6 ff ff       	call   743 <_ZL7ImFloorf>
    106f:	66 0f 7e c2          	movd   edx,xmm0
    1073:	48 8b 45 d8          	mov    rax,QWORD PTR [rbp-0x28]
    1077:	89 90 ac 00 00 00    	mov    DWORD PTR [rax+0xac],edx
    107d:	90                   	nop
    107e:	48 8b 45 e8          	mov    rax,QWORD PTR [rbp-0x18]
    1082:	64 48 33 04 25 28 00 	xor    rax,QWORD PTR fs:0x28
    1089:	00 00 
    108b:	74 05                	je     1092 <_ZN10ImGuiStyle13ScaleAllSizesEf+0x3f8>
    108d:	e8 00 00 00 00       	call   1092 <_ZN10ImGuiStyle13ScaleAllSizesEf+0x3f8>
    1092:	48 83 c4 28          	add    rsp,0x28
    1096:	5b                   	pop    rbx
    1097:	5d                   	pop    rbp
    1098:	c3                   	ret    
    1099:	90                   	nop

000000000000109a <_ZN7ImGuiIOC1Ev>:
    109a:	55                   	push   rbp
    109b:	48 89 e5             	mov    rbp,rsp
    109e:	41 54                	push   r12
    10a0:	53                   	push   rbx
    10a1:	48 83 ec 30          	sub    rsp,0x30
    10a5:	48 89 7d c8          	mov    QWORD PTR [rbp-0x38],rdi
    10a9:	64 48 8b 04 25 28 00 	mov    rax,QWORD PTR fs:0x28
    10b0:	00 00 
    10b2:	48 89 45 e8          	mov    QWORD PTR [rbp-0x18],rax
    10b6:	31 c0                	xor    eax,eax
    10b8:	48 8b 45 c8          	mov    rax,QWORD PTR [rbp-0x38]
    10bc:	48 83 c0 08          	add    rax,0x8
    10c0:	48 89 c7             	mov    rdi,rax
    10c3:	e8 00 00 00 00       	call   10c8 <_ZN7ImGuiIOC1Ev+0x2e>
    10c8:	48 8b 45 c8          	mov    rax,QWORD PTR [rbp-0x38]
    10cc:	48 05 b8 00 00 00    	add    rax,0xb8
    10d2:	48 89 c7             	mov    rdi,rax
    10d5:	e8 00 00 00 00       	call   10da <_ZN7ImGuiIOC1Ev+0x40>
    10da:	48 8b 45 c8          	mov    rax,QWORD PTR [rbp-0x38]
    10de:	48 05 28 01 00 00    	add    rax,0x128
    10e4:	48 89 c7             	mov    rdi,rax
    10e7:	e8 00 00 00 00       	call   10ec <_ZN7ImGuiIOC1Ev+0x52>
    10ec:	48 8b 45 c8          	mov    rax,QWORD PTR [rbp-0x38]
    10f0:	48 05 b8 03 00 00    	add    rax,0x3b8
    10f6:	48 89 c7             	mov    rdi,rax
    10f9:	e8 00 00 00 00       	call   10fe <_ZN7ImGuiIOC1Ev+0x64>
    10fe:	48 8b 45 c8          	mov    rax,QWORD PTR [rbp-0x38]
    1102:	48 05 c4 03 00 00    	add    rax,0x3c4
    1108:	48 89 c7             	mov    rdi,rax
    110b:	e8 00 00 00 00       	call   1110 <_ZN7ImGuiIOC1Ev+0x76>
    1110:	48 8b 45 c8          	mov    rax,QWORD PTR [rbp-0x38]
    1114:	48 05 cc 03 00 00    	add    rax,0x3cc
    111a:	bb 04 00 00 00       	mov    ebx,0x4
    111f:	49 89 c4             	mov    r12,rax
    1122:	48 85 db             	test   rbx,rbx
    1125:	78 12                	js     1139 <_ZN7ImGuiIOC1Ev+0x9f>
    1127:	4c 89 e7             	mov    rdi,r12
    112a:	e8 00 00 00 00       	call   112f <_ZN7ImGuiIOC1Ev+0x95>
    112f:	49 83 c4 08          	add    r12,0x8
    1133:	48 83 eb 01          	sub    rbx,0x1
    1137:	eb e9                	jmp    1122 <_ZN7ImGuiIOC1Ev+0x88>
    1139:	48 8b 45 c8          	mov    rax,QWORD PTR [rbp-0x38]
    113d:	48 05 64 04 00 00    	add    rax,0x464
    1143:	bb 04 00 00 00       	mov    ebx,0x4
    1148:	49 89 c4             	mov    r12,rax
    114b:	48 85 db             	test   rbx,rbx
    114e:	78 12                	js     1162 <_ZN7ImGuiIOC1Ev+0xc8>
    1150:	4c 89 e7             	mov    rdi,r12
    1153:	e8 00 00 00 00       	call   1158 <_ZN7ImGuiIOC1Ev+0xbe>
    1158:	49 83 c4 08          	add    r12,0x8
    115c:	48 83 eb 01          	sub    rbx,0x1
    1160:	eb e9                	jmp    114b <_ZN7ImGuiIOC1Ev+0xb1>
    1162:	48 8b 45 c8          	mov    rax,QWORD PTR [rbp-0x38]
    1166:	48 05 50 15 00 00    	add    rax,0x1550
    116c:	48 89 c7             	mov    rdi,rax
    116f:	e8 00 00 00 00       	call   1174 <_ZN7ImGuiIOC1Ev+0xda>
    1174:	48 8b 45 c8          	mov    rax,QWORD PTR [rbp-0x38]
    1178:	ba 60 15 00 00       	mov    edx,0x1560
    117d:	be 00 00 00 00       	mov    esi,0x0
    1182:	48 89 c7             	mov    rdi,rax
    1185:	e8 00 00 00 00       	call   118a <_ZN7ImGuiIOC1Ev+0xf0>
    118a:	48 8b 45 c8          	mov    rax,QWORD PTR [rbp-0x38]
    118e:	c7 00 00 00 00 00    	mov    DWORD PTR [rax],0x0
    1194:	48 8b 45 c8          	mov    rax,QWORD PTR [rbp-0x38]
    1198:	c7 40 04 00 00 00 00 	mov    DWORD PTR [rax+0x4],0x0
    119f:	48 8d 45 e0          	lea    rax,[rbp-0x20]
    11a3:	f3 0f 10 0d 00 00 00 	movss  xmm1,DWORD PTR [rip+0x0]        # 11ab <_ZN7ImGuiIOC1Ev+0x111>
    11aa:	00 
    11ab:	f3 0f 10 05 00 00 00 	movss  xmm0,DWORD PTR [rip+0x0]        # 11b3 <_ZN7ImGuiIOC1Ev+0x119>
    11b2:	00 
    11b3:	48 89 c7             	mov    rdi,rax
    11b6:	e8 00 00 00 00       	call   11bb <_ZN7ImGuiIOC1Ev+0x121>
    11bb:	48 8b 45 c8          	mov    rax,QWORD PTR [rbp-0x38]
    11bf:	48 8b 55 e0          	mov    rdx,QWORD PTR [rbp-0x20]
    11c3:	48 89 50 08          	mov    QWORD PTR [rax+0x8],rdx
    11c7:	48 8b 45 c8          	mov    rax,QWORD PTR [rbp-0x38]
    11cb:	f3 0f 10 05 00 00 00 	movss  xmm0,DWORD PTR [rip+0x0]        # 11d3 <_ZN7ImGuiIOC1Ev+0x139>
    11d2:	00 
    11d3:	f3 0f 11 40 10       	movss  DWORD PTR [rax+0x10],xmm0
    11d8:	48 8b 45 c8          	mov    rax,QWORD PTR [rbp-0x38]
    11dc:	f3 0f 10 05 00 00 00 	movss  xmm0,DWORD PTR [rip+0x0]        # 11e4 <_ZN7ImGuiIOC1Ev+0x14a>
    11e3:	00 
    11e4:	f3 0f 11 40 14       	movss  DWORD PTR [rax+0x14],xmm0
    11e9:	48 8b 45 c8          	mov    rax,QWORD PTR [rbp-0x38]
    11ed:	48 8d 15 00 00 00 00 	lea    rdx,[rip+0x0]        # 11f4 <_ZN7ImGuiIOC1Ev+0x15a>
    11f4:	48 89 50 18          	mov    QWORD PTR [rax+0x18],rdx
    11f8:	48 8b 45 c8          	mov    rax,QWORD PTR [rbp-0x38]
    11fc:	48 8d 15 00 00 00 00 	lea    rdx,[rip+0x0]        # 1203 <_ZN7ImGuiIOC1Ev+0x169>
    1203:	48 89 50 20          	mov    QWORD PTR [rax+0x20],rdx
    1207:	48 8b 45 c8          	mov    rax,QWORD PTR [rbp-0x38]
    120b:	f3 0f 10 05 00 00 00 	movss  xmm0,DWORD PTR [rip+0x0]        # 1213 <_ZN7ImGuiIOC1Ev+0x179>
    1212:	00 
    1213:	f3 0f 11 40 28       	movss  DWORD PTR [rax+0x28],xmm0
    1218:	48 8b 45 c8          	mov    rax,QWORD PTR [rbp-0x38]
    121c:	f3 0f 10 05 00 00 00 	movss  xmm0,DWORD PTR [rip+0x0]        # 1224 <_ZN7ImGuiIOC1Ev+0x18a>
    1223:	00 
    1224:	f3 0f 11 40 2c       	movss  DWORD PTR [rax+0x2c],xmm0
    1229:	c7 45 d0 00 00 00 00 	mov    DWORD PTR [rbp-0x30],0x0
    1230:	83 7d d0 15          	cmp    DWORD PTR [rbp-0x30],0x15
    1234:	7f 1c                	jg     1252 <_ZN7ImGuiIOC1Ev+0x1b8>
    1236:	48 8b 45 c8          	mov    rax,QWORD PTR [rbp-0x38]
    123a:	8b 55 d0             	mov    edx,DWORD PTR [rbp-0x30]
    123d:	48 63 d2             	movsxd rdx,edx
    1240:	48 83 c2 0c          	add    rdx,0xc
    1244:	c7 44 90 04 ff ff ff 	mov    DWORD PTR [rax+rdx*4+0x4],0xffffffff
    124b:	ff 
    124c:	83 45 d0 01          	add    DWORD PTR [rbp-0x30],0x1
    1250:	eb de                	jmp    1230 <_ZN7ImGuiIOC1Ev+0x196>
    1252:	48 8b 45 c8          	mov    rax,QWORD PTR [rbp-0x38]
    1256:	f3 0f 10 05 00 00 00 	movss  xmm0,DWORD PTR [rip+0x0]        # 125e <_ZN7ImGuiIOC1Ev+0x1c4>
    125d:	00 
    125e:	f3 0f 11 80 8c 00 00 	movss  DWORD PTR [rax+0x8c],xmm0
    1265:	00 
    1266:	48 8b 45 c8          	mov    rax,QWORD PTR [rbp-0x38]
    126a:	f3 0f 10 05 00 00 00 	movss  xmm0,DWORD PTR [rip+0x0]        # 1272 <_ZN7ImGuiIOC1Ev+0x1d8>
    1271:	00 
    1272:	f3 0f 11 80 90 00 00 	movss  DWORD PTR [rax+0x90],xmm0
    1279:	00 
    127a:	48 8b 45 c8          	mov    rax,QWORD PTR [rbp-0x38]
    127e:	48 c7 80 98 00 00 00 	mov    QWORD PTR [rax+0x98],0x0
    1285:	00 00 00 00 
    1289:	48 8b 45 c8          	mov    rax,QWORD PTR [rbp-0x38]
    128d:	48 c7 80 a0 00 00 00 	mov    QWORD PTR [rax+0xa0],0x0
    1294:	00 00 00 00 
    1298:	48 8b 45 c8          	mov    rax,QWORD PTR [rbp-0x38]
    129c:	f3 0f 10 05 00 00 00 	movss  xmm0,DWORD PTR [rip+0x0]        # 12a4 <_ZN7ImGuiIOC1Ev+0x20a>
    12a3:	00 
    12a4:	f3 0f 11 80 a8 00 00 	movss  DWORD PTR [rax+0xa8],xmm0
    12ab:	00 
    12ac:	48 8b 45 c8          	mov    rax,QWORD PTR [rbp-0x38]
    12b0:	48 c7 80 b0 00 00 00 	mov    QWORD PTR [rax+0xb0],0x0
    12b7:	00 00 00 00 
    12bb:	48 8b 45 c8          	mov    rax,QWORD PTR [rbp-0x38]
    12bf:	c6 80 ac 00 00 00 00 	mov    BYTE PTR [rax+0xac],0x0
    12c6:	48 8d 45 e0          	lea    rax,[rbp-0x20]
    12ca:	f3 0f 10 0d 00 00 00 	movss  xmm1,DWORD PTR [rip+0x0]        # 12d2 <_ZN7ImGuiIOC1Ev+0x238>
    12d1:	00 
    12d2:	f3 0f 10 05 00 00 00 	movss  xmm0,DWORD PTR [rip+0x0]        # 12da <_ZN7ImGuiIOC1Ev+0x240>
    12d9:	00 
    12da:	48 89 c7             	mov    rdi,rax
    12dd:	e8 00 00 00 00       	call   12e2 <_ZN7ImGuiIOC1Ev+0x248>
    12e2:	48 8b 45 c8          	mov    rax,QWORD PTR [rbp-0x38]
    12e6:	48 8b 55 e0          	mov    rdx,QWORD PTR [rbp-0x20]
    12ea:	48 89 90 b8 00 00 00 	mov    QWORD PTR [rax+0xb8],rdx
    12f1:	48 8b 45 c8          	mov    rax,QWORD PTR [rbp-0x38]
    12f5:	c6 80 c0 00 00 00 00 	mov    BYTE PTR [rax+0xc0],0x0
    12fc:	48 8b 45 c8          	mov    rax,QWORD PTR [rbp-0x38]
    1300:	c6 80 c1 00 00 00 00 	mov    BYTE PTR [rax+0xc1],0x0
    1307:	48 8b 45 c8          	mov    rax,QWORD PTR [rbp-0x38]
    130b:	c6 80 c2 00 00 00 01 	mov    BYTE PTR [rax+0xc2],0x1
    1312:	48 8b 45 c8          	mov    rax,QWORD PTR [rbp-0x38]
    1316:	c6 80 c3 00 00 00 01 	mov    BYTE PTR [rax+0xc3],0x1
    131d:	48 8b 45 c8          	mov    rax,QWORD PTR [rbp-0x38]
    1321:	c6 80 c4 00 00 00 00 	mov    BYTE PTR [rax+0xc4],0x0
    1328:	48 8b 45 c8          	mov    rax,QWORD PTR [rbp-0x38]
    132c:	f3 0f 10 05 00 00 00 	movss  xmm0,DWORD PTR [rip+0x0]        # 1334 <_ZN7ImGuiIOC1Ev+0x29a>
    1333:	00 
    1334:	f3 0f 11 80 c8 00 00 	movss  DWORD PTR [rax+0xc8],xmm0
    133b:	00 
    133c:	48 8b 45 c8          	mov    rax,QWORD PTR [rbp-0x38]
    1340:	48 c7 80 d8 00 00 00 	mov    QWORD PTR [rax+0xd8],0x0
    1347:	00 00 00 00 
    134b:	48 8b 45 c8          	mov    rax,QWORD PTR [rbp-0x38]
    134f:	48 8b 90 d8 00 00 00 	mov    rdx,QWORD PTR [rax+0xd8]
    1356:	48 8b 45 c8          	mov    rax,QWORD PTR [rbp-0x38]
    135a:	48 89 90 d0 00 00 00 	mov    QWORD PTR [rax+0xd0],rdx
    1361:	48 8b 45 c8          	mov    rax,QWORD PTR [rbp-0x38]
    1365:	48 c7 80 f0 00 00 00 	mov    QWORD PTR [rax+0xf0],0x0
    136c:	00 00 00 00 
    1370:	48 8b 45 c8          	mov    rax,QWORD PTR [rbp-0x38]
    1374:	48 8b 90 f0 00 00 00 	mov    rdx,QWORD PTR [rax+0xf0]
    137b:	48 8b 45 c8          	mov    rax,QWORD PTR [rbp-0x38]
    137f:	48 89 90 e8 00 00 00 	mov    QWORD PTR [rax+0xe8],rdx
    1386:	48 8b 45 c8          	mov    rax,QWORD PTR [rbp-0x38]
    138a:	48 8b 90 e8 00 00 00 	mov    rdx,QWORD PTR [rax+0xe8]
    1391:	48 8b 45 c8          	mov    rax,QWORD PTR [rbp-0x38]
    1395:	48 89 90 e0 00 00 00 	mov    QWORD PTR [rax+0xe0],rdx
    139c:	48 8b 45 c8          	mov    rax,QWORD PTR [rbp-0x38]
    13a0:	48 8d 15 27 1b 02 00 	lea    rdx,[rip+0x21b27]        # 22ece <_ZL30GetClipboardTextFn_DefaultImplPv>
    13a7:	48 89 90 f8 00 00 00 	mov    QWORD PTR [rax+0xf8],rdx
    13ae:	48 8b 45 c8          	mov    rax,QWORD PTR [rbp-0x38]
    13b2:	48 8d 15 5d 1b 02 00 	lea    rdx,[rip+0x21b5d]        # 22f16 <_ZL30SetClipboardTextFn_DefaultImplPvPKc>
    13b9:	48 89 90 00 01 00 00 	mov    QWORD PTR [rax+0x100],rdx
    13c0:	48 8b 45 c8          	mov    rax,QWORD PTR [rbp-0x38]
    13c4:	48 c7 80 08 01 00 00 	mov    QWORD PTR [rax+0x108],0x0
    13cb:	00 00 00 00 
    13cf:	48 8b 45 c8          	mov    rax,QWORD PTR [rbp-0x38]
    13d3:	48 8d 15 15 1c 02 00 	lea    rdx,[rip+0x21c15]        # 22fef <_ZL34ImeSetInputScreenPosFn_DefaultImplii>
    13da:	48 89 90 10 01 00 00 	mov    QWORD PTR [rax+0x110],rdx
    13e1:	48 8b 45 c8          	mov    rax,QWORD PTR [rbp-0x38]
    13e5:	48 c7 80 18 01 00 00 	mov    QWORD PTR [rax+0x118],0x0
    13ec:	00 00 00 00 
    13f0:	48 8b 45 c8          	mov    rax,QWORD PTR [rbp-0x38]
    13f4:	48 c7 80 20 01 00 00 	mov    QWORD PTR [rax+0x120],0x0
    13fb:	00 00 00 00 
    13ff:	48 8d 45 e0          	lea    rax,[rbp-0x20]
    1403:	f3 0f 10 0d 00 00 00 	movss  xmm1,DWORD PTR [rip+0x0]        # 140b <_ZN7ImGuiIOC1Ev+0x371>
    140a:	00 
    140b:	f3 0f 10 05 00 00 00 	movss  xmm0,DWORD PTR [rip+0x0]        # 1413 <_ZN7ImGuiIOC1Ev+0x379>
    1412:	00 
    1413:	48 89 c7             	mov    rdi,rax
    1416:	e8 00 00 00 00       	call   141b <_ZN7ImGuiIOC1Ev+0x381>
    141b:	48 8b 45 c8          	mov    rax,QWORD PTR [rbp-0x38]
    141f:	48 8b 55 e0          	mov    rdx,QWORD PTR [rbp-0x20]
    1423:	48 89 90 28 01 00 00 	mov    QWORD PTR [rax+0x128],rdx
    142a:	48 8d 45 e0          	lea    rax,[rbp-0x20]
    142e:	f3 0f 10 0d 00 00 00 	movss  xmm1,DWORD PTR [rip+0x0]        # 1436 <_ZN7ImGuiIOC1Ev+0x39c>
    1435:	00 
    1436:	f3 0f 10 05 00 00 00 	movss  xmm0,DWORD PTR [rip+0x0]        # 143e <_ZN7ImGuiIOC1Ev+0x3a4>
    143d:	00 
    143e:	48 89 c7             	mov    rdi,rax
    1441:	e8 00 00 00 00       	call   1446 <_ZN7ImGuiIOC1Ev+0x3ac>
    1446:	48 8b 45 c8          	mov    rax,QWORD PTR [rbp-0x38]
    144a:	48 8b 55 e0          	mov    rdx,QWORD PTR [rbp-0x20]
    144e:	48 89 90 c4 03 00 00 	mov    QWORD PTR [rax+0x3c4],rdx
    1455:	48 8b 45 c8          	mov    rax,QWORD PTR [rbp-0x38]
    1459:	f3 0f 10 05 00 00 00 	movss  xmm0,DWORD PTR [rip+0x0]        # 1461 <_ZN7ImGuiIOC1Ev+0x3c7>
    1460:	00 
    1461:	f3 0f 11 40 30       	movss  DWORD PTR [rax+0x30],xmm0
    1466:	c7 45 d4 00 00 00 00 	mov    DWORD PTR [rbp-0x2c],0x0
    146d:	83 7d d4 04          	cmp    DWORD PTR [rbp-0x2c],0x4
    1471:	7f 51                	jg     14c4 <_ZN7ImGuiIOC1Ev+0x42a>
    1473:	48 8b 45 c8          	mov    rax,QWORD PTR [rbp-0x38]
    1477:	8b 55 d4             	mov    edx,DWORD PTR [rbp-0x2c]
    147a:	48 63 d2             	movsxd rdx,edx
    147d:	48 81 c2 14 01 00 00 	add    rdx,0x114
    1484:	f3 0f 10 05 00 00 00 	movss  xmm0,DWORD PTR [rip+0x0]        # 148c <_ZN7ImGuiIOC1Ev+0x3f2>
    148b:	00 
    148c:	f3 0f 11 04 90       	movss  DWORD PTR [rax+rdx*4],xmm0
    1491:	48 8b 45 c8          	mov    rax,QWORD PTR [rbp-0x38]
    1495:	8b 55 d4             	mov    edx,DWORD PTR [rbp-0x2c]
    1498:	48 63 d2             	movsxd rdx,edx
    149b:	48 81 c2 14 01 00 00 	add    rdx,0x114
    14a2:	f3 0f 10 04 90       	movss  xmm0,DWORD PTR [rax+rdx*4]
    14a7:	48 8b 45 c8          	mov    rax,QWORD PTR [rbp-0x38]
    14ab:	8b 55 d4             	mov    edx,DWORD PTR [rbp-0x2c]
    14ae:	48 63 d2             	movsxd rdx,edx
    14b1:	48 81 c2 0c 01 00 00 	add    rdx,0x10c
    14b8:	f3 0f 11 44 90 0c    	movss  DWORD PTR [rax+rdx*4+0xc],xmm0
    14be:	83 45 d4 01          	add    DWORD PTR [rbp-0x2c],0x1
    14c2:	eb a9                	jmp    146d <_ZN7ImGuiIOC1Ev+0x3d3>
    14c4:	c7 45 d8 00 00 00 00 	mov    DWORD PTR [rbp-0x28],0x0
    14cb:	81 7d d8 ff 01 00 00 	cmp    DWORD PTR [rbp-0x28],0x1ff
    14d2:	7f 50                	jg     1524 <_ZN7ImGuiIOC1Ev+0x48a>
    14d4:	48 8b 45 c8          	mov    rax,QWORD PTR [rbp-0x38]
    14d8:	8b 55 d8             	mov    edx,DWORD PTR [rbp-0x28]
    14db:	48 63 d2             	movsxd rdx,edx
    14de:	48 81 c2 28 03 00 00 	add    rdx,0x328
    14e5:	f3 0f 10 05 00 00 00 	movss  xmm0,DWORD PTR [rip+0x0]        # 14ed <_ZN7ImGuiIOC1Ev+0x453>
    14ec:	00 
    14ed:	f3 0f 11 04 90       	movss  DWORD PTR [rax+rdx*4],xmm0
    14f2:	48 8b 45 c8          	mov    rax,QWORD PTR [rbp-0x38]
    14f6:	8b 55 d8             	mov    edx,DWORD PTR [rbp-0x28]
    14f9:	48 63 d2             	movsxd rdx,edx
    14fc:	48 81 c2 28 03 00 00 	add    rdx,0x328
    1503:	f3 0f 10 04 90       	movss  xmm0,DWORD PTR [rax+rdx*4]
    1508:	48 8b 45 c8          	mov    rax,QWORD PTR [rbp-0x38]
    150c:	8b 55 d8             	mov    edx,DWORD PTR [rbp-0x28]
    150f:	48 63 d2             	movsxd rdx,edx
    1512:	48 81 c2 28 01 00 00 	add    rdx,0x128
    1519:	f3 0f 11 04 90       	movss  DWORD PTR [rax+rdx*4],xmm0
    151e:	83 45 d8 01          	add    DWORD PTR [rbp-0x28],0x1
    1522:	eb a7                	jmp    14cb <_ZN7ImGuiIOC1Ev+0x431>
    1524:	c7 45 dc 00 00 00 00 	mov    DWORD PTR [rbp-0x24],0x0
    152b:	83 7d dc 14          	cmp    DWORD PTR [rbp-0x24],0x14
    152f:	7f 24                	jg     1555 <_ZN7ImGuiIOC1Ev+0x4bb>
    1531:	48 8b 45 c8          	mov    rax,QWORD PTR [rbp-0x38]
    1535:	8b 55 dc             	mov    edx,DWORD PTR [rbp-0x24]
    1538:	48 63 d2             	movsxd rdx,edx
    153b:	48 81 c2 28 05 00 00 	add    rdx,0x528
    1542:	f3 0f 10 05 00 00 00 	movss  xmm0,DWORD PTR [rip+0x0]        # 154a <_ZN7ImGuiIOC1Ev+0x4b0>
    1549:	00 
    154a:	f3 0f 11 04 90       	movss  DWORD PTR [rax+rdx*4],xmm0
    154f:	83 45 dc 01          	add    DWORD PTR [rbp-0x24],0x1
    1553:	eb d6                	jmp    152b <_ZN7ImGuiIOC1Ev+0x491>
    1555:	90                   	nop
    1556:	48 8b 45 e8          	mov    rax,QWORD PTR [rbp-0x18]
    155a:	64 48 33 04 25 28 00 	xor    rax,QWORD PTR fs:0x28
    1561:	00 00 
    1563:	74 05                	je     156a <_ZN7ImGuiIOC1Ev+0x4d0>
    1565:	e8 00 00 00 00       	call   156a <_ZN7ImGuiIOC1Ev+0x4d0>
    156a:	48 83 c4 30          	add    rsp,0x30
    156e:	5b                   	pop    rbx
    156f:	41 5c                	pop    r12
    1571:	5d                   	pop    rbp
    1572:	c3                   	ret    
    1573:	90                   	nop

0000000000001574 <_ZN7ImGuiIO17AddInputCharacterEj>:
    1574:	55                   	push   rbp
    1575:	48 89 e5             	mov    rbp,rsp
    1578:	48 83 ec 20          	sub    rsp,0x20
    157c:	48 89 7d e8          	mov    QWORD PTR [rbp-0x18],rdi
    1580:	89 75 e4             	mov    DWORD PTR [rbp-0x1c],esi
    1583:	64 48 8b 04 25 28 00 	mov    rax,QWORD PTR fs:0x28
    158a:	00 00 
    158c:	48 89 45 f8          	mov    QWORD PTR [rbp-0x8],rax
    1590:	31 c0                	xor    eax,eax
    1592:	83 7d e4 00          	cmp    DWORD PTR [rbp-0x1c],0x0
    1596:	74 31                	je     15c9 <_ZN7ImGuiIO17AddInputCharacterEj+0x55>
    1598:	48 8b 45 e8          	mov    rax,QWORD PTR [rbp-0x18]
    159c:	48 8d 90 50 15 00 00 	lea    rdx,[rax+0x1550]
    15a3:	81 7d e4 ff ff 00 00 	cmp    DWORD PTR [rbp-0x1c],0xffff
    15aa:	77 05                	ja     15b1 <_ZN7ImGuiIO17AddInputCharacterEj+0x3d>
    15ac:	8b 45 e4             	mov    eax,DWORD PTR [rbp-0x1c]
    15af:	eb 05                	jmp    15b6 <_ZN7ImGuiIO17AddInputCharacterEj+0x42>
    15b1:	b8 fd ff ff ff       	mov    eax,0xfffffffd
    15b6:	66 89 45 f6          	mov    WORD PTR [rbp-0xa],ax
    15ba:	48 8d 45 f6          	lea    rax,[rbp-0xa]
    15be:	48 89 c6             	mov    rsi,rax
    15c1:	48 89 d7             	mov    rdi,rdx
    15c4:	e8 00 00 00 00       	call   15c9 <_ZN7ImGuiIO17AddInputCharacterEj+0x55>
    15c9:	90                   	nop
    15ca:	48 8b 45 f8          	mov    rax,QWORD PTR [rbp-0x8]
    15ce:	64 48 33 04 25 28 00 	xor    rax,QWORD PTR fs:0x28
    15d5:	00 00 
    15d7:	74 05                	je     15de <_ZN7ImGuiIO17AddInputCharacterEj+0x6a>
    15d9:	e8 00 00 00 00       	call   15de <_ZN7ImGuiIO17AddInputCharacterEj+0x6a>
    15de:	c9                   	leave  
    15df:	c3                   	ret    

00000000000015e0 <_ZN7ImGuiIO22AddInputCharacterUTF16Et>:
    15e0:	55                   	push   rbp
    15e1:	48 89 e5             	mov    rbp,rsp
    15e4:	48 83 ec 20          	sub    rsp,0x20
    15e8:	48 89 7d e8          	mov    QWORD PTR [rbp-0x18],rdi
    15ec:	89 f0                	mov    eax,esi
    15ee:	66 89 45 e4          	mov    WORD PTR [rbp-0x1c],ax
    15f2:	64 48 8b 04 25 28 00 	mov    rax,QWORD PTR fs:0x28
    15f9:	00 00 
    15fb:	48 89 45 f8          	mov    QWORD PTR [rbp-0x8],rax
    15ff:	31 c0                	xor    eax,eax
    1601:	66 83 7d e4 00       	cmp    WORD PTR [rbp-0x1c],0x0
    1606:	75 14                	jne    161c <_ZN7ImGuiIO22AddInputCharacterUTF16Et+0x3c>
    1608:	48 8b 45 e8          	mov    rax,QWORD PTR [rbp-0x18]
    160c:	0f b7 80 4c 15 00 00 	movzx  eax,WORD PTR [rax+0x154c]
    1613:	66 85 c0             	test   ax,ax
    1616:	0f 84 ca 00 00 00    	je     16e6 <_ZN7ImGuiIO22AddInputCharacterUTF16Et+0x106>
    161c:	0f b7 45 e4          	movzx  eax,WORD PTR [rbp-0x1c]
    1620:	25 00 fc 00 00       	and    eax,0xfc00
    1625:	3d 00 d8 00 00       	cmp    eax,0xd800
    162a:	75 41                	jne    166d <_ZN7ImGuiIO22AddInputCharacterUTF16Et+0x8d>
    162c:	48 8b 45 e8          	mov    rax,QWORD PTR [rbp-0x18]
    1630:	0f b7 80 4c 15 00 00 	movzx  eax,WORD PTR [rax+0x154c]
    1637:	66 85 c0             	test   ax,ax
    163a:	74 20                	je     165c <_ZN7ImGuiIO22AddInputCharacterUTF16Et+0x7c>
    163c:	48 8b 45 e8          	mov    rax,QWORD PTR [rbp-0x18]
    1640:	48 8d 90 50 15 00 00 	lea    rdx,[rax+0x1550]
    1647:	66 c7 45 f6 fd ff    	mov    WORD PTR [rbp-0xa],0xfffd
    164d:	48 8d 45 f6          	lea    rax,[rbp-0xa]
    1651:	48 89 c6             	mov    rsi,rax
    1654:	48 89 d7             	mov    rdi,rdx
    1657:	e8 00 00 00 00       	call   165c <_ZN7ImGuiIO22AddInputCharacterUTF16Et+0x7c>
    165c:	48 8b 45 e8          	mov    rax,QWORD PTR [rbp-0x18]
    1660:	0f b7 55 e4          	movzx  edx,WORD PTR [rbp-0x1c]
    1664:	66 89 90 4c 15 00 00 	mov    WORD PTR [rax+0x154c],dx
    166b:	eb 7a                	jmp    16e7 <_ZN7ImGuiIO22AddInputCharacterUTF16Et+0x107>
    166d:	0f b7 45 e4          	movzx  eax,WORD PTR [rbp-0x1c]
    1671:	66 89 45 f4          	mov    WORD PTR [rbp-0xc],ax
    1675:	48 8b 45 e8          	mov    rax,QWORD PTR [rbp-0x18]
    1679:	0f b7 80 4c 15 00 00 	movzx  eax,WORD PTR [rax+0x154c]
    1680:	66 85 c0             	test   ax,ax
    1683:	74 45                	je     16ca <_ZN7ImGuiIO22AddInputCharacterUTF16Et+0xea>
    1685:	0f b7 45 e4          	movzx  eax,WORD PTR [rbp-0x1c]
    1689:	25 00 fc 00 00       	and    eax,0xfc00
    168e:	3d 00 dc 00 00       	cmp    eax,0xdc00
    1693:	74 22                	je     16b7 <_ZN7ImGuiIO22AddInputCharacterUTF16Et+0xd7>
    1695:	48 8b 45 e8          	mov    rax,QWORD PTR [rbp-0x18]
    1699:	48 8d 90 50 15 00 00 	lea    rdx,[rax+0x1550]
    16a0:	66 c7 45 f6 fd ff    	mov    WORD PTR [rbp-0xa],0xfffd
    16a6:	48 8d 45 f6          	lea    rax,[rbp-0xa]
    16aa:	48 89 c6             	mov    rsi,rax
    16ad:	48 89 d7             	mov    rdi,rdx
    16b0:	e8 00 00 00 00       	call   16b5 <_ZN7ImGuiIO22AddInputCharacterUTF16Et+0xd5>
    16b5:	eb 06                	jmp    16bd <_ZN7ImGuiIO22AddInputCharacterUTF16Et+0xdd>
    16b7:	66 c7 45 f4 fd ff    	mov    WORD PTR [rbp-0xc],0xfffd
    16bd:	48 8b 45 e8          	mov    rax,QWORD PTR [rbp-0x18]
    16c1:	66 c7 80 4c 15 00 00 	mov    WORD PTR [rax+0x154c],0x0
    16c8:	00 00 
    16ca:	48 8b 45 e8          	mov    rax,QWORD PTR [rbp-0x18]
    16ce:	48 8d 90 50 15 00 00 	lea    rdx,[rax+0x1550]
    16d5:	48 8d 45 f4          	lea    rax,[rbp-0xc]
    16d9:	48 89 c6             	mov    rsi,rax
    16dc:	48 89 d7             	mov    rdi,rdx
    16df:	e8 00 00 00 00       	call   16e4 <_ZN7ImGuiIO22AddInputCharacterUTF16Et+0x104>
    16e4:	eb 01                	jmp    16e7 <_ZN7ImGuiIO22AddInputCharacterUTF16Et+0x107>
    16e6:	90                   	nop
    16e7:	48 8b 45 f8          	mov    rax,QWORD PTR [rbp-0x8]
    16eb:	64 48 33 04 25 28 00 	xor    rax,QWORD PTR fs:0x28
    16f2:	00 00 
    16f4:	74 05                	je     16fb <_ZN7ImGuiIO22AddInputCharacterUTF16Et+0x11b>
    16f6:	e8 00 00 00 00       	call   16fb <_ZN7ImGuiIO22AddInputCharacterUTF16Et+0x11b>
    16fb:	c9                   	leave  
    16fc:	c3                   	ret    
    16fd:	90                   	nop

00000000000016fe <_ZN7ImGuiIO22AddInputCharactersUTF8EPKc>:
    16fe:	55                   	push   rbp
    16ff:	48 89 e5             	mov    rbp,rsp
    1702:	48 83 ec 20          	sub    rsp,0x20
    1706:	48 89 7d e8          	mov    QWORD PTR [rbp-0x18],rdi
    170a:	48 89 75 e0          	mov    QWORD PTR [rbp-0x20],rsi
    170e:	64 48 8b 04 25 28 00 	mov    rax,QWORD PTR fs:0x28
    1715:	00 00 
    1717:	48 89 45 f8          	mov    QWORD PTR [rbp-0x8],rax
    171b:	31 c0                	xor    eax,eax
    171d:	48 8b 45 e0          	mov    rax,QWORD PTR [rbp-0x20]
    1721:	0f b6 00             	movzx  eax,BYTE PTR [rax]
    1724:	84 c0                	test   al,al
    1726:	74 4f                	je     1777 <_ZN7ImGuiIO22AddInputCharactersUTF8EPKc+0x79>
    1728:	c7 45 f4 00 00 00 00 	mov    DWORD PTR [rbp-0xc],0x0
    172f:	48 8b 4d e0          	mov    rcx,QWORD PTR [rbp-0x20]
    1733:	48 8d 45 f4          	lea    rax,[rbp-0xc]
    1737:	ba 00 00 00 00       	mov    edx,0x0
    173c:	48 89 ce             	mov    rsi,rcx
    173f:	48 89 c7             	mov    rdi,rax
    1742:	e8 00 00 00 00       	call   1747 <_ZN7ImGuiIO22AddInputCharactersUTF8EPKc+0x49>
    1747:	48 98                	cdqe   
    1749:	48 01 45 e0          	add    QWORD PTR [rbp-0x20],rax
    174d:	8b 45 f4             	mov    eax,DWORD PTR [rbp-0xc]
    1750:	85 c0                	test   eax,eax
    1752:	74 c9                	je     171d <_ZN7ImGuiIO22AddInputCharactersUTF8EPKc+0x1f>
    1754:	48 8b 45 e8          	mov    rax,QWORD PTR [rbp-0x18]
    1758:	48 8d 90 50 15 00 00 	lea    rdx,[rax+0x1550]
    175f:	8b 45 f4             	mov    eax,DWORD PTR [rbp-0xc]
    1762:	66 89 45 f2          	mov    WORD PTR [rbp-0xe],ax
    1766:	48 8d 45 f2          	lea    rax,[rbp-0xe]
    176a:	48 89 c6             	mov    rsi,rax
    176d:	48 89 d7             	mov    rdi,rdx
    1770:	e8 00 00 00 00       	call   1775 <_ZN7ImGuiIO22AddInputCharactersUTF8EPKc+0x77>
    1775:	eb a6                	jmp    171d <_ZN7ImGuiIO22AddInputCharactersUTF8EPKc+0x1f>
    1777:	90                   	nop
    1778:	48 8b 45 f8          	mov    rax,QWORD PTR [rbp-0x8]
    177c:	64 48 33 04 25 28 00 	xor    rax,QWORD PTR fs:0x28
    1783:	00 00 
    1785:	74 05                	je     178c <_ZN7ImGuiIO22AddInputCharactersUTF8EPKc+0x8e>
    1787:	e8 00 00 00 00       	call   178c <_ZN7ImGuiIO22AddInputCharactersUTF8EPKc+0x8e>
    178c:	c9                   	leave  
    178d:	c3                   	ret    

000000000000178e <_ZN7ImGuiIO20ClearInputCharactersEv>:
    178e:	55                   	push   rbp
    178f:	48 89 e5             	mov    rbp,rsp
    1792:	48 83 ec 10          	sub    rsp,0x10
    1796:	48 89 7d f8          	mov    QWORD PTR [rbp-0x8],rdi
    179a:	48 8b 45 f8          	mov    rax,QWORD PTR [rbp-0x8]
    179e:	48 05 50 15 00 00    	add    rax,0x1550
    17a4:	be 00 00 00 00       	mov    esi,0x0
    17a9:	48 89 c7             	mov    rdi,rax
    17ac:	e8 00 00 00 00       	call   17b1 <_ZN7ImGuiIO20ClearInputCharactersEv+0x23>
    17b1:	90                   	nop
    17b2:	c9                   	leave  
    17b3:	c3                   	ret    

00000000000017b4 <_Z20ImBezierClosestPointRK6ImVec2S1_S1_S1_S1_i>:
    17b4:	55                   	push   rbp
    17b5:	48 89 e5             	mov    rbp,rsp
    17b8:	48 83 c4 80          	add    rsp,0xffffffffffffff80
    17bc:	48 89 7d b8          	mov    QWORD PTR [rbp-0x48],rdi
    17c0:	48 89 75 b0          	mov    QWORD PTR [rbp-0x50],rsi
    17c4:	48 89 55 a8          	mov    QWORD PTR [rbp-0x58],rdx
    17c8:	48 89 4d a0          	mov    QWORD PTR [rbp-0x60],rcx
    17cc:	4c 89 45 98          	mov    QWORD PTR [rbp-0x68],r8
    17d0:	44 89 4d 94          	mov    DWORD PTR [rbp-0x6c],r9d
    17d4:	64 48 8b 04 25 28 00 	mov    rax,QWORD PTR fs:0x28
    17db:	00 00 
    17dd:	48 89 45 f8          	mov    QWORD PTR [rbp-0x8],rax
    17e1:	31 c0                	xor    eax,eax
    17e3:	83 7d 94 00          	cmp    DWORD PTR [rbp-0x6c],0x0
    17e7:	7f 1f                	jg     1808 <_Z20ImBezierClosestPointRK6ImVec2S1_S1_S1_S1_i+0x54>
    17e9:	48 8d 0d 00 00 00 00 	lea    rcx,[rip+0x0]        # 17f0 <_Z20ImBezierClosestPointRK6ImVec2S1_S1_S1_S1_i+0x3c>
    17f0:	ba 56 04 00 00       	mov    edx,0x456
    17f5:	48 8d 35 00 00 00 00 	lea    rsi,[rip+0x0]        # 17fc <_Z20ImBezierClosestPointRK6ImVec2S1_S1_S1_S1_i+0x48>
    17fc:	48 8d 3d 00 00 00 00 	lea    rdi,[rip+0x0]        # 1803 <_Z20ImBezierClosestPointRK6ImVec2S1_S1_S1_S1_i+0x4f>
    1803:	e8 00 00 00 00       	call   1808 <_Z20ImBezierClosestPointRK6ImVec2S1_S1_S1_S1_i+0x54>
    1808:	48 8b 45 b8          	mov    rax,QWORD PTR [rbp-0x48]
    180c:	48 8b 00             	mov    rax,QWORD PTR [rax]
    180f:	48 89 45 d0          	mov    QWORD PTR [rbp-0x30],rax
    1813:	48 8d 45 d8          	lea    rax,[rbp-0x28]
    1817:	48 89 c7             	mov    rdi,rax
    181a:	e8 00 00 00 00       	call   181f <_Z20ImBezierClosestPointRK6ImVec2S1_S1_S1_S1_i+0x6b>
    181f:	f3 0f 10 05 00 00 00 	movss  xmm0,DWORD PTR [rip+0x0]        # 1827 <_Z20ImBezierClosestPointRK6ImVec2S1_S1_S1_S1_i+0x73>
    1826:	00 
    1827:	f3 0f 11 45 c0       	movss  DWORD PTR [rbp-0x40],xmm0
    182c:	f3 0f 2a 45 94       	cvtsi2ss xmm0,DWORD PTR [rbp-0x6c]
    1831:	f3 0f 10 0d 00 00 00 	movss  xmm1,DWORD PTR [rip+0x0]        # 1839 <_Z20ImBezierClosestPointRK6ImVec2S1_S1_S1_S1_i+0x85>
    1838:	00 
    1839:	f3 0f 5e c8          	divss  xmm1,xmm0
    183d:	0f 28 c1             	movaps xmm0,xmm1
    1840:	f3 0f 11 45 c8       	movss  DWORD PTR [rbp-0x38],xmm0
    1845:	c7 45 c4 01 00 00 00 	mov    DWORD PTR [rbp-0x3c],0x1
    184c:	8b 45 c4             	mov    eax,DWORD PTR [rbp-0x3c]
    184f:	3b 45 94             	cmp    eax,DWORD PTR [rbp-0x6c]
    1852:	0f 8f a8 00 00 00    	jg     1900 <_Z20ImBezierClosestPointRK6ImVec2S1_S1_S1_S1_i+0x14c>
    1858:	f3 0f 2a 45 c4       	cvtsi2ss xmm0,DWORD PTR [rbp-0x3c]
    185d:	f3 0f 59 45 c8       	mulss  xmm0,DWORD PTR [rbp-0x38]
    1862:	48 8b 4d a0          	mov    rcx,QWORD PTR [rbp-0x60]
    1866:	48 8b 55 a8          	mov    rdx,QWORD PTR [rbp-0x58]
    186a:	48 8b 75 b0          	mov    rsi,QWORD PTR [rbp-0x50]
    186e:	48 8b 45 b8          	mov    rax,QWORD PTR [rbp-0x48]
    1872:	48 89 c7             	mov    rdi,rax
    1875:	e8 00 00 00 00       	call   187a <_Z20ImBezierClosestPointRK6ImVec2S1_S1_S1_S1_i+0xc6>
    187a:	66 48 0f 7e c0       	movq   rax,xmm0
    187f:	48 89 45 e0          	mov    QWORD PTR [rbp-0x20],rax
    1883:	48 8b 55 98          	mov    rdx,QWORD PTR [rbp-0x68]
    1887:	48 8d 4d e0          	lea    rcx,[rbp-0x20]
    188b:	48 8d 45 d0          	lea    rax,[rbp-0x30]
    188f:	48 89 ce             	mov    rsi,rcx
    1892:	48 89 c7             	mov    rdi,rax
    1895:	e8 00 00 00 00       	call   189a <_Z20ImBezierClosestPointRK6ImVec2S1_S1_S1_S1_i+0xe6>
    189a:	66 48 0f 7e c0       	movq   rax,xmm0
    189f:	48 89 45 e8          	mov    QWORD PTR [rbp-0x18],rax
    18a3:	48 8d 55 e8          	lea    rdx,[rbp-0x18]
    18a7:	48 8b 45 98          	mov    rax,QWORD PTR [rbp-0x68]
    18ab:	48 89 d6             	mov    rsi,rdx
    18ae:	48 89 c7             	mov    rdi,rax
    18b1:	e8 ed e8 ff ff       	call   1a3 <_ZmiRK6ImVec2S1_>
    18b6:	66 48 0f 7e c0       	movq   rax,xmm0
    18bb:	48 89 45 f0          	mov    QWORD PTR [rbp-0x10],rax
    18bf:	48 8d 45 f0          	lea    rax,[rbp-0x10]
    18c3:	48 89 c7             	mov    rdi,rax
    18c6:	e8 40 ee ff ff       	call   70b <_ZL11ImLengthSqrRK6ImVec2>
    18cb:	66 0f 7e c0          	movd   eax,xmm0
    18cf:	89 45 cc             	mov    DWORD PTR [rbp-0x34],eax
    18d2:	f3 0f 10 45 c0       	movss  xmm0,DWORD PTR [rbp-0x40]
    18d7:	0f 2e 45 cc          	ucomiss xmm0,DWORD PTR [rbp-0x34]
    18db:	76 12                	jbe    18ef <_Z20ImBezierClosestPointRK6ImVec2S1_S1_S1_S1_i+0x13b>
    18dd:	48 8b 45 e8          	mov    rax,QWORD PTR [rbp-0x18]
    18e1:	48 89 45 d8          	mov    QWORD PTR [rbp-0x28],rax
    18e5:	f3 0f 10 45 cc       	movss  xmm0,DWORD PTR [rbp-0x34]
    18ea:	f3 0f 11 45 c0       	movss  DWORD PTR [rbp-0x40],xmm0
    18ef:	48 8b 45 e0          	mov    rax,QWORD PTR [rbp-0x20]
    18f3:	48 89 45 d0          	mov    QWORD PTR [rbp-0x30],rax
    18f7:	83 45 c4 01          	add    DWORD PTR [rbp-0x3c],0x1
    18fb:	e9 4c ff ff ff       	jmp    184c <_Z20ImBezierClosestPointRK6ImVec2S1_S1_S1_S1_i+0x98>
    1900:	48 8b 45 d8          	mov    rax,QWORD PTR [rbp-0x28]
    1904:	48 89 45 88          	mov    QWORD PTR [rbp-0x78],rax
    1908:	f3 0f 7e 45 88       	movq   xmm0,QWORD PTR [rbp-0x78]
    190d:	48 8b 45 f8          	mov    rax,QWORD PTR [rbp-0x8]
    1911:	64 48 33 04 25 28 00 	xor    rax,QWORD PTR fs:0x28
    1918:	00 00 
    191a:	74 05                	je     1921 <_Z20ImBezierClosestPointRK6ImVec2S1_S1_S1_S1_i+0x16d>
    191c:	e8 00 00 00 00       	call   1921 <_Z20ImBezierClosestPointRK6ImVec2S1_S1_S1_S1_i+0x16d>
    1921:	c9                   	leave  
    1922:	c3                   	ret    

0000000000001923 <_ZL31BezierClosestPointCasteljauStepRK6ImVec2RS_S2_Rffffffffffi>:
    1923:	55                   	push   rbp
    1924:	48 89 e5             	mov    rbp,rsp
    1927:	48 81 ec c0 00 00 00 	sub    rsp,0xc0
    192e:	48 89 7d 88          	mov    QWORD PTR [rbp-0x78],rdi
    1932:	48 89 75 80          	mov    QWORD PTR [rbp-0x80],rsi
    1936:	48 89 95 78 ff ff ff 	mov    QWORD PTR [rbp-0x88],rdx
    193d:	48 89 8d 70 ff ff ff 	mov    QWORD PTR [rbp-0x90],rcx
    1944:	f3 0f 11 85 6c ff ff 	movss  DWORD PTR [rbp-0x94],xmm0
    194b:	ff 
    194c:	f3 0f 11 8d 68 ff ff 	movss  DWORD PTR [rbp-0x98],xmm1
    1953:	ff 
    1954:	f3 0f 11 95 64 ff ff 	movss  DWORD PTR [rbp-0x9c],xmm2
    195b:	ff 
    195c:	f3 0f 11 9d 60 ff ff 	movss  DWORD PTR [rbp-0xa0],xmm3
    1963:	ff 
    1964:	f3 0f 11 a5 5c ff ff 	movss  DWORD PTR [rbp-0xa4],xmm4
    196b:	ff 
    196c:	f3 0f 11 ad 58 ff ff 	movss  DWORD PTR [rbp-0xa8],xmm5
    1973:	ff 
    1974:	f3 0f 11 b5 54 ff ff 	movss  DWORD PTR [rbp-0xac],xmm6
    197b:	ff 
    197c:	f3 0f 11 bd 50 ff ff 	movss  DWORD PTR [rbp-0xb0],xmm7
    1983:	ff 
    1984:	44 89 85 4c ff ff ff 	mov    DWORD PTR [rbp-0xb4],r8d
    198b:	64 48 8b 04 25 28 00 	mov    rax,QWORD PTR fs:0x28
    1992:	00 00 
    1994:	48 89 45 f8          	mov    QWORD PTR [rbp-0x8],rax
    1998:	31 c0                	xor    eax,eax
    199a:	f3 0f 10 85 54 ff ff 	movss  xmm0,DWORD PTR [rbp-0xac]
    19a1:	ff 
    19a2:	f3 0f 5c 85 6c ff ff 	subss  xmm0,DWORD PTR [rbp-0x94]
    19a9:	ff 
    19aa:	f3 0f 11 45 9c       	movss  DWORD PTR [rbp-0x64],xmm0
    19af:	f3 0f 10 85 50 ff ff 	movss  xmm0,DWORD PTR [rbp-0xb0]
    19b6:	ff 
    19b7:	f3 0f 5c 85 68 ff ff 	subss  xmm0,DWORD PTR [rbp-0x98]
    19be:	ff 
    19bf:	f3 0f 11 45 a0       	movss  DWORD PTR [rbp-0x60],xmm0
    19c4:	f3 0f 10 85 64 ff ff 	movss  xmm0,DWORD PTR [rbp-0x9c]
    19cb:	ff 
    19cc:	f3 0f 5c 85 54 ff ff 	subss  xmm0,DWORD PTR [rbp-0xac]
    19d3:	ff 
    19d4:	f3 0f 59 45 a0       	mulss  xmm0,DWORD PTR [rbp-0x60]
    19d9:	f3 0f 10 8d 60 ff ff 	movss  xmm1,DWORD PTR [rbp-0xa0]
    19e0:	ff 
    19e1:	f3 0f 5c 8d 50 ff ff 	subss  xmm1,DWORD PTR [rbp-0xb0]
    19e8:	ff 
    19e9:	f3 0f 59 4d 9c       	mulss  xmm1,DWORD PTR [rbp-0x64]
    19ee:	f3 0f 5c c1          	subss  xmm0,xmm1
    19f2:	f3 0f 11 45 a4       	movss  DWORD PTR [rbp-0x5c],xmm0
    19f7:	f3 0f 10 85 5c ff ff 	movss  xmm0,DWORD PTR [rbp-0xa4]
    19fe:	ff 
    19ff:	f3 0f 5c 85 54 ff ff 	subss  xmm0,DWORD PTR [rbp-0xac]
    1a06:	ff 
    1a07:	f3 0f 59 45 a0       	mulss  xmm0,DWORD PTR [rbp-0x60]
    1a0c:	f3 0f 10 8d 58 ff ff 	movss  xmm1,DWORD PTR [rbp-0xa8]
    1a13:	ff 
    1a14:	f3 0f 5c 8d 50 ff ff 	subss  xmm1,DWORD PTR [rbp-0xb0]
    1a1b:	ff 
    1a1c:	f3 0f 59 4d 9c       	mulss  xmm1,DWORD PTR [rbp-0x64]
    1a21:	f3 0f 5c c1          	subss  xmm0,xmm1
    1a25:	f3 0f 11 45 a8       	movss  DWORD PTR [rbp-0x58],xmm0
    1a2a:	f3 0f 10 45 a4       	movss  xmm0,DWORD PTR [rbp-0x5c]
    1a2f:	66 0f ef c9          	pxor   xmm1,xmm1
    1a33:	0f 2e c1             	ucomiss xmm0,xmm1
    1a36:	72 07                	jb     1a3f <_ZL31BezierClosestPointCasteljauStepRK6ImVec2RS_S2_Rffffffffffi+0x11c>
    1a38:	f3 0f 10 45 a4       	movss  xmm0,DWORD PTR [rbp-0x5c]
    1a3d:	eb 10                	jmp    1a4f <_ZL31BezierClosestPointCasteljauStepRK6ImVec2RS_S2_Rffffffffffi+0x12c>
    1a3f:	f3 0f 10 4d a4       	movss  xmm1,DWORD PTR [rbp-0x5c]
    1a44:	f3 0f 10 05 00 00 00 	movss  xmm0,DWORD PTR [rip+0x0]        # 1a4c <_ZL31BezierClosestPointCasteljauStepRK6ImVec2RS_S2_Rffffffffffi+0x129>
    1a4b:	00 
    1a4c:	0f 57 c1             	xorps  xmm0,xmm1
    1a4f:	f3 0f 11 45 a4       	movss  DWORD PTR [rbp-0x5c],xmm0
    1a54:	f3 0f 10 45 a8       	movss  xmm0,DWORD PTR [rbp-0x58]
    1a59:	66 0f ef c9          	pxor   xmm1,xmm1
    1a5d:	0f 2e c1             	ucomiss xmm0,xmm1
    1a60:	72 07                	jb     1a69 <_ZL31BezierClosestPointCasteljauStepRK6ImVec2RS_S2_Rffffffffffi+0x146>
    1a62:	f3 0f 10 45 a8       	movss  xmm0,DWORD PTR [rbp-0x58]
    1a67:	eb 10                	jmp    1a79 <_ZL31BezierClosestPointCasteljauStepRK6ImVec2RS_S2_Rffffffffffi+0x156>
    1a69:	f3 0f 10 4d a8       	movss  xmm1,DWORD PTR [rbp-0x58]
    1a6e:	f3 0f 10 05 00 00 00 	movss  xmm0,DWORD PTR [rip+0x0]        # 1a76 <_ZL31BezierClosestPointCasteljauStepRK6ImVec2RS_S2_Rffffffffffi+0x153>
    1a75:	00 
    1a76:	0f 57 c1             	xorps  xmm0,xmm1
    1a79:	f3 0f 11 45 a8       	movss  DWORD PTR [rbp-0x58],xmm0
    1a7e:	f3 0f 10 45 a4       	movss  xmm0,DWORD PTR [rbp-0x5c]
    1a83:	0f 28 c8             	movaps xmm1,xmm0
    1a86:	f3 0f 58 4d a8       	addss  xmm1,DWORD PTR [rbp-0x58]
    1a8b:	f3 0f 10 45 a4       	movss  xmm0,DWORD PTR [rbp-0x5c]
    1a90:	f3 0f 58 45 a8       	addss  xmm0,DWORD PTR [rbp-0x58]
    1a95:	f3 0f 59 c8          	mulss  xmm1,xmm0
    1a99:	f3 0f 10 45 9c       	movss  xmm0,DWORD PTR [rbp-0x64]
    1a9e:	0f 28 d0             	movaps xmm2,xmm0
    1aa1:	f3 0f 59 55 9c       	mulss  xmm2,DWORD PTR [rbp-0x64]
    1aa6:	f3 0f 10 45 a0       	movss  xmm0,DWORD PTR [rbp-0x60]
    1aab:	f3 0f 59 45 a0       	mulss  xmm0,DWORD PTR [rbp-0x60]
    1ab0:	f3 0f 58 c2          	addss  xmm0,xmm2
    1ab4:	f3 0f 59 45 10       	mulss  xmm0,DWORD PTR [rbp+0x10]
    1ab9:	0f 2e c1             	ucomiss xmm0,xmm1
    1abc:	0f 86 bc 00 00 00    	jbe    1b7e <_ZL31BezierClosestPointCasteljauStepRK6ImVec2RS_S2_Rffffffffffi+0x25b>
    1ac2:	f3 0f 10 85 50 ff ff 	movss  xmm0,DWORD PTR [rbp-0xb0]
    1ac9:	ff 
    1aca:	8b 95 54 ff ff ff    	mov    edx,DWORD PTR [rbp-0xac]
    1ad0:	48 8d 45 e0          	lea    rax,[rbp-0x20]
    1ad4:	0f 28 c8             	movaps xmm1,xmm0
    1ad7:	89 95 48 ff ff ff    	mov    DWORD PTR [rbp-0xb8],edx
    1add:	f3 0f 10 85 48 ff ff 	movss  xmm0,DWORD PTR [rbp-0xb8]
    1ae4:	ff 
    1ae5:	48 89 c7             	mov    rdi,rax
    1ae8:	e8 00 00 00 00       	call   1aed <_ZL31BezierClosestPointCasteljauStepRK6ImVec2RS_S2_Rffffffffffi+0x1ca>
    1aed:	48 8b 55 88          	mov    rdx,QWORD PTR [rbp-0x78]
    1af1:	48 8d 4d e0          	lea    rcx,[rbp-0x20]
    1af5:	48 8b 85 78 ff ff ff 	mov    rax,QWORD PTR [rbp-0x88]
    1afc:	48 89 ce             	mov    rsi,rcx
    1aff:	48 89 c7             	mov    rdi,rax
    1b02:	e8 00 00 00 00       	call   1b07 <_ZL31BezierClosestPointCasteljauStepRK6ImVec2RS_S2_Rffffffffffi+0x1e4>
    1b07:	66 48 0f 7e c0       	movq   rax,xmm0
    1b0c:	48 89 45 e8          	mov    QWORD PTR [rbp-0x18],rax
    1b10:	48 8d 55 e8          	lea    rdx,[rbp-0x18]
    1b14:	48 8b 45 88          	mov    rax,QWORD PTR [rbp-0x78]
    1b18:	48 89 d6             	mov    rsi,rdx
    1b1b:	48 89 c7             	mov    rdi,rax
    1b1e:	e8 80 e6 ff ff       	call   1a3 <_ZmiRK6ImVec2S1_>
    1b23:	66 48 0f 7e c0       	movq   rax,xmm0
    1b28:	48 89 45 f0          	mov    QWORD PTR [rbp-0x10],rax
    1b2c:	48 8d 45 f0          	lea    rax,[rbp-0x10]
    1b30:	48 89 c7             	mov    rdi,rax
    1b33:	e8 d3 eb ff ff       	call   70b <_ZL11ImLengthSqrRK6ImVec2>
    1b38:	66 0f 7e c0          	movd   eax,xmm0
    1b3c:	89 45 dc             	mov    DWORD PTR [rbp-0x24],eax
    1b3f:	48 8b 85 70 ff ff ff 	mov    rax,QWORD PTR [rbp-0x90]
    1b46:	f3 0f 10 00          	movss  xmm0,DWORD PTR [rax]
    1b4a:	0f 2e 45 dc          	ucomiss xmm0,DWORD PTR [rbp-0x24]
    1b4e:	76 1b                	jbe    1b6b <_ZL31BezierClosestPointCasteljauStepRK6ImVec2RS_S2_Rffffffffffi+0x248>
    1b50:	48 8b 45 80          	mov    rax,QWORD PTR [rbp-0x80]
    1b54:	48 8b 55 e8          	mov    rdx,QWORD PTR [rbp-0x18]
    1b58:	48 89 10             	mov    QWORD PTR [rax],rdx
    1b5b:	48 8b 85 70 ff ff ff 	mov    rax,QWORD PTR [rbp-0x90]
    1b62:	f3 0f 10 45 dc       	movss  xmm0,DWORD PTR [rbp-0x24]
    1b67:	f3 0f 11 00          	movss  DWORD PTR [rax],xmm0
    1b6b:	48 8b 85 78 ff ff ff 	mov    rax,QWORD PTR [rbp-0x88]
    1b72:	48 8b 55 e0          	mov    rdx,QWORD PTR [rbp-0x20]
    1b76:	48 89 10             	mov    QWORD PTR [rax],rdx
    1b79:	e9 67 02 00 00       	jmp    1de5 <_ZL31BezierClosestPointCasteljauStepRK6ImVec2RS_S2_Rffffffffffi+0x4c2>
    1b7e:	83 bd 4c ff ff ff 09 	cmp    DWORD PTR [rbp-0xb4],0x9
    1b85:	0f 8f 5a 02 00 00    	jg     1de5 <_ZL31BezierClosestPointCasteljauStepRK6ImVec2RS_S2_Rffffffffffi+0x4c2>
    1b8b:	f3 0f 10 85 6c ff ff 	movss  xmm0,DWORD PTR [rbp-0x94]
    1b92:	ff 
    1b93:	f3 0f 58 85 64 ff ff 	addss  xmm0,DWORD PTR [rbp-0x9c]
    1b9a:	ff 
    1b9b:	f3 0f 10 0d 00 00 00 	movss  xmm1,DWORD PTR [rip+0x0]        # 1ba3 <_ZL31BezierClosestPointCasteljauStepRK6ImVec2RS_S2_Rffffffffffi+0x280>
    1ba2:	00 
    1ba3:	f3 0f 59 c1          	mulss  xmm0,xmm1
    1ba7:	f3 0f 11 45 ac       	movss  DWORD PTR [rbp-0x54],xmm0
    1bac:	f3 0f 10 85 68 ff ff 	movss  xmm0,DWORD PTR [rbp-0x98]
    1bb3:	ff 
    1bb4:	f3 0f 58 85 60 ff ff 	addss  xmm0,DWORD PTR [rbp-0xa0]
    1bbb:	ff 
    1bbc:	f3 0f 10 0d 00 00 00 	movss  xmm1,DWORD PTR [rip+0x0]        # 1bc4 <_ZL31BezierClosestPointCasteljauStepRK6ImVec2RS_S2_Rffffffffffi+0x2a1>
    1bc3:	00 
    1bc4:	f3 0f 59 c1          	mulss  xmm0,xmm1
    1bc8:	f3 0f 11 45 b0       	movss  DWORD PTR [rbp-0x50],xmm0
    1bcd:	f3 0f 10 85 64 ff ff 	movss  xmm0,DWORD PTR [rbp-0x9c]
    1bd4:	ff 
    1bd5:	f3 0f 58 85 5c ff ff 	addss  xmm0,DWORD PTR [rbp-0xa4]
    1bdc:	ff 
    1bdd:	f3 0f 10 0d 00 00 00 	movss  xmm1,DWORD PTR [rip+0x0]        # 1be5 <_ZL31BezierClosestPointCasteljauStepRK6ImVec2RS_S2_Rffffffffffi+0x2c2>
    1be4:	00 
    1be5:	f3 0f 59 c1          	mulss  xmm0,xmm1
    1be9:	f3 0f 11 45 b4       	movss  DWORD PTR [rbp-0x4c],xmm0
    1bee:	f3 0f 10 85 60 ff ff 	movss  xmm0,DWORD PTR [rbp-0xa0]
    1bf5:	ff 
    1bf6:	f3 0f 58 85 58 ff ff 	addss  xmm0,DWORD PTR [rbp-0xa8]
    1bfd:	ff 
    1bfe:	f3 0f 10 0d 00 00 00 	movss  xmm1,DWORD PTR [rip+0x0]        # 1c06 <_ZL31BezierClosestPointCasteljauStepRK6ImVec2RS_S2_Rffffffffffi+0x2e3>
    1c05:	00 
    1c06:	f3 0f 59 c1          	mulss  xmm0,xmm1
    1c0a:	f3 0f 11 45 b8       	movss  DWORD PTR [rbp-0x48],xmm0
    1c0f:	f3 0f 10 85 5c ff ff 	movss  xmm0,DWORD PTR [rbp-0xa4]
    1c16:	ff 
    1c17:	f3 0f 58 85 54 ff ff 	addss  xmm0,DWORD PTR [rbp-0xac]
    1c1e:	ff 
    1c1f:	f3 0f 10 0d 00 00 00 	movss  xmm1,DWORD PTR [rip+0x0]        # 1c27 <_ZL31BezierClosestPointCasteljauStepRK6ImVec2RS_S2_Rffffffffffi+0x304>
    1c26:	00 
    1c27:	f3 0f 59 c1          	mulss  xmm0,xmm1
    1c2b:	f3 0f 11 45 bc       	movss  DWORD PTR [rbp-0x44],xmm0
    1c30:	f3 0f 10 85 58 ff ff 	movss  xmm0,DWORD PTR [rbp-0xa8]
    1c37:	ff 
    1c38:	f3 0f 58 85 50 ff ff 	addss  xmm0,DWORD PTR [rbp-0xb0]
    1c3f:	ff 
    1c40:	f3 0f 10 0d 00 00 00 	movss  xmm1,DWORD PTR [rip+0x0]        # 1c48 <_ZL31BezierClosestPointCasteljauStepRK6ImVec2RS_S2_Rffffffffffi+0x325>
    1c47:	00 
    1c48:	f3 0f 59 c1          	mulss  xmm0,xmm1
    1c4c:	f3 0f 11 45 c0       	movss  DWORD PTR [rbp-0x40],xmm0
    1c51:	f3 0f 10 45 ac       	movss  xmm0,DWORD PTR [rbp-0x54]
    1c56:	f3 0f 58 45 b4       	addss  xmm0,DWORD PTR [rbp-0x4c]
    1c5b:	f3 0f 10 0d 00 00 00 	movss  xmm1,DWORD PTR [rip+0x0]        # 1c63 <_ZL31BezierClosestPointCasteljauStepRK6ImVec2RS_S2_Rffffffffffi+0x340>
    1c62:	00 
    1c63:	f3 0f 59 c1          	mulss  xmm0,xmm1
    1c67:	f3 0f 11 45 c4       	movss  DWORD PTR [rbp-0x3c],xmm0
    1c6c:	f3 0f 10 45 b0       	movss  xmm0,DWORD PTR [rbp-0x50]
    1c71:	f3 0f 58 45 b8       	addss  xmm0,DWORD PTR [rbp-0x48]
    1c76:	f3 0f 10 0d 00 00 00 	movss  xmm1,DWORD PTR [rip+0x0]        # 1c7e <_ZL31BezierClosestPointCasteljauStepRK6ImVec2RS_S2_Rffffffffffi+0x35b>
    1c7d:	00 
    1c7e:	f3 0f 59 c1          	mulss  xmm0,xmm1
    1c82:	f3 0f 11 45 c8       	movss  DWORD PTR [rbp-0x38],xmm0
    1c87:	f3 0f 10 45 b4       	movss  xmm0,DWORD PTR [rbp-0x4c]
    1c8c:	f3 0f 58 45 bc       	addss  xmm0,DWORD PTR [rbp-0x44]
    1c91:	f3 0f 10 0d 00 00 00 	movss  xmm1,DWORD PTR [rip+0x0]        # 1c99 <_ZL31BezierClosestPointCasteljauStepRK6ImVec2RS_S2_Rffffffffffi+0x376>
    1c98:	00 
    1c99:	f3 0f 59 c1          	mulss  xmm0,xmm1
    1c9d:	f3 0f 11 45 cc       	movss  DWORD PTR [rbp-0x34],xmm0
    1ca2:	f3 0f 10 45 b8       	movss  xmm0,DWORD PTR [rbp-0x48]
    1ca7:	f3 0f 58 45 c0       	addss  xmm0,DWORD PTR [rbp-0x40]
    1cac:	f3 0f 10 0d 00 00 00 	movss  xmm1,DWORD PTR [rip+0x0]        # 1cb4 <_ZL31BezierClosestPointCasteljauStepRK6ImVec2RS_S2_Rffffffffffi+0x391>
    1cb3:	00 
    1cb4:	f3 0f 59 c1          	mulss  xmm0,xmm1
    1cb8:	f3 0f 11 45 d0       	movss  DWORD PTR [rbp-0x30],xmm0
    1cbd:	f3 0f 10 45 c4       	movss  xmm0,DWORD PTR [rbp-0x3c]
    1cc2:	f3 0f 58 45 cc       	addss  xmm0,DWORD PTR [rbp-0x34]
    1cc7:	f3 0f 10 0d 00 00 00 	movss  xmm1,DWORD PTR [rip+0x0]        # 1ccf <_ZL31BezierClosestPointCasteljauStepRK6ImVec2RS_S2_Rffffffffffi+0x3ac>
    1cce:	00 
    1ccf:	f3 0f 59 c1          	mulss  xmm0,xmm1
    1cd3:	f3 0f 11 45 d4       	movss  DWORD PTR [rbp-0x2c],xmm0
    1cd8:	f3 0f 10 45 c8       	movss  xmm0,DWORD PTR [rbp-0x38]
    1cdd:	f3 0f 58 45 d0       	addss  xmm0,DWORD PTR [rbp-0x30]
    1ce2:	f3 0f 10 0d 00 00 00 	movss  xmm1,DWORD PTR [rip+0x0]        # 1cea <_ZL31BezierClosestPointCasteljauStepRK6ImVec2RS_S2_Rffffffffffi+0x3c7>
    1ce9:	00 
    1cea:	f3 0f 59 c1          	mulss  xmm0,xmm1
    1cee:	f3 0f 11 45 d8       	movss  DWORD PTR [rbp-0x28],xmm0
    1cf3:	8b 85 4c ff ff ff    	mov    eax,DWORD PTR [rbp-0xb4]
    1cf9:	44 8d 40 01          	lea    r8d,[rax+0x1]
    1cfd:	f3 0f 10 7d d8       	movss  xmm7,DWORD PTR [rbp-0x28]
    1d02:	f3 0f 10 75 d4       	movss  xmm6,DWORD PTR [rbp-0x2c]
    1d07:	f3 0f 10 6d c8       	movss  xmm5,DWORD PTR [rbp-0x38]
    1d0c:	f3 0f 10 65 c4       	movss  xmm4,DWORD PTR [rbp-0x3c]
    1d11:	f3 0f 10 5d b0       	movss  xmm3,DWORD PTR [rbp-0x50]
    1d16:	f3 0f 10 55 ac       	movss  xmm2,DWORD PTR [rbp-0x54]
    1d1b:	f3 0f 10 8d 68 ff ff 	movss  xmm1,DWORD PTR [rbp-0x98]
    1d22:	ff 
    1d23:	8b bd 6c ff ff ff    	mov    edi,DWORD PTR [rbp-0x94]
    1d29:	48 8b 8d 70 ff ff ff 	mov    rcx,QWORD PTR [rbp-0x90]
    1d30:	48 8b 95 78 ff ff ff 	mov    rdx,QWORD PTR [rbp-0x88]
    1d37:	48 8b 75 80          	mov    rsi,QWORD PTR [rbp-0x80]
    1d3b:	48 8b 45 88          	mov    rax,QWORD PTR [rbp-0x78]
    1d3f:	48 83 ec 08          	sub    rsp,0x8
    1d43:	f3 0f 10 45 10       	movss  xmm0,DWORD PTR [rbp+0x10]
    1d48:	48 8d 64 24 f8       	lea    rsp,[rsp-0x8]
    1d4d:	f3 0f 11 04 24       	movss  DWORD PTR [rsp],xmm0
    1d52:	89 bd 48 ff ff ff    	mov    DWORD PTR [rbp-0xb8],edi
    1d58:	f3 0f 10 85 48 ff ff 	movss  xmm0,DWORD PTR [rbp-0xb8]
    1d5f:	ff 
    1d60:	48 89 c7             	mov    rdi,rax
    1d63:	e8 bb fb ff ff       	call   1923 <_ZL31BezierClosestPointCasteljauStepRK6ImVec2RS_S2_Rffffffffffi>
    1d68:	48 83 c4 10          	add    rsp,0x10
    1d6c:	8b 85 4c ff ff ff    	mov    eax,DWORD PTR [rbp-0xb4]
    1d72:	44 8d 40 01          	lea    r8d,[rax+0x1]
    1d76:	f3 0f 10 bd 50 ff ff 	movss  xmm7,DWORD PTR [rbp-0xb0]
    1d7d:	ff 
    1d7e:	f3 0f 10 b5 54 ff ff 	movss  xmm6,DWORD PTR [rbp-0xac]
    1d85:	ff 
    1d86:	f3 0f 10 6d c0       	movss  xmm5,DWORD PTR [rbp-0x40]
    1d8b:	f3 0f 10 65 bc       	movss  xmm4,DWORD PTR [rbp-0x44]
    1d90:	f3 0f 10 5d d0       	movss  xmm3,DWORD PTR [rbp-0x30]
    1d95:	f3 0f 10 55 cc       	movss  xmm2,DWORD PTR [rbp-0x34]
    1d9a:	f3 0f 10 4d d8       	movss  xmm1,DWORD PTR [rbp-0x28]
    1d9f:	8b 7d d4             	mov    edi,DWORD PTR [rbp-0x2c]
    1da2:	48 8b 8d 70 ff ff ff 	mov    rcx,QWORD PTR [rbp-0x90]
    1da9:	48 8b 95 78 ff ff ff 	mov    rdx,QWORD PTR [rbp-0x88]
    1db0:	48 8b 75 80          	mov    rsi,QWORD PTR [rbp-0x80]
    1db4:	48 8b 45 88          	mov    rax,QWORD PTR [rbp-0x78]
    1db8:	48 83 ec 08          	sub    rsp,0x8
    1dbc:	f3 0f 10 45 10       	movss  xmm0,DWORD PTR [rbp+0x10]
    1dc1:	48 8d 64 24 f8       	lea    rsp,[rsp-0x8]
    1dc6:	f3 0f 11 04 24       	movss  DWORD PTR [rsp],xmm0
    1dcb:	89 bd 48 ff ff ff    	mov    DWORD PTR [rbp-0xb8],edi
    1dd1:	f3 0f 10 85 48 ff ff 	movss  xmm0,DWORD PTR [rbp-0xb8]
    1dd8:	ff 
    1dd9:	48 89 c7             	mov    rdi,rax
    1ddc:	e8 42 fb ff ff       	call   1923 <_ZL31BezierClosestPointCasteljauStepRK6ImVec2RS_S2_Rffffffffffi>
    1de1:	48 83 c4 10          	add    rsp,0x10
    1de5:	90                   	nop
    1de6:	48 8b 45 f8          	mov    rax,QWORD PTR [rbp-0x8]
    1dea:	64 48 33 04 25 28 00 	xor    rax,QWORD PTR fs:0x28
    1df1:	00 00 
    1df3:	74 05                	je     1dfa <_ZL31BezierClosestPointCasteljauStepRK6ImVec2RS_S2_Rffffffffffi+0x4d7>
    1df5:	e8 00 00 00 00       	call   1dfa <_ZL31BezierClosestPointCasteljauStepRK6ImVec2RS_S2_Rffffffffffi+0x4d7>
    1dfa:	c9                   	leave  
    1dfb:	c3                   	ret    

0000000000001dfc <_Z29ImBezierClosestPointCasteljauRK6ImVec2S1_S1_S1_S1_f>:
    1dfc:	55                   	push   rbp
    1dfd:	48 89 e5             	mov    rbp,rsp
    1e00:	48 83 ec 60          	sub    rsp,0x60
    1e04:	48 89 7d d8          	mov    QWORD PTR [rbp-0x28],rdi
    1e08:	48 89 75 d0          	mov    QWORD PTR [rbp-0x30],rsi
    1e0c:	48 89 55 c8          	mov    QWORD PTR [rbp-0x38],rdx
    1e10:	48 89 4d c0          	mov    QWORD PTR [rbp-0x40],rcx
    1e14:	4c 89 45 b8          	mov    QWORD PTR [rbp-0x48],r8
    1e18:	f3 0f 11 45 b4       	movss  DWORD PTR [rbp-0x4c],xmm0
    1e1d:	64 48 8b 04 25 28 00 	mov    rax,QWORD PTR fs:0x28
    1e24:	00 00 
    1e26:	48 89 45 f8          	mov    QWORD PTR [rbp-0x8],rax
    1e2a:	31 c0                	xor    eax,eax
    1e2c:	f3 0f 10 45 b4       	movss  xmm0,DWORD PTR [rbp-0x4c]
    1e31:	66 0f ef c9          	pxor   xmm1,xmm1
    1e35:	0f 2e c1             	ucomiss xmm0,xmm1
    1e38:	77 1f                	ja     1e59 <_Z29ImBezierClosestPointCasteljauRK6ImVec2S1_S1_S1_S1_f+0x5d>
    1e3a:	48 8d 0d 00 00 00 00 	lea    rcx,[rip+0x0]        # 1e41 <_Z29ImBezierClosestPointCasteljauRK6ImVec2S1_S1_S1_S1_f+0x45>
    1e41:	ba 90 04 00 00       	mov    edx,0x490
    1e46:	48 8d 35 00 00 00 00 	lea    rsi,[rip+0x0]        # 1e4d <_Z29ImBezierClosestPointCasteljauRK6ImVec2S1_S1_S1_S1_f+0x51>
    1e4d:	48 8d 3d 00 00 00 00 	lea    rdi,[rip+0x0]        # 1e54 <_Z29ImBezierClosestPointCasteljauRK6ImVec2S1_S1_S1_S1_f+0x58>
    1e54:	e8 00 00 00 00       	call   1e59 <_Z29ImBezierClosestPointCasteljauRK6ImVec2S1_S1_S1_S1_f+0x5d>
    1e59:	48 8b 45 d8          	mov    rax,QWORD PTR [rbp-0x28]
    1e5d:	48 8b 00             	mov    rax,QWORD PTR [rax]
    1e60:	48 89 45 e8          	mov    QWORD PTR [rbp-0x18],rax
    1e64:	48 8d 45 f0          	lea    rax,[rbp-0x10]
    1e68:	48 89 c7             	mov    rdi,rax
    1e6b:	e8 00 00 00 00       	call   1e70 <_Z29ImBezierClosestPointCasteljauRK6ImVec2S1_S1_S1_S1_f+0x74>
    1e70:	f3 0f 10 05 00 00 00 	movss  xmm0,DWORD PTR [rip+0x0]        # 1e78 <_Z29ImBezierClosestPointCasteljauRK6ImVec2S1_S1_S1_S1_f+0x7c>
    1e77:	00 
    1e78:	f3 0f 11 45 e4       	movss  DWORD PTR [rbp-0x1c],xmm0
    1e7d:	48 8b 45 c0          	mov    rax,QWORD PTR [rbp-0x40]
    1e81:	f3 0f 10 78 04       	movss  xmm7,DWORD PTR [rax+0x4]
    1e86:	48 8b 45 c0          	mov    rax,QWORD PTR [rbp-0x40]
    1e8a:	f3 0f 10 30          	movss  xmm6,DWORD PTR [rax]
    1e8e:	48 8b 45 c8          	mov    rax,QWORD PTR [rbp-0x38]
    1e92:	f3 0f 10 68 04       	movss  xmm5,DWORD PTR [rax+0x4]
    1e97:	48 8b 45 c8          	mov    rax,QWORD PTR [rbp-0x38]
    1e9b:	f3 0f 10 20          	movss  xmm4,DWORD PTR [rax]
    1e9f:	48 8b 45 d0          	mov    rax,QWORD PTR [rbp-0x30]
    1ea3:	f3 0f 10 58 04       	movss  xmm3,DWORD PTR [rax+0x4]
    1ea8:	48 8b 45 d0          	mov    rax,QWORD PTR [rbp-0x30]
    1eac:	f3 0f 10 10          	movss  xmm2,DWORD PTR [rax]
    1eb0:	48 8b 45 d8          	mov    rax,QWORD PTR [rbp-0x28]
    1eb4:	f3 0f 10 48 04       	movss  xmm1,DWORD PTR [rax+0x4]
    1eb9:	48 8b 45 d8          	mov    rax,QWORD PTR [rbp-0x28]
    1ebd:	8b 38                	mov    edi,DWORD PTR [rax]
    1ebf:	48 8d 4d e4          	lea    rcx,[rbp-0x1c]
    1ec3:	48 8d 55 e8          	lea    rdx,[rbp-0x18]
    1ec7:	48 8d 75 f0          	lea    rsi,[rbp-0x10]
    1ecb:	48 8b 45 b8          	mov    rax,QWORD PTR [rbp-0x48]
    1ecf:	48 83 ec 08          	sub    rsp,0x8
    1ed3:	f3 0f 10 45 b4       	movss  xmm0,DWORD PTR [rbp-0x4c]
    1ed8:	48 8d 64 24 f8       	lea    rsp,[rsp-0x8]
    1edd:	f3 0f 11 04 24       	movss  DWORD PTR [rsp],xmm0
    1ee2:	41 b8 00 00 00 00    	mov    r8d,0x0
    1ee8:	89 7d a8             	mov    DWORD PTR [rbp-0x58],edi
    1eeb:	f3 0f 10 45 a8       	movss  xmm0,DWORD PTR [rbp-0x58]
    1ef0:	48 89 c7             	mov    rdi,rax
    1ef3:	e8 2b fa ff ff       	call   1923 <_ZL31BezierClosestPointCasteljauStepRK6ImVec2RS_S2_Rffffffffffi>
    1ef8:	48 83 c4 10          	add    rsp,0x10
    1efc:	48 8b 45 f0          	mov    rax,QWORD PTR [rbp-0x10]
    1f00:	48 89 45 a8          	mov    QWORD PTR [rbp-0x58],rax
    1f04:	f3 0f 7e 45 a8       	movq   xmm0,QWORD PTR [rbp-0x58]
    1f09:	48 8b 45 f8          	mov    rax,QWORD PTR [rbp-0x8]
    1f0d:	64 48 33 04 25 28 00 	xor    rax,QWORD PTR fs:0x28
    1f14:	00 00 
    1f16:	74 05                	je     1f1d <_Z29ImBezierClosestPointCasteljauRK6ImVec2S1_S1_S1_S1_f+0x121>
    1f18:	e8 00 00 00 00       	call   1f1d <_Z29ImBezierClosestPointCasteljauRK6ImVec2S1_S1_S1_S1_f+0x121>
    1f1d:	c9                   	leave  
    1f1e:	c3                   	ret    

0000000000001f1f <_Z18ImLineClosestPointRK6ImVec2S1_S1_>:
    1f1f:	55                   	push   rbp
    1f20:	48 89 e5             	mov    rbp,rsp
    1f23:	48 83 ec 50          	sub    rsp,0x50
    1f27:	48 89 7d c8          	mov    QWORD PTR [rbp-0x38],rdi
    1f2b:	48 89 75 c0          	mov    QWORD PTR [rbp-0x40],rsi
    1f2f:	48 89 55 b8          	mov    QWORD PTR [rbp-0x48],rdx
    1f33:	64 48 8b 04 25 28 00 	mov    rax,QWORD PTR fs:0x28
    1f3a:	00 00 
    1f3c:	48 89 45 f8          	mov    QWORD PTR [rbp-0x8],rax
    1f40:	31 c0                	xor    eax,eax
    1f42:	48 8b 55 c8          	mov    rdx,QWORD PTR [rbp-0x38]
    1f46:	48 8b 45 b8          	mov    rax,QWORD PTR [rbp-0x48]
    1f4a:	48 89 d6             	mov    rsi,rdx
    1f4d:	48 89 c7             	mov    rdi,rax
    1f50:	e8 4e e2 ff ff       	call   1a3 <_ZmiRK6ImVec2S1_>
    1f55:	66 48 0f 7e c0       	movq   rax,xmm0
    1f5a:	48 89 45 d8          	mov    QWORD PTR [rbp-0x28],rax
    1f5e:	48 8b 55 c8          	mov    rdx,QWORD PTR [rbp-0x38]
    1f62:	48 8b 45 c0          	mov    rax,QWORD PTR [rbp-0x40]
    1f66:	48 89 d6             	mov    rsi,rdx
    1f69:	48 89 c7             	mov    rdi,rax
    1f6c:	e8 32 e2 ff ff       	call   1a3 <_ZmiRK6ImVec2S1_>
    1f71:	66 48 0f 7e c0       	movq   rax,xmm0
    1f76:	48 89 45 e0          	mov    QWORD PTR [rbp-0x20],rax
    1f7a:	f3 0f 10 4d d8       	movss  xmm1,DWORD PTR [rbp-0x28]
    1f7f:	f3 0f 10 45 e0       	movss  xmm0,DWORD PTR [rbp-0x20]
    1f84:	f3 0f 59 c8          	mulss  xmm1,xmm0
    1f88:	f3 0f 10 55 dc       	movss  xmm2,DWORD PTR [rbp-0x24]
    1f8d:	f3 0f 10 45 e4       	movss  xmm0,DWORD PTR [rbp-0x1c]
    1f92:	f3 0f 59 c2          	mulss  xmm0,xmm2
    1f96:	f3 0f 58 c1          	addss  xmm0,xmm1
    1f9a:	f3 0f 11 45 d0       	movss  DWORD PTR [rbp-0x30],xmm0
    1f9f:	66 0f ef c0          	pxor   xmm0,xmm0
    1fa3:	0f 2e 45 d0          	ucomiss xmm0,DWORD PTR [rbp-0x30]
    1fa7:	76 0c                	jbe    1fb5 <_Z18ImLineClosestPointRK6ImVec2S1_S1_+0x96>
    1fa9:	48 8b 45 c8          	mov    rax,QWORD PTR [rbp-0x38]
    1fad:	48 8b 00             	mov    rax,QWORD PTR [rax]
    1fb0:	e9 91 00 00 00       	jmp    2046 <_Z18ImLineClosestPointRK6ImVec2S1_S1_+0x127>
    1fb5:	f3 0f 10 4d e0       	movss  xmm1,DWORD PTR [rbp-0x20]
    1fba:	f3 0f 10 45 e0       	movss  xmm0,DWORD PTR [rbp-0x20]
    1fbf:	f3 0f 59 c8          	mulss  xmm1,xmm0
    1fc3:	f3 0f 10 55 e4       	movss  xmm2,DWORD PTR [rbp-0x1c]
    1fc8:	f3 0f 10 45 e4       	movss  xmm0,DWORD PTR [rbp-0x1c]
    1fcd:	f3 0f 59 c2          	mulss  xmm0,xmm2
    1fd1:	f3 0f 58 c1          	addss  xmm0,xmm1
    1fd5:	f3 0f 11 45 d4       	movss  DWORD PTR [rbp-0x2c],xmm0
    1fda:	f3 0f 10 45 d0       	movss  xmm0,DWORD PTR [rbp-0x30]
    1fdf:	0f 2e 45 d4          	ucomiss xmm0,DWORD PTR [rbp-0x2c]
    1fe3:	76 09                	jbe    1fee <_Z18ImLineClosestPointRK6ImVec2S1_S1_+0xcf>
    1fe5:	48 8b 45 c0          	mov    rax,QWORD PTR [rbp-0x40]
    1fe9:	48 8b 00             	mov    rax,QWORD PTR [rax]
    1fec:	eb 58                	jmp    2046 <_Z18ImLineClosestPointRK6ImVec2S1_S1_+0x127>
    1fee:	8b 55 d0             	mov    edx,DWORD PTR [rbp-0x30]
    1ff1:	48 8d 45 e0          	lea    rax,[rbp-0x20]
    1ff5:	89 55 b0             	mov    DWORD PTR [rbp-0x50],edx
    1ff8:	f3 0f 10 45 b0       	movss  xmm0,DWORD PTR [rbp-0x50]
    1ffd:	48 89 c7             	mov    rdi,rax
    2000:	e8 46 e0 ff ff       	call   4b <_ZmlRK6ImVec2f>
    2005:	66 48 0f 7e c0       	movq   rax,xmm0
    200a:	48 89 45 e8          	mov    QWORD PTR [rbp-0x18],rax
    200e:	8b 55 d4             	mov    edx,DWORD PTR [rbp-0x2c]
    2011:	48 8d 45 e8          	lea    rax,[rbp-0x18]
    2015:	89 55 b0             	mov    DWORD PTR [rbp-0x50],edx
    2018:	f3 0f 10 45 b0       	movss  xmm0,DWORD PTR [rbp-0x50]
    201d:	48 89 c7             	mov    rdi,rax
    2020:	e8 93 e0 ff ff       	call   b8 <_ZdvRK6ImVec2f>
    2025:	66 48 0f 7e c0       	movq   rax,xmm0
    202a:	48 89 45 f0          	mov    QWORD PTR [rbp-0x10],rax
    202e:	48 8d 55 f0          	lea    rdx,[rbp-0x10]
    2032:	48 8b 45 c8          	mov    rax,QWORD PTR [rbp-0x38]
    2036:	48 89 d6             	mov    rsi,rdx
    2039:	48 89 c7             	mov    rdi,rax
    203c:	e8 e4 e0 ff ff       	call   125 <_ZplRK6ImVec2S1_>
    2041:	66 48 0f 7e c0       	movq   rax,xmm0
    2046:	48 89 45 b0          	mov    QWORD PTR [rbp-0x50],rax
    204a:	f3 0f 7e 45 b0       	movq   xmm0,QWORD PTR [rbp-0x50]
    204f:	48 8b 45 f8          	mov    rax,QWORD PTR [rbp-0x8]
    2053:	64 48 33 04 25 28 00 	xor    rax,QWORD PTR fs:0x28
    205a:	00 00 
    205c:	74 05                	je     2063 <_Z18ImLineClosestPointRK6ImVec2S1_S1_+0x144>
    205e:	e8 00 00 00 00       	call   2063 <_Z18ImLineClosestPointRK6ImVec2S1_S1_+0x144>
    2063:	c9                   	leave  
    2064:	c3                   	ret    

0000000000002065 <_Z23ImTriangleContainsPointRK6ImVec2S1_S1_S1_>:
    2065:	55                   	push   rbp
    2066:	48 89 e5             	mov    rbp,rsp
    2069:	48 89 7d e8          	mov    QWORD PTR [rbp-0x18],rdi
    206d:	48 89 75 e0          	mov    QWORD PTR [rbp-0x20],rsi
    2071:	48 89 55 d8          	mov    QWORD PTR [rbp-0x28],rdx
    2075:	48 89 4d d0          	mov    QWORD PTR [rbp-0x30],rcx
    2079:	48 8b 45 d0          	mov    rax,QWORD PTR [rbp-0x30]
    207d:	f3 0f 10 00          	movss  xmm0,DWORD PTR [rax]
    2081:	48 8b 45 e0          	mov    rax,QWORD PTR [rbp-0x20]
    2085:	f3 0f 10 08          	movss  xmm1,DWORD PTR [rax]
    2089:	f3 0f 5c c1          	subss  xmm0,xmm1
    208d:	0f 28 c8             	movaps xmm1,xmm0
    2090:	48 8b 45 e8          	mov    rax,QWORD PTR [rbp-0x18]
    2094:	f3 0f 10 40 04       	movss  xmm0,DWORD PTR [rax+0x4]
    2099:	48 8b 45 e0          	mov    rax,QWORD PTR [rbp-0x20]
    209d:	f3 0f 10 50 04       	movss  xmm2,DWORD PTR [rax+0x4]
    20a2:	f3 0f 5c c2          	subss  xmm0,xmm2
    20a6:	f3 0f 59 c1          	mulss  xmm0,xmm1
    20aa:	48 8b 45 d0          	mov    rax,QWORD PTR [rbp-0x30]
    20ae:	f3 0f 10 48 04       	movss  xmm1,DWORD PTR [rax+0x4]
    20b3:	48 8b 45 e0          	mov    rax,QWORD PTR [rbp-0x20]
    20b7:	f3 0f 10 50 04       	movss  xmm2,DWORD PTR [rax+0x4]
    20bc:	f3 0f 5c ca          	subss  xmm1,xmm2
    20c0:	0f 28 d1             	movaps xmm2,xmm1
    20c3:	48 8b 45 e8          	mov    rax,QWORD PTR [rbp-0x18]
    20c7:	f3 0f 10 08          	movss  xmm1,DWORD PTR [rax]
    20cb:	48 8b 45 e0          	mov    rax,QWORD PTR [rbp-0x20]
    20cf:	f3 0f 10 18          	movss  xmm3,DWORD PTR [rax]
    20d3:	f3 0f 5c cb          	subss  xmm1,xmm3
    20d7:	f3 0f 59 ca          	mulss  xmm1,xmm2
    20db:	f3 0f 5c c1          	subss  xmm0,xmm1
    20df:	66 0f ef c9          	pxor   xmm1,xmm1
    20e3:	0f 2e c8             	ucomiss xmm1,xmm0
    20e6:	0f 97 c0             	seta   al
    20e9:	88 45 fd             	mov    BYTE PTR [rbp-0x3],al
    20ec:	48 8b 45 d0          	mov    rax,QWORD PTR [rbp-0x30]
    20f0:	f3 0f 10 00          	movss  xmm0,DWORD PTR [rax]
    20f4:	48 8b 45 d8          	mov    rax,QWORD PTR [rbp-0x28]
    20f8:	f3 0f 10 08          	movss  xmm1,DWORD PTR [rax]
    20fc:	f3 0f 5c c1          	subss  xmm0,xmm1
    2100:	0f 28 c8             	movaps xmm1,xmm0
    2103:	48 8b 45 e0          	mov    rax,QWORD PTR [rbp-0x20]
    2107:	f3 0f 10 40 04       	movss  xmm0,DWORD PTR [rax+0x4]
    210c:	48 8b 45 d8          	mov    rax,QWORD PTR [rbp-0x28]
    2110:	f3 0f 10 50 04       	movss  xmm2,DWORD PTR [rax+0x4]
    2115:	f3 0f 5c c2          	subss  xmm0,xmm2
    2119:	f3 0f 59 c1          	mulss  xmm0,xmm1
    211d:	48 8b 45 d0          	mov    rax,QWORD PTR [rbp-0x30]
    2121:	f3 0f 10 48 04       	movss  xmm1,DWORD PTR [rax+0x4]
    2126:	48 8b 45 d8          	mov    rax,QWORD PTR [rbp-0x28]
    212a:	f3 0f 10 50 04       	movss  xmm2,DWORD PTR [rax+0x4]
    212f:	f3 0f 5c ca          	subss  xmm1,xmm2
    2133:	0f 28 d1             	movaps xmm2,xmm1
    2136:	48 8b 45 e0          	mov    rax,QWORD PTR [rbp-0x20]
    213a:	f3 0f 10 08          	movss  xmm1,DWORD PTR [rax]
    213e:	48 8b 45 d8          	mov    rax,QWORD PTR [rbp-0x28]
    2142:	f3 0f 10 18          	movss  xmm3,DWORD PTR [rax]
    2146:	f3 0f 5c cb          	subss  xmm1,xmm3
    214a:	f3 0f 59 ca          	mulss  xmm1,xmm2
    214e:	f3 0f 5c c1          	subss  xmm0,xmm1
    2152:	66 0f ef c9          	pxor   xmm1,xmm1
    2156:	0f 2e c8             	ucomiss xmm1,xmm0
    2159:	0f 97 c0             	seta   al
    215c:	88 45 fe             	mov    BYTE PTR [rbp-0x2],al
    215f:	48 8b 45 d0          	mov    rax,QWORD PTR [rbp-0x30]
    2163:	f3 0f 10 00          	movss  xmm0,DWORD PTR [rax]
    2167:	48 8b 45 e8          	mov    rax,QWORD PTR [rbp-0x18]
    216b:	f3 0f 10 08          	movss  xmm1,DWORD PTR [rax]
    216f:	f3 0f 5c c1          	subss  xmm0,xmm1
    2173:	0f 28 c8             	movaps xmm1,xmm0
    2176:	48 8b 45 d8          	mov    rax,QWORD PTR [rbp-0x28]
    217a:	f3 0f 10 40 04       	movss  xmm0,DWORD PTR [rax+0x4]
    217f:	48 8b 45 e8          	mov    rax,QWORD PTR [rbp-0x18]
    2183:	f3 0f 10 50 04       	movss  xmm2,DWORD PTR [rax+0x4]
    2188:	f3 0f 5c c2          	subss  xmm0,xmm2
    218c:	f3 0f 59 c1          	mulss  xmm0,xmm1
    2190:	48 8b 45 d0          	mov    rax,QWORD PTR [rbp-0x30]
    2194:	f3 0f 10 48 04       	movss  xmm1,DWORD PTR [rax+0x4]
    2199:	48 8b 45 e8          	mov    rax,QWORD PTR [rbp-0x18]
    219d:	f3 0f 10 50 04       	movss  xmm2,DWORD PTR [rax+0x4]
    21a2:	f3 0f 5c ca          	subss  xmm1,xmm2
    21a6:	0f 28 d1             	movaps xmm2,xmm1
    21a9:	48 8b 45 d8          	mov    rax,QWORD PTR [rbp-0x28]
    21ad:	f3 0f 10 08          	movss  xmm1,DWORD PTR [rax]
    21b1:	48 8b 45 e8          	mov    rax,QWORD PTR [rbp-0x18]
    21b5:	f3 0f 10 18          	movss  xmm3,DWORD PTR [rax]
    21b9:	f3 0f 5c cb          	subss  xmm1,xmm3
    21bd:	f3 0f 59 ca          	mulss  xmm1,xmm2
    21c1:	f3 0f 5c c1          	subss  xmm0,xmm1
    21c5:	66 0f ef c9          	pxor   xmm1,xmm1
    21c9:	0f 2e c8             	ucomiss xmm1,xmm0
    21cc:	0f 97 c0             	seta   al
    21cf:	88 45 ff             	mov    BYTE PTR [rbp-0x1],al
    21d2:	0f b6 45 fd          	movzx  eax,BYTE PTR [rbp-0x3]
    21d6:	3a 45 fe             	cmp    al,BYTE PTR [rbp-0x2]
    21d9:	75 10                	jne    21eb <_Z23ImTriangleContainsPointRK6ImVec2S1_S1_S1_+0x186>
    21db:	0f b6 45 fe          	movzx  eax,BYTE PTR [rbp-0x2]
    21df:	3a 45 ff             	cmp    al,BYTE PTR [rbp-0x1]
    21e2:	75 07                	jne    21eb <_Z23ImTriangleContainsPointRK6ImVec2S1_S1_S1_+0x186>
    21e4:	b8 01 00 00 00       	mov    eax,0x1
    21e9:	eb 05                	jmp    21f0 <_Z23ImTriangleContainsPointRK6ImVec2S1_S1_S1_+0x18b>
    21eb:	b8 00 00 00 00       	mov    eax,0x0
    21f0:	5d                   	pop    rbp
    21f1:	c3                   	ret    

00000000000021f2 <_Z27ImTriangleBarycentricCoordsRK6ImVec2S1_S1_S1_RfS2_S2_>:
    21f2:	55                   	push   rbp
    21f3:	48 89 e5             	mov    rbp,rsp
    21f6:	48 83 ec 50          	sub    rsp,0x50
    21fa:	48 89 7d d8          	mov    QWORD PTR [rbp-0x28],rdi
    21fe:	48 89 75 d0          	mov    QWORD PTR [rbp-0x30],rsi
    2202:	48 89 55 c8          	mov    QWORD PTR [rbp-0x38],rdx
    2206:	48 89 4d c0          	mov    QWORD PTR [rbp-0x40],rcx
    220a:	4c 89 45 b8          	mov    QWORD PTR [rbp-0x48],r8
    220e:	4c 89 4d b0          	mov    QWORD PTR [rbp-0x50],r9
    2212:	48 8b 55 d8          	mov    rdx,QWORD PTR [rbp-0x28]
    2216:	48 8b 45 d0          	mov    rax,QWORD PTR [rbp-0x30]
    221a:	48 89 d6             	mov    rsi,rdx
    221d:	48 89 c7             	mov    rdi,rax
    2220:	e8 7e df ff ff       	call   1a3 <_ZmiRK6ImVec2S1_>
    2225:	66 48 0f 7e c0       	movq   rax,xmm0
    222a:	48 89 45 e8          	mov    QWORD PTR [rbp-0x18],rax
    222e:	48 8b 55 d8          	mov    rdx,QWORD PTR [rbp-0x28]
    2232:	48 8b 45 c8          	mov    rax,QWORD PTR [rbp-0x38]
    2236:	48 89 d6             	mov    rsi,rdx
    2239:	48 89 c7             	mov    rdi,rax
    223c:	e8 62 df ff ff       	call   1a3 <_ZmiRK6ImVec2S1_>
    2241:	66 48 0f 7e c0       	movq   rax,xmm0
    2246:	48 89 45 f0          	mov    QWORD PTR [rbp-0x10],rax
    224a:	48 8b 55 d8          	mov    rdx,QWORD PTR [rbp-0x28]
    224e:	48 8b 45 c0          	mov    rax,QWORD PTR [rbp-0x40]
    2252:	48 89 d6             	mov    rsi,rdx
    2255:	48 89 c7             	mov    rdi,rax
    2258:	e8 46 df ff ff       	call   1a3 <_ZmiRK6ImVec2S1_>
    225d:	66 48 0f 7e c0       	movq   rax,xmm0
    2262:	48 89 45 f8          	mov    QWORD PTR [rbp-0x8],rax
    2266:	f3 0f 10 4d e8       	movss  xmm1,DWORD PTR [rbp-0x18]
    226b:	f3 0f 10 45 f4       	movss  xmm0,DWORD PTR [rbp-0xc]
    2270:	f3 0f 59 c1          	mulss  xmm0,xmm1
    2274:	f3 0f 10 55 f0       	movss  xmm2,DWORD PTR [rbp-0x10]
    2279:	f3 0f 10 4d ec       	movss  xmm1,DWORD PTR [rbp-0x14]
    227e:	f3 0f 59 ca          	mulss  xmm1,xmm2
    2282:	f3 0f 5c c1          	subss  xmm0,xmm1
    2286:	f3 0f 11 45 e4       	movss  DWORD PTR [rbp-0x1c],xmm0
    228b:	f3 0f 10 4d f8       	movss  xmm1,DWORD PTR [rbp-0x8]
    2290:	f3 0f 10 45 f4       	movss  xmm0,DWORD PTR [rbp-0xc]
    2295:	f3 0f 59 c1          	mulss  xmm0,xmm1
    2299:	f3 0f 10 55 f0       	movss  xmm2,DWORD PTR [rbp-0x10]
    229e:	f3 0f 10 4d fc       	movss  xmm1,DWORD PTR [rbp-0x4]
    22a3:	f3 0f 59 ca          	mulss  xmm1,xmm2
    22a7:	f3 0f 5c c1          	subss  xmm0,xmm1
    22ab:	f3 0f 5e 45 e4       	divss  xmm0,DWORD PTR [rbp-0x1c]
    22b0:	48 8b 45 b0          	mov    rax,QWORD PTR [rbp-0x50]
    22b4:	f3 0f 11 00          	movss  DWORD PTR [rax],xmm0
    22b8:	f3 0f 10 4d e8       	movss  xmm1,DWORD PTR [rbp-0x18]
    22bd:	f3 0f 10 45 fc       	movss  xmm0,DWORD PTR [rbp-0x4]
    22c2:	f3 0f 59 c1          	mulss  xmm0,xmm1
    22c6:	f3 0f 10 55 f8       	movss  xmm2,DWORD PTR [rbp-0x8]
    22cb:	f3 0f 10 4d ec       	movss  xmm1,DWORD PTR [rbp-0x14]
    22d0:	f3 0f 59 ca          	mulss  xmm1,xmm2
    22d4:	f3 0f 5c c1          	subss  xmm0,xmm1
    22d8:	f3 0f 5e 45 e4       	divss  xmm0,DWORD PTR [rbp-0x1c]
    22dd:	48 8b 45 10          	mov    rax,QWORD PTR [rbp+0x10]
    22e1:	f3 0f 11 00          	movss  DWORD PTR [rax],xmm0
    22e5:	48 8b 45 b0          	mov    rax,QWORD PTR [rbp-0x50]
    22e9:	f3 0f 10 08          	movss  xmm1,DWORD PTR [rax]
    22ed:	f3 0f 10 05 00 00 00 	movss  xmm0,DWORD PTR [rip+0x0]        # 22f5 <_Z27ImTriangleBarycentricCoordsRK6ImVec2S1_S1_S1_RfS2_S2_+0x103>
    22f4:	00 
    22f5:	f3 0f 5c c1          	subss  xmm0,xmm1
    22f9:	48 8b 45 10          	mov    rax,QWORD PTR [rbp+0x10]
    22fd:	f3 0f 10 08          	movss  xmm1,DWORD PTR [rax]
    2301:	f3 0f 5c c1          	subss  xmm0,xmm1
    2305:	48 8b 45 b8          	mov    rax,QWORD PTR [rbp-0x48]
    2309:	f3 0f 11 00          	movss  DWORD PTR [rax],xmm0
    230d:	90                   	nop
    230e:	c9                   	leave  
    230f:	c3                   	ret    

0000000000002310 <_Z22ImTriangleClosestPointRK6ImVec2S1_S1_S1_>:
    2310:	55                   	push   rbp
    2311:	48 89 e5             	mov    rbp,rsp
    2314:	48 83 ec 70          	sub    rsp,0x70
    2318:	48 89 7d b8          	mov    QWORD PTR [rbp-0x48],rdi
    231c:	48 89 75 b0          	mov    QWORD PTR [rbp-0x50],rsi
    2320:	48 89 55 a8          	mov    QWORD PTR [rbp-0x58],rdx
    2324:	48 89 4d a0          	mov    QWORD PTR [rbp-0x60],rcx
    2328:	64 48 8b 04 25 28 00 	mov    rax,QWORD PTR fs:0x28
    232f:	00 00 
    2331:	48 89 45 f8          	mov    QWORD PTR [rbp-0x8],rax
    2335:	31 c0                	xor    eax,eax
    2337:	48 8b 55 a0          	mov    rdx,QWORD PTR [rbp-0x60]
    233b:	48 8b 4d b0          	mov    rcx,QWORD PTR [rbp-0x50]
    233f:	48 8b 45 b8          	mov    rax,QWORD PTR [rbp-0x48]
    2343:	48 89 ce             	mov    rsi,rcx
    2346:	48 89 c7             	mov    rdi,rax
    2349:	e8 00 00 00 00       	call   234e <_Z22ImTriangleClosestPointRK6ImVec2S1_S1_S1_+0x3e>
    234e:	66 48 0f 7e c0       	movq   rax,xmm0
    2353:	48 89 45 d8          	mov    QWORD PTR [rbp-0x28],rax
    2357:	48 8b 55 a0          	mov    rdx,QWORD PTR [rbp-0x60]
    235b:	48 8b 4d a8          	mov    rcx,QWORD PTR [rbp-0x58]
    235f:	48 8b 45 b0          	mov    rax,QWORD PTR [rbp-0x50]
    2363:	48 89 ce             	mov    rsi,rcx
    2366:	48 89 c7             	mov    rdi,rax
    2369:	e8 00 00 00 00       	call   236e <_Z22ImTriangleClosestPointRK6ImVec2S1_S1_S1_+0x5e>
    236e:	66 48 0f 7e c0       	movq   rax,xmm0
    2373:	48 89 45 e0          	mov    QWORD PTR [rbp-0x20],rax
    2377:	48 8b 55 a0          	mov    rdx,QWORD PTR [rbp-0x60]
    237b:	48 8b 4d b8          	mov    rcx,QWORD PTR [rbp-0x48]
    237f:	48 8b 45 a8          	mov    rax,QWORD PTR [rbp-0x58]
    2383:	48 89 ce             	mov    rsi,rcx
    2386:	48 89 c7             	mov    rdi,rax
    2389:	e8 00 00 00 00       	call   238e <_Z22ImTriangleClosestPointRK6ImVec2S1_S1_S1_+0x7e>
    238e:	66 48 0f 7e c0       	movq   rax,xmm0
    2393:	48 89 45 e8          	mov    QWORD PTR [rbp-0x18],rax
    2397:	48 8d 55 d8          	lea    rdx,[rbp-0x28]
    239b:	48 8b 45 a0          	mov    rax,QWORD PTR [rbp-0x60]
    239f:	48 89 d6             	mov    rsi,rdx
    23a2:	48 89 c7             	mov    rdi,rax
    23a5:	e8 f9 dd ff ff       	call   1a3 <_ZmiRK6ImVec2S1_>
    23aa:	66 48 0f 7e c0       	movq   rax,xmm0
    23af:	48 89 45 f0          	mov    QWORD PTR [rbp-0x10],rax
    23b3:	48 8d 45 f0          	lea    rax,[rbp-0x10]
    23b7:	48 89 c7             	mov    rdi,rax
    23ba:	e8 4c e3 ff ff       	call   70b <_ZL11ImLengthSqrRK6ImVec2>
    23bf:	66 0f 7e c0          	movd   eax,xmm0
    23c3:	89 45 c8             	mov    DWORD PTR [rbp-0x38],eax
    23c6:	48 8d 55 e0          	lea    rdx,[rbp-0x20]
    23ca:	48 8b 45 a0          	mov    rax,QWORD PTR [rbp-0x60]
    23ce:	48 89 d6             	mov    rsi,rdx
    23d1:	48 89 c7             	mov    rdi,rax
    23d4:	e8 ca dd ff ff       	call   1a3 <_ZmiRK6ImVec2S1_>
    23d9:	66 48 0f 7e c0       	movq   rax,xmm0
    23de:	48 89 45 f0          	mov    QWORD PTR [rbp-0x10],rax
    23e2:	48 8d 45 f0          	lea    rax,[rbp-0x10]
    23e6:	48 89 c7             	mov    rdi,rax
    23e9:	e8 1d e3 ff ff       	call   70b <_ZL11ImLengthSqrRK6ImVec2>
    23ee:	66 0f 7e c0          	movd   eax,xmm0
    23f2:	89 45 cc             	mov    DWORD PTR [rbp-0x34],eax
    23f5:	48 8d 55 e8          	lea    rdx,[rbp-0x18]
    23f9:	48 8b 45 a0          	mov    rax,QWORD PTR [rbp-0x60]
    23fd:	48 89 d6             	mov    rsi,rdx
    2400:	48 89 c7             	mov    rdi,rax
    2403:	e8 9b dd ff ff       	call   1a3 <_ZmiRK6ImVec2S1_>
    2408:	66 48 0f 7e c0       	movq   rax,xmm0
    240d:	48 89 45 f0          	mov    QWORD PTR [rbp-0x10],rax
    2411:	48 8d 45 f0          	lea    rax,[rbp-0x10]
    2415:	48 89 c7             	mov    rdi,rax
    2418:	e8 ee e2 ff ff       	call   70b <_ZL11ImLengthSqrRK6ImVec2>
    241d:	66 0f 7e c0          	movd   eax,xmm0
    2421:	89 45 d0             	mov    DWORD PTR [rbp-0x30],eax
    2424:	f3 0f 10 45 d0       	movss  xmm0,DWORD PTR [rbp-0x30]
    2429:	8b 45 cc             	mov    eax,DWORD PTR [rbp-0x34]
    242c:	0f 28 c8             	movaps xmm1,xmm0
    242f:	89 45 98             	mov    DWORD PTR [rbp-0x68],eax
    2432:	f3 0f 10 45 98       	movss  xmm0,DWORD PTR [rbp-0x68]
    2437:	e8 17 38 02 00       	call   25c53 <_Z5ImMinIfET_S0_S0_>
    243c:	8b 45 c8             	mov    eax,DWORD PTR [rbp-0x38]
    243f:	0f 28 c8             	movaps xmm1,xmm0
    2442:	89 45 98             	mov    DWORD PTR [rbp-0x68],eax
    2445:	f3 0f 10 45 98       	movss  xmm0,DWORD PTR [rbp-0x68]
    244a:	e8 04 38 02 00       	call   25c53 <_Z5ImMinIfET_S0_S0_>
    244f:	66 0f 7e c0          	movd   eax,xmm0
    2453:	89 45 d4             	mov    DWORD PTR [rbp-0x2c],eax
    2456:	f3 0f 10 45 d4       	movss  xmm0,DWORD PTR [rbp-0x2c]
    245b:	0f 2e 45 c8          	ucomiss xmm0,DWORD PTR [rbp-0x38]
    245f:	7a 11                	jp     2472 <_Z22ImTriangleClosestPointRK6ImVec2S1_S1_S1_+0x162>
    2461:	f3 0f 10 45 d4       	movss  xmm0,DWORD PTR [rbp-0x2c]
    2466:	0f 2e 45 c8          	ucomiss xmm0,DWORD PTR [rbp-0x38]
    246a:	75 06                	jne    2472 <_Z22ImTriangleClosestPointRK6ImVec2S1_S1_S1_+0x162>
    246c:	48 8b 45 d8          	mov    rax,QWORD PTR [rbp-0x28]
    2470:	eb 20                	jmp    2492 <_Z22ImTriangleClosestPointRK6ImVec2S1_S1_S1_+0x182>
    2472:	f3 0f 10 45 d4       	movss  xmm0,DWORD PTR [rbp-0x2c]
    2477:	0f 2e 45 cc          	ucomiss xmm0,DWORD PTR [rbp-0x34]
    247b:	7a 11                	jp     248e <_Z22ImTriangleClosestPointRK6ImVec2S1_S1_S1_+0x17e>
    247d:	f3 0f 10 45 d4       	movss  xmm0,DWORD PTR [rbp-0x2c]
    2482:	0f 2e 45 cc          	ucomiss xmm0,DWORD PTR [rbp-0x34]
    2486:	75 06                	jne    248e <_Z22ImTriangleClosestPointRK6ImVec2S1_S1_S1_+0x17e>
    2488:	48 8b 45 e0          	mov    rax,QWORD PTR [rbp-0x20]
    248c:	eb 04                	jmp    2492 <_Z22ImTriangleClosestPointRK6ImVec2S1_S1_S1_+0x182>
    248e:	48 8b 45 e8          	mov    rax,QWORD PTR [rbp-0x18]
    2492:	48 89 45 98          	mov    QWORD PTR [rbp-0x68],rax
    2496:	f3 0f 7e 45 98       	movq   xmm0,QWORD PTR [rbp-0x68]
    249b:	48 8b 45 f8          	mov    rax,QWORD PTR [rbp-0x8]
    249f:	64 48 33 04 25 28 00 	xor    rax,QWORD PTR fs:0x28
    24a6:	00 00 
    24a8:	74 05                	je     24af <_Z22ImTriangleClosestPointRK6ImVec2S1_S1_S1_+0x19f>
    24aa:	e8 00 00 00 00       	call   24af <_Z22ImTriangleClosestPointRK6ImVec2S1_S1_S1_+0x19f>
    24af:	c9                   	leave  
    24b0:	c3                   	ret    

00000000000024b1 <_Z9ImStricmpPKcS0_>:
    24b1:	55                   	push   rbp
    24b2:	48 89 e5             	mov    rbp,rsp
    24b5:	53                   	push   rbx
    24b6:	48 83 ec 28          	sub    rsp,0x28
    24ba:	48 89 7d d8          	mov    QWORD PTR [rbp-0x28],rdi
    24be:	48 89 75 d0          	mov    QWORD PTR [rbp-0x30],rsi
    24c2:	48 8b 45 d0          	mov    rax,QWORD PTR [rbp-0x30]
    24c6:	0f b6 00             	movzx  eax,BYTE PTR [rax]
    24c9:	0f be c0             	movsx  eax,al
    24cc:	89 c7                	mov    edi,eax
    24ce:	e8 00 00 00 00       	call   24d3 <_Z9ImStricmpPKcS0_+0x22>
    24d3:	89 c3                	mov    ebx,eax
    24d5:	48 8b 45 d8          	mov    rax,QWORD PTR [rbp-0x28]
    24d9:	0f b6 00             	movzx  eax,BYTE PTR [rax]
    24dc:	0f be c0             	movsx  eax,al
    24df:	89 c7                	mov    edi,eax
    24e1:	e8 00 00 00 00       	call   24e6 <_Z9ImStricmpPKcS0_+0x35>
    24e6:	29 c3                	sub    ebx,eax
    24e8:	89 d8                	mov    eax,ebx
    24ea:	89 45 ec             	mov    DWORD PTR [rbp-0x14],eax
    24ed:	83 7d ec 00          	cmp    DWORD PTR [rbp-0x14],0x0
    24f1:	75 12                	jne    2505 <_Z9ImStricmpPKcS0_+0x54>
    24f3:	48 8b 45 d8          	mov    rax,QWORD PTR [rbp-0x28]
    24f7:	0f b6 00             	movzx  eax,BYTE PTR [rax]
    24fa:	84 c0                	test   al,al
    24fc:	74 07                	je     2505 <_Z9ImStricmpPKcS0_+0x54>
    24fe:	b8 01 00 00 00       	mov    eax,0x1
    2503:	eb 05                	jmp    250a <_Z9ImStricmpPKcS0_+0x59>
    2505:	b8 00 00 00 00       	mov    eax,0x0
    250a:	84 c0                	test   al,al
    250c:	74 0c                	je     251a <_Z9ImStricmpPKcS0_+0x69>
    250e:	48 83 45 d8 01       	add    QWORD PTR [rbp-0x28],0x1
    2513:	48 83 45 d0 01       	add    QWORD PTR [rbp-0x30],0x1
    2518:	eb a8                	jmp    24c2 <_Z9ImStricmpPKcS0_+0x11>
    251a:	8b 45 ec             	mov    eax,DWORD PTR [rbp-0x14]
    251d:	48 83 c4 28          	add    rsp,0x28
    2521:	5b                   	pop    rbx
    2522:	5d                   	pop    rbp
    2523:	c3                   	ret    

0000000000002524 <_Z10ImStrnicmpPKcS0_m>:
    2524:	55                   	push   rbp
    2525:	48 89 e5             	mov    rbp,rsp
    2528:	53                   	push   rbx
    2529:	48 83 ec 38          	sub    rsp,0x38
    252d:	48 89 7d d8          	mov    QWORD PTR [rbp-0x28],rdi
    2531:	48 89 75 d0          	mov    QWORD PTR [rbp-0x30],rsi
    2535:	48 89 55 c8          	mov    QWORD PTR [rbp-0x38],rdx
    2539:	c7 45 ec 00 00 00 00 	mov    DWORD PTR [rbp-0x14],0x0
    2540:	48 83 7d c8 00       	cmp    QWORD PTR [rbp-0x38],0x0
    2545:	74 43                	je     258a <_Z10ImStrnicmpPKcS0_m+0x66>
    2547:	48 8b 45 d0          	mov    rax,QWORD PTR [rbp-0x30]
    254b:	0f b6 00             	movzx  eax,BYTE PTR [rax]
    254e:	0f be c0             	movsx  eax,al
    2551:	89 c7                	mov    edi,eax
    2553:	e8 00 00 00 00       	call   2558 <_Z10ImStrnicmpPKcS0_m+0x34>
    2558:	89 c3                	mov    ebx,eax
    255a:	48 8b 45 d8          	mov    rax,QWORD PTR [rbp-0x28]
    255e:	0f b6 00             	movzx  eax,BYTE PTR [rax]
    2561:	0f be c0             	movsx  eax,al
    2564:	89 c7                	mov    edi,eax
    2566:	e8 00 00 00 00       	call   256b <_Z10ImStrnicmpPKcS0_m+0x47>
    256b:	29 c3                	sub    ebx,eax
    256d:	89 d8                	mov    eax,ebx
    256f:	89 45 ec             	mov    DWORD PTR [rbp-0x14],eax
    2572:	83 7d ec 00          	cmp    DWORD PTR [rbp-0x14],0x0
    2576:	75 12                	jne    258a <_Z10ImStrnicmpPKcS0_m+0x66>
    2578:	48 8b 45 d8          	mov    rax,QWORD PTR [rbp-0x28]
    257c:	0f b6 00             	movzx  eax,BYTE PTR [rax]
    257f:	84 c0                	test   al,al
    2581:	74 07                	je     258a <_Z10ImStrnicmpPKcS0_m+0x66>
    2583:	b8 01 00 00 00       	mov    eax,0x1
    2588:	eb 05                	jmp    258f <_Z10ImStrnicmpPKcS0_m+0x6b>
    258a:	b8 00 00 00 00       	mov    eax,0x0
    258f:	84 c0                	test   al,al
    2591:	74 11                	je     25a4 <_Z10ImStrnicmpPKcS0_m+0x80>
    2593:	48 83 45 d8 01       	add    QWORD PTR [rbp-0x28],0x1
    2598:	48 83 45 d0 01       	add    QWORD PTR [rbp-0x30],0x1
    259d:	48 83 6d c8 01       	sub    QWORD PTR [rbp-0x38],0x1
    25a2:	eb 9c                	jmp    2540 <_Z10ImStrnicmpPKcS0_m+0x1c>
    25a4:	8b 45 ec             	mov    eax,DWORD PTR [rbp-0x14]
    25a7:	48 83 c4 38          	add    rsp,0x38
    25ab:	5b                   	pop    rbx
    25ac:	5d                   	pop    rbp
    25ad:	c3                   	ret    

00000000000025ae <_Z9ImStrncpyPcPKcm>:
    25ae:	55                   	push   rbp
    25af:	48 89 e5             	mov    rbp,rsp
    25b2:	48 83 ec 20          	sub    rsp,0x20
    25b6:	48 89 7d f8          	mov    QWORD PTR [rbp-0x8],rdi
    25ba:	48 89 75 f0          	mov    QWORD PTR [rbp-0x10],rsi
    25be:	48 89 55 e8          	mov    QWORD PTR [rbp-0x18],rdx
    25c2:	48 83 7d e8 00       	cmp    QWORD PTR [rbp-0x18],0x0
    25c7:	74 36                	je     25ff <_Z9ImStrncpyPcPKcm+0x51>
    25c9:	48 83 7d e8 01       	cmp    QWORD PTR [rbp-0x18],0x1
    25ce:	76 1b                	jbe    25eb <_Z9ImStrncpyPcPKcm+0x3d>
    25d0:	48 8b 45 e8          	mov    rax,QWORD PTR [rbp-0x18]
    25d4:	48 8d 50 ff          	lea    rdx,[rax-0x1]
    25d8:	48 8b 4d f0          	mov    rcx,QWORD PTR [rbp-0x10]
    25dc:	48 8b 45 f8          	mov    rax,QWORD PTR [rbp-0x8]
    25e0:	48 89 ce             	mov    rsi,rcx
    25e3:	48 89 c7             	mov    rdi,rax
    25e6:	e8 00 00 00 00       	call   25eb <_Z9ImStrncpyPcPKcm+0x3d>
    25eb:	48 8b 45 e8          	mov    rax,QWORD PTR [rbp-0x18]
    25ef:	48 8d 50 ff          	lea    rdx,[rax-0x1]
    25f3:	48 8b 45 f8          	mov    rax,QWORD PTR [rbp-0x8]
    25f7:	48 01 d0             	add    rax,rdx
    25fa:	c6 00 00             	mov    BYTE PTR [rax],0x0
    25fd:	eb 01                	jmp    2600 <_Z9ImStrncpyPcPKcm+0x52>
    25ff:	90                   	nop
    2600:	c9                   	leave  
    2601:	c3                   	ret    

0000000000002602 <_Z8ImStrdupPKc>:
    2602:	55                   	push   rbp
    2603:	48 89 e5             	mov    rbp,rsp
    2606:	48 83 ec 20          	sub    rsp,0x20
    260a:	48 89 7d e8          	mov    QWORD PTR [rbp-0x18],rdi
    260e:	48 8b 45 e8          	mov    rax,QWORD PTR [rbp-0x18]
    2612:	48 89 c7             	mov    rdi,rax
    2615:	e8 00 00 00 00       	call   261a <_Z8ImStrdupPKc+0x18>
    261a:	48 89 45 f0          	mov    QWORD PTR [rbp-0x10],rax
    261e:	48 8b 45 f0          	mov    rax,QWORD PTR [rbp-0x10]
    2622:	48 83 c0 01          	add    rax,0x1
    2626:	48 89 c7             	mov    rdi,rax
    2629:	e8 00 00 00 00       	call   262e <_Z8ImStrdupPKc+0x2c>
    262e:	48 89 45 f8          	mov    QWORD PTR [rbp-0x8],rax
    2632:	48 8b 45 f0          	mov    rax,QWORD PTR [rbp-0x10]
    2636:	48 8d 50 01          	lea    rdx,[rax+0x1]
    263a:	48 8b 4d e8          	mov    rcx,QWORD PTR [rbp-0x18]
    263e:	48 8b 45 f8          	mov    rax,QWORD PTR [rbp-0x8]
    2642:	48 89 ce             	mov    rsi,rcx
    2645:	48 89 c7             	mov    rdi,rax
    2648:	e8 00 00 00 00       	call   264d <_Z8ImStrdupPKc+0x4b>
    264d:	c9                   	leave  
    264e:	c3                   	ret    

000000000000264f <_Z11ImStrdupcpyPcPmPKc>:
    264f:	55                   	push   rbp
    2650:	48 89 e5             	mov    rbp,rsp
    2653:	48 83 ec 30          	sub    rsp,0x30
    2657:	48 89 7d e8          	mov    QWORD PTR [rbp-0x18],rdi
    265b:	48 89 75 e0          	mov    QWORD PTR [rbp-0x20],rsi
    265f:	48 89 55 d8          	mov    QWORD PTR [rbp-0x28],rdx
    2663:	48 83 7d e0 00       	cmp    QWORD PTR [rbp-0x20],0x0
    2668:	74 09                	je     2673 <_Z11ImStrdupcpyPcPmPKc+0x24>
    266a:	48 8b 45 e0          	mov    rax,QWORD PTR [rbp-0x20]
    266e:	48 8b 00             	mov    rax,QWORD PTR [rax]
    2671:	eb 10                	jmp    2683 <_Z11ImStrdupcpyPcPmPKc+0x34>
    2673:	48 8b 45 e8          	mov    rax,QWORD PTR [rbp-0x18]
    2677:	48 89 c7             	mov    rdi,rax
    267a:	e8 00 00 00 00       	call   267f <_Z11ImStrdupcpyPcPmPKc+0x30>
    267f:	48 83 c0 01          	add    rax,0x1
    2683:	48 89 45 f0          	mov    QWORD PTR [rbp-0x10],rax
    2687:	48 8b 45 d8          	mov    rax,QWORD PTR [rbp-0x28]
    268b:	48 89 c7             	mov    rdi,rax
    268e:	e8 00 00 00 00       	call   2693 <_Z11ImStrdupcpyPcPmPKc+0x44>
    2693:	48 83 c0 01          	add    rax,0x1
    2697:	48 89 45 f8          	mov    QWORD PTR [rbp-0x8],rax
    269b:	48 8b 45 f0          	mov    rax,QWORD PTR [rbp-0x10]
    269f:	48 3b 45 f8          	cmp    rax,QWORD PTR [rbp-0x8]
    26a3:	73 2e                	jae    26d3 <_Z11ImStrdupcpyPcPmPKc+0x84>
    26a5:	48 8b 45 e8          	mov    rax,QWORD PTR [rbp-0x18]
    26a9:	48 89 c7             	mov    rdi,rax
    26ac:	e8 00 00 00 00       	call   26b1 <_Z11ImStrdupcpyPcPmPKc+0x62>
    26b1:	48 8b 45 f8          	mov    rax,QWORD PTR [rbp-0x8]
    26b5:	48 89 c7             	mov    rdi,rax
    26b8:	e8 00 00 00 00       	call   26bd <_Z11ImStrdupcpyPcPmPKc+0x6e>
    26bd:	48 89 45 e8          	mov    QWORD PTR [rbp-0x18],rax
    26c1:	48 83 7d e0 00       	cmp    QWORD PTR [rbp-0x20],0x0
    26c6:	74 0b                	je     26d3 <_Z11ImStrdupcpyPcPmPKc+0x84>
    26c8:	48 8b 45 e0          	mov    rax,QWORD PTR [rbp-0x20]
    26cc:	48 8b 55 f8          	mov    rdx,QWORD PTR [rbp-0x8]
    26d0:	48 89 10             	mov    QWORD PTR [rax],rdx
    26d3:	48 8b 55 f8          	mov    rdx,QWORD PTR [rbp-0x8]
    26d7:	48 8b 4d d8          	mov    rcx,QWORD PTR [rbp-0x28]
    26db:	48 8b 45 e8          	mov    rax,QWORD PTR [rbp-0x18]
    26df:	48 89 ce             	mov    rsi,rcx
    26e2:	48 89 c7             	mov    rdi,rax
    26e5:	e8 00 00 00 00       	call   26ea <_Z11ImStrdupcpyPcPmPKc+0x9b>
    26ea:	c9                   	leave  
    26eb:	c3                   	ret    

00000000000026ec <_Z13ImStrchrRangePKcS0_c>:
    26ec:	55                   	push   rbp
    26ed:	48 89 e5             	mov    rbp,rsp
    26f0:	48 83 ec 30          	sub    rsp,0x30
    26f4:	48 89 7d e8          	mov    QWORD PTR [rbp-0x18],rdi
    26f8:	48 89 75 e0          	mov    QWORD PTR [rbp-0x20],rsi
    26fc:	89 d0                	mov    eax,edx
    26fe:	88 45 dc             	mov    BYTE PTR [rbp-0x24],al
    2701:	48 8b 55 e0          	mov    rdx,QWORD PTR [rbp-0x20]
    2705:	48 8b 45 e8          	mov    rax,QWORD PTR [rbp-0x18]
    2709:	48 29 c2             	sub    rdx,rax
    270c:	48 89 d0             	mov    rax,rdx
    270f:	48 89 c2             	mov    rdx,rax
    2712:	0f be 4d dc          	movsx  ecx,BYTE PTR [rbp-0x24]
    2716:	48 8b 45 e8          	mov    rax,QWORD PTR [rbp-0x18]
    271a:	89 ce                	mov    esi,ecx
    271c:	48 89 c7             	mov    rdi,rax
    271f:	e8 00 00 00 00       	call   2724 <_Z13ImStrchrRangePKcS0_c+0x38>
    2724:	48 89 45 f8          	mov    QWORD PTR [rbp-0x8],rax
    2728:	48 8b 45 f8          	mov    rax,QWORD PTR [rbp-0x8]
    272c:	c9                   	leave  
    272d:	c3                   	ret    

000000000000272e <_Z9ImStrlenWPKt>:
    272e:	55                   	push   rbp
    272f:	48 89 e5             	mov    rbp,rsp
    2732:	48 89 7d e8          	mov    QWORD PTR [rbp-0x18],rdi
    2736:	c7 45 fc 00 00 00 00 	mov    DWORD PTR [rbp-0x4],0x0
    273d:	48 8b 45 e8          	mov    rax,QWORD PTR [rbp-0x18]
    2741:	48 8d 50 02          	lea    rdx,[rax+0x2]
    2745:	48 89 55 e8          	mov    QWORD PTR [rbp-0x18],rdx
    2749:	0f b7 00             	movzx  eax,WORD PTR [rax]
    274c:	66 85 c0             	test   ax,ax
    274f:	0f 95 c0             	setne  al
    2752:	84 c0                	test   al,al
    2754:	74 06                	je     275c <_Z9ImStrlenWPKt+0x2e>
    2756:	83 45 fc 01          	add    DWORD PTR [rbp-0x4],0x1
    275a:	eb e1                	jmp    273d <_Z9ImStrlenWPKt+0xf>
    275c:	8b 45 fc             	mov    eax,DWORD PTR [rbp-0x4]
    275f:	5d                   	pop    rbp
    2760:	c3                   	ret    

0000000000002761 <_Z13ImStreolRangePKcS0_>:
    2761:	55                   	push   rbp
    2762:	48 89 e5             	mov    rbp,rsp
    2765:	48 83 ec 20          	sub    rsp,0x20
    2769:	48 89 7d e8          	mov    QWORD PTR [rbp-0x18],rdi
    276d:	48 89 75 e0          	mov    QWORD PTR [rbp-0x20],rsi
    2771:	48 8b 55 e0          	mov    rdx,QWORD PTR [rbp-0x20]
    2775:	48 8b 45 e8          	mov    rax,QWORD PTR [rbp-0x18]
    2779:	48 29 c2             	sub    rdx,rax
    277c:	48 89 d0             	mov    rax,rdx
    277f:	48 89 c2             	mov    rdx,rax
    2782:	48 8b 45 e8          	mov    rax,QWORD PTR [rbp-0x18]
    2786:	be 0a 00 00 00       	mov    esi,0xa
    278b:	48 89 c7             	mov    rdi,rax
    278e:	e8 00 00 00 00       	call   2793 <_Z13ImStreolRangePKcS0_+0x32>
    2793:	48 89 45 f8          	mov    QWORD PTR [rbp-0x8],rax
    2797:	48 83 7d f8 00       	cmp    QWORD PTR [rbp-0x8],0x0
    279c:	74 06                	je     27a4 <_Z13ImStreolRangePKcS0_+0x43>
    279e:	48 8b 45 f8          	mov    rax,QWORD PTR [rbp-0x8]
    27a2:	eb 04                	jmp    27a8 <_Z13ImStreolRangePKcS0_+0x47>
    27a4:	48 8b 45 e0          	mov    rax,QWORD PTR [rbp-0x20]
    27a8:	c9                   	leave  
    27a9:	c3                   	ret    

00000000000027aa <_Z9ImStrbolWPKtS0_>:
    27aa:	55                   	push   rbp
    27ab:	48 89 e5             	mov    rbp,rsp
    27ae:	48 89 7d f8          	mov    QWORD PTR [rbp-0x8],rdi
    27b2:	48 89 75 f0          	mov    QWORD PTR [rbp-0x10],rsi
    27b6:	48 8b 45 f8          	mov    rax,QWORD PTR [rbp-0x8]
    27ba:	48 3b 45 f0          	cmp    rax,QWORD PTR [rbp-0x10]
    27be:	76 18                	jbe    27d8 <_Z9ImStrbolWPKtS0_+0x2e>
    27c0:	48 8b 45 f8          	mov    rax,QWORD PTR [rbp-0x8]
    27c4:	48 83 e8 02          	sub    rax,0x2
    27c8:	0f b7 00             	movzx  eax,WORD PTR [rax]
    27cb:	66 83 f8 0a          	cmp    ax,0xa
    27cf:	74 07                	je     27d8 <_Z9ImStrbolWPKtS0_+0x2e>
    27d1:	48 83 6d f8 02       	sub    QWORD PTR [rbp-0x8],0x2
    27d6:	eb de                	jmp    27b6 <_Z9ImStrbolWPKtS0_+0xc>
    27d8:	48 8b 45 f8          	mov    rax,QWORD PTR [rbp-0x8]
    27dc:	5d                   	pop    rbp
    27dd:	c3                   	ret    

00000000000027de <_Z9ImStristrPKcS0_S0_S0_>:
    27de:	55                   	push   rbp
    27df:	48 89 e5             	mov    rbp,rsp
    27e2:	53                   	push   rbx
    27e3:	48 83 ec 48          	sub    rsp,0x48
    27e7:	48 89 7d c8          	mov    QWORD PTR [rbp-0x38],rdi
    27eb:	48 89 75 c0          	mov    QWORD PTR [rbp-0x40],rsi
    27ef:	48 89 55 b8          	mov    QWORD PTR [rbp-0x48],rdx
    27f3:	48 89 4d b0          	mov    QWORD PTR [rbp-0x50],rcx
    27f7:	48 83 7d b0 00       	cmp    QWORD PTR [rbp-0x50],0x0
    27fc:	75 1a                	jne    2818 <_Z9ImStristrPKcS0_S0_S0_+0x3a>
    27fe:	48 8b 45 b8          	mov    rax,QWORD PTR [rbp-0x48]
    2802:	48 89 c7             	mov    rdi,rax
    2805:	e8 00 00 00 00       	call   280a <_Z9ImStristrPKcS0_S0_S0_+0x2c>
    280a:	48 89 c2             	mov    rdx,rax
    280d:	48 8b 45 b8          	mov    rax,QWORD PTR [rbp-0x48]
    2811:	48 01 d0             	add    rax,rdx
    2814:	48 89 45 b0          	mov    QWORD PTR [rbp-0x50],rax
    2818:	48 8b 45 b8          	mov    rax,QWORD PTR [rbp-0x48]
    281c:	0f b6 00             	movzx  eax,BYTE PTR [rax]
    281f:	0f be c0             	movsx  eax,al
    2822:	89 c7                	mov    edi,eax
    2824:	e8 00 00 00 00       	call   2829 <_Z9ImStristrPKcS0_S0_S0_+0x4b>
    2829:	88 45 df             	mov    BYTE PTR [rbp-0x21],al
    282c:	48 83 7d c0 00       	cmp    QWORD PTR [rbp-0x40],0x0
    2831:	75 0b                	jne    283e <_Z9ImStristrPKcS0_S0_S0_+0x60>
    2833:	48 8b 45 c8          	mov    rax,QWORD PTR [rbp-0x38]
    2837:	0f b6 00             	movzx  eax,BYTE PTR [rax]
    283a:	84 c0                	test   al,al
    283c:	75 19                	jne    2857 <_Z9ImStristrPKcS0_S0_S0_+0x79>
    283e:	48 83 7d c0 00       	cmp    QWORD PTR [rbp-0x40],0x0
    2843:	0f 84 9a 00 00 00    	je     28e3 <_Z9ImStristrPKcS0_S0_S0_+0x105>
    2849:	48 8b 45 c8          	mov    rax,QWORD PTR [rbp-0x38]
    284d:	48 3b 45 c0          	cmp    rax,QWORD PTR [rbp-0x40]
    2851:	0f 83 8c 00 00 00    	jae    28e3 <_Z9ImStristrPKcS0_S0_S0_+0x105>
    2857:	48 8b 45 c8          	mov    rax,QWORD PTR [rbp-0x38]
    285b:	0f b6 00             	movzx  eax,BYTE PTR [rax]
    285e:	0f be c0             	movsx  eax,al
    2861:	89 c7                	mov    edi,eax
    2863:	e8 00 00 00 00       	call   2868 <_Z9ImStristrPKcS0_S0_S0_+0x8a>
    2868:	89 c2                	mov    edx,eax
    286a:	0f be 45 df          	movsx  eax,BYTE PTR [rbp-0x21]
    286e:	39 c2                	cmp    edx,eax
    2870:	75 67                	jne    28d9 <_Z9ImStristrPKcS0_S0_S0_+0xfb>
    2872:	48 8b 45 b8          	mov    rax,QWORD PTR [rbp-0x48]
    2876:	48 83 c0 01          	add    rax,0x1
    287a:	48 89 45 e0          	mov    QWORD PTR [rbp-0x20],rax
    287e:	48 8b 45 c8          	mov    rax,QWORD PTR [rbp-0x38]
    2882:	48 83 c0 01          	add    rax,0x1
    2886:	48 89 45 e8          	mov    QWORD PTR [rbp-0x18],rax
    288a:	48 8b 45 e0          	mov    rax,QWORD PTR [rbp-0x20]
    288e:	48 3b 45 b0          	cmp    rax,QWORD PTR [rbp-0x50]
    2892:	73 35                	jae    28c9 <_Z9ImStristrPKcS0_S0_S0_+0xeb>
    2894:	48 8b 45 e8          	mov    rax,QWORD PTR [rbp-0x18]
    2898:	0f b6 00             	movzx  eax,BYTE PTR [rax]
    289b:	0f be c0             	movsx  eax,al
    289e:	89 c7                	mov    edi,eax
    28a0:	e8 00 00 00 00       	call   28a5 <_Z9ImStristrPKcS0_S0_S0_+0xc7>
    28a5:	89 c3                	mov    ebx,eax
    28a7:	48 8b 45 e0          	mov    rax,QWORD PTR [rbp-0x20]
    28ab:	0f b6 00             	movzx  eax,BYTE PTR [rax]
    28ae:	0f be c0             	movsx  eax,al
    28b1:	89 c7                	mov    edi,eax
    28b3:	e8 00 00 00 00       	call   28b8 <_Z9ImStristrPKcS0_S0_S0_+0xda>
    28b8:	39 c3                	cmp    ebx,eax
    28ba:	75 0c                	jne    28c8 <_Z9ImStristrPKcS0_S0_S0_+0xea>
    28bc:	48 83 45 e8 01       	add    QWORD PTR [rbp-0x18],0x1
    28c1:	48 83 45 e0 01       	add    QWORD PTR [rbp-0x20],0x1
    28c6:	eb c2                	jmp    288a <_Z9ImStristrPKcS0_S0_S0_+0xac>
    28c8:	90                   	nop
    28c9:	48 8b 45 e0          	mov    rax,QWORD PTR [rbp-0x20]
    28cd:	48 3b 45 b0          	cmp    rax,QWORD PTR [rbp-0x50]
    28d1:	75 06                	jne    28d9 <_Z9ImStristrPKcS0_S0_S0_+0xfb>
    28d3:	48 8b 45 c8          	mov    rax,QWORD PTR [rbp-0x38]
    28d7:	eb 0f                	jmp    28e8 <_Z9ImStristrPKcS0_S0_S0_+0x10a>
    28d9:	48 83 45 c8 01       	add    QWORD PTR [rbp-0x38],0x1
    28de:	e9 49 ff ff ff       	jmp    282c <_Z9ImStristrPKcS0_S0_S0_+0x4e>
    28e3:	b8 00 00 00 00       	mov    eax,0x0
    28e8:	48 83 c4 48          	add    rsp,0x48
    28ec:	5b                   	pop    rbx
    28ed:	5d                   	pop    rbp
    28ee:	c3                   	ret    

00000000000028ef <_Z15ImStrTrimBlanksPc>:
    28ef:	55                   	push   rbp
    28f0:	48 89 e5             	mov    rbp,rsp
    28f3:	48 83 ec 20          	sub    rsp,0x20
    28f7:	48 89 7d e8          	mov    QWORD PTR [rbp-0x18],rdi
    28fb:	48 8b 45 e8          	mov    rax,QWORD PTR [rbp-0x18]
    28ff:	48 89 45 f0          	mov    QWORD PTR [rbp-0x10],rax
    2903:	48 8b 45 f0          	mov    rax,QWORD PTR [rbp-0x10]
    2907:	0f b6 00             	movzx  eax,BYTE PTR [rax]
    290a:	3c 20                	cmp    al,0x20
    290c:	74 0b                	je     2919 <_Z15ImStrTrimBlanksPc+0x2a>
    290e:	48 8b 45 f0          	mov    rax,QWORD PTR [rbp-0x10]
    2912:	0f b6 00             	movzx  eax,BYTE PTR [rax]
    2915:	3c 09                	cmp    al,0x9
    2917:	75 07                	jne    2920 <_Z15ImStrTrimBlanksPc+0x31>
    2919:	48 83 45 f0 01       	add    QWORD PTR [rbp-0x10],0x1
    291e:	eb e3                	jmp    2903 <_Z15ImStrTrimBlanksPc+0x14>
    2920:	48 8b 45 f0          	mov    rax,QWORD PTR [rbp-0x10]
    2924:	48 89 45 f8          	mov    QWORD PTR [rbp-0x8],rax
    2928:	48 8b 45 f0          	mov    rax,QWORD PTR [rbp-0x10]
    292c:	0f b6 00             	movzx  eax,BYTE PTR [rax]
    292f:	84 c0                	test   al,al
    2931:	74 07                	je     293a <_Z15ImStrTrimBlanksPc+0x4b>
    2933:	48 83 45 f0 01       	add    QWORD PTR [rbp-0x10],0x1
    2938:	eb ee                	jmp    2928 <_Z15ImStrTrimBlanksPc+0x39>
    293a:	48 8b 45 f0          	mov    rax,QWORD PTR [rbp-0x10]
    293e:	48 3b 45 f8          	cmp    rax,QWORD PTR [rbp-0x8]
    2942:	76 25                	jbe    2969 <_Z15ImStrTrimBlanksPc+0x7a>
    2944:	48 8b 45 f0          	mov    rax,QWORD PTR [rbp-0x10]
    2948:	48 83 e8 01          	sub    rax,0x1
    294c:	0f b6 00             	movzx  eax,BYTE PTR [rax]
    294f:	3c 20                	cmp    al,0x20
    2951:	74 0f                	je     2962 <_Z15ImStrTrimBlanksPc+0x73>
    2953:	48 8b 45 f0          	mov    rax,QWORD PTR [rbp-0x10]
    2957:	48 83 e8 01          	sub    rax,0x1
    295b:	0f b6 00             	movzx  eax,BYTE PTR [rax]
    295e:	3c 09                	cmp    al,0x9
    2960:	75 07                	jne    2969 <_Z15ImStrTrimBlanksPc+0x7a>
    2962:	48 83 6d f0 01       	sub    QWORD PTR [rbp-0x10],0x1
    2967:	eb d1                	jmp    293a <_Z15ImStrTrimBlanksPc+0x4b>
    2969:	48 8b 45 f8          	mov    rax,QWORD PTR [rbp-0x8]
    296d:	48 3b 45 e8          	cmp    rax,QWORD PTR [rbp-0x18]
    2971:	74 24                	je     2997 <_Z15ImStrTrimBlanksPc+0xa8>
    2973:	48 8b 55 f0          	mov    rdx,QWORD PTR [rbp-0x10]
    2977:	48 8b 45 f8          	mov    rax,QWORD PTR [rbp-0x8]
    297b:	48 29 c2             	sub    rdx,rax
    297e:	48 89 d0             	mov    rax,rdx
    2981:	48 89 c2             	mov    rdx,rax
    2984:	48 8b 4d f8          	mov    rcx,QWORD PTR [rbp-0x8]
    2988:	48 8b 45 e8          	mov    rax,QWORD PTR [rbp-0x18]
    298c:	48 89 ce             	mov    rsi,rcx
    298f:	48 89 c7             	mov    rdi,rax
    2992:	e8 00 00 00 00       	call   2997 <_Z15ImStrTrimBlanksPc+0xa8>
    2997:	48 8b 55 f0          	mov    rdx,QWORD PTR [rbp-0x10]
    299b:	48 8b 45 f8          	mov    rax,QWORD PTR [rbp-0x8]
    299f:	48 29 c2             	sub    rdx,rax
    29a2:	48 89 d0             	mov    rax,rdx
    29a5:	48 89 c2             	mov    rdx,rax
    29a8:	48 8b 45 e8          	mov    rax,QWORD PTR [rbp-0x18]
    29ac:	48 01 d0             	add    rax,rdx
    29af:	c6 00 00             	mov    BYTE PTR [rax],0x0
    29b2:	90                   	nop
    29b3:	c9                   	leave  
    29b4:	c3                   	ret    

00000000000029b5 <_Z14ImStrSkipBlankPKc>:
    29b5:	55                   	push   rbp
    29b6:	48 89 e5             	mov    rbp,rsp
    29b9:	48 89 7d f8          	mov    QWORD PTR [rbp-0x8],rdi
    29bd:	48 8b 45 f8          	mov    rax,QWORD PTR [rbp-0x8]
    29c1:	0f b6 00             	movzx  eax,BYTE PTR [rax]
    29c4:	3c 20                	cmp    al,0x20
    29c6:	74 0b                	je     29d3 <_Z14ImStrSkipBlankPKc+0x1e>
    29c8:	48 8b 45 f8          	mov    rax,QWORD PTR [rbp-0x8]
    29cc:	0f b6 00             	movzx  eax,BYTE PTR [rax]
    29cf:	3c 09                	cmp    al,0x9
    29d1:	75 07                	jne    29da <_Z14ImStrSkipBlankPKc+0x25>
    29d3:	48 83 45 f8 01       	add    QWORD PTR [rbp-0x8],0x1
    29d8:	eb e3                	jmp    29bd <_Z14ImStrSkipBlankPKc+0x8>
    29da:	48 8b 45 f8          	mov    rax,QWORD PTR [rbp-0x8]
    29de:	5d                   	pop    rbp
    29df:	c3                   	ret    

00000000000029e0 <_Z14ImFormatStringPcmPKcz>:
    29e0:	55                   	push   rbp
    29e1:	48 89 e5             	mov    rbp,rsp
    29e4:	48 81 ec 00 01 00 00 	sub    rsp,0x100
    29eb:	48 89 bd 18 ff ff ff 	mov    QWORD PTR [rbp-0xe8],rdi
    29f2:	48 89 b5 10 ff ff ff 	mov    QWORD PTR [rbp-0xf0],rsi
    29f9:	48 89 95 08 ff ff ff 	mov    QWORD PTR [rbp-0xf8],rdx
    2a00:	48 89 8d 68 ff ff ff 	mov    QWORD PTR [rbp-0x98],rcx
    2a07:	4c 89 85 70 ff ff ff 	mov    QWORD PTR [rbp-0x90],r8
    2a0e:	4c 89 8d 78 ff ff ff 	mov    QWORD PTR [rbp-0x88],r9
    2a15:	84 c0                	test   al,al
    2a17:	74 20                	je     2a39 <_Z14ImFormatStringPcmPKcz+0x59>
    2a19:	0f 29 45 80          	movaps XMMWORD PTR [rbp-0x80],xmm0
    2a1d:	0f 29 4d 90          	movaps XMMWORD PTR [rbp-0x70],xmm1
    2a21:	0f 29 55 a0          	movaps XMMWORD PTR [rbp-0x60],xmm2
    2a25:	0f 29 5d b0          	movaps XMMWORD PTR [rbp-0x50],xmm3
    2a29:	0f 29 65 c0          	movaps XMMWORD PTR [rbp-0x40],xmm4
    2a2d:	0f 29 6d d0          	movaps XMMWORD PTR [rbp-0x30],xmm5
    2a31:	0f 29 75 e0          	movaps XMMWORD PTR [rbp-0x20],xmm6
    2a35:	0f 29 7d f0          	movaps XMMWORD PTR [rbp-0x10],xmm7
    2a39:	64 48 8b 04 25 28 00 	mov    rax,QWORD PTR fs:0x28
    2a40:	00 00 
    2a42:	48 89 85 48 ff ff ff 	mov    QWORD PTR [rbp-0xb8],rax
    2a49:	31 c0                	xor    eax,eax
    2a4b:	c7 85 30 ff ff ff 18 	mov    DWORD PTR [rbp-0xd0],0x18
    2a52:	00 00 00 
    2a55:	c7 85 34 ff ff ff 30 	mov    DWORD PTR [rbp-0xcc],0x30
    2a5c:	00 00 00 
    2a5f:	48 8d 45 10          	lea    rax,[rbp+0x10]
    2a63:	48 89 85 38 ff ff ff 	mov    QWORD PTR [rbp-0xc8],rax
    2a6a:	48 8d 85 50 ff ff ff 	lea    rax,[rbp-0xb0]
    2a71:	48 89 85 40 ff ff ff 	mov    QWORD PTR [rbp-0xc0],rax
    2a78:	48 8d 8d 30 ff ff ff 	lea    rcx,[rbp-0xd0]
    2a7f:	48 8b 95 08 ff ff ff 	mov    rdx,QWORD PTR [rbp-0xf8]
    2a86:	48 8b b5 10 ff ff ff 	mov    rsi,QWORD PTR [rbp-0xf0]
    2a8d:	48 8b 85 18 ff ff ff 	mov    rax,QWORD PTR [rbp-0xe8]
    2a94:	48 89 c7             	mov    rdi,rax
    2a97:	e8 00 00 00 00       	call   2a9c <_Z14ImFormatStringPcmPKcz+0xbc>
    2a9c:	89 85 2c ff ff ff    	mov    DWORD PTR [rbp-0xd4],eax
    2aa2:	48 83 bd 18 ff ff ff 	cmp    QWORD PTR [rbp-0xe8],0x0
    2aa9:	00 
    2aaa:	75 08                	jne    2ab4 <_Z14ImFormatStringPcmPKcz+0xd4>
    2aac:	8b 85 2c ff ff ff    	mov    eax,DWORD PTR [rbp-0xd4]
    2ab2:	eb 44                	jmp    2af8 <_Z14ImFormatStringPcmPKcz+0x118>
    2ab4:	83 bd 2c ff ff ff ff 	cmp    DWORD PTR [rbp-0xd4],0xffffffff
    2abb:	74 0f                	je     2acc <_Z14ImFormatStringPcmPKcz+0xec>
    2abd:	48 8b 85 10 ff ff ff 	mov    rax,QWORD PTR [rbp-0xf0]
    2ac4:	39 85 2c ff ff ff    	cmp    DWORD PTR [rbp-0xd4],eax
    2aca:	7c 10                	jl     2adc <_Z14ImFormatStringPcmPKcz+0xfc>
    2acc:	48 8b 85 10 ff ff ff 	mov    rax,QWORD PTR [rbp-0xf0]
    2ad3:	83 e8 01             	sub    eax,0x1
    2ad6:	89 85 2c ff ff ff    	mov    DWORD PTR [rbp-0xd4],eax
    2adc:	8b 85 2c ff ff ff    	mov    eax,DWORD PTR [rbp-0xd4]
    2ae2:	48 63 d0             	movsxd rdx,eax
    2ae5:	48 8b 85 18 ff ff ff 	mov    rax,QWORD PTR [rbp-0xe8]
    2aec:	48 01 d0             	add    rax,rdx
    2aef:	c6 00 00             	mov    BYTE PTR [rax],0x0
    2af2:	8b 85 2c ff ff ff    	mov    eax,DWORD PTR [rbp-0xd4]
    2af8:	48 8b bd 48 ff ff ff 	mov    rdi,QWORD PTR [rbp-0xb8]
    2aff:	64 48 33 3c 25 28 00 	xor    rdi,QWORD PTR fs:0x28
    2b06:	00 00 
    2b08:	74 05                	je     2b0f <_Z14ImFormatStringPcmPKcz+0x12f>
    2b0a:	e8 00 00 00 00       	call   2b0f <_Z14ImFormatStringPcmPKcz+0x12f>
    2b0f:	c9                   	leave  
    2b10:	c3                   	ret    

0000000000002b11 <_Z15ImFormatStringVPcmPKcP13__va_list_tag>:
    2b11:	55                   	push   rbp
    2b12:	48 89 e5             	mov    rbp,rsp
    2b15:	48 83 ec 30          	sub    rsp,0x30
    2b19:	48 89 7d e8          	mov    QWORD PTR [rbp-0x18],rdi
    2b1d:	48 89 75 e0          	mov    QWORD PTR [rbp-0x20],rsi
    2b21:	48 89 55 d8          	mov    QWORD PTR [rbp-0x28],rdx
    2b25:	48 89 4d d0          	mov    QWORD PTR [rbp-0x30],rcx
    2b29:	48 8b 4d d0          	mov    rcx,QWORD PTR [rbp-0x30]
    2b2d:	48 8b 55 d8          	mov    rdx,QWORD PTR [rbp-0x28]
    2b31:	48 8b 75 e0          	mov    rsi,QWORD PTR [rbp-0x20]
    2b35:	48 8b 45 e8          	mov    rax,QWORD PTR [rbp-0x18]
    2b39:	48 89 c7             	mov    rdi,rax
    2b3c:	e8 00 00 00 00       	call   2b41 <_Z15ImFormatStringVPcmPKcP13__va_list_tag+0x30>
    2b41:	89 45 fc             	mov    DWORD PTR [rbp-0x4],eax
    2b44:	48 83 7d e8 00       	cmp    QWORD PTR [rbp-0x18],0x0
    2b49:	75 05                	jne    2b50 <_Z15ImFormatStringVPcmPKcP13__va_list_tag+0x3f>
    2b4b:	8b 45 fc             	mov    eax,DWORD PTR [rbp-0x4]
    2b4e:	eb 2c                	jmp    2b7c <_Z15ImFormatStringVPcmPKcP13__va_list_tag+0x6b>
    2b50:	83 7d fc ff          	cmp    DWORD PTR [rbp-0x4],0xffffffff
    2b54:	74 09                	je     2b5f <_Z15ImFormatStringVPcmPKcP13__va_list_tag+0x4e>
    2b56:	48 8b 45 e0          	mov    rax,QWORD PTR [rbp-0x20]
    2b5a:	39 45 fc             	cmp    DWORD PTR [rbp-0x4],eax
    2b5d:	7c 0a                	jl     2b69 <_Z15ImFormatStringVPcmPKcP13__va_list_tag+0x58>
    2b5f:	48 8b 45 e0          	mov    rax,QWORD PTR [rbp-0x20]
    2b63:	83 e8 01             	sub    eax,0x1
    2b66:	89 45 fc             	mov    DWORD PTR [rbp-0x4],eax
    2b69:	8b 45 fc             	mov    eax,DWORD PTR [rbp-0x4]
    2b6c:	48 63 d0             	movsxd rdx,eax
    2b6f:	48 8b 45 e8          	mov    rax,QWORD PTR [rbp-0x18]
    2b73:	48 01 d0             	add    rax,rdx
    2b76:	c6 00 00             	mov    BYTE PTR [rax],0x0
    2b79:	8b 45 fc             	mov    eax,DWORD PTR [rbp-0x4]
    2b7c:	c9                   	leave  
    2b7d:	c3                   	ret    

0000000000002b7e <_Z10ImHashDataPKvmj>:
    2b7e:	55                   	push   rbp
    2b7f:	48 89 e5             	mov    rbp,rsp
    2b82:	48 89 7d d8          	mov    QWORD PTR [rbp-0x28],rdi
    2b86:	48 89 75 d0          	mov    QWORD PTR [rbp-0x30],rsi
    2b8a:	89 55 cc             	mov    DWORD PTR [rbp-0x34],edx
    2b8d:	8b 45 cc             	mov    eax,DWORD PTR [rbp-0x34]
    2b90:	f7 d0                	not    eax
    2b92:	89 45 ec             	mov    DWORD PTR [rbp-0x14],eax
    2b95:	48 8b 45 d8          	mov    rax,QWORD PTR [rbp-0x28]
    2b99:	48 89 45 f0          	mov    QWORD PTR [rbp-0x10],rax
    2b9d:	48 8d 05 00 00 00 00 	lea    rax,[rip+0x0]        # 2ba4 <_Z10ImHashDataPKvmj+0x26>
    2ba4:	48 89 45 f8          	mov    QWORD PTR [rbp-0x8],rax
    2ba8:	48 8b 45 d0          	mov    rax,QWORD PTR [rbp-0x30]
    2bac:	48 8d 50 ff          	lea    rdx,[rax-0x1]
    2bb0:	48 89 55 d0          	mov    QWORD PTR [rbp-0x30],rdx
    2bb4:	48 85 c0             	test   rax,rax
    2bb7:	0f 95 c0             	setne  al
    2bba:	84 c0                	test   al,al
    2bbc:	74 3c                	je     2bfa <_Z10ImHashDataPKvmj+0x7c>
    2bbe:	8b 45 ec             	mov    eax,DWORD PTR [rbp-0x14]
    2bc1:	c1 e8 08             	shr    eax,0x8
    2bc4:	89 c6                	mov    esi,eax
    2bc6:	8b 45 ec             	mov    eax,DWORD PTR [rbp-0x14]
    2bc9:	0f b6 c8             	movzx  ecx,al
    2bcc:	48 8b 45 f0          	mov    rax,QWORD PTR [rbp-0x10]
    2bd0:	48 8d 50 01          	lea    rdx,[rax+0x1]
    2bd4:	48 89 55 f0          	mov    QWORD PTR [rbp-0x10],rdx
    2bd8:	0f b6 00             	movzx  eax,BYTE PTR [rax]
    2bdb:	0f b6 c0             	movzx  eax,al
    2bde:	31 c8                	xor    eax,ecx
    2be0:	89 c0                	mov    eax,eax
    2be2:	48 8d 14 85 00 00 00 	lea    rdx,[rax*4+0x0]
    2be9:	00 
    2bea:	48 8b 45 f8          	mov    rax,QWORD PTR [rbp-0x8]
    2bee:	48 01 d0             	add    rax,rdx
    2bf1:	8b 00                	mov    eax,DWORD PTR [rax]
    2bf3:	31 f0                	xor    eax,esi
    2bf5:	89 45 ec             	mov    DWORD PTR [rbp-0x14],eax
    2bf8:	eb ae                	jmp    2ba8 <_Z10ImHashDataPKvmj+0x2a>
    2bfa:	8b 45 ec             	mov    eax,DWORD PTR [rbp-0x14]
    2bfd:	f7 d0                	not    eax
    2bff:	5d                   	pop    rbp
    2c00:	c3                   	ret    

0000000000002c01 <_Z9ImHashStrPKcmj>:
    2c01:	55                   	push   rbp
    2c02:	48 89 e5             	mov    rbp,rsp
    2c05:	48 89 7d d8          	mov    QWORD PTR [rbp-0x28],rdi
    2c09:	48 89 75 d0          	mov    QWORD PTR [rbp-0x30],rsi
    2c0d:	89 55 cc             	mov    DWORD PTR [rbp-0x34],edx
    2c10:	f7 55 cc             	not    DWORD PTR [rbp-0x34]
    2c13:	8b 45 cc             	mov    eax,DWORD PTR [rbp-0x34]
    2c16:	89 45 ec             	mov    DWORD PTR [rbp-0x14],eax
    2c19:	48 8b 45 d8          	mov    rax,QWORD PTR [rbp-0x28]
    2c1d:	48 89 45 f0          	mov    QWORD PTR [rbp-0x10],rax
    2c21:	48 8d 05 00 00 00 00 	lea    rax,[rip+0x0]        # 2c28 <_Z9ImHashStrPKcmj+0x27>
    2c28:	48 89 45 f8          	mov    QWORD PTR [rbp-0x8],rax
    2c2c:	48 83 7d d0 00       	cmp    QWORD PTR [rbp-0x30],0x0
    2c31:	0f 84 8a 00 00 00    	je     2cc1 <_Z9ImHashStrPKcmj+0xc0>
    2c37:	48 8b 45 d0          	mov    rax,QWORD PTR [rbp-0x30]
    2c3b:	48 8d 50 ff          	lea    rdx,[rax-0x1]
    2c3f:	48 89 55 d0          	mov    QWORD PTR [rbp-0x30],rdx
    2c43:	48 85 c0             	test   rax,rax
    2c46:	0f 95 c0             	setne  al
    2c49:	84 c0                	test   al,al
    2c4b:	0f 84 dc 00 00 00    	je     2d2d <_Z9ImHashStrPKcmj+0x12c>
    2c51:	48 8b 45 f0          	mov    rax,QWORD PTR [rbp-0x10]
    2c55:	48 8d 50 01          	lea    rdx,[rax+0x1]
    2c59:	48 89 55 f0          	mov    QWORD PTR [rbp-0x10],rdx
    2c5d:	0f b6 00             	movzx  eax,BYTE PTR [rax]
    2c60:	88 45 eb             	mov    BYTE PTR [rbp-0x15],al
    2c63:	80 7d eb 23          	cmp    BYTE PTR [rbp-0x15],0x23
    2c67:	75 27                	jne    2c90 <_Z9ImHashStrPKcmj+0x8f>
    2c69:	48 83 7d d0 01       	cmp    QWORD PTR [rbp-0x30],0x1
    2c6e:	76 20                	jbe    2c90 <_Z9ImHashStrPKcmj+0x8f>
    2c70:	48 8b 45 f0          	mov    rax,QWORD PTR [rbp-0x10]
    2c74:	0f b6 00             	movzx  eax,BYTE PTR [rax]
    2c77:	3c 23                	cmp    al,0x23
    2c79:	75 15                	jne    2c90 <_Z9ImHashStrPKcmj+0x8f>
    2c7b:	48 8b 45 f0          	mov    rax,QWORD PTR [rbp-0x10]
    2c7f:	48 83 c0 01          	add    rax,0x1
    2c83:	0f b6 00             	movzx  eax,BYTE PTR [rax]
    2c86:	3c 23                	cmp    al,0x23
    2c88:	75 06                	jne    2c90 <_Z9ImHashStrPKcmj+0x8f>
    2c8a:	8b 45 cc             	mov    eax,DWORD PTR [rbp-0x34]
    2c8d:	89 45 ec             	mov    DWORD PTR [rbp-0x14],eax
    2c90:	8b 45 ec             	mov    eax,DWORD PTR [rbp-0x14]
    2c93:	c1 e8 08             	shr    eax,0x8
    2c96:	89 c1                	mov    ecx,eax
    2c98:	8b 45 ec             	mov    eax,DWORD PTR [rbp-0x14]
    2c9b:	0f b6 d0             	movzx  edx,al
    2c9e:	0f b6 45 eb          	movzx  eax,BYTE PTR [rbp-0x15]
    2ca2:	31 d0                	xor    eax,edx
    2ca4:	89 c0                	mov    eax,eax
    2ca6:	48 8d 14 85 00 00 00 	lea    rdx,[rax*4+0x0]
    2cad:	00 
    2cae:	48 8b 45 f8          	mov    rax,QWORD PTR [rbp-0x8]
    2cb2:	48 01 d0             	add    rax,rdx
    2cb5:	8b 00                	mov    eax,DWORD PTR [rax]
    2cb7:	31 c8                	xor    eax,ecx
    2cb9:	89 45 ec             	mov    DWORD PTR [rbp-0x14],eax
    2cbc:	e9 76 ff ff ff       	jmp    2c37 <_Z9ImHashStrPKcmj+0x36>
    2cc1:	48 8b 45 f0          	mov    rax,QWORD PTR [rbp-0x10]
    2cc5:	48 8d 50 01          	lea    rdx,[rax+0x1]
    2cc9:	48 89 55 f0          	mov    QWORD PTR [rbp-0x10],rdx
    2ccd:	0f b6 00             	movzx  eax,BYTE PTR [rax]
    2cd0:	88 45 ea             	mov    BYTE PTR [rbp-0x16],al
    2cd3:	80 7d ea 00          	cmp    BYTE PTR [rbp-0x16],0x0
    2cd7:	74 54                	je     2d2d <_Z9ImHashStrPKcmj+0x12c>
    2cd9:	80 7d ea 23          	cmp    BYTE PTR [rbp-0x16],0x23
    2cdd:	75 20                	jne    2cff <_Z9ImHashStrPKcmj+0xfe>
    2cdf:	48 8b 45 f0          	mov    rax,QWORD PTR [rbp-0x10]
    2ce3:	0f b6 00             	movzx  eax,BYTE PTR [rax]
    2ce6:	3c 23                	cmp    al,0x23
    2ce8:	75 15                	jne    2cff <_Z9ImHashStrPKcmj+0xfe>
    2cea:	48 8b 45 f0          	mov    rax,QWORD PTR [rbp-0x10]
    2cee:	48 83 c0 01          	add    rax,0x1
    2cf2:	0f b6 00             	movzx  eax,BYTE PTR [rax]
    2cf5:	3c 23                	cmp    al,0x23
    2cf7:	75 06                	jne    2cff <_Z9ImHashStrPKcmj+0xfe>
    2cf9:	8b 45 cc             	mov    eax,DWORD PTR [rbp-0x34]
    2cfc:	89 45 ec             	mov    DWORD PTR [rbp-0x14],eax
    2cff:	8b 45 ec             	mov    eax,DWORD PTR [rbp-0x14]
    2d02:	c1 e8 08             	shr    eax,0x8
    2d05:	89 c1                	mov    ecx,eax
    2d07:	8b 45 ec             	mov    eax,DWORD PTR [rbp-0x14]
    2d0a:	0f b6 d0             	movzx  edx,al
    2d0d:	0f b6 45 ea          	movzx  eax,BYTE PTR [rbp-0x16]
    2d11:	31 d0                	xor    eax,edx
    2d13:	89 c0                	mov    eax,eax
    2d15:	48 8d 14 85 00 00 00 	lea    rdx,[rax*4+0x0]
    2d1c:	00 
    2d1d:	48 8b 45 f8          	mov    rax,QWORD PTR [rbp-0x8]
    2d21:	48 01 d0             	add    rax,rdx
    2d24:	8b 00                	mov    eax,DWORD PTR [rax]
    2d26:	31 c8                	xor    eax,ecx
    2d28:	89 45 ec             	mov    DWORD PTR [rbp-0x14],eax
    2d2b:	eb 94                	jmp    2cc1 <_Z9ImHashStrPKcmj+0xc0>
    2d2d:	8b 45 ec             	mov    eax,DWORD PTR [rbp-0x14]
    2d30:	f7 d0                	not    eax
    2d32:	5d                   	pop    rbp
    2d33:	c3                   	ret    

0000000000002d34 <_Z10ImFileOpenPKcS0_>:
    2d34:	55                   	push   rbp
    2d35:	48 89 e5             	mov    rbp,rsp
    2d38:	48 83 ec 10          	sub    rsp,0x10
    2d3c:	48 89 7d f8          	mov    QWORD PTR [rbp-0x8],rdi
    2d40:	48 89 75 f0          	mov    QWORD PTR [rbp-0x10],rsi
    2d44:	48 8b 55 f0          	mov    rdx,QWORD PTR [rbp-0x10]
    2d48:	48 8b 45 f8          	mov    rax,QWORD PTR [rbp-0x8]
    2d4c:	48 89 d6             	mov    rsi,rdx
    2d4f:	48 89 c7             	mov    rdi,rax
    2d52:	e8 00 00 00 00       	call   2d57 <_Z10ImFileOpenPKcS0_+0x23>
    2d57:	c9                   	leave  
    2d58:	c3                   	ret    

0000000000002d59 <_Z11ImFileCloseP8_IO_FILE>:
    2d59:	55                   	push   rbp
    2d5a:	48 89 e5             	mov    rbp,rsp
    2d5d:	48 83 ec 10          	sub    rsp,0x10
    2d61:	48 89 7d f8          	mov    QWORD PTR [rbp-0x8],rdi
    2d65:	48 8b 45 f8          	mov    rax,QWORD PTR [rbp-0x8]
    2d69:	48 89 c7             	mov    rdi,rax
    2d6c:	e8 00 00 00 00       	call   2d71 <_Z11ImFileCloseP8_IO_FILE+0x18>
    2d71:	85 c0                	test   eax,eax
    2d73:	0f 94 c0             	sete   al
    2d76:	c9                   	leave  
    2d77:	c3                   	ret    

0000000000002d78 <_Z13ImFileGetSizeP8_IO_FILE>:
    2d78:	55                   	push   rbp
    2d79:	48 89 e5             	mov    rbp,rsp
    2d7c:	48 83 ec 20          	sub    rsp,0x20
    2d80:	48 89 7d e8          	mov    QWORD PTR [rbp-0x18],rdi
    2d84:	48 c7 45 f0 00 00 00 	mov    QWORD PTR [rbp-0x10],0x0
    2d8b:	00 
    2d8c:	48 c7 45 f8 00 00 00 	mov    QWORD PTR [rbp-0x8],0x0
    2d93:	00 
    2d94:	48 8b 45 e8          	mov    rax,QWORD PTR [rbp-0x18]
    2d98:	48 89 c7             	mov    rdi,rax
    2d9b:	e8 00 00 00 00       	call   2da0 <_Z13ImFileGetSizeP8_IO_FILE+0x28>
    2da0:	48 89 45 f0          	mov    QWORD PTR [rbp-0x10],rax
    2da4:	48 83 7d f0 ff       	cmp    QWORD PTR [rbp-0x10],0xffffffffffffffff
    2da9:	74 53                	je     2dfe <_Z13ImFileGetSizeP8_IO_FILE+0x86>
    2dab:	48 8b 45 e8          	mov    rax,QWORD PTR [rbp-0x18]
    2daf:	ba 02 00 00 00       	mov    edx,0x2
    2db4:	be 00 00 00 00       	mov    esi,0x0
    2db9:	48 89 c7             	mov    rdi,rax
    2dbc:	e8 00 00 00 00       	call   2dc1 <_Z13ImFileGetSizeP8_IO_FILE+0x49>
    2dc1:	85 c0                	test   eax,eax
    2dc3:	75 39                	jne    2dfe <_Z13ImFileGetSizeP8_IO_FILE+0x86>
    2dc5:	48 8b 45 e8          	mov    rax,QWORD PTR [rbp-0x18]
    2dc9:	48 89 c7             	mov    rdi,rax
    2dcc:	e8 00 00 00 00       	call   2dd1 <_Z13ImFileGetSizeP8_IO_FILE+0x59>
    2dd1:	48 89 45 f8          	mov    QWORD PTR [rbp-0x8],rax
    2dd5:	48 83 7d f8 ff       	cmp    QWORD PTR [rbp-0x8],0xffffffffffffffff
    2dda:	74 22                	je     2dfe <_Z13ImFileGetSizeP8_IO_FILE+0x86>
    2ddc:	48 8b 4d f0          	mov    rcx,QWORD PTR [rbp-0x10]
    2de0:	48 8b 45 e8          	mov    rax,QWORD PTR [rbp-0x18]
    2de4:	ba 00 00 00 00       	mov    edx,0x0
    2de9:	48 89 ce             	mov    rsi,rcx
    2dec:	48 89 c7             	mov    rdi,rax
    2def:	e8 00 00 00 00       	call   2df4 <_Z13ImFileGetSizeP8_IO_FILE+0x7c>
    2df4:	85 c0                	test   eax,eax
    2df6:	75 06                	jne    2dfe <_Z13ImFileGetSizeP8_IO_FILE+0x86>
    2df8:	48 8b 45 f8          	mov    rax,QWORD PTR [rbp-0x8]
    2dfc:	eb 07                	jmp    2e05 <_Z13ImFileGetSizeP8_IO_FILE+0x8d>
    2dfe:	48 c7 c0 ff ff ff ff 	mov    rax,0xffffffffffffffff
    2e05:	c9                   	leave  
    2e06:	c3                   	ret    

0000000000002e07 <_Z10ImFileReadPvyyP8_IO_FILE>:
    2e07:	55                   	push   rbp
    2e08:	48 89 e5             	mov    rbp,rsp
    2e0b:	48 83 ec 20          	sub    rsp,0x20
    2e0f:	48 89 7d f8          	mov    QWORD PTR [rbp-0x8],rdi
    2e13:	48 89 75 f0          	mov    QWORD PTR [rbp-0x10],rsi
    2e17:	48 89 55 e8          	mov    QWORD PTR [rbp-0x18],rdx
    2e1b:	48 89 4d e0          	mov    QWORD PTR [rbp-0x20],rcx
    2e1f:	48 8b 4d e0          	mov    rcx,QWORD PTR [rbp-0x20]
    2e23:	48 8b 55 e8          	mov    rdx,QWORD PTR [rbp-0x18]
    2e27:	48 8b 75 f0          	mov    rsi,QWORD PTR [rbp-0x10]
    2e2b:	48 8b 45 f8          	mov    rax,QWORD PTR [rbp-0x8]
    2e2f:	48 89 c7             	mov    rdi,rax
    2e32:	e8 00 00 00 00       	call   2e37 <_Z10ImFileReadPvyyP8_IO_FILE+0x30>
    2e37:	c9                   	leave  
    2e38:	c3                   	ret    

0000000000002e39 <_Z11ImFileWritePKvyyP8_IO_FILE>:
    2e39:	55                   	push   rbp
    2e3a:	48 89 e5             	mov    rbp,rsp
    2e3d:	48 83 ec 20          	sub    rsp,0x20
    2e41:	48 89 7d f8          	mov    QWORD PTR [rbp-0x8],rdi
    2e45:	48 89 75 f0          	mov    QWORD PTR [rbp-0x10],rsi
    2e49:	48 89 55 e8          	mov    QWORD PTR [rbp-0x18],rdx
    2e4d:	48 89 4d e0          	mov    QWORD PTR [rbp-0x20],rcx
    2e51:	48 8b 4d e0          	mov    rcx,QWORD PTR [rbp-0x20]
    2e55:	48 8b 55 e8          	mov    rdx,QWORD PTR [rbp-0x18]
    2e59:	48 8b 75 f0          	mov    rsi,QWORD PTR [rbp-0x10]
    2e5d:	48 8b 45 f8          	mov    rax,QWORD PTR [rbp-0x8]
    2e61:	48 89 c7             	mov    rdi,rax
    2e64:	e8 00 00 00 00       	call   2e69 <_Z11ImFileWritePKvyyP8_IO_FILE+0x30>
    2e69:	c9                   	leave  
    2e6a:	c3                   	ret    

0000000000002e6b <_Z18ImFileLoadToMemoryPKcS0_Pmi>:
    2e6b:	55                   	push   rbp
    2e6c:	48 89 e5             	mov    rbp,rsp
    2e6f:	48 83 ec 40          	sub    rsp,0x40
    2e73:	48 89 7d d8          	mov    QWORD PTR [rbp-0x28],rdi
    2e77:	48 89 75 d0          	mov    QWORD PTR [rbp-0x30],rsi
    2e7b:	48 89 55 c8          	mov    QWORD PTR [rbp-0x38],rdx
    2e7f:	89 4d c4             	mov    DWORD PTR [rbp-0x3c],ecx
    2e82:	48 83 7d d8 00       	cmp    QWORD PTR [rbp-0x28],0x0
    2e87:	74 07                	je     2e90 <_Z18ImFileLoadToMemoryPKcS0_Pmi+0x25>
    2e89:	48 83 7d d0 00       	cmp    QWORD PTR [rbp-0x30],0x0
    2e8e:	75 1f                	jne    2eaf <_Z18ImFileLoadToMemoryPKcS0_Pmi+0x44>
    2e90:	48 8d 0d 00 00 00 00 	lea    rcx,[rip+0x0]        # 2e97 <_Z18ImFileLoadToMemoryPKcS0_Pmi+0x2c>
    2e97:	ba e0 05 00 00       	mov    edx,0x5e0
    2e9c:	48 8d 35 00 00 00 00 	lea    rsi,[rip+0x0]        # 2ea3 <_Z18ImFileLoadToMemoryPKcS0_Pmi+0x38>
    2ea3:	48 8d 3d 00 00 00 00 	lea    rdi,[rip+0x0]        # 2eaa <_Z18ImFileLoadToMemoryPKcS0_Pmi+0x3f>
    2eaa:	e8 00 00 00 00       	call   2eaf <_Z18ImFileLoadToMemoryPKcS0_Pmi+0x44>
    2eaf:	48 83 7d c8 00       	cmp    QWORD PTR [rbp-0x38],0x0
    2eb4:	74 0b                	je     2ec1 <_Z18ImFileLoadToMemoryPKcS0_Pmi+0x56>
    2eb6:	48 8b 45 c8          	mov    rax,QWORD PTR [rbp-0x38]
    2eba:	48 c7 00 00 00 00 00 	mov    QWORD PTR [rax],0x0
    2ec1:	48 8b 55 d0          	mov    rdx,QWORD PTR [rbp-0x30]
    2ec5:	48 8b 45 d8          	mov    rax,QWORD PTR [rbp-0x28]
    2ec9:	48 89 d6             	mov    rsi,rdx
    2ecc:	48 89 c7             	mov    rdi,rax
    2ecf:	e8 00 00 00 00       	call   2ed4 <_Z18ImFileLoadToMemoryPKcS0_Pmi+0x69>
    2ed4:	48 89 45 e8          	mov    QWORD PTR [rbp-0x18],rax
    2ed8:	48 83 7d e8 00       	cmp    QWORD PTR [rbp-0x18],0x0
    2edd:	0f 94 c0             	sete   al
    2ee0:	84 c0                	test   al,al
    2ee2:	74 0a                	je     2eee <_Z18ImFileLoadToMemoryPKcS0_Pmi+0x83>
    2ee4:	b8 00 00 00 00       	mov    eax,0x0
    2ee9:	e9 ee 00 00 00       	jmp    2fdc <_Z18ImFileLoadToMemoryPKcS0_Pmi+0x171>
    2eee:	48 8b 45 e8          	mov    rax,QWORD PTR [rbp-0x18]
    2ef2:	48 89 c7             	mov    rdi,rax
    2ef5:	e8 00 00 00 00       	call   2efa <_Z18ImFileLoadToMemoryPKcS0_Pmi+0x8f>
    2efa:	48 89 45 f0          	mov    QWORD PTR [rbp-0x10],rax
    2efe:	48 83 7d f0 ff       	cmp    QWORD PTR [rbp-0x10],0xffffffffffffffff
    2f03:	75 16                	jne    2f1b <_Z18ImFileLoadToMemoryPKcS0_Pmi+0xb0>
    2f05:	48 8b 45 e8          	mov    rax,QWORD PTR [rbp-0x18]
    2f09:	48 89 c7             	mov    rdi,rax
    2f0c:	e8 00 00 00 00       	call   2f11 <_Z18ImFileLoadToMemoryPKcS0_Pmi+0xa6>
    2f11:	b8 00 00 00 00       	mov    eax,0x0
    2f16:	e9 c1 00 00 00       	jmp    2fdc <_Z18ImFileLoadToMemoryPKcS0_Pmi+0x171>
    2f1b:	8b 45 c4             	mov    eax,DWORD PTR [rbp-0x3c]
    2f1e:	48 63 d0             	movsxd rdx,eax
    2f21:	48 8b 45 f0          	mov    rax,QWORD PTR [rbp-0x10]
    2f25:	48 01 d0             	add    rax,rdx
    2f28:	48 89 c7             	mov    rdi,rax
    2f2b:	e8 00 00 00 00       	call   2f30 <_Z18ImFileLoadToMemoryPKcS0_Pmi+0xc5>
    2f30:	48 89 45 f8          	mov    QWORD PTR [rbp-0x8],rax
    2f34:	48 83 7d f8 00       	cmp    QWORD PTR [rbp-0x8],0x0
    2f39:	75 16                	jne    2f51 <_Z18ImFileLoadToMemoryPKcS0_Pmi+0xe6>
    2f3b:	48 8b 45 e8          	mov    rax,QWORD PTR [rbp-0x18]
    2f3f:	48 89 c7             	mov    rdi,rax
    2f42:	e8 00 00 00 00       	call   2f47 <_Z18ImFileLoadToMemoryPKcS0_Pmi+0xdc>
    2f47:	b8 00 00 00 00       	mov    eax,0x0
    2f4c:	e9 8b 00 00 00       	jmp    2fdc <_Z18ImFileLoadToMemoryPKcS0_Pmi+0x171>
    2f51:	48 8b 4d e8          	mov    rcx,QWORD PTR [rbp-0x18]
    2f55:	48 8b 55 f0          	mov    rdx,QWORD PTR [rbp-0x10]
    2f59:	48 8b 45 f8          	mov    rax,QWORD PTR [rbp-0x8]
    2f5d:	be 01 00 00 00       	mov    esi,0x1
    2f62:	48 89 c7             	mov    rdi,rax
    2f65:	e8 00 00 00 00       	call   2f6a <_Z18ImFileLoadToMemoryPKcS0_Pmi+0xff>
    2f6a:	48 39 45 f0          	cmp    QWORD PTR [rbp-0x10],rax
    2f6e:	0f 95 c0             	setne  al
    2f71:	84 c0                	test   al,al
    2f73:	74 1f                	je     2f94 <_Z18ImFileLoadToMemoryPKcS0_Pmi+0x129>
    2f75:	48 8b 45 e8          	mov    rax,QWORD PTR [rbp-0x18]
    2f79:	48 89 c7             	mov    rdi,rax
    2f7c:	e8 00 00 00 00       	call   2f81 <_Z18ImFileLoadToMemoryPKcS0_Pmi+0x116>
    2f81:	48 8b 45 f8          	mov    rax,QWORD PTR [rbp-0x8]
    2f85:	48 89 c7             	mov    rdi,rax
    2f88:	e8 00 00 00 00       	call   2f8d <_Z18ImFileLoadToMemoryPKcS0_Pmi+0x122>
    2f8d:	b8 00 00 00 00       	mov    eax,0x0
    2f92:	eb 48                	jmp    2fdc <_Z18ImFileLoadToMemoryPKcS0_Pmi+0x171>
    2f94:	83 7d c4 00          	cmp    DWORD PTR [rbp-0x3c],0x0
    2f98:	7e 20                	jle    2fba <_Z18ImFileLoadToMemoryPKcS0_Pmi+0x14f>
    2f9a:	8b 45 c4             	mov    eax,DWORD PTR [rbp-0x3c]
    2f9d:	48 98                	cdqe   
    2f9f:	48 8b 4d f8          	mov    rcx,QWORD PTR [rbp-0x8]
    2fa3:	48 8b 55 f0          	mov    rdx,QWORD PTR [rbp-0x10]
    2fa7:	48 01 d1             	add    rcx,rdx
    2faa:	48 89 c2             	mov    rdx,rax
    2fad:	be 00 00 00 00       	mov    esi,0x0
    2fb2:	48 89 cf             	mov    rdi,rcx
    2fb5:	e8 00 00 00 00       	call   2fba <_Z18ImFileLoadToMemoryPKcS0_Pmi+0x14f>
    2fba:	48 8b 45 e8          	mov    rax,QWORD PTR [rbp-0x18]
    2fbe:	48 89 c7             	mov    rdi,rax
    2fc1:	e8 00 00 00 00       	call   2fc6 <_Z18ImFileLoadToMemoryPKcS0_Pmi+0x15b>
    2fc6:	48 83 7d c8 00       	cmp    QWORD PTR [rbp-0x38],0x0
    2fcb:	74 0b                	je     2fd8 <_Z18ImFileLoadToMemoryPKcS0_Pmi+0x16d>
    2fcd:	48 8b 45 c8          	mov    rax,QWORD PTR [rbp-0x38]
    2fd1:	48 8b 55 f0          	mov    rdx,QWORD PTR [rbp-0x10]
    2fd5:	48 89 10             	mov    QWORD PTR [rax],rdx
    2fd8:	48 8b 45 f8          	mov    rax,QWORD PTR [rbp-0x8]
    2fdc:	c9                   	leave  
    2fdd:	c3                   	ret    

0000000000002fde <_Z18ImTextCharFromUtf8PjPKcS1_>:
    2fde:	55                   	push   rbp
    2fdf:	48 89 e5             	mov    rbp,rsp
    2fe2:	48 89 7d e8          	mov    QWORD PTR [rbp-0x18],rdi
    2fe6:	48 89 75 e0          	mov    QWORD PTR [rbp-0x20],rsi
    2fea:	48 89 55 d8          	mov    QWORD PTR [rbp-0x28],rdx
    2fee:	c7 45 f4 ff ff ff ff 	mov    DWORD PTR [rbp-0xc],0xffffffff
    2ff5:	48 8b 45 e0          	mov    rax,QWORD PTR [rbp-0x20]
    2ff9:	48 89 45 f8          	mov    QWORD PTR [rbp-0x8],rax
    2ffd:	48 8b 45 f8          	mov    rax,QWORD PTR [rbp-0x8]
    3001:	0f b6 00             	movzx  eax,BYTE PTR [rax]
    3004:	84 c0                	test   al,al
    3006:	78 28                	js     3030 <_Z18ImTextCharFromUtf8PjPKcS1_+0x52>
    3008:	48 8b 45 f8          	mov    rax,QWORD PTR [rbp-0x8]
    300c:	48 8d 50 01          	lea    rdx,[rax+0x1]
    3010:	48 89 55 f8          	mov    QWORD PTR [rbp-0x8],rdx
    3014:	0f b6 00             	movzx  eax,BYTE PTR [rax]
    3017:	0f b6 c0             	movzx  eax,al
    301a:	89 45 f4             	mov    DWORD PTR [rbp-0xc],eax
    301d:	48 8b 45 e8          	mov    rax,QWORD PTR [rbp-0x18]
    3021:	8b 55 f4             	mov    edx,DWORD PTR [rbp-0xc]
    3024:	89 10                	mov    DWORD PTR [rax],edx
    3026:	b8 01 00 00 00       	mov    eax,0x1
    302b:	e9 d1 03 00 00       	jmp    3401 <_Z18ImTextCharFromUtf8PjPKcS1_+0x423>
    3030:	48 8b 45 f8          	mov    rax,QWORD PTR [rbp-0x8]
    3034:	0f b6 00             	movzx  eax,BYTE PTR [rax]
    3037:	0f b6 c0             	movzx  eax,al
    303a:	25 e0 00 00 00       	and    eax,0xe0
    303f:	3d c0 00 00 00       	cmp    eax,0xc0
    3044:	0f 85 ac 00 00 00    	jne    30f6 <_Z18ImTextCharFromUtf8PjPKcS1_+0x118>
    304a:	48 8b 45 e8          	mov    rax,QWORD PTR [rbp-0x18]
    304e:	c7 00 fd ff 00 00    	mov    DWORD PTR [rax],0xfffd
    3054:	48 83 7d d8 00       	cmp    QWORD PTR [rbp-0x28],0x0
    3059:	74 1e                	je     3079 <_Z18ImTextCharFromUtf8PjPKcS1_+0x9b>
    305b:	48 8b 55 d8          	mov    rdx,QWORD PTR [rbp-0x28]
    305f:	48 8b 45 f8          	mov    rax,QWORD PTR [rbp-0x8]
    3063:	48 29 c2             	sub    rdx,rax
    3066:	48 89 d0             	mov    rax,rdx
    3069:	48 83 f8 01          	cmp    rax,0x1
    306d:	7f 0a                	jg     3079 <_Z18ImTextCharFromUtf8PjPKcS1_+0x9b>
    306f:	b8 01 00 00 00       	mov    eax,0x1
    3074:	e9 88 03 00 00       	jmp    3401 <_Z18ImTextCharFromUtf8PjPKcS1_+0x423>
    3079:	48 8b 45 f8          	mov    rax,QWORD PTR [rbp-0x8]
    307d:	0f b6 00             	movzx  eax,BYTE PTR [rax]
    3080:	3c c1                	cmp    al,0xc1
    3082:	77 0a                	ja     308e <_Z18ImTextCharFromUtf8PjPKcS1_+0xb0>
    3084:	b8 02 00 00 00       	mov    eax,0x2
    3089:	e9 73 03 00 00       	jmp    3401 <_Z18ImTextCharFromUtf8PjPKcS1_+0x423>
    308e:	48 8b 45 f8          	mov    rax,QWORD PTR [rbp-0x8]
    3092:	48 8d 50 01          	lea    rdx,[rax+0x1]
    3096:	48 89 55 f8          	mov    QWORD PTR [rbp-0x8],rdx
    309a:	0f b6 00             	movzx  eax,BYTE PTR [rax]
    309d:	0f b6 c0             	movzx  eax,al
    30a0:	c1 e0 06             	shl    eax,0x6
    30a3:	25 c0 07 00 00       	and    eax,0x7c0
    30a8:	89 45 f4             	mov    DWORD PTR [rbp-0xc],eax
    30ab:	48 8b 45 f8          	mov    rax,QWORD PTR [rbp-0x8]
    30af:	0f b6 00             	movzx  eax,BYTE PTR [rax]
    30b2:	0f b6 c0             	movzx  eax,al
    30b5:	25 c0 00 00 00       	and    eax,0xc0
    30ba:	3d 80 00 00 00       	cmp    eax,0x80
    30bf:	74 0a                	je     30cb <_Z18ImTextCharFromUtf8PjPKcS1_+0xed>
    30c1:	b8 02 00 00 00       	mov    eax,0x2
    30c6:	e9 36 03 00 00       	jmp    3401 <_Z18ImTextCharFromUtf8PjPKcS1_+0x423>
    30cb:	48 8b 45 f8          	mov    rax,QWORD PTR [rbp-0x8]
    30cf:	48 8d 50 01          	lea    rdx,[rax+0x1]
    30d3:	48 89 55 f8          	mov    QWORD PTR [rbp-0x8],rdx
    30d7:	0f b6 00             	movzx  eax,BYTE PTR [rax]
    30da:	0f b6 c0             	movzx  eax,al
    30dd:	83 e0 3f             	and    eax,0x3f
    30e0:	01 45 f4             	add    DWORD PTR [rbp-0xc],eax
    30e3:	48 8b 45 e8          	mov    rax,QWORD PTR [rbp-0x18]
    30e7:	8b 55 f4             	mov    edx,DWORD PTR [rbp-0xc]
    30ea:	89 10                	mov    DWORD PTR [rax],edx
    30ec:	b8 02 00 00 00       	mov    eax,0x2
    30f1:	e9 0b 03 00 00       	jmp    3401 <_Z18ImTextCharFromUtf8PjPKcS1_+0x423>
    30f6:	48 8b 45 f8          	mov    rax,QWORD PTR [rbp-0x8]
    30fa:	0f b6 00             	movzx  eax,BYTE PTR [rax]
    30fd:	0f b6 c0             	movzx  eax,al
    3100:	25 f0 00 00 00       	and    eax,0xf0
    3105:	3d e0 00 00 00       	cmp    eax,0xe0
    310a:	0f 85 2b 01 00 00    	jne    323b <_Z18ImTextCharFromUtf8PjPKcS1_+0x25d>
    3110:	48 8b 45 e8          	mov    rax,QWORD PTR [rbp-0x18]
    3114:	c7 00 fd ff 00 00    	mov    DWORD PTR [rax],0xfffd
    311a:	48 83 7d d8 00       	cmp    QWORD PTR [rbp-0x28],0x0
    311f:	74 1e                	je     313f <_Z18ImTextCharFromUtf8PjPKcS1_+0x161>
    3121:	48 8b 55 d8          	mov    rdx,QWORD PTR [rbp-0x28]
    3125:	48 8b 45 f8          	mov    rax,QWORD PTR [rbp-0x8]
    3129:	48 29 c2             	sub    rdx,rax
    312c:	48 89 d0             	mov    rax,rdx
    312f:	48 83 f8 02          	cmp    rax,0x2
    3133:	7f 0a                	jg     313f <_Z18ImTextCharFromUtf8PjPKcS1_+0x161>
    3135:	b8 01 00 00 00       	mov    eax,0x1
    313a:	e9 c2 02 00 00       	jmp    3401 <_Z18ImTextCharFromUtf8PjPKcS1_+0x423>
    313f:	48 8b 45 f8          	mov    rax,QWORD PTR [rbp-0x8]
    3143:	0f b6 00             	movzx  eax,BYTE PTR [rax]
    3146:	3c e0                	cmp    al,0xe0
    3148:	75 28                	jne    3172 <_Z18ImTextCharFromUtf8PjPKcS1_+0x194>
    314a:	48 8b 45 f8          	mov    rax,QWORD PTR [rbp-0x8]
    314e:	48 83 c0 01          	add    rax,0x1
    3152:	0f b6 00             	movzx  eax,BYTE PTR [rax]
    3155:	3c 9f                	cmp    al,0x9f
    3157:	76 0f                	jbe    3168 <_Z18ImTextCharFromUtf8PjPKcS1_+0x18a>
    3159:	48 8b 45 f8          	mov    rax,QWORD PTR [rbp-0x8]
    315d:	48 83 c0 01          	add    rax,0x1
    3161:	0f b6 00             	movzx  eax,BYTE PTR [rax]
    3164:	3c bf                	cmp    al,0xbf
    3166:	76 0a                	jbe    3172 <_Z18ImTextCharFromUtf8PjPKcS1_+0x194>
    3168:	b8 03 00 00 00       	mov    eax,0x3
    316d:	e9 8f 02 00 00       	jmp    3401 <_Z18ImTextCharFromUtf8PjPKcS1_+0x423>
    3172:	48 8b 45 f8          	mov    rax,QWORD PTR [rbp-0x8]
    3176:	0f b6 00             	movzx  eax,BYTE PTR [rax]
    3179:	3c ed                	cmp    al,0xed
    317b:	75 19                	jne    3196 <_Z18ImTextCharFromUtf8PjPKcS1_+0x1b8>
    317d:	48 8b 45 f8          	mov    rax,QWORD PTR [rbp-0x8]
    3181:	48 83 c0 01          	add    rax,0x1
    3185:	0f b6 00             	movzx  eax,BYTE PTR [rax]
    3188:	3c 9f                	cmp    al,0x9f
    318a:	76 0a                	jbe    3196 <_Z18ImTextCharFromUtf8PjPKcS1_+0x1b8>
    318c:	b8 03 00 00 00       	mov    eax,0x3
    3191:	e9 6b 02 00 00       	jmp    3401 <_Z18ImTextCharFromUtf8PjPKcS1_+0x423>
    3196:	48 8b 45 f8          	mov    rax,QWORD PTR [rbp-0x8]
    319a:	48 8d 50 01          	lea    rdx,[rax+0x1]
    319e:	48 89 55 f8          	mov    QWORD PTR [rbp-0x8],rdx
    31a2:	0f b6 00             	movzx  eax,BYTE PTR [rax]
    31a5:	0f b6 c0             	movzx  eax,al
    31a8:	c1 e0 0c             	shl    eax,0xc
    31ab:	25 00 f0 00 00       	and    eax,0xf000
    31b0:	89 45 f4             	mov    DWORD PTR [rbp-0xc],eax
    31b3:	48 8b 45 f8          	mov    rax,QWORD PTR [rbp-0x8]
    31b7:	0f b6 00             	movzx  eax,BYTE PTR [rax]
    31ba:	0f b6 c0             	movzx  eax,al
    31bd:	25 c0 00 00 00       	and    eax,0xc0
    31c2:	3d 80 00 00 00       	cmp    eax,0x80
    31c7:	74 0a                	je     31d3 <_Z18ImTextCharFromUtf8PjPKcS1_+0x1f5>
    31c9:	b8 03 00 00 00       	mov    eax,0x3
    31ce:	e9 2e 02 00 00       	jmp    3401 <_Z18ImTextCharFromUtf8PjPKcS1_+0x423>
    31d3:	48 8b 45 f8          	mov    rax,QWORD PTR [rbp-0x8]
    31d7:	48 8d 50 01          	lea    rdx,[rax+0x1]
    31db:	48 89 55 f8          	mov    QWORD PTR [rbp-0x8],rdx
    31df:	0f b6 00             	movzx  eax,BYTE PTR [rax]
    31e2:	0f b6 c0             	movzx  eax,al
    31e5:	c1 e0 06             	shl    eax,0x6
    31e8:	25 c0 0f 00 00       	and    eax,0xfc0
    31ed:	01 45 f4             	add    DWORD PTR [rbp-0xc],eax
    31f0:	48 8b 45 f8          	mov    rax,QWORD PTR [rbp-0x8]
    31f4:	0f b6 00             	movzx  eax,BYTE PTR [rax]
    31f7:	0f b6 c0             	movzx  eax,al
    31fa:	25 c0 00 00 00       	and    eax,0xc0
    31ff:	3d 80 00 00 00       	cmp    eax,0x80
    3204:	74 0a                	je     3210 <_Z18ImTextCharFromUtf8PjPKcS1_+0x232>
    3206:	b8 03 00 00 00       	mov    eax,0x3
    320b:	e9 f1 01 00 00       	jmp    3401 <_Z18ImTextCharFromUtf8PjPKcS1_+0x423>
    3210:	48 8b 45 f8          	mov    rax,QWORD PTR [rbp-0x8]
    3214:	48 8d 50 01          	lea    rdx,[rax+0x1]
    3218:	48 89 55 f8          	mov    QWORD PTR [rbp-0x8],rdx
    321c:	0f b6 00             	movzx  eax,BYTE PTR [rax]
    321f:	0f b6 c0             	movzx  eax,al
    3222:	83 e0 3f             	and    eax,0x3f
    3225:	01 45 f4             	add    DWORD PTR [rbp-0xc],eax
    3228:	48 8b 45 e8          	mov    rax,QWORD PTR [rbp-0x18]
    322c:	8b 55 f4             	mov    edx,DWORD PTR [rbp-0xc]
    322f:	89 10                	mov    DWORD PTR [rax],edx
    3231:	b8 03 00 00 00       	mov    eax,0x3
    3236:	e9 c6 01 00 00       	jmp    3401 <_Z18ImTextCharFromUtf8PjPKcS1_+0x423>
    323b:	48 8b 45 f8          	mov    rax,QWORD PTR [rbp-0x8]
    323f:	0f b6 00             	movzx  eax,BYTE PTR [rax]
    3242:	0f b6 c0             	movzx  eax,al
    3245:	25 f8 00 00 00       	and    eax,0xf8
    324a:	3d f0 00 00 00       	cmp    eax,0xf0
    324f:	0f 85 9d 01 00 00    	jne    33f2 <_Z18ImTextCharFromUtf8PjPKcS1_+0x414>
    3255:	48 8b 45 e8          	mov    rax,QWORD PTR [rbp-0x18]
    3259:	c7 00 fd ff 00 00    	mov    DWORD PTR [rax],0xfffd
    325f:	48 83 7d d8 00       	cmp    QWORD PTR [rbp-0x28],0x0
    3264:	74 1e                	je     3284 <_Z18ImTextCharFromUtf8PjPKcS1_+0x2a6>
    3266:	48 8b 55 d8          	mov    rdx,QWORD PTR [rbp-0x28]
    326a:	48 8b 45 f8          	mov    rax,QWORD PTR [rbp-0x8]
    326e:	48 29 c2             	sub    rdx,rax
    3271:	48 89 d0             	mov    rax,rdx
    3274:	48 83 f8 03          	cmp    rax,0x3
    3278:	7f 0a                	jg     3284 <_Z18ImTextCharFromUtf8PjPKcS1_+0x2a6>
    327a:	b8 01 00 00 00       	mov    eax,0x1
    327f:	e9 7d 01 00 00       	jmp    3401 <_Z18ImTextCharFromUtf8PjPKcS1_+0x423>
    3284:	48 8b 45 f8          	mov    rax,QWORD PTR [rbp-0x8]
    3288:	0f b6 00             	movzx  eax,BYTE PTR [rax]
    328b:	3c f4                	cmp    al,0xf4
    328d:	76 0a                	jbe    3299 <_Z18ImTextCharFromUtf8PjPKcS1_+0x2bb>
    328f:	b8 04 00 00 00       	mov    eax,0x4
    3294:	e9 68 01 00 00       	jmp    3401 <_Z18ImTextCharFromUtf8PjPKcS1_+0x423>
    3299:	48 8b 45 f8          	mov    rax,QWORD PTR [rbp-0x8]
    329d:	0f b6 00             	movzx  eax,BYTE PTR [rax]
    32a0:	3c f0                	cmp    al,0xf0
    32a2:	75 28                	jne    32cc <_Z18ImTextCharFromUtf8PjPKcS1_+0x2ee>
    32a4:	48 8b 45 f8          	mov    rax,QWORD PTR [rbp-0x8]
    32a8:	48 83 c0 01          	add    rax,0x1
    32ac:	0f b6 00             	movzx  eax,BYTE PTR [rax]
    32af:	3c 8f                	cmp    al,0x8f
    32b1:	76 0f                	jbe    32c2 <_Z18ImTextCharFromUtf8PjPKcS1_+0x2e4>
    32b3:	48 8b 45 f8          	mov    rax,QWORD PTR [rbp-0x8]
    32b7:	48 83 c0 01          	add    rax,0x1
    32bb:	0f b6 00             	movzx  eax,BYTE PTR [rax]
    32be:	3c bf                	cmp    al,0xbf
    32c0:	76 0a                	jbe    32cc <_Z18ImTextCharFromUtf8PjPKcS1_+0x2ee>
    32c2:	b8 04 00 00 00       	mov    eax,0x4
    32c7:	e9 35 01 00 00       	jmp    3401 <_Z18ImTextCharFromUtf8PjPKcS1_+0x423>
    32cc:	48 8b 45 f8          	mov    rax,QWORD PTR [rbp-0x8]
    32d0:	0f b6 00             	movzx  eax,BYTE PTR [rax]
    32d3:	3c f4                	cmp    al,0xf4
    32d5:	75 19                	jne    32f0 <_Z18ImTextCharFromUtf8PjPKcS1_+0x312>
    32d7:	48 8b 45 f8          	mov    rax,QWORD PTR [rbp-0x8]
    32db:	48 83 c0 01          	add    rax,0x1
    32df:	0f b6 00             	movzx  eax,BYTE PTR [rax]
    32e2:	3c 8f                	cmp    al,0x8f
    32e4:	76 0a                	jbe    32f0 <_Z18ImTextCharFromUtf8PjPKcS1_+0x312>
    32e6:	b8 04 00 00 00       	mov    eax,0x4
    32eb:	e9 11 01 00 00       	jmp    3401 <_Z18ImTextCharFromUtf8PjPKcS1_+0x423>
    32f0:	48 8b 45 f8          	mov    rax,QWORD PTR [rbp-0x8]
    32f4:	48 8d 50 01          	lea    rdx,[rax+0x1]
    32f8:	48 89 55 f8          	mov    QWORD PTR [rbp-0x8],rdx
    32fc:	0f b6 00             	movzx  eax,BYTE PTR [rax]
    32ff:	0f b6 c0             	movzx  eax,al
    3302:	c1 e0 12             	shl    eax,0x12
    3305:	25 00 00 1c 00       	and    eax,0x1c0000
    330a:	89 45 f4             	mov    DWORD PTR [rbp-0xc],eax
    330d:	48 8b 45 f8          	mov    rax,QWORD PTR [rbp-0x8]
    3311:	0f b6 00             	movzx  eax,BYTE PTR [rax]
    3314:	0f b6 c0             	movzx  eax,al
    3317:	25 c0 00 00 00       	and    eax,0xc0
    331c:	3d 80 00 00 00       	cmp    eax,0x80
    3321:	74 0a                	je     332d <_Z18ImTextCharFromUtf8PjPKcS1_+0x34f>
    3323:	b8 04 00 00 00       	mov    eax,0x4
    3328:	e9 d4 00 00 00       	jmp    3401 <_Z18ImTextCharFromUtf8PjPKcS1_+0x423>
    332d:	48 8b 45 f8          	mov    rax,QWORD PTR [rbp-0x8]
    3331:	48 8d 50 01          	lea    rdx,[rax+0x1]
    3335:	48 89 55 f8          	mov    QWORD PTR [rbp-0x8],rdx
    3339:	0f b6 00             	movzx  eax,BYTE PTR [rax]
    333c:	0f b6 c0             	movzx  eax,al
    333f:	c1 e0 0c             	shl    eax,0xc
    3342:	25 00 f0 03 00       	and    eax,0x3f000
    3347:	01 45 f4             	add    DWORD PTR [rbp-0xc],eax
    334a:	48 8b 45 f8          	mov    rax,QWORD PTR [rbp-0x8]
    334e:	0f b6 00             	movzx  eax,BYTE PTR [rax]
    3351:	0f b6 c0             	movzx  eax,al
    3354:	25 c0 00 00 00       	and    eax,0xc0
    3359:	3d 80 00 00 00       	cmp    eax,0x80
    335e:	74 0a                	je     336a <_Z18ImTextCharFromUtf8PjPKcS1_+0x38c>
    3360:	b8 04 00 00 00       	mov    eax,0x4
    3365:	e9 97 00 00 00       	jmp    3401 <_Z18ImTextCharFromUtf8PjPKcS1_+0x423>
    336a:	48 8b 45 f8          	mov    rax,QWORD PTR [rbp-0x8]
    336e:	48 8d 50 01          	lea    rdx,[rax+0x1]
    3372:	48 89 55 f8          	mov    QWORD PTR [rbp-0x8],rdx
    3376:	0f b6 00             	movzx  eax,BYTE PTR [rax]
    3379:	0f b6 c0             	movzx  eax,al
    337c:	c1 e0 06             	shl    eax,0x6
    337f:	25 c0 0f 00 00       	and    eax,0xfc0
    3384:	01 45 f4             	add    DWORD PTR [rbp-0xc],eax
    3387:	48 8b 45 f8          	mov    rax,QWORD PTR [rbp-0x8]
    338b:	0f b6 00             	movzx  eax,BYTE PTR [rax]
    338e:	0f b6 c0             	movzx  eax,al
    3391:	25 c0 00 00 00       	and    eax,0xc0
    3396:	3d 80 00 00 00       	cmp    eax,0x80
    339b:	74 07                	je     33a4 <_Z18ImTextCharFromUtf8PjPKcS1_+0x3c6>
    339d:	b8 04 00 00 00       	mov    eax,0x4
    33a2:	eb 5d                	jmp    3401 <_Z18ImTextCharFromUtf8PjPKcS1_+0x423>
    33a4:	48 8b 45 f8          	mov    rax,QWORD PTR [rbp-0x8]
    33a8:	48 8d 50 01          	lea    rdx,[rax+0x1]
    33ac:	48 89 55 f8          	mov    QWORD PTR [rbp-0x8],rdx
    33b0:	0f b6 00             	movzx  eax,BYTE PTR [rax]
    33b3:	0f b6 c0             	movzx  eax,al
    33b6:	83 e0 3f             	and    eax,0x3f
    33b9:	01 45 f4             	add    DWORD PTR [rbp-0xc],eax
    33bc:	8b 45 f4             	mov    eax,DWORD PTR [rbp-0xc]
    33bf:	25 00 f8 ff ff       	and    eax,0xfffff800
    33c4:	3d 00 d8 00 00       	cmp    eax,0xd800
    33c9:	75 07                	jne    33d2 <_Z18ImTextCharFromUtf8PjPKcS1_+0x3f4>
    33cb:	b8 04 00 00 00       	mov    eax,0x4
    33d0:	eb 2f                	jmp    3401 <_Z18ImTextCharFromUtf8PjPKcS1_+0x423>
    33d2:	81 7d f4 ff ff 00 00 	cmp    DWORD PTR [rbp-0xc],0xffff
    33d9:	76 07                	jbe    33e2 <_Z18ImTextCharFromUtf8PjPKcS1_+0x404>
    33db:	c7 45 f4 fd ff 00 00 	mov    DWORD PTR [rbp-0xc],0xfffd
    33e2:	48 8b 45 e8          	mov    rax,QWORD PTR [rbp-0x18]
    33e6:	8b 55 f4             	mov    edx,DWORD PTR [rbp-0xc]
    33e9:	89 10                	mov    DWORD PTR [rax],edx
    33eb:	b8 04 00 00 00       	mov    eax,0x4
    33f0:	eb 0f                	jmp    3401 <_Z18ImTextCharFromUtf8PjPKcS1_+0x423>
    33f2:	48 8b 45 e8          	mov    rax,QWORD PTR [rbp-0x18]
    33f6:	c7 00 00 00 00 00    	mov    DWORD PTR [rax],0x0
    33fc:	b8 00 00 00 00       	mov    eax,0x0
    3401:	5d                   	pop    rbp
    3402:	c3                   	ret    

0000000000003403 <_Z17ImTextStrFromUtf8PtiPKcS1_PS1_>:
    3403:	55                   	push   rbp
    3404:	48 89 e5             	mov    rbp,rsp
    3407:	48 83 ec 50          	sub    rsp,0x50
    340b:	48 89 7d d8          	mov    QWORD PTR [rbp-0x28],rdi
    340f:	89 75 d4             	mov    DWORD PTR [rbp-0x2c],esi
    3412:	48 89 55 c8          	mov    QWORD PTR [rbp-0x38],rdx
    3416:	48 89 4d c0          	mov    QWORD PTR [rbp-0x40],rcx
    341a:	4c 89 45 b8          	mov    QWORD PTR [rbp-0x48],r8
    341e:	64 48 8b 04 25 28 00 	mov    rax,QWORD PTR fs:0x28
    3425:	00 00 
    3427:	48 89 45 f8          	mov    QWORD PTR [rbp-0x8],rax
    342b:	31 c0                	xor    eax,eax
    342d:	48 8b 45 d8          	mov    rax,QWORD PTR [rbp-0x28]
    3431:	48 89 45 e8          	mov    QWORD PTR [rbp-0x18],rax
    3435:	8b 45 d4             	mov    eax,DWORD PTR [rbp-0x2c]
    3438:	48 98                	cdqe   
    343a:	48 8d 14 00          	lea    rdx,[rax+rax*1]
    343e:	48 8b 45 d8          	mov    rax,QWORD PTR [rbp-0x28]
    3442:	48 01 d0             	add    rax,rdx
    3445:	48 89 45 f0          	mov    QWORD PTR [rbp-0x10],rax
    3449:	48 8b 45 f0          	mov    rax,QWORD PTR [rbp-0x10]
    344d:	48 83 e8 02          	sub    rax,0x2
    3451:	48 39 45 e8          	cmp    QWORD PTR [rbp-0x18],rax
    3455:	73 57                	jae    34ae <_Z17ImTextStrFromUtf8PtiPKcS1_PS1_+0xab>
    3457:	48 83 7d c0 00       	cmp    QWORD PTR [rbp-0x40],0x0
    345c:	74 0a                	je     3468 <_Z17ImTextStrFromUtf8PtiPKcS1_PS1_+0x65>
    345e:	48 8b 45 c8          	mov    rax,QWORD PTR [rbp-0x38]
    3462:	48 3b 45 c0          	cmp    rax,QWORD PTR [rbp-0x40]
    3466:	73 46                	jae    34ae <_Z17ImTextStrFromUtf8PtiPKcS1_PS1_+0xab>
    3468:	48 8b 45 c8          	mov    rax,QWORD PTR [rbp-0x38]
    346c:	0f b6 00             	movzx  eax,BYTE PTR [rax]
    346f:	84 c0                	test   al,al
    3471:	74 3b                	je     34ae <_Z17ImTextStrFromUtf8PtiPKcS1_PS1_+0xab>
    3473:	48 8b 55 c0          	mov    rdx,QWORD PTR [rbp-0x40]
    3477:	48 8b 4d c8          	mov    rcx,QWORD PTR [rbp-0x38]
    347b:	48 8d 45 e4          	lea    rax,[rbp-0x1c]
    347f:	48 89 ce             	mov    rsi,rcx
    3482:	48 89 c7             	mov    rdi,rax
    3485:	e8 00 00 00 00       	call   348a <_Z17ImTextStrFromUtf8PtiPKcS1_PS1_+0x87>
    348a:	48 98                	cdqe   
    348c:	48 01 45 c8          	add    QWORD PTR [rbp-0x38],rax
    3490:	8b 45 e4             	mov    eax,DWORD PTR [rbp-0x1c]
    3493:	85 c0                	test   eax,eax
    3495:	74 16                	je     34ad <_Z17ImTextStrFromUtf8PtiPKcS1_PS1_+0xaa>
    3497:	8b 4d e4             	mov    ecx,DWORD PTR [rbp-0x1c]
    349a:	48 8b 45 e8          	mov    rax,QWORD PTR [rbp-0x18]
    349e:	48 8d 50 02          	lea    rdx,[rax+0x2]
    34a2:	48 89 55 e8          	mov    QWORD PTR [rbp-0x18],rdx
    34a6:	89 ca                	mov    edx,ecx
    34a8:	66 89 10             	mov    WORD PTR [rax],dx
    34ab:	eb 9c                	jmp    3449 <_Z17ImTextStrFromUtf8PtiPKcS1_PS1_+0x46>
    34ad:	90                   	nop
    34ae:	48 8b 45 e8          	mov    rax,QWORD PTR [rbp-0x18]
    34b2:	66 c7 00 00 00       	mov    WORD PTR [rax],0x0
    34b7:	48 83 7d b8 00       	cmp    QWORD PTR [rbp-0x48],0x0
    34bc:	74 0b                	je     34c9 <_Z17ImTextStrFromUtf8PtiPKcS1_PS1_+0xc6>
    34be:	48 8b 45 b8          	mov    rax,QWORD PTR [rbp-0x48]
    34c2:	48 8b 55 c8          	mov    rdx,QWORD PTR [rbp-0x38]
    34c6:	48 89 10             	mov    QWORD PTR [rax],rdx
    34c9:	48 8b 55 e8          	mov    rdx,QWORD PTR [rbp-0x18]
    34cd:	48 8b 45 d8          	mov    rax,QWORD PTR [rbp-0x28]
    34d1:	48 29 c2             	sub    rdx,rax
    34d4:	48 89 d0             	mov    rax,rdx
    34d7:	48 d1 f8             	sar    rax,1
    34da:	48 8b 75 f8          	mov    rsi,QWORD PTR [rbp-0x8]
    34de:	64 48 33 34 25 28 00 	xor    rsi,QWORD PTR fs:0x28
    34e5:	00 00 
    34e7:	74 05                	je     34ee <_Z17ImTextStrFromUtf8PtiPKcS1_PS1_+0xeb>
    34e9:	e8 00 00 00 00       	call   34ee <_Z17ImTextStrFromUtf8PtiPKcS1_PS1_+0xeb>
    34ee:	c9                   	leave  
    34ef:	c3                   	ret    

00000000000034f0 <_Z24ImTextCountCharsFromUtf8PKcS0_>:
    34f0:	55                   	push   rbp
    34f1:	48 89 e5             	mov    rbp,rsp
    34f4:	48 83 ec 20          	sub    rsp,0x20
    34f8:	48 89 7d e8          	mov    QWORD PTR [rbp-0x18],rdi
    34fc:	48 89 75 e0          	mov    QWORD PTR [rbp-0x20],rsi
    3500:	64 48 8b 04 25 28 00 	mov    rax,QWORD PTR fs:0x28
    3507:	00 00 
    3509:	48 89 45 f8          	mov    QWORD PTR [rbp-0x8],rax
    350d:	31 c0                	xor    eax,eax
    350f:	c7 45 f4 00 00 00 00 	mov    DWORD PTR [rbp-0xc],0x0
    3516:	48 83 7d e0 00       	cmp    QWORD PTR [rbp-0x20],0x0
    351b:	74 0a                	je     3527 <_Z24ImTextCountCharsFromUtf8PKcS0_+0x37>
    351d:	48 8b 45 e8          	mov    rax,QWORD PTR [rbp-0x18]
    3521:	48 3b 45 e0          	cmp    rax,QWORD PTR [rbp-0x20]
    3525:	73 36                	jae    355d <_Z24ImTextCountCharsFromUtf8PKcS0_+0x6d>
    3527:	48 8b 45 e8          	mov    rax,QWORD PTR [rbp-0x18]
    352b:	0f b6 00             	movzx  eax,BYTE PTR [rax]
    352e:	84 c0                	test   al,al
    3530:	74 2b                	je     355d <_Z24ImTextCountCharsFromUtf8PKcS0_+0x6d>
    3532:	48 8b 55 e0          	mov    rdx,QWORD PTR [rbp-0x20]
    3536:	48 8b 4d e8          	mov    rcx,QWORD PTR [rbp-0x18]
    353a:	48 8d 45 f0          	lea    rax,[rbp-0x10]
    353e:	48 89 ce             	mov    rsi,rcx
    3541:	48 89 c7             	mov    rdi,rax
    3544:	e8 00 00 00 00       	call   3549 <_Z24ImTextCountCharsFromUtf8PKcS0_+0x59>
    3549:	48 98                	cdqe   
    354b:	48 01 45 e8          	add    QWORD PTR [rbp-0x18],rax
    354f:	8b 45 f0             	mov    eax,DWORD PTR [rbp-0x10]
    3552:	85 c0                	test   eax,eax
    3554:	74 06                	je     355c <_Z24ImTextCountCharsFromUtf8PKcS0_+0x6c>
    3556:	83 45 f4 01          	add    DWORD PTR [rbp-0xc],0x1
    355a:	eb ba                	jmp    3516 <_Z24ImTextCountCharsFromUtf8PKcS0_+0x26>
    355c:	90                   	nop
    355d:	8b 45 f4             	mov    eax,DWORD PTR [rbp-0xc]
    3560:	48 8b 4d f8          	mov    rcx,QWORD PTR [rbp-0x8]
    3564:	64 48 33 0c 25 28 00 	xor    rcx,QWORD PTR fs:0x28
    356b:	00 00 
    356d:	74 05                	je     3574 <_Z24ImTextCountCharsFromUtf8PKcS0_+0x84>
    356f:	e8 00 00 00 00       	call   3574 <_Z24ImTextCountCharsFromUtf8PKcS0_+0x84>
    3574:	c9                   	leave  
    3575:	c3                   	ret    

0000000000003576 <_ZL16ImTextCharToUtf8Pcij>:
    3576:	55                   	push   rbp
    3577:	48 89 e5             	mov    rbp,rsp
    357a:	48 89 7d f8          	mov    QWORD PTR [rbp-0x8],rdi
    357e:	89 75 f4             	mov    DWORD PTR [rbp-0xc],esi
    3581:	89 55 f0             	mov    DWORD PTR [rbp-0x10],edx
    3584:	8b 45 f0             	mov    eax,DWORD PTR [rbp-0x10]
    3587:	83 f8 7f             	cmp    eax,0x7f
    358a:	77 15                	ja     35a1 <_ZL16ImTextCharToUtf8Pcij+0x2b>
    358c:	8b 45 f0             	mov    eax,DWORD PTR [rbp-0x10]
    358f:	89 c2                	mov    edx,eax
    3591:	48 8b 45 f8          	mov    rax,QWORD PTR [rbp-0x8]
    3595:	88 10                	mov    BYTE PTR [rax],dl
    3597:	b8 01 00 00 00       	mov    eax,0x1
    359c:	e9 16 01 00 00       	jmp    36b7 <_ZL16ImTextCharToUtf8Pcij+0x141>
    35a1:	8b 45 f0             	mov    eax,DWORD PTR [rbp-0x10]
    35a4:	3d ff 07 00 00       	cmp    eax,0x7ff
    35a9:	77 3e                	ja     35e9 <_ZL16ImTextCharToUtf8Pcij+0x73>
    35ab:	83 7d f4 01          	cmp    DWORD PTR [rbp-0xc],0x1
    35af:	7f 0a                	jg     35bb <_ZL16ImTextCharToUtf8Pcij+0x45>
    35b1:	b8 00 00 00 00       	mov    eax,0x0
    35b6:	e9 fc 00 00 00       	jmp    36b7 <_ZL16ImTextCharToUtf8Pcij+0x141>
    35bb:	8b 45 f0             	mov    eax,DWORD PTR [rbp-0x10]
    35be:	c1 e8 06             	shr    eax,0x6
    35c1:	83 e8 40             	sub    eax,0x40
    35c4:	89 c2                	mov    edx,eax
    35c6:	48 8b 45 f8          	mov    rax,QWORD PTR [rbp-0x8]
    35ca:	88 10                	mov    BYTE PTR [rax],dl
    35cc:	8b 45 f0             	mov    eax,DWORD PTR [rbp-0x10]
    35cf:	83 e0 3f             	and    eax,0x3f
    35d2:	8d 50 80             	lea    edx,[rax-0x80]
    35d5:	48 8b 45 f8          	mov    rax,QWORD PTR [rbp-0x8]
    35d9:	48 83 c0 01          	add    rax,0x1
    35dd:	88 10                	mov    BYTE PTR [rax],dl
    35df:	b8 02 00 00 00       	mov    eax,0x2
    35e4:	e9 ce 00 00 00       	jmp    36b7 <_ZL16ImTextCharToUtf8Pcij+0x141>
    35e9:	8b 45 f0             	mov    eax,DWORD PTR [rbp-0x10]
    35ec:	3d ff ff 00 00       	cmp    eax,0xffff
    35f1:	77 51                	ja     3644 <_ZL16ImTextCharToUtf8Pcij+0xce>
    35f3:	83 7d f4 02          	cmp    DWORD PTR [rbp-0xc],0x2
    35f7:	7f 0a                	jg     3603 <_ZL16ImTextCharToUtf8Pcij+0x8d>
    35f9:	b8 00 00 00 00       	mov    eax,0x0
    35fe:	e9 b4 00 00 00       	jmp    36b7 <_ZL16ImTextCharToUtf8Pcij+0x141>
    3603:	8b 45 f0             	mov    eax,DWORD PTR [rbp-0x10]
    3606:	c1 e8 0c             	shr    eax,0xc
    3609:	83 e8 20             	sub    eax,0x20
    360c:	89 c2                	mov    edx,eax
    360e:	48 8b 45 f8          	mov    rax,QWORD PTR [rbp-0x8]
    3612:	88 10                	mov    BYTE PTR [rax],dl
    3614:	8b 45 f0             	mov    eax,DWORD PTR [rbp-0x10]
    3617:	c1 e8 06             	shr    eax,0x6
    361a:	83 e0 3f             	and    eax,0x3f
    361d:	8d 50 80             	lea    edx,[rax-0x80]
    3620:	48 8b 45 f8          	mov    rax,QWORD PTR [rbp-0x8]
    3624:	48 83 c0 01          	add    rax,0x1
    3628:	88 10                	mov    BYTE PTR [rax],dl
    362a:	8b 45 f0             	mov    eax,DWORD PTR [rbp-0x10]
    362d:	83 e0 3f             	and    eax,0x3f
    3630:	8d 50 80             	lea    edx,[rax-0x80]
    3633:	48 8b 45 f8          	mov    rax,QWORD PTR [rbp-0x8]
    3637:	48 83 c0 02          	add    rax,0x2
    363b:	88 10                	mov    BYTE PTR [rax],dl
    363d:	b8 03 00 00 00       	mov    eax,0x3
    3642:	eb 73                	jmp    36b7 <_ZL16ImTextCharToUtf8Pcij+0x141>
    3644:	8b 45 f0             	mov    eax,DWORD PTR [rbp-0x10]
    3647:	3d ff ff 10 00       	cmp    eax,0x10ffff
    364c:	77 64                	ja     36b2 <_ZL16ImTextCharToUtf8Pcij+0x13c>
    364e:	83 7d f4 03          	cmp    DWORD PTR [rbp-0xc],0x3
    3652:	7f 07                	jg     365b <_ZL16ImTextCharToUtf8Pcij+0xe5>
    3654:	b8 00 00 00 00       	mov    eax,0x0
    3659:	eb 5c                	jmp    36b7 <_ZL16ImTextCharToUtf8Pcij+0x141>
    365b:	8b 45 f0             	mov    eax,DWORD PTR [rbp-0x10]
    365e:	c1 e8 12             	shr    eax,0x12
    3661:	83 e8 10             	sub    eax,0x10
    3664:	89 c2                	mov    edx,eax
    3666:	48 8b 45 f8          	mov    rax,QWORD PTR [rbp-0x8]
    366a:	88 10                	mov    BYTE PTR [rax],dl
    366c:	8b 45 f0             	mov    eax,DWORD PTR [rbp-0x10]
    366f:	c1 e8 0c             	shr    eax,0xc
    3672:	83 e0 3f             	and    eax,0x3f
    3675:	8d 50 80             	lea    edx,[rax-0x80]
    3678:	48 8b 45 f8          	mov    rax,QWORD PTR [rbp-0x8]
    367c:	48 83 c0 01          	add    rax,0x1
    3680:	88 10                	mov    BYTE PTR [rax],dl
    3682:	8b 45 f0             	mov    eax,DWORD PTR [rbp-0x10]
    3685:	c1 e8 06             	shr    eax,0x6
    3688:	83 e0 3f             	and    eax,0x3f
    368b:	8d 50 80             	lea    edx,[rax-0x80]
    368e:	48 8b 45 f8          	mov    rax,QWORD PTR [rbp-0x8]
    3692:	48 83 c0 02          	add    rax,0x2
    3696:	88 10                	mov    BYTE PTR [rax],dl
    3698:	8b 45 f0             	mov    eax,DWORD PTR [rbp-0x10]
    369b:	83 e0 3f             	and    eax,0x3f
    369e:	8d 50 80             	lea    edx,[rax-0x80]
    36a1:	48 8b 45 f8          	mov    rax,QWORD PTR [rbp-0x8]
    36a5:	48 83 c0 03          	add    rax,0x3
    36a9:	88 10                	mov    BYTE PTR [rax],dl
    36ab:	b8 04 00 00 00       	mov    eax,0x4
    36b0:	eb 05                	jmp    36b7 <_ZL16ImTextCharToUtf8Pcij+0x141>
    36b2:	b8 00 00 00 00       	mov    eax,0x0
    36b7:	5d                   	pop    rbp
    36b8:	c3                   	ret    

00000000000036b9 <_Z28ImTextCountUtf8BytesFromCharPKcS0_>:
    36b9:	55                   	push   rbp
    36ba:	48 89 e5             	mov    rbp,rsp
    36bd:	48 83 ec 20          	sub    rsp,0x20
    36c1:	48 89 7d e8          	mov    QWORD PTR [rbp-0x18],rdi
    36c5:	48 89 75 e0          	mov    QWORD PTR [rbp-0x20],rsi
    36c9:	64 48 8b 04 25 28 00 	mov    rax,QWORD PTR fs:0x28
    36d0:	00 00 
    36d2:	48 89 45 f8          	mov    QWORD PTR [rbp-0x8],rax
    36d6:	31 c0                	xor    eax,eax
    36d8:	c7 45 f4 00 00 00 00 	mov    DWORD PTR [rbp-0xc],0x0
    36df:	48 8b 55 e0          	mov    rdx,QWORD PTR [rbp-0x20]
    36e3:	48 8b 4d e8          	mov    rcx,QWORD PTR [rbp-0x18]
    36e7:	48 8d 45 f4          	lea    rax,[rbp-0xc]
    36eb:	48 89 ce             	mov    rsi,rcx
    36ee:	48 89 c7             	mov    rdi,rax
    36f1:	e8 00 00 00 00       	call   36f6 <_Z28ImTextCountUtf8BytesFromCharPKcS0_+0x3d>
    36f6:	48 8b 4d f8          	mov    rcx,QWORD PTR [rbp-0x8]
    36fa:	64 48 33 0c 25 28 00 	xor    rcx,QWORD PTR fs:0x28
    3701:	00 00 
    3703:	74 05                	je     370a <_Z28ImTextCountUtf8BytesFromCharPKcS0_+0x51>
    3705:	e8 00 00 00 00       	call   370a <_Z28ImTextCountUtf8BytesFromCharPKcS0_+0x51>
    370a:	c9                   	leave  
    370b:	c3                   	ret    

000000000000370c <_ZL28ImTextCountUtf8BytesFromCharj>:
    370c:	55                   	push   rbp
    370d:	48 89 e5             	mov    rbp,rsp
    3710:	89 7d fc             	mov    DWORD PTR [rbp-0x4],edi
    3713:	83 7d fc 7f          	cmp    DWORD PTR [rbp-0x4],0x7f
    3717:	77 07                	ja     3720 <_ZL28ImTextCountUtf8BytesFromCharj+0x14>
    3719:	b8 01 00 00 00       	mov    eax,0x1
    371e:	eb 35                	jmp    3755 <_ZL28ImTextCountUtf8BytesFromCharj+0x49>
    3720:	81 7d fc ff 07 00 00 	cmp    DWORD PTR [rbp-0x4],0x7ff
    3727:	77 07                	ja     3730 <_ZL28ImTextCountUtf8BytesFromCharj+0x24>
    3729:	b8 02 00 00 00       	mov    eax,0x2
    372e:	eb 25                	jmp    3755 <_ZL28ImTextCountUtf8BytesFromCharj+0x49>
    3730:	81 7d fc ff ff 00 00 	cmp    DWORD PTR [rbp-0x4],0xffff
    3737:	77 07                	ja     3740 <_ZL28ImTextCountUtf8BytesFromCharj+0x34>
    3739:	b8 03 00 00 00       	mov    eax,0x3
    373e:	eb 15                	jmp    3755 <_ZL28ImTextCountUtf8BytesFromCharj+0x49>
    3740:	81 7d fc ff ff 10 00 	cmp    DWORD PTR [rbp-0x4],0x10ffff
    3747:	77 07                	ja     3750 <_ZL28ImTextCountUtf8BytesFromCharj+0x44>
    3749:	b8 04 00 00 00       	mov    eax,0x4
    374e:	eb 05                	jmp    3755 <_ZL28ImTextCountUtf8BytesFromCharj+0x49>
    3750:	b8 03 00 00 00       	mov    eax,0x3
    3755:	5d                   	pop    rbp
    3756:	c3                   	ret    

0000000000003757 <_Z15ImTextStrToUtf8PciPKtS1_>:
    3757:	55                   	push   rbp
    3758:	48 89 e5             	mov    rbp,rsp
    375b:	48 83 ec 40          	sub    rsp,0x40
    375f:	48 89 7d d8          	mov    QWORD PTR [rbp-0x28],rdi
    3763:	89 75 d4             	mov    DWORD PTR [rbp-0x2c],esi
    3766:	48 89 55 c8          	mov    QWORD PTR [rbp-0x38],rdx
    376a:	48 89 4d c0          	mov    QWORD PTR [rbp-0x40],rcx
    376e:	48 8b 45 d8          	mov    rax,QWORD PTR [rbp-0x28]
    3772:	48 89 45 f0          	mov    QWORD PTR [rbp-0x10],rax
    3776:	8b 45 d4             	mov    eax,DWORD PTR [rbp-0x2c]
    3779:	48 63 d0             	movsxd rdx,eax
    377c:	48 8b 45 d8          	mov    rax,QWORD PTR [rbp-0x28]
    3780:	48 01 d0             	add    rax,rdx
    3783:	48 89 45 f8          	mov    QWORD PTR [rbp-0x8],rax
    3787:	48 8b 45 f8          	mov    rax,QWORD PTR [rbp-0x8]
    378b:	48 83 e8 01          	sub    rax,0x1
    378f:	48 39 45 f0          	cmp    QWORD PTR [rbp-0x10],rax
    3793:	73 7a                	jae    380f <_Z15ImTextStrToUtf8PciPKtS1_+0xb8>
    3795:	48 83 7d c0 00       	cmp    QWORD PTR [rbp-0x40],0x0
    379a:	74 0a                	je     37a6 <_Z15ImTextStrToUtf8PciPKtS1_+0x4f>
    379c:	48 8b 45 c8          	mov    rax,QWORD PTR [rbp-0x38]
    37a0:	48 3b 45 c0          	cmp    rax,QWORD PTR [rbp-0x40]
    37a4:	73 69                	jae    380f <_Z15ImTextStrToUtf8PciPKtS1_+0xb8>
    37a6:	48 8b 45 c8          	mov    rax,QWORD PTR [rbp-0x38]
    37aa:	0f b7 00             	movzx  eax,WORD PTR [rax]
    37ad:	66 85 c0             	test   ax,ax
    37b0:	74 5d                	je     380f <_Z15ImTextStrToUtf8PciPKtS1_+0xb8>
    37b2:	48 8b 45 c8          	mov    rax,QWORD PTR [rbp-0x38]
    37b6:	48 8d 50 02          	lea    rdx,[rax+0x2]
    37ba:	48 89 55 c8          	mov    QWORD PTR [rbp-0x38],rdx
    37be:	0f b7 00             	movzx  eax,WORD PTR [rax]
    37c1:	0f b7 c0             	movzx  eax,ax
    37c4:	89 45 ec             	mov    DWORD PTR [rbp-0x14],eax
    37c7:	83 7d ec 7f          	cmp    DWORD PTR [rbp-0x14],0x7f
    37cb:	77 13                	ja     37e0 <_Z15ImTextStrToUtf8PciPKtS1_+0x89>
    37cd:	48 8b 45 f0          	mov    rax,QWORD PTR [rbp-0x10]
    37d1:	48 8d 50 01          	lea    rdx,[rax+0x1]
    37d5:	48 89 55 f0          	mov    QWORD PTR [rbp-0x10],rdx
    37d9:	8b 55 ec             	mov    edx,DWORD PTR [rbp-0x14]
    37dc:	88 10                	mov    BYTE PTR [rax],dl
    37de:	eb a7                	jmp    3787 <_Z15ImTextStrToUtf8PciPKtS1_+0x30>
    37e0:	48 8b 55 f8          	mov    rdx,QWORD PTR [rbp-0x8]
    37e4:	48 8b 45 f0          	mov    rax,QWORD PTR [rbp-0x10]
    37e8:	48 29 c2             	sub    rdx,rax
    37eb:	48 89 d0             	mov    rax,rdx
    37ee:	83 e8 01             	sub    eax,0x1
    37f1:	89 c1                	mov    ecx,eax
    37f3:	8b 55 ec             	mov    edx,DWORD PTR [rbp-0x14]
    37f6:	48 8b 45 f0          	mov    rax,QWORD PTR [rbp-0x10]
    37fa:	89 ce                	mov    esi,ecx
    37fc:	48 89 c7             	mov    rdi,rax
    37ff:	e8 72 fd ff ff       	call   3576 <_ZL16ImTextCharToUtf8Pcij>
    3804:	48 98                	cdqe   
    3806:	48 01 45 f0          	add    QWORD PTR [rbp-0x10],rax
    380a:	e9 78 ff ff ff       	jmp    3787 <_Z15ImTextStrToUtf8PciPKtS1_+0x30>
    380f:	48 8b 45 f0          	mov    rax,QWORD PTR [rbp-0x10]
    3813:	c6 00 00             	mov    BYTE PTR [rax],0x0
    3816:	48 8b 55 f0          	mov    rdx,QWORD PTR [rbp-0x10]
    381a:	48 8b 45 d8          	mov    rax,QWORD PTR [rbp-0x28]
    381e:	48 29 c2             	sub    rdx,rax
    3821:	48 89 d0             	mov    rax,rdx
    3824:	c9                   	leave  
    3825:	c3                   	ret    

0000000000003826 <_Z27ImTextCountUtf8BytesFromStrPKtS0_>:
    3826:	55                   	push   rbp
    3827:	48 89 e5             	mov    rbp,rsp
    382a:	48 83 ec 20          	sub    rsp,0x20
    382e:	48 89 7d e8          	mov    QWORD PTR [rbp-0x18],rdi
    3832:	48 89 75 e0          	mov    QWORD PTR [rbp-0x20],rsi
    3836:	c7 45 f8 00 00 00 00 	mov    DWORD PTR [rbp-0x8],0x0
    383d:	48 83 7d e0 00       	cmp    QWORD PTR [rbp-0x20],0x0
    3842:	74 0a                	je     384e <_Z27ImTextCountUtf8BytesFromStrPKtS0_+0x28>
    3844:	48 8b 45 e8          	mov    rax,QWORD PTR [rbp-0x18]
    3848:	48 3b 45 e0          	cmp    rax,QWORD PTR [rbp-0x20]
    384c:	73 3c                	jae    388a <_Z27ImTextCountUtf8BytesFromStrPKtS0_+0x64>
    384e:	48 8b 45 e8          	mov    rax,QWORD PTR [rbp-0x18]
    3852:	0f b7 00             	movzx  eax,WORD PTR [rax]
    3855:	66 85 c0             	test   ax,ax
    3858:	74 30                	je     388a <_Z27ImTextCountUtf8BytesFromStrPKtS0_+0x64>
    385a:	48 8b 45 e8          	mov    rax,QWORD PTR [rbp-0x18]
    385e:	48 8d 50 02          	lea    rdx,[rax+0x2]
    3862:	48 89 55 e8          	mov    QWORD PTR [rbp-0x18],rdx
    3866:	0f b7 00             	movzx  eax,WORD PTR [rax]
    3869:	0f b7 c0             	movzx  eax,ax
    386c:	89 45 fc             	mov    DWORD PTR [rbp-0x4],eax
    386f:	83 7d fc 7f          	cmp    DWORD PTR [rbp-0x4],0x7f
    3873:	77 06                	ja     387b <_Z27ImTextCountUtf8BytesFromStrPKtS0_+0x55>
    3875:	83 45 f8 01          	add    DWORD PTR [rbp-0x8],0x1
    3879:	eb c2                	jmp    383d <_Z27ImTextCountUtf8BytesFromStrPKtS0_+0x17>
    387b:	8b 45 fc             	mov    eax,DWORD PTR [rbp-0x4]
    387e:	89 c7                	mov    edi,eax
    3880:	e8 87 fe ff ff       	call   370c <_ZL28ImTextCountUtf8BytesFromCharj>
    3885:	01 45 f8             	add    DWORD PTR [rbp-0x8],eax
    3888:	eb b3                	jmp    383d <_Z27ImTextCountUtf8BytesFromStrPKtS0_+0x17>
    388a:	8b 45 f8             	mov    eax,DWORD PTR [rbp-0x8]
    388d:	c9                   	leave  
    388e:	c3                   	ret    

000000000000388f <_Z18ImAlphaBlendColorsjj>:
    388f:	55                   	push   rbp
    3890:	48 89 e5             	mov    rbp,rsp
    3893:	48 83 ec 30          	sub    rsp,0x30
    3897:	89 7d dc             	mov    DWORD PTR [rbp-0x24],edi
    389a:	89 75 d8             	mov    DWORD PTR [rbp-0x28],esi
    389d:	64 48 8b 04 25 28 00 	mov    rax,QWORD PTR fs:0x28
    38a4:	00 00 
    38a6:	48 89 45 f8          	mov    QWORD PTR [rbp-0x8],rax
    38aa:	31 c0                	xor    eax,eax
    38ac:	8b 45 d8             	mov    eax,DWORD PTR [rbp-0x28]
    38af:	c1 e8 18             	shr    eax,0x18
    38b2:	89 c0                	mov    eax,eax
    38b4:	48 85 c0             	test   rax,rax
    38b7:	78 07                	js     38c0 <_Z18ImAlphaBlendColorsjj+0x31>
    38b9:	f3 48 0f 2a c0       	cvtsi2ss xmm0,rax
    38be:	eb 15                	jmp    38d5 <_Z18ImAlphaBlendColorsjj+0x46>
    38c0:	48 89 c2             	mov    rdx,rax
    38c3:	48 d1 ea             	shr    rdx,1
    38c6:	83 e0 01             	and    eax,0x1
    38c9:	48 09 c2             	or     rdx,rax
    38cc:	f3 48 0f 2a c2       	cvtsi2ss xmm0,rdx
    38d1:	f3 0f 58 c0          	addss  xmm0,xmm0
    38d5:	f3 0f 10 0d 00 00 00 	movss  xmm1,DWORD PTR [rip+0x0]        # 38dd <_Z18ImAlphaBlendColorsjj+0x4e>
    38dc:	00 
    38dd:	f3 0f 5e c1          	divss  xmm0,xmm1
    38e1:	f3 0f 11 45 f4       	movss  DWORD PTR [rbp-0xc],xmm0
    38e6:	8b 45 d8             	mov    eax,DWORD PTR [rbp-0x28]
    38e9:	0f b6 d0             	movzx  edx,al
    38ec:	8b 45 dc             	mov    eax,DWORD PTR [rbp-0x24]
    38ef:	0f b6 c0             	movzx  eax,al
    38f2:	8b 4d f4             	mov    ecx,DWORD PTR [rbp-0xc]
    38f5:	89 4d d4             	mov    DWORD PTR [rbp-0x2c],ecx
    38f8:	f3 0f 10 45 d4       	movss  xmm0,DWORD PTR [rbp-0x2c]
    38fd:	89 d6                	mov    esi,edx
    38ff:	89 c7                	mov    edi,eax
    3901:	e8 9b 23 02 00       	call   25ca1 <_Z6ImLerpIiET_S0_S0_f>
    3906:	89 45 e8             	mov    DWORD PTR [rbp-0x18],eax
    3909:	8b 45 d8             	mov    eax,DWORD PTR [rbp-0x28]
    390c:	c1 e8 08             	shr    eax,0x8
    390f:	0f b6 d0             	movzx  edx,al
    3912:	8b 45 dc             	mov    eax,DWORD PTR [rbp-0x24]
    3915:	c1 e8 08             	shr    eax,0x8
    3918:	0f b6 c0             	movzx  eax,al
    391b:	8b 4d f4             	mov    ecx,DWORD PTR [rbp-0xc]
    391e:	89 4d d4             	mov    DWORD PTR [rbp-0x2c],ecx
    3921:	f3 0f 10 45 d4       	movss  xmm0,DWORD PTR [rbp-0x2c]
    3926:	89 d6                	mov    esi,edx
    3928:	89 c7                	mov    edi,eax
    392a:	e8 72 23 02 00       	call   25ca1 <_Z6ImLerpIiET_S0_S0_f>
    392f:	89 45 ec             	mov    DWORD PTR [rbp-0x14],eax
    3932:	8b 45 d8             	mov    eax,DWORD PTR [rbp-0x28]
    3935:	c1 e8 10             	shr    eax,0x10
    3938:	0f b6 d0             	movzx  edx,al
    393b:	8b 45 dc             	mov    eax,DWORD PTR [rbp-0x24]
    393e:	c1 e8 10             	shr    eax,0x10
    3941:	0f b6 c0             	movzx  eax,al
    3944:	8b 4d f4             	mov    ecx,DWORD PTR [rbp-0xc]
    3947:	89 4d d4             	mov    DWORD PTR [rbp-0x2c],ecx
    394a:	f3 0f 10 45 d4       	movss  xmm0,DWORD PTR [rbp-0x2c]
    394f:	89 d6                	mov    esi,edx
    3951:	89 c7                	mov    edi,eax
    3953:	e8 49 23 02 00       	call   25ca1 <_Z6ImLerpIiET_S0_S0_f>
    3958:	89 45 f0             	mov    DWORD PTR [rbp-0x10],eax
    395b:	8b 45 f0             	mov    eax,DWORD PTR [rbp-0x10]
    395e:	c1 e0 10             	shl    eax,0x10
    3961:	89 c2                	mov    edx,eax
    3963:	8b 45 ec             	mov    eax,DWORD PTR [rbp-0x14]
    3966:	c1 e0 08             	shl    eax,0x8
    3969:	09 c2                	or     edx,eax
    396b:	8b 45 e8             	mov    eax,DWORD PTR [rbp-0x18]
    396e:	09 d0                	or     eax,edx
    3970:	0d 00 00 00 ff       	or     eax,0xff000000
    3975:	48 8b 75 f8          	mov    rsi,QWORD PTR [rbp-0x8]
    3979:	64 48 33 34 25 28 00 	xor    rsi,QWORD PTR fs:0x28
    3980:	00 00 
    3982:	74 05                	je     3989 <_Z18ImAlphaBlendColorsjj+0xfa>
    3984:	e8 00 00 00 00       	call   3989 <_Z18ImAlphaBlendColorsjj+0xfa>
    3989:	c9                   	leave  
    398a:	c3                   	ret    

000000000000398b <_ZN5ImGui23ColorConvertU32ToFloat4Ej>:
    398b:	55                   	push   rbp
    398c:	48 89 e5             	mov    rbp,rsp
    398f:	53                   	push   rbx
    3990:	48 83 ec 48          	sub    rsp,0x48
    3994:	89 7d bc             	mov    DWORD PTR [rbp-0x44],edi
    3997:	64 48 8b 04 25 28 00 	mov    rax,QWORD PTR fs:0x28
    399e:	00 00 
    39a0:	48 89 45 e8          	mov    QWORD PTR [rbp-0x18],rax
    39a4:	31 c0                	xor    eax,eax
    39a6:	f3 0f 10 05 00 00 00 	movss  xmm0,DWORD PTR [rip+0x0]        # 39ae <_ZN5ImGui23ColorConvertU32ToFloat4Ej+0x23>
    39ad:	00 
    39ae:	f3 0f 11 45 cc       	movss  DWORD PTR [rbp-0x34],xmm0
    39b3:	8b 45 bc             	mov    eax,DWORD PTR [rbp-0x44]
    39b6:	c1 e8 18             	shr    eax,0x18
    39b9:	89 c0                	mov    eax,eax
    39bb:	48 85 c0             	test   rax,rax
    39be:	78 07                	js     39c7 <_ZN5ImGui23ColorConvertU32ToFloat4Ej+0x3c>
    39c0:	f3 48 0f 2a c0       	cvtsi2ss xmm0,rax
    39c5:	eb 15                	jmp    39dc <_ZN5ImGui23ColorConvertU32ToFloat4Ej+0x51>
    39c7:	48 89 c2             	mov    rdx,rax
    39ca:	48 d1 ea             	shr    rdx,1
    39cd:	83 e0 01             	and    eax,0x1
    39d0:	48 09 c2             	or     rdx,rax
    39d3:	f3 48 0f 2a c2       	cvtsi2ss xmm0,rdx
    39d8:	f3 0f 58 c0          	addss  xmm0,xmm0
    39dc:	0f 28 d8             	movaps xmm3,xmm0
    39df:	f3 0f 59 5d cc       	mulss  xmm3,DWORD PTR [rbp-0x34]
    39e4:	8b 45 bc             	mov    eax,DWORD PTR [rbp-0x44]
    39e7:	c1 e8 10             	shr    eax,0x10
    39ea:	0f b6 c0             	movzx  eax,al
    39ed:	89 c0                	mov    eax,eax
    39ef:	48 85 c0             	test   rax,rax
    39f2:	78 07                	js     39fb <_ZN5ImGui23ColorConvertU32ToFloat4Ej+0x70>
    39f4:	f3 48 0f 2a c0       	cvtsi2ss xmm0,rax
    39f9:	eb 15                	jmp    3a10 <_ZN5ImGui23ColorConvertU32ToFloat4Ej+0x85>
    39fb:	48 89 c2             	mov    rdx,rax
    39fe:	48 d1 ea             	shr    rdx,1
    3a01:	83 e0 01             	and    eax,0x1
    3a04:	48 09 c2             	or     rdx,rax
    3a07:	f3 48 0f 2a c2       	cvtsi2ss xmm0,rdx
    3a0c:	f3 0f 58 c0          	addss  xmm0,xmm0
    3a10:	0f 28 d0             	movaps xmm2,xmm0
    3a13:	f3 0f 59 55 cc       	mulss  xmm2,DWORD PTR [rbp-0x34]
    3a18:	8b 45 bc             	mov    eax,DWORD PTR [rbp-0x44]
    3a1b:	c1 e8 08             	shr    eax,0x8
    3a1e:	0f b6 c0             	movzx  eax,al
    3a21:	89 c0                	mov    eax,eax
    3a23:	48 85 c0             	test   rax,rax
    3a26:	78 07                	js     3a2f <_ZN5ImGui23ColorConvertU32ToFloat4Ej+0xa4>
    3a28:	f3 48 0f 2a c0       	cvtsi2ss xmm0,rax
    3a2d:	eb 15                	jmp    3a44 <_ZN5ImGui23ColorConvertU32ToFloat4Ej+0xb9>
    3a2f:	48 89 c2             	mov    rdx,rax
    3a32:	48 d1 ea             	shr    rdx,1
    3a35:	83 e0 01             	and    eax,0x1
    3a38:	48 09 c2             	or     rdx,rax
    3a3b:	f3 48 0f 2a c2       	cvtsi2ss xmm0,rdx
    3a40:	f3 0f 58 c0          	addss  xmm0,xmm0
    3a44:	0f 28 c8             	movaps xmm1,xmm0
    3a47:	f3 0f 59 4d cc       	mulss  xmm1,DWORD PTR [rbp-0x34]
    3a4c:	8b 45 bc             	mov    eax,DWORD PTR [rbp-0x44]
    3a4f:	0f b6 c0             	movzx  eax,al
    3a52:	89 c0                	mov    eax,eax
    3a54:	48 85 c0             	test   rax,rax
    3a57:	78 07                	js     3a60 <_ZN5ImGui23ColorConvertU32ToFloat4Ej+0xd5>
    3a59:	f3 48 0f 2a c0       	cvtsi2ss xmm0,rax
    3a5e:	eb 15                	jmp    3a75 <_ZN5ImGui23ColorConvertU32ToFloat4Ej+0xea>
    3a60:	48 89 c2             	mov    rdx,rax
    3a63:	48 d1 ea             	shr    rdx,1
    3a66:	83 e0 01             	and    eax,0x1
    3a69:	48 09 c2             	or     rdx,rax
    3a6c:	f3 48 0f 2a c2       	cvtsi2ss xmm0,rdx
    3a71:	f3 0f 58 c0          	addss  xmm0,xmm0
    3a75:	f3 0f 59 45 cc       	mulss  xmm0,DWORD PTR [rbp-0x34]
    3a7a:	48 8d 45 d0          	lea    rax,[rbp-0x30]
    3a7e:	48 89 c7             	mov    rdi,rax
    3a81:	e8 00 00 00 00       	call   3a86 <_ZN5ImGui23ColorConvertU32ToFloat4Ej+0xfb>
    3a86:	48 8b 45 d0          	mov    rax,QWORD PTR [rbp-0x30]
    3a8a:	48 8b 55 d8          	mov    rdx,QWORD PTR [rbp-0x28]
    3a8e:	48 89 c1             	mov    rcx,rax
    3a91:	48 89 d3             	mov    rbx,rdx
    3a94:	48 89 d0             	mov    rax,rdx
    3a97:	48 89 4d b0          	mov    QWORD PTR [rbp-0x50],rcx
    3a9b:	f3 0f 7e 45 b0       	movq   xmm0,QWORD PTR [rbp-0x50]
    3aa0:	48 89 45 b0          	mov    QWORD PTR [rbp-0x50],rax
    3aa4:	f3 0f 7e 4d b0       	movq   xmm1,QWORD PTR [rbp-0x50]
    3aa9:	48 8b 45 e8          	mov    rax,QWORD PTR [rbp-0x18]
    3aad:	64 48 33 04 25 28 00 	xor    rax,QWORD PTR fs:0x28
    3ab4:	00 00 
    3ab6:	74 05                	je     3abd <_ZN5ImGui23ColorConvertU32ToFloat4Ej+0x132>
    3ab8:	e8 00 00 00 00       	call   3abd <_ZN5ImGui23ColorConvertU32ToFloat4Ej+0x132>
    3abd:	48 83 c4 48          	add    rsp,0x48
    3ac1:	5b                   	pop    rbx
    3ac2:	5d                   	pop    rbp
    3ac3:	c3                   	ret    

0000000000003ac4 <_ZN5ImGui23ColorConvertFloat4ToU32ERK6ImVec4>:
    3ac4:	55                   	push   rbp
    3ac5:	48 89 e5             	mov    rbp,rsp
    3ac8:	48 83 ec 20          	sub    rsp,0x20
    3acc:	48 89 7d e8          	mov    QWORD PTR [rbp-0x18],rdi
    3ad0:	48 8b 45 e8          	mov    rax,QWORD PTR [rbp-0x18]
    3ad4:	8b 00                	mov    eax,DWORD PTR [rax]
    3ad6:	89 45 e4             	mov    DWORD PTR [rbp-0x1c],eax
    3ad9:	f3 0f 10 45 e4       	movss  xmm0,DWORD PTR [rbp-0x1c]
    3ade:	e8 ec cb ff ff       	call   6cf <_ZL10ImSaturatef>
    3ae3:	0f 28 c8             	movaps xmm1,xmm0
    3ae6:	f3 0f 10 05 00 00 00 	movss  xmm0,DWORD PTR [rip+0x0]        # 3aee <_ZN5ImGui23ColorConvertFloat4ToU32ERK6ImVec4+0x2a>
    3aed:	00 
    3aee:	f3 0f 59 c1          	mulss  xmm0,xmm1
    3af2:	f3 0f 10 0d 00 00 00 	movss  xmm1,DWORD PTR [rip+0x0]        # 3afa <_ZN5ImGui23ColorConvertFloat4ToU32ERK6ImVec4+0x36>
    3af9:	00 
    3afa:	f3 0f 58 c1          	addss  xmm0,xmm1
    3afe:	f3 0f 2c c0          	cvttss2si eax,xmm0
    3b02:	89 45 fc             	mov    DWORD PTR [rbp-0x4],eax
    3b05:	48 8b 45 e8          	mov    rax,QWORD PTR [rbp-0x18]
    3b09:	8b 40 04             	mov    eax,DWORD PTR [rax+0x4]
    3b0c:	89 45 e4             	mov    DWORD PTR [rbp-0x1c],eax
    3b0f:	f3 0f 10 45 e4       	movss  xmm0,DWORD PTR [rbp-0x1c]
    3b14:	e8 b6 cb ff ff       	call   6cf <_ZL10ImSaturatef>
    3b19:	0f 28 c8             	movaps xmm1,xmm0
    3b1c:	f3 0f 10 05 00 00 00 	movss  xmm0,DWORD PTR [rip+0x0]        # 3b24 <_ZN5ImGui23ColorConvertFloat4ToU32ERK6ImVec4+0x60>
    3b23:	00 
    3b24:	f3 0f 59 c1          	mulss  xmm0,xmm1
    3b28:	f3 0f 10 0d 00 00 00 	movss  xmm1,DWORD PTR [rip+0x0]        # 3b30 <_ZN5ImGui23ColorConvertFloat4ToU32ERK6ImVec4+0x6c>
    3b2f:	00 
    3b30:	f3 0f 58 c1          	addss  xmm0,xmm1
    3b34:	f3 0f 2c c0          	cvttss2si eax,xmm0
    3b38:	c1 e0 08             	shl    eax,0x8
    3b3b:	09 45 fc             	or     DWORD PTR [rbp-0x4],eax
    3b3e:	48 8b 45 e8          	mov    rax,QWORD PTR [rbp-0x18]
    3b42:	8b 40 08             	mov    eax,DWORD PTR [rax+0x8]
    3b45:	89 45 e4             	mov    DWORD PTR [rbp-0x1c],eax
    3b48:	f3 0f 10 45 e4       	movss  xmm0,DWORD PTR [rbp-0x1c]
    3b4d:	e8 7d cb ff ff       	call   6cf <_ZL10ImSaturatef>
    3b52:	0f 28 c8             	movaps xmm1,xmm0
    3b55:	f3 0f 10 05 00 00 00 	movss  xmm0,DWORD PTR [rip+0x0]        # 3b5d <_ZN5ImGui23ColorConvertFloat4ToU32ERK6ImVec4+0x99>
    3b5c:	00 
    3b5d:	f3 0f 59 c1          	mulss  xmm0,xmm1
    3b61:	f3 0f 10 0d 00 00 00 	movss  xmm1,DWORD PTR [rip+0x0]        # 3b69 <_ZN5ImGui23ColorConvertFloat4ToU32ERK6ImVec4+0xa5>
    3b68:	00 
    3b69:	f3 0f 58 c1          	addss  xmm0,xmm1
    3b6d:	f3 0f 2c c0          	cvttss2si eax,xmm0
    3b71:	c1 e0 10             	shl    eax,0x10
    3b74:	09 45 fc             	or     DWORD PTR [rbp-0x4],eax
    3b77:	48 8b 45 e8          	mov    rax,QWORD PTR [rbp-0x18]
    3b7b:	8b 40 0c             	mov    eax,DWORD PTR [rax+0xc]
    3b7e:	89 45 e4             	mov    DWORD PTR [rbp-0x1c],eax
    3b81:	f3 0f 10 45 e4       	movss  xmm0,DWORD PTR [rbp-0x1c]
    3b86:	e8 44 cb ff ff       	call   6cf <_ZL10ImSaturatef>
    3b8b:	0f 28 c8             	movaps xmm1,xmm0
    3b8e:	f3 0f 10 05 00 00 00 	movss  xmm0,DWORD PTR [rip+0x0]        # 3b96 <_ZN5ImGui23ColorConvertFloat4ToU32ERK6ImVec4+0xd2>
    3b95:	00 
    3b96:	f3 0f 59 c1          	mulss  xmm0,xmm1
    3b9a:	f3 0f 10 0d 00 00 00 	movss  xmm1,DWORD PTR [rip+0x0]        # 3ba2 <_ZN5ImGui23ColorConvertFloat4ToU32ERK6ImVec4+0xde>
    3ba1:	00 
    3ba2:	f3 0f 58 c1          	addss  xmm0,xmm1
    3ba6:	f3 0f 2c c0          	cvttss2si eax,xmm0
    3baa:	c1 e0 18             	shl    eax,0x18
    3bad:	09 45 fc             	or     DWORD PTR [rbp-0x4],eax
    3bb0:	8b 45 fc             	mov    eax,DWORD PTR [rbp-0x4]
    3bb3:	c9                   	leave  
    3bb4:	c3                   	ret    

0000000000003bb5 <_ZN5ImGui20ColorConvertRGBtoHSVEfffRfS0_S0_>:
    3bb5:	55                   	push   rbp
    3bb6:	48 89 e5             	mov    rbp,rsp
    3bb9:	48 83 ec 40          	sub    rsp,0x40
    3bbd:	f3 0f 11 45 ec       	movss  DWORD PTR [rbp-0x14],xmm0
    3bc2:	f3 0f 11 4d e8       	movss  DWORD PTR [rbp-0x18],xmm1
    3bc7:	f3 0f 11 55 e4       	movss  DWORD PTR [rbp-0x1c],xmm2
    3bcc:	48 89 7d d8          	mov    QWORD PTR [rbp-0x28],rdi
    3bd0:	48 89 75 d0          	mov    QWORD PTR [rbp-0x30],rsi
    3bd4:	48 89 55 c8          	mov    QWORD PTR [rbp-0x38],rdx
    3bd8:	66 0f ef c0          	pxor   xmm0,xmm0
    3bdc:	f3 0f 11 45 f8       	movss  DWORD PTR [rbp-0x8],xmm0
    3be1:	f3 0f 10 4d e8       	movss  xmm1,DWORD PTR [rbp-0x18]
    3be6:	f3 0f 10 45 e4       	movss  xmm0,DWORD PTR [rbp-0x1c]
    3beb:	0f 2e c1             	ucomiss xmm0,xmm1
    3bee:	76 20                	jbe    3c10 <_ZN5ImGui20ColorConvertRGBtoHSVEfffRfS0_S0_+0x5b>
    3bf0:	48 8d 55 e4          	lea    rdx,[rbp-0x1c]
    3bf4:	48 8d 45 e8          	lea    rax,[rbp-0x18]
    3bf8:	48 89 d6             	mov    rsi,rdx
    3bfb:	48 89 c7             	mov    rdi,rax
    3bfe:	e8 cb 20 02 00       	call   25cce <_Z6ImSwapIfEvRT_S1_>
    3c03:	f3 0f 10 05 00 00 00 	movss  xmm0,DWORD PTR [rip+0x0]        # 3c0b <_ZN5ImGui20ColorConvertRGBtoHSVEfffRfS0_S0_+0x56>
    3c0a:	00 
    3c0b:	f3 0f 11 45 f8       	movss  DWORD PTR [rbp-0x8],xmm0
    3c10:	f3 0f 10 4d ec       	movss  xmm1,DWORD PTR [rbp-0x14]
    3c15:	f3 0f 10 45 e8       	movss  xmm0,DWORD PTR [rbp-0x18]
    3c1a:	0f 2e c1             	ucomiss xmm0,xmm1
    3c1d:	76 25                	jbe    3c44 <_ZN5ImGui20ColorConvertRGBtoHSVEfffRfS0_S0_+0x8f>
    3c1f:	48 8d 55 e8          	lea    rdx,[rbp-0x18]
    3c23:	48 8d 45 ec          	lea    rax,[rbp-0x14]
    3c27:	48 89 d6             	mov    rsi,rdx
    3c2a:	48 89 c7             	mov    rdi,rax
    3c2d:	e8 9c 20 02 00       	call   25cce <_Z6ImSwapIfEvRT_S1_>
    3c32:	f3 0f 10 05 00 00 00 	movss  xmm0,DWORD PTR [rip+0x0]        # 3c3a <_ZN5ImGui20ColorConvertRGBtoHSVEfffRfS0_S0_+0x85>
    3c39:	00 
    3c3a:	f3 0f 5c 45 f8       	subss  xmm0,DWORD PTR [rbp-0x8]
    3c3f:	f3 0f 11 45 f8       	movss  DWORD PTR [rbp-0x8],xmm0
    3c44:	f3 0f 10 4d ec       	movss  xmm1,DWORD PTR [rbp-0x14]
    3c49:	f3 0f 10 55 e8       	movss  xmm2,DWORD PTR [rbp-0x18]
    3c4e:	f3 0f 10 45 e4       	movss  xmm0,DWORD PTR [rbp-0x1c]
    3c53:	0f 2e c2             	ucomiss xmm0,xmm2
    3c56:	76 07                	jbe    3c5f <_ZN5ImGui20ColorConvertRGBtoHSVEfffRfS0_S0_+0xaa>
    3c58:	f3 0f 10 45 e8       	movss  xmm0,DWORD PTR [rbp-0x18]
    3c5d:	eb 05                	jmp    3c64 <_ZN5ImGui20ColorConvertRGBtoHSVEfffRfS0_S0_+0xaf>
    3c5f:	f3 0f 10 45 e4       	movss  xmm0,DWORD PTR [rbp-0x1c]
    3c64:	f3 0f 5c c8          	subss  xmm1,xmm0
    3c68:	0f 28 c1             	movaps xmm0,xmm1
    3c6b:	f3 0f 11 45 fc       	movss  DWORD PTR [rbp-0x4],xmm0
    3c70:	f3 0f 10 45 e8       	movss  xmm0,DWORD PTR [rbp-0x18]
    3c75:	f3 0f 10 4d e4       	movss  xmm1,DWORD PTR [rbp-0x1c]
    3c7a:	f3 0f 5c c1          	subss  xmm0,xmm1
    3c7e:	f3 0f 10 55 fc       	movss  xmm2,DWORD PTR [rbp-0x4]
    3c83:	f3 0f 10 0d 00 00 00 	movss  xmm1,DWORD PTR [rip+0x0]        # 3c8b <_ZN5ImGui20ColorConvertRGBtoHSVEfffRfS0_S0_+0xd6>
    3c8a:	00 
    3c8b:	f3 0f 59 ca          	mulss  xmm1,xmm2
    3c8f:	f3 0f 10 15 00 00 00 	movss  xmm2,DWORD PTR [rip+0x0]        # 3c97 <_ZN5ImGui20ColorConvertRGBtoHSVEfffRfS0_S0_+0xe2>
    3c96:	00 
    3c97:	f3 0f 58 ca          	addss  xmm1,xmm2
    3c9b:	f3 0f 5e c1          	divss  xmm0,xmm1
    3c9f:	f3 0f 58 45 f8       	addss  xmm0,DWORD PTR [rbp-0x8]
    3ca4:	f3 0f 10 0d 00 00 00 	movss  xmm1,DWORD PTR [rip+0x0]        # 3cac <_ZN5ImGui20ColorConvertRGBtoHSVEfffRfS0_S0_+0xf7>
    3cab:	00 
    3cac:	0f 54 c1             	andps  xmm0,xmm1
    3caf:	48 8b 45 d8          	mov    rax,QWORD PTR [rbp-0x28]
    3cb3:	f3 0f 11 00          	movss  DWORD PTR [rax],xmm0
    3cb7:	f3 0f 10 4d ec       	movss  xmm1,DWORD PTR [rbp-0x14]
    3cbc:	f3 0f 10 05 00 00 00 	movss  xmm0,DWORD PTR [rip+0x0]        # 3cc4 <_ZN5ImGui20ColorConvertRGBtoHSVEfffRfS0_S0_+0x10f>
    3cc3:	00 
    3cc4:	f3 0f 58 c1          	addss  xmm0,xmm1
    3cc8:	f3 0f 10 4d fc       	movss  xmm1,DWORD PTR [rbp-0x4]
    3ccd:	f3 0f 5e c8          	divss  xmm1,xmm0
    3cd1:	0f 28 c1             	movaps xmm0,xmm1
    3cd4:	48 8b 45 d0          	mov    rax,QWORD PTR [rbp-0x30]
    3cd8:	f3 0f 11 00          	movss  DWORD PTR [rax],xmm0
    3cdc:	f3 0f 10 45 ec       	movss  xmm0,DWORD PTR [rbp-0x14]
    3ce1:	48 8b 45 c8          	mov    rax,QWORD PTR [rbp-0x38]
    3ce5:	f3 0f 11 00          	movss  DWORD PTR [rax],xmm0
    3ce9:	90                   	nop
    3cea:	c9                   	leave  
    3ceb:	c3                   	ret    

0000000000003cec <_ZN5ImGui20ColorConvertHSVtoRGBEfffRfS0_S0_>:
    3cec:	55                   	push   rbp
    3ced:	48 89 e5             	mov    rbp,rsp
    3cf0:	48 83 ec 50          	sub    rsp,0x50
    3cf4:	f3 0f 11 45 dc       	movss  DWORD PTR [rbp-0x24],xmm0
    3cf9:	f3 0f 11 4d d8       	movss  DWORD PTR [rbp-0x28],xmm1
    3cfe:	f3 0f 11 55 d4       	movss  DWORD PTR [rbp-0x2c],xmm2
    3d03:	48 89 7d c8          	mov    QWORD PTR [rbp-0x38],rdi
    3d07:	48 89 75 c0          	mov    QWORD PTR [rbp-0x40],rsi
    3d0b:	48 89 55 b8          	mov    QWORD PTR [rbp-0x48],rdx
    3d0f:	66 0f ef c0          	pxor   xmm0,xmm0
    3d13:	0f 2e 45 d8          	ucomiss xmm0,DWORD PTR [rbp-0x28]
    3d17:	7a 3c                	jp     3d55 <_ZN5ImGui20ColorConvertHSVtoRGBEfffRfS0_S0_+0x69>
    3d19:	66 0f ef c0          	pxor   xmm0,xmm0
    3d1d:	0f 2e 45 d8          	ucomiss xmm0,DWORD PTR [rbp-0x28]
    3d21:	75 32                	jne    3d55 <_ZN5ImGui20ColorConvertHSVtoRGBEfffRfS0_S0_+0x69>
    3d23:	48 8b 45 b8          	mov    rax,QWORD PTR [rbp-0x48]
    3d27:	f3 0f 10 45 d4       	movss  xmm0,DWORD PTR [rbp-0x2c]
    3d2c:	f3 0f 11 00          	movss  DWORD PTR [rax],xmm0
    3d30:	48 8b 45 b8          	mov    rax,QWORD PTR [rbp-0x48]
    3d34:	f3 0f 10 00          	movss  xmm0,DWORD PTR [rax]
    3d38:	48 8b 45 c0          	mov    rax,QWORD PTR [rbp-0x40]
    3d3c:	f3 0f 11 00          	movss  DWORD PTR [rax],xmm0
    3d40:	48 8b 45 c0          	mov    rax,QWORD PTR [rbp-0x40]
    3d44:	f3 0f 10 00          	movss  xmm0,DWORD PTR [rax]
    3d48:	48 8b 45 c8          	mov    rax,QWORD PTR [rbp-0x38]
    3d4c:	f3 0f 11 00          	movss  DWORD PTR [rax],xmm0
