
/home/denis/reps/denis-belov/c-test/xgk/build/gnu-x64/o/imgui_draw.o:     file format elf64-x86-64


Disassembly of section .text:

0000000000000000 <_ZL17ImUpperPowerOfTwoi>:
       0:	55                   	push   rbp
       1:	48 89 e5             	mov    rbp,rsp
       4:	89 7d fc             	mov    DWORD PTR [rbp-0x4],edi
       7:	83 6d fc 01          	sub    DWORD PTR [rbp-0x4],0x1
       b:	8b 45 fc             	mov    eax,DWORD PTR [rbp-0x4]
       e:	d1 f8                	sar    eax,1
      10:	09 45 fc             	or     DWORD PTR [rbp-0x4],eax
      13:	8b 45 fc             	mov    eax,DWORD PTR [rbp-0x4]
      16:	c1 f8 02             	sar    eax,0x2
      19:	09 45 fc             	or     DWORD PTR [rbp-0x4],eax
      1c:	8b 45 fc             	mov    eax,DWORD PTR [rbp-0x4]
      1f:	c1 f8 04             	sar    eax,0x4
      22:	09 45 fc             	or     DWORD PTR [rbp-0x4],eax
      25:	8b 45 fc             	mov    eax,DWORD PTR [rbp-0x4]
      28:	c1 f8 08             	sar    eax,0x8
      2b:	09 45 fc             	or     DWORD PTR [rbp-0x4],eax
      2e:	8b 45 fc             	mov    eax,DWORD PTR [rbp-0x4]
      31:	c1 f8 10             	sar    eax,0x10
      34:	09 45 fc             	or     DWORD PTR [rbp-0x4],eax
      37:	83 45 fc 01          	add    DWORD PTR [rbp-0x4],0x1
      3b:	8b 45 fc             	mov    eax,DWORD PTR [rbp-0x4]
      3e:	5d                   	pop    rbp
      3f:	c3                   	ret    

0000000000000040 <_ZL14ImCharIsBlankAc>:
      40:	55                   	push   rbp
      41:	48 89 e5             	mov    rbp,rsp
      44:	89 f8                	mov    eax,edi
      46:	88 45 fc             	mov    BYTE PTR [rbp-0x4],al
      49:	80 7d fc 20          	cmp    BYTE PTR [rbp-0x4],0x20
      4d:	74 06                	je     55 <_ZL14ImCharIsBlankAc+0x15>
      4f:	80 7d fc 09          	cmp    BYTE PTR [rbp-0x4],0x9
      53:	75 07                	jne    5c <_ZL14ImCharIsBlankAc+0x1c>
      55:	b8 01 00 00 00       	mov    eax,0x1
      5a:	eb 05                	jmp    61 <_ZL14ImCharIsBlankAc+0x21>
      5c:	b8 00 00 00 00       	mov    eax,0x0
      61:	5d                   	pop    rbp
      62:	c3                   	ret    

0000000000000063 <_ZL14ImCharIsBlankWj>:
      63:	55                   	push   rbp
      64:	48 89 e5             	mov    rbp,rsp
      67:	89 7d fc             	mov    DWORD PTR [rbp-0x4],edi
      6a:	83 7d fc 20          	cmp    DWORD PTR [rbp-0x4],0x20
      6e:	74 0f                	je     7f <_ZL14ImCharIsBlankWj+0x1c>
      70:	83 7d fc 09          	cmp    DWORD PTR [rbp-0x4],0x9
      74:	74 09                	je     7f <_ZL14ImCharIsBlankWj+0x1c>
      76:	81 7d fc 00 30 00 00 	cmp    DWORD PTR [rbp-0x4],0x3000
      7d:	75 07                	jne    86 <_ZL14ImCharIsBlankWj+0x23>
      7f:	b8 01 00 00 00       	mov    eax,0x1
      84:	eb 05                	jmp    8b <_ZL14ImCharIsBlankWj+0x28>
      86:	b8 00 00 00 00       	mov    eax,0x0
      8b:	5d                   	pop    rbp
      8c:	c3                   	ret    

000000000000008d <_ZmlRK6ImVec2f>:
      8d:	55                   	push   rbp
      8e:	48 89 e5             	mov    rbp,rsp
      91:	48 83 ec 30          	sub    rsp,0x30
      95:	48 89 7d e8          	mov    QWORD PTR [rbp-0x18],rdi
      99:	f3 0f 11 45 e4       	movss  DWORD PTR [rbp-0x1c],xmm0
      9e:	64 48 8b 04 25 28 00 	mov    rax,QWORD PTR fs:0x28
      a5:	00 00 
      a7:	48 89 45 f8          	mov    QWORD PTR [rbp-0x8],rax
      ab:	31 c0                	xor    eax,eax
      ad:	48 8b 45 e8          	mov    rax,QWORD PTR [rbp-0x18]
      b1:	f3 0f 10 40 04       	movss  xmm0,DWORD PTR [rax+0x4]
      b6:	0f 28 c8             	movaps xmm1,xmm0
      b9:	f3 0f 59 4d e4       	mulss  xmm1,DWORD PTR [rbp-0x1c]
      be:	48 8b 45 e8          	mov    rax,QWORD PTR [rbp-0x18]
      c2:	f3 0f 10 00          	movss  xmm0,DWORD PTR [rax]
      c6:	f3 0f 59 45 e4       	mulss  xmm0,DWORD PTR [rbp-0x1c]
      cb:	48 8d 45 f0          	lea    rax,[rbp-0x10]
      cf:	48 89 c7             	mov    rdi,rax
      d2:	e8 00 00 00 00       	call   d7 <_ZmlRK6ImVec2f+0x4a>
      d7:	48 8b 45 f0          	mov    rax,QWORD PTR [rbp-0x10]
      db:	48 89 45 d8          	mov    QWORD PTR [rbp-0x28],rax
      df:	f3 0f 7e 45 d8       	movq   xmm0,QWORD PTR [rbp-0x28]
      e4:	48 8b 45 f8          	mov    rax,QWORD PTR [rbp-0x8]
      e8:	64 48 33 04 25 28 00 	xor    rax,QWORD PTR fs:0x28
      ef:	00 00 
      f1:	74 05                	je     f8 <_ZmlRK6ImVec2f+0x6b>
      f3:	e8 00 00 00 00       	call   f8 <_ZmlRK6ImVec2f+0x6b>
      f8:	c9                   	leave  
      f9:	c3                   	ret    

00000000000000fa <_ZplRK6ImVec2S1_>:
      fa:	55                   	push   rbp
      fb:	48 89 e5             	mov    rbp,rsp
      fe:	48 83 ec 30          	sub    rsp,0x30
     102:	48 89 7d e8          	mov    QWORD PTR [rbp-0x18],rdi
     106:	48 89 75 e0          	mov    QWORD PTR [rbp-0x20],rsi
     10a:	64 48 8b 04 25 28 00 	mov    rax,QWORD PTR fs:0x28
     111:	00 00 
     113:	48 89 45 f8          	mov    QWORD PTR [rbp-0x8],rax
     117:	31 c0                	xor    eax,eax
     119:	48 8b 45 e8          	mov    rax,QWORD PTR [rbp-0x18]
     11d:	f3 0f 10 48 04       	movss  xmm1,DWORD PTR [rax+0x4]
     122:	48 8b 45 e0          	mov    rax,QWORD PTR [rbp-0x20]
     126:	f3 0f 10 40 04       	movss  xmm0,DWORD PTR [rax+0x4]
     12b:	0f 28 d1             	movaps xmm2,xmm1
     12e:	f3 0f 58 d0          	addss  xmm2,xmm0
     132:	48 8b 45 e8          	mov    rax,QWORD PTR [rbp-0x18]
     136:	f3 0f 10 08          	movss  xmm1,DWORD PTR [rax]
     13a:	48 8b 45 e0          	mov    rax,QWORD PTR [rbp-0x20]
     13e:	f3 0f 10 00          	movss  xmm0,DWORD PTR [rax]
     142:	f3 0f 58 c1          	addss  xmm0,xmm1
     146:	48 8d 45 f0          	lea    rax,[rbp-0x10]
     14a:	0f 28 ca             	movaps xmm1,xmm2
     14d:	48 89 c7             	mov    rdi,rax
     150:	e8 00 00 00 00       	call   155 <_ZplRK6ImVec2S1_+0x5b>
     155:	48 8b 45 f0          	mov    rax,QWORD PTR [rbp-0x10]
     159:	48 89 45 d8          	mov    QWORD PTR [rbp-0x28],rax
     15d:	f3 0f 7e 45 d8       	movq   xmm0,QWORD PTR [rbp-0x28]
     162:	48 8b 45 f8          	mov    rax,QWORD PTR [rbp-0x8]
     166:	64 48 33 04 25 28 00 	xor    rax,QWORD PTR fs:0x28
     16d:	00 00 
     16f:	74 05                	je     176 <_ZplRK6ImVec2S1_+0x7c>
     171:	e8 00 00 00 00       	call   176 <_ZplRK6ImVec2S1_+0x7c>
     176:	c9                   	leave  
     177:	c3                   	ret    

0000000000000178 <_ZmiRK6ImVec2S1_>:
     178:	55                   	push   rbp
     179:	48 89 e5             	mov    rbp,rsp
     17c:	48 83 ec 30          	sub    rsp,0x30
     180:	48 89 7d e8          	mov    QWORD PTR [rbp-0x18],rdi
     184:	48 89 75 e0          	mov    QWORD PTR [rbp-0x20],rsi
     188:	64 48 8b 04 25 28 00 	mov    rax,QWORD PTR fs:0x28
     18f:	00 00 
     191:	48 89 45 f8          	mov    QWORD PTR [rbp-0x8],rax
     195:	31 c0                	xor    eax,eax
     197:	48 8b 45 e8          	mov    rax,QWORD PTR [rbp-0x18]
     19b:	f3 0f 10 40 04       	movss  xmm0,DWORD PTR [rax+0x4]
     1a0:	48 8b 45 e0          	mov    rax,QWORD PTR [rbp-0x20]
     1a4:	f3 0f 10 48 04       	movss  xmm1,DWORD PTR [rax+0x4]
     1a9:	0f 28 d0             	movaps xmm2,xmm0
     1ac:	f3 0f 5c d1          	subss  xmm2,xmm1
     1b0:	48 8b 45 e8          	mov    rax,QWORD PTR [rbp-0x18]
     1b4:	f3 0f 10 00          	movss  xmm0,DWORD PTR [rax]
     1b8:	48 8b 45 e0          	mov    rax,QWORD PTR [rbp-0x20]
     1bc:	f3 0f 10 08          	movss  xmm1,DWORD PTR [rax]
     1c0:	f3 0f 5c c1          	subss  xmm0,xmm1
     1c4:	48 8d 45 f0          	lea    rax,[rbp-0x10]
     1c8:	0f 28 ca             	movaps xmm1,xmm2
     1cb:	48 89 c7             	mov    rdi,rax
     1ce:	e8 00 00 00 00       	call   1d3 <_ZmiRK6ImVec2S1_+0x5b>
     1d3:	48 8b 45 f0          	mov    rax,QWORD PTR [rbp-0x10]
     1d7:	48 89 45 d8          	mov    QWORD PTR [rbp-0x28],rax
     1db:	f3 0f 7e 45 d8       	movq   xmm0,QWORD PTR [rbp-0x28]
     1e0:	48 8b 45 f8          	mov    rax,QWORD PTR [rbp-0x8]
     1e4:	64 48 33 04 25 28 00 	xor    rax,QWORD PTR fs:0x28
     1eb:	00 00 
     1ed:	74 05                	je     1f4 <_ZmiRK6ImVec2S1_+0x7c>
     1ef:	e8 00 00 00 00       	call   1f4 <_ZmiRK6ImVec2S1_+0x7c>
     1f4:	c9                   	leave  
     1f5:	c3                   	ret    

00000000000001f6 <_ZmlRK6ImVec2S1_>:
     1f6:	55                   	push   rbp
     1f7:	48 89 e5             	mov    rbp,rsp
     1fa:	48 83 ec 30          	sub    rsp,0x30
     1fe:	48 89 7d e8          	mov    QWORD PTR [rbp-0x18],rdi
     202:	48 89 75 e0          	mov    QWORD PTR [rbp-0x20],rsi
     206:	64 48 8b 04 25 28 00 	mov    rax,QWORD PTR fs:0x28
     20d:	00 00 
     20f:	48 89 45 f8          	mov    QWORD PTR [rbp-0x8],rax
     213:	31 c0                	xor    eax,eax
     215:	48 8b 45 e8          	mov    rax,QWORD PTR [rbp-0x18]
     219:	f3 0f 10 48 04       	movss  xmm1,DWORD PTR [rax+0x4]
     21e:	48 8b 45 e0          	mov    rax,QWORD PTR [rbp-0x20]
     222:	f3 0f 10 40 04       	movss  xmm0,DWORD PTR [rax+0x4]
     227:	0f 28 d1             	movaps xmm2,xmm1
     22a:	f3 0f 59 d0          	mulss  xmm2,xmm0
     22e:	48 8b 45 e8          	mov    rax,QWORD PTR [rbp-0x18]
     232:	f3 0f 10 08          	movss  xmm1,DWORD PTR [rax]
     236:	48 8b 45 e0          	mov    rax,QWORD PTR [rbp-0x20]
     23a:	f3 0f 10 00          	movss  xmm0,DWORD PTR [rax]
     23e:	f3 0f 59 c1          	mulss  xmm0,xmm1
     242:	48 8d 45 f0          	lea    rax,[rbp-0x10]
     246:	0f 28 ca             	movaps xmm1,xmm2
     249:	48 89 c7             	mov    rdi,rax
     24c:	e8 00 00 00 00       	call   251 <_ZmlRK6ImVec2S1_+0x5b>
     251:	48 8b 45 f0          	mov    rax,QWORD PTR [rbp-0x10]
     255:	48 89 45 d8          	mov    QWORD PTR [rbp-0x28],rax
     259:	f3 0f 7e 45 d8       	movq   xmm0,QWORD PTR [rbp-0x28]
     25e:	48 8b 45 f8          	mov    rax,QWORD PTR [rbp-0x8]
     262:	64 48 33 04 25 28 00 	xor    rax,QWORD PTR fs:0x28
     269:	00 00 
     26b:	74 05                	je     272 <_ZmlRK6ImVec2S1_+0x7c>
     26d:	e8 00 00 00 00       	call   272 <_ZmlRK6ImVec2S1_+0x7c>
     272:	c9                   	leave  
     273:	c3                   	ret    

0000000000000274 <_ZpLR6ImVec2RKS_>:
     274:	55                   	push   rbp
     275:	48 89 e5             	mov    rbp,rsp
     278:	48 89 7d f8          	mov    QWORD PTR [rbp-0x8],rdi
     27c:	48 89 75 f0          	mov    QWORD PTR [rbp-0x10],rsi
     280:	48 8b 45 f8          	mov    rax,QWORD PTR [rbp-0x8]
     284:	f3 0f 10 08          	movss  xmm1,DWORD PTR [rax]
     288:	48 8b 45 f0          	mov    rax,QWORD PTR [rbp-0x10]
     28c:	f3 0f 10 00          	movss  xmm0,DWORD PTR [rax]
     290:	f3 0f 58 c1          	addss  xmm0,xmm1
     294:	48 8b 45 f8          	mov    rax,QWORD PTR [rbp-0x8]
     298:	f3 0f 11 00          	movss  DWORD PTR [rax],xmm0
     29c:	48 8b 45 f8          	mov    rax,QWORD PTR [rbp-0x8]
     2a0:	f3 0f 10 48 04       	movss  xmm1,DWORD PTR [rax+0x4]
     2a5:	48 8b 45 f0          	mov    rax,QWORD PTR [rbp-0x10]
     2a9:	f3 0f 10 40 04       	movss  xmm0,DWORD PTR [rax+0x4]
     2ae:	f3 0f 58 c1          	addss  xmm0,xmm1
     2b2:	48 8b 45 f8          	mov    rax,QWORD PTR [rbp-0x8]
     2b6:	f3 0f 11 40 04       	movss  DWORD PTR [rax+0x4],xmm0
     2bb:	48 8b 45 f8          	mov    rax,QWORD PTR [rbp-0x8]
     2bf:	5d                   	pop    rbp
     2c0:	c3                   	ret    

00000000000002c1 <_ZmIR6ImVec2RKS_>:
     2c1:	55                   	push   rbp
     2c2:	48 89 e5             	mov    rbp,rsp
     2c5:	48 89 7d f8          	mov    QWORD PTR [rbp-0x8],rdi
     2c9:	48 89 75 f0          	mov    QWORD PTR [rbp-0x10],rsi
     2cd:	48 8b 45 f8          	mov    rax,QWORD PTR [rbp-0x8]
     2d1:	f3 0f 10 00          	movss  xmm0,DWORD PTR [rax]
     2d5:	48 8b 45 f0          	mov    rax,QWORD PTR [rbp-0x10]
     2d9:	f3 0f 10 08          	movss  xmm1,DWORD PTR [rax]
     2dd:	f3 0f 5c c1          	subss  xmm0,xmm1
     2e1:	48 8b 45 f8          	mov    rax,QWORD PTR [rbp-0x8]
     2e5:	f3 0f 11 00          	movss  DWORD PTR [rax],xmm0
     2e9:	48 8b 45 f8          	mov    rax,QWORD PTR [rbp-0x8]
     2ed:	f3 0f 10 40 04       	movss  xmm0,DWORD PTR [rax+0x4]
     2f2:	48 8b 45 f0          	mov    rax,QWORD PTR [rbp-0x10]
     2f6:	f3 0f 10 48 04       	movss  xmm1,DWORD PTR [rax+0x4]
     2fb:	f3 0f 5c c1          	subss  xmm0,xmm1
     2ff:	48 8b 45 f8          	mov    rax,QWORD PTR [rbp-0x8]
     303:	f3 0f 11 40 04       	movss  DWORD PTR [rax+0x4],xmm0
     308:	48 8b 45 f8          	mov    rax,QWORD PTR [rbp-0x8]
     30c:	5d                   	pop    rbp
     30d:	c3                   	ret    

000000000000030e <_ZL5ImPowff>:
     30e:	55                   	push   rbp
     30f:	48 89 e5             	mov    rbp,rsp
     312:	48 83 ec 10          	sub    rsp,0x10
     316:	f3 0f 11 45 fc       	movss  DWORD PTR [rbp-0x4],xmm0
     31b:	f3 0f 11 4d f8       	movss  DWORD PTR [rbp-0x8],xmm1
     320:	f3 0f 10 45 f8       	movss  xmm0,DWORD PTR [rbp-0x8]
     325:	8b 45 fc             	mov    eax,DWORD PTR [rbp-0x4]
     328:	0f 28 c8             	movaps xmm1,xmm0
     32b:	89 45 f4             	mov    DWORD PTR [rbp-0xc],eax
     32e:	f3 0f 10 45 f4       	movss  xmm0,DWORD PTR [rbp-0xc]
     333:	e8 00 00 00 00       	call   338 <_ZL5ImPowff+0x2a>
     338:	c9                   	leave  
     339:	c3                   	ret    

000000000000033a <_ZL5ImMinRK6ImVec2S1_>:
     33a:	55                   	push   rbp
     33b:	48 89 e5             	mov    rbp,rsp
     33e:	48 83 ec 30          	sub    rsp,0x30
     342:	48 89 7d e8          	mov    QWORD PTR [rbp-0x18],rdi
     346:	48 89 75 e0          	mov    QWORD PTR [rbp-0x20],rsi
     34a:	64 48 8b 04 25 28 00 	mov    rax,QWORD PTR fs:0x28
     351:	00 00 
     353:	48 89 45 f8          	mov    QWORD PTR [rbp-0x8],rax
     357:	31 c0                	xor    eax,eax
     359:	48 8b 45 e8          	mov    rax,QWORD PTR [rbp-0x18]
     35d:	f3 0f 10 48 04       	movss  xmm1,DWORD PTR [rax+0x4]
     362:	48 8b 45 e0          	mov    rax,QWORD PTR [rbp-0x20]
     366:	f3 0f 10 40 04       	movss  xmm0,DWORD PTR [rax+0x4]
     36b:	0f 2e c1             	ucomiss xmm0,xmm1
     36e:	76 0b                	jbe    37b <_ZL5ImMinRK6ImVec2S1_+0x41>
     370:	48 8b 45 e8          	mov    rax,QWORD PTR [rbp-0x18]
     374:	f3 0f 10 48 04       	movss  xmm1,DWORD PTR [rax+0x4]
     379:	eb 09                	jmp    384 <_ZL5ImMinRK6ImVec2S1_+0x4a>
     37b:	48 8b 45 e0          	mov    rax,QWORD PTR [rbp-0x20]
     37f:	f3 0f 10 48 04       	movss  xmm1,DWORD PTR [rax+0x4]
     384:	48 8b 45 e8          	mov    rax,QWORD PTR [rbp-0x18]
     388:	f3 0f 10 10          	movss  xmm2,DWORD PTR [rax]
     38c:	48 8b 45 e0          	mov    rax,QWORD PTR [rbp-0x20]
     390:	f3 0f 10 00          	movss  xmm0,DWORD PTR [rax]
     394:	0f 2e c2             	ucomiss xmm0,xmm2
     397:	76 08                	jbe    3a1 <_ZL5ImMinRK6ImVec2S1_+0x67>
     399:	48 8b 45 e8          	mov    rax,QWORD PTR [rbp-0x18]
     39d:	8b 00                	mov    eax,DWORD PTR [rax]
     39f:	eb 06                	jmp    3a7 <_ZL5ImMinRK6ImVec2S1_+0x6d>
     3a1:	48 8b 45 e0          	mov    rax,QWORD PTR [rbp-0x20]
     3a5:	8b 00                	mov    eax,DWORD PTR [rax]
     3a7:	48 8d 55 f0          	lea    rdx,[rbp-0x10]
     3ab:	89 45 d8             	mov    DWORD PTR [rbp-0x28],eax
     3ae:	f3 0f 10 45 d8       	movss  xmm0,DWORD PTR [rbp-0x28]
     3b3:	48 89 d7             	mov    rdi,rdx
     3b6:	e8 00 00 00 00       	call   3bb <_ZL5ImMinRK6ImVec2S1_+0x81>
     3bb:	48 8b 45 f0          	mov    rax,QWORD PTR [rbp-0x10]
     3bf:	48 89 45 d8          	mov    QWORD PTR [rbp-0x28],rax
     3c3:	f3 0f 7e 45 d8       	movq   xmm0,QWORD PTR [rbp-0x28]
     3c8:	48 8b 45 f8          	mov    rax,QWORD PTR [rbp-0x8]
     3cc:	64 48 33 04 25 28 00 	xor    rax,QWORD PTR fs:0x28
     3d3:	00 00 
     3d5:	74 05                	je     3dc <_ZL5ImMinRK6ImVec2S1_+0xa2>
     3d7:	e8 00 00 00 00       	call   3dc <_ZL5ImMinRK6ImVec2S1_+0xa2>
     3dc:	c9                   	leave  
     3dd:	c3                   	ret    

00000000000003de <_ZL5ImMaxRK6ImVec2S1_>:
     3de:	55                   	push   rbp
     3df:	48 89 e5             	mov    rbp,rsp
     3e2:	48 83 ec 30          	sub    rsp,0x30
     3e6:	48 89 7d e8          	mov    QWORD PTR [rbp-0x18],rdi
     3ea:	48 89 75 e0          	mov    QWORD PTR [rbp-0x20],rsi
     3ee:	64 48 8b 04 25 28 00 	mov    rax,QWORD PTR fs:0x28
     3f5:	00 00 
     3f7:	48 89 45 f8          	mov    QWORD PTR [rbp-0x8],rax
     3fb:	31 c0                	xor    eax,eax
     3fd:	48 8b 45 e8          	mov    rax,QWORD PTR [rbp-0x18]
     401:	f3 0f 10 40 04       	movss  xmm0,DWORD PTR [rax+0x4]
     406:	48 8b 45 e0          	mov    rax,QWORD PTR [rbp-0x20]
     40a:	f3 0f 10 48 04       	movss  xmm1,DWORD PTR [rax+0x4]
     40f:	0f 2e c1             	ucomiss xmm0,xmm1
     412:	72 0b                	jb     41f <_ZL5ImMaxRK6ImVec2S1_+0x41>
     414:	48 8b 45 e8          	mov    rax,QWORD PTR [rbp-0x18]
     418:	f3 0f 10 48 04       	movss  xmm1,DWORD PTR [rax+0x4]
     41d:	eb 09                	jmp    428 <_ZL5ImMaxRK6ImVec2S1_+0x4a>
     41f:	48 8b 45 e0          	mov    rax,QWORD PTR [rbp-0x20]
     423:	f3 0f 10 48 04       	movss  xmm1,DWORD PTR [rax+0x4]
     428:	48 8b 45 e8          	mov    rax,QWORD PTR [rbp-0x18]
     42c:	f3 0f 10 00          	movss  xmm0,DWORD PTR [rax]
     430:	48 8b 45 e0          	mov    rax,QWORD PTR [rbp-0x20]
     434:	f3 0f 10 10          	movss  xmm2,DWORD PTR [rax]
     438:	0f 2e c2             	ucomiss xmm0,xmm2
     43b:	72 08                	jb     445 <_ZL5ImMaxRK6ImVec2S1_+0x67>
     43d:	48 8b 45 e8          	mov    rax,QWORD PTR [rbp-0x18]
     441:	8b 00                	mov    eax,DWORD PTR [rax]
     443:	eb 06                	jmp    44b <_ZL5ImMaxRK6ImVec2S1_+0x6d>
     445:	48 8b 45 e0          	mov    rax,QWORD PTR [rbp-0x20]
     449:	8b 00                	mov    eax,DWORD PTR [rax]
     44b:	48 8d 55 f0          	lea    rdx,[rbp-0x10]
     44f:	89 45 d8             	mov    DWORD PTR [rbp-0x28],eax
     452:	f3 0f 10 45 d8       	movss  xmm0,DWORD PTR [rbp-0x28]
     457:	48 89 d7             	mov    rdi,rdx
     45a:	e8 00 00 00 00       	call   45f <_ZL5ImMaxRK6ImVec2S1_+0x81>
     45f:	48 8b 45 f0          	mov    rax,QWORD PTR [rbp-0x10]
     463:	48 89 45 d8          	mov    QWORD PTR [rbp-0x28],rax
     467:	f3 0f 7e 45 d8       	movq   xmm0,QWORD PTR [rbp-0x28]
     46c:	48 8b 45 f8          	mov    rax,QWORD PTR [rbp-0x8]
     470:	64 48 33 04 25 28 00 	xor    rax,QWORD PTR fs:0x28
     477:	00 00 
     479:	74 05                	je     480 <_ZL5ImMaxRK6ImVec2S1_+0xa2>
     47b:	e8 00 00 00 00       	call   480 <_ZL5ImMaxRK6ImVec2S1_+0xa2>
     480:	c9                   	leave  
     481:	c3                   	ret    

0000000000000482 <_ZL7ImClampRK6ImVec2S1_S_>:
     482:	55                   	push   rbp
     483:	48 89 e5             	mov    rbp,rsp
     486:	48 83 ec 30          	sub    rsp,0x30
     48a:	48 89 7d e8          	mov    QWORD PTR [rbp-0x18],rdi
     48e:	48 89 75 e0          	mov    QWORD PTR [rbp-0x20],rsi
     492:	66 0f d6 45 d8       	movq   QWORD PTR [rbp-0x28],xmm0
     497:	64 48 8b 04 25 28 00 	mov    rax,QWORD PTR fs:0x28
     49e:	00 00 
     4a0:	48 89 45 f8          	mov    QWORD PTR [rbp-0x8],rax
     4a4:	31 c0                	xor    eax,eax
     4a6:	48 8b 45 e8          	mov    rax,QWORD PTR [rbp-0x18]
     4aa:	f3 0f 10 48 04       	movss  xmm1,DWORD PTR [rax+0x4]
     4af:	48 8b 45 e0          	mov    rax,QWORD PTR [rbp-0x20]
     4b3:	f3 0f 10 40 04       	movss  xmm0,DWORD PTR [rax+0x4]
     4b8:	0f 2e c1             	ucomiss xmm0,xmm1
     4bb:	76 0b                	jbe    4c8 <_ZL7ImClampRK6ImVec2S1_S_+0x46>
     4bd:	48 8b 45 e0          	mov    rax,QWORD PTR [rbp-0x20]
     4c1:	f3 0f 10 40 04       	movss  xmm0,DWORD PTR [rax+0x4]
     4c6:	eb 23                	jmp    4eb <_ZL7ImClampRK6ImVec2S1_S_+0x69>
     4c8:	48 8b 45 e8          	mov    rax,QWORD PTR [rbp-0x18]
     4cc:	f3 0f 10 40 04       	movss  xmm0,DWORD PTR [rax+0x4]
     4d1:	f3 0f 10 4d dc       	movss  xmm1,DWORD PTR [rbp-0x24]
     4d6:	0f 2e c1             	ucomiss xmm0,xmm1
     4d9:	76 07                	jbe    4e2 <_ZL7ImClampRK6ImVec2S1_S_+0x60>
     4db:	f3 0f 10 45 dc       	movss  xmm0,DWORD PTR [rbp-0x24]
     4e0:	eb 09                	jmp    4eb <_ZL7ImClampRK6ImVec2S1_S_+0x69>
     4e2:	48 8b 45 e8          	mov    rax,QWORD PTR [rbp-0x18]
     4e6:	f3 0f 10 40 04       	movss  xmm0,DWORD PTR [rax+0x4]
     4eb:	48 8b 45 e8          	mov    rax,QWORD PTR [rbp-0x18]
     4ef:	f3 0f 10 10          	movss  xmm2,DWORD PTR [rax]
     4f3:	48 8b 45 e0          	mov    rax,QWORD PTR [rbp-0x20]
     4f7:	f3 0f 10 08          	movss  xmm1,DWORD PTR [rax]
     4fb:	0f 2e ca             	ucomiss xmm1,xmm2
     4fe:	76 08                	jbe    508 <_ZL7ImClampRK6ImVec2S1_S_+0x86>
     500:	48 8b 45 e0          	mov    rax,QWORD PTR [rbp-0x20]
     504:	8b 00                	mov    eax,DWORD PTR [rax]
     506:	eb 1d                	jmp    525 <_ZL7ImClampRK6ImVec2S1_S_+0xa3>
     508:	48 8b 45 e8          	mov    rax,QWORD PTR [rbp-0x18]
     50c:	f3 0f 10 08          	movss  xmm1,DWORD PTR [rax]
     510:	f3 0f 10 55 d8       	movss  xmm2,DWORD PTR [rbp-0x28]
     515:	0f 2e ca             	ucomiss xmm1,xmm2
     518:	76 05                	jbe    51f <_ZL7ImClampRK6ImVec2S1_S_+0x9d>
     51a:	8b 45 d8             	mov    eax,DWORD PTR [rbp-0x28]
     51d:	eb 06                	jmp    525 <_ZL7ImClampRK6ImVec2S1_S_+0xa3>
     51f:	48 8b 45 e8          	mov    rax,QWORD PTR [rbp-0x18]
     523:	8b 00                	mov    eax,DWORD PTR [rax]
     525:	48 8d 55 f0          	lea    rdx,[rbp-0x10]
     529:	0f 28 c8             	movaps xmm1,xmm0
     52c:	89 45 d0             	mov    DWORD PTR [rbp-0x30],eax
     52f:	f3 0f 10 45 d0       	movss  xmm0,DWORD PTR [rbp-0x30]
     534:	48 89 d7             	mov    rdi,rdx
     537:	e8 00 00 00 00       	call   53c <_ZL7ImClampRK6ImVec2S1_S_+0xba>
     53c:	48 8b 45 f0          	mov    rax,QWORD PTR [rbp-0x10]
     540:	48 89 45 d0          	mov    QWORD PTR [rbp-0x30],rax
     544:	f3 0f 7e 45 d0       	movq   xmm0,QWORD PTR [rbp-0x30]
     549:	48 8b 45 f8          	mov    rax,QWORD PTR [rbp-0x8]
     54d:	64 48 33 04 25 28 00 	xor    rax,QWORD PTR fs:0x28
     554:	00 00 
     556:	74 05                	je     55d <_ZL7ImClampRK6ImVec2S1_S_+0xdb>
     558:	e8 00 00 00 00       	call   55d <_ZL7ImClampRK6ImVec2S1_S_+0xdb>
     55d:	c9                   	leave  
     55e:	c3                   	ret    

000000000000055f <_ZL6ImLerpRK6ImVec4S1_f>:
     55f:	55                   	push   rbp
     560:	48 89 e5             	mov    rbp,rsp
     563:	53                   	push   rbx
     564:	48 83 ec 48          	sub    rsp,0x48
     568:	48 89 7d c8          	mov    QWORD PTR [rbp-0x38],rdi
     56c:	48 89 75 c0          	mov    QWORD PTR [rbp-0x40],rsi
     570:	f3 0f 11 45 bc       	movss  DWORD PTR [rbp-0x44],xmm0
     575:	64 48 8b 04 25 28 00 	mov    rax,QWORD PTR fs:0x28
     57c:	00 00 
     57e:	48 89 45 e8          	mov    QWORD PTR [rbp-0x18],rax
     582:	31 c0                	xor    eax,eax
     584:	48 8b 45 c8          	mov    rax,QWORD PTR [rbp-0x38]
     588:	f3 0f 10 48 0c       	movss  xmm1,DWORD PTR [rax+0xc]
     58d:	48 8b 45 c0          	mov    rax,QWORD PTR [rbp-0x40]
     591:	f3 0f 10 40 0c       	movss  xmm0,DWORD PTR [rax+0xc]
     596:	48 8b 45 c8          	mov    rax,QWORD PTR [rbp-0x38]
     59a:	f3 0f 10 50 0c       	movss  xmm2,DWORD PTR [rax+0xc]
     59f:	f3 0f 5c c2          	subss  xmm0,xmm2
     5a3:	f3 0f 59 45 bc       	mulss  xmm0,DWORD PTR [rbp-0x44]
     5a8:	0f 28 d9             	movaps xmm3,xmm1
     5ab:	f3 0f 58 d8          	addss  xmm3,xmm0
     5af:	48 8b 45 c8          	mov    rax,QWORD PTR [rbp-0x38]
     5b3:	f3 0f 10 48 08       	movss  xmm1,DWORD PTR [rax+0x8]
     5b8:	48 8b 45 c0          	mov    rax,QWORD PTR [rbp-0x40]
     5bc:	f3 0f 10 40 08       	movss  xmm0,DWORD PTR [rax+0x8]
     5c1:	48 8b 45 c8          	mov    rax,QWORD PTR [rbp-0x38]
     5c5:	f3 0f 10 50 08       	movss  xmm2,DWORD PTR [rax+0x8]
     5ca:	f3 0f 5c c2          	subss  xmm0,xmm2
     5ce:	f3 0f 59 45 bc       	mulss  xmm0,DWORD PTR [rbp-0x44]
     5d3:	0f 28 e9             	movaps xmm5,xmm1
     5d6:	f3 0f 58 e8          	addss  xmm5,xmm0
     5da:	48 8b 45 c8          	mov    rax,QWORD PTR [rbp-0x38]
     5de:	f3 0f 10 48 04       	movss  xmm1,DWORD PTR [rax+0x4]
     5e3:	48 8b 45 c0          	mov    rax,QWORD PTR [rbp-0x40]
     5e7:	f3 0f 10 40 04       	movss  xmm0,DWORD PTR [rax+0x4]
     5ec:	48 8b 45 c8          	mov    rax,QWORD PTR [rbp-0x38]
     5f0:	f3 0f 10 50 04       	movss  xmm2,DWORD PTR [rax+0x4]
     5f5:	f3 0f 5c c2          	subss  xmm0,xmm2
     5f9:	f3 0f 59 45 bc       	mulss  xmm0,DWORD PTR [rbp-0x44]
     5fe:	0f 28 e1             	movaps xmm4,xmm1
     601:	f3 0f 58 e0          	addss  xmm4,xmm0
     605:	48 8b 45 c8          	mov    rax,QWORD PTR [rbp-0x38]
     609:	f3 0f 10 08          	movss  xmm1,DWORD PTR [rax]
     60d:	48 8b 45 c0          	mov    rax,QWORD PTR [rbp-0x40]
     611:	f3 0f 10 00          	movss  xmm0,DWORD PTR [rax]
     615:	48 8b 45 c8          	mov    rax,QWORD PTR [rbp-0x38]
     619:	f3 0f 10 10          	movss  xmm2,DWORD PTR [rax]
     61d:	f3 0f 5c c2          	subss  xmm0,xmm2
     621:	f3 0f 59 45 bc       	mulss  xmm0,DWORD PTR [rbp-0x44]
     626:	f3 0f 58 c1          	addss  xmm0,xmm1
     62a:	48 8d 45 d0          	lea    rax,[rbp-0x30]
     62e:	0f 28 d5             	movaps xmm2,xmm5
     631:	0f 28 cc             	movaps xmm1,xmm4
     634:	48 89 c7             	mov    rdi,rax
     637:	e8 00 00 00 00       	call   63c <_ZL6ImLerpRK6ImVec4S1_f+0xdd>
     63c:	48 8b 45 d0          	mov    rax,QWORD PTR [rbp-0x30]
     640:	48 8b 55 d8          	mov    rdx,QWORD PTR [rbp-0x28]
     644:	48 89 c1             	mov    rcx,rax
     647:	48 89 d3             	mov    rbx,rdx
     64a:	48 89 d0             	mov    rax,rdx
     64d:	48 89 4d b0          	mov    QWORD PTR [rbp-0x50],rcx
     651:	f3 0f 7e 45 b0       	movq   xmm0,QWORD PTR [rbp-0x50]
     656:	48 89 45 b0          	mov    QWORD PTR [rbp-0x50],rax
     65a:	f3 0f 7e 4d b0       	movq   xmm1,QWORD PTR [rbp-0x50]
     65f:	48 8b 45 e8          	mov    rax,QWORD PTR [rbp-0x18]
     663:	64 48 33 04 25 28 00 	xor    rax,QWORD PTR fs:0x28
     66a:	00 00 
     66c:	74 05                	je     673 <_ZL6ImLerpRK6ImVec4S1_f+0x114>
     66e:	e8 00 00 00 00       	call   673 <_ZL6ImLerpRK6ImVec4S1_f+0x114>
     673:	48 83 c4 48          	add    rsp,0x48
     677:	5b                   	pop    rbx
     678:	5d                   	pop    rbp
     679:	c3                   	ret    

000000000000067a <_ZL11ImLengthSqrRK6ImVec2>:
     67a:	55                   	push   rbp
     67b:	48 89 e5             	mov    rbp,rsp
     67e:	48 89 7d f8          	mov    QWORD PTR [rbp-0x8],rdi
     682:	48 8b 45 f8          	mov    rax,QWORD PTR [rbp-0x8]
     686:	f3 0f 10 08          	movss  xmm1,DWORD PTR [rax]
     68a:	48 8b 45 f8          	mov    rax,QWORD PTR [rbp-0x8]
     68e:	f3 0f 10 00          	movss  xmm0,DWORD PTR [rax]
     692:	f3 0f 59 c8          	mulss  xmm1,xmm0
     696:	48 8b 45 f8          	mov    rax,QWORD PTR [rbp-0x8]
     69a:	f3 0f 10 50 04       	movss  xmm2,DWORD PTR [rax+0x4]
     69f:	48 8b 45 f8          	mov    rax,QWORD PTR [rbp-0x8]
     6a3:	f3 0f 10 40 04       	movss  xmm0,DWORD PTR [rax+0x4]
     6a8:	f3 0f 59 c2          	mulss  xmm0,xmm2
     6ac:	f3 0f 58 c1          	addss  xmm0,xmm1
     6b0:	5d                   	pop    rbp
     6b1:	c3                   	ret    

00000000000006b2 <_ZL7ImFloorf>:
     6b2:	55                   	push   rbp
     6b3:	48 89 e5             	mov    rbp,rsp
     6b6:	f3 0f 11 45 fc       	movss  DWORD PTR [rbp-0x4],xmm0
     6bb:	f3 0f 10 45 fc       	movss  xmm0,DWORD PTR [rbp-0x4]
     6c0:	f3 0f 2c c0          	cvttss2si eax,xmm0
     6c4:	f3 0f 2a c0          	cvtsi2ss xmm0,eax
     6c8:	5d                   	pop    rbp
     6c9:	c3                   	ret    

00000000000006ca <_ZL5ImDotRK6ImVec2S1_>:
     6ca:	55                   	push   rbp
     6cb:	48 89 e5             	mov    rbp,rsp
     6ce:	48 89 7d f8          	mov    QWORD PTR [rbp-0x8],rdi
     6d2:	48 89 75 f0          	mov    QWORD PTR [rbp-0x10],rsi
     6d6:	48 8b 45 f8          	mov    rax,QWORD PTR [rbp-0x8]
     6da:	f3 0f 10 08          	movss  xmm1,DWORD PTR [rax]
     6de:	48 8b 45 f0          	mov    rax,QWORD PTR [rbp-0x10]
     6e2:	f3 0f 10 00          	movss  xmm0,DWORD PTR [rax]
     6e6:	f3 0f 59 c8          	mulss  xmm1,xmm0
     6ea:	48 8b 45 f8          	mov    rax,QWORD PTR [rbp-0x8]
     6ee:	f3 0f 10 50 04       	movss  xmm2,DWORD PTR [rax+0x4]
     6f3:	48 8b 45 f0          	mov    rax,QWORD PTR [rbp-0x10]
     6f7:	f3 0f 10 40 04       	movss  xmm0,DWORD PTR [rax+0x4]
     6fc:	f3 0f 59 c2          	mulss  xmm0,xmm2
     700:	f3 0f 58 c1          	addss  xmm0,xmm1
     704:	5d                   	pop    rbp
     705:	c3                   	ret    

0000000000000706 <_ZL5ImMulRK6ImVec2S1_>:
     706:	55                   	push   rbp
     707:	48 89 e5             	mov    rbp,rsp
     70a:	48 83 ec 30          	sub    rsp,0x30
     70e:	48 89 7d e8          	mov    QWORD PTR [rbp-0x18],rdi
     712:	48 89 75 e0          	mov    QWORD PTR [rbp-0x20],rsi
     716:	64 48 8b 04 25 28 00 	mov    rax,QWORD PTR fs:0x28
     71d:	00 00 
     71f:	48 89 45 f8          	mov    QWORD PTR [rbp-0x8],rax
     723:	31 c0                	xor    eax,eax
     725:	48 8b 45 e8          	mov    rax,QWORD PTR [rbp-0x18]
     729:	f3 0f 10 48 04       	movss  xmm1,DWORD PTR [rax+0x4]
     72e:	48 8b 45 e0          	mov    rax,QWORD PTR [rbp-0x20]
     732:	f3 0f 10 40 04       	movss  xmm0,DWORD PTR [rax+0x4]
     737:	0f 28 d1             	movaps xmm2,xmm1
     73a:	f3 0f 59 d0          	mulss  xmm2,xmm0
     73e:	48 8b 45 e8          	mov    rax,QWORD PTR [rbp-0x18]
     742:	f3 0f 10 08          	movss  xmm1,DWORD PTR [rax]
     746:	48 8b 45 e0          	mov    rax,QWORD PTR [rbp-0x20]
     74a:	f3 0f 10 00          	movss  xmm0,DWORD PTR [rax]
     74e:	f3 0f 59 c1          	mulss  xmm0,xmm1
     752:	48 8d 45 f0          	lea    rax,[rbp-0x10]
     756:	0f 28 ca             	movaps xmm1,xmm2
     759:	48 89 c7             	mov    rdi,rax
     75c:	e8 00 00 00 00       	call   761 <_ZL5ImMulRK6ImVec2S1_+0x5b>
     761:	48 8b 45 f0          	mov    rax,QWORD PTR [rbp-0x10]
     765:	48 89 45 d8          	mov    QWORD PTR [rbp-0x28],rax
     769:	f3 0f 7e 45 d8       	movq   xmm0,QWORD PTR [rbp-0x28]
     76e:	48 8b 45 f8          	mov    rax,QWORD PTR [rbp-0x8]
     772:	64 48 33 04 25 28 00 	xor    rax,QWORD PTR fs:0x28
     779:	00 00 
     77b:	74 05                	je     782 <_ZL5ImMulRK6ImVec2S1_+0x7c>
     77d:	e8 00 00 00 00       	call   782 <_ZL5ImMulRK6ImVec2S1_+0x7c>
     782:	c9                   	leave  
     783:	c3                   	ret    

0000000000000784 <stbrp_setup_heuristic>:
     784:	55                   	push   rbp
     785:	48 89 e5             	mov    rbp,rsp
     788:	48 83 ec 10          	sub    rsp,0x10
     78c:	48 89 7d f8          	mov    QWORD PTR [rbp-0x8],rdi
     790:	89 75 f4             	mov    DWORD PTR [rbp-0xc],esi
     793:	48 8b 45 f8          	mov    rax,QWORD PTR [rbp-0x8]
     797:	8b 40 0c             	mov    eax,DWORD PTR [rax+0xc]
     79a:	83 f8 01             	cmp    eax,0x1
     79d:	75 37                	jne    7d6 <stbrp_setup_heuristic+0x52>
     79f:	83 7d f4 00          	cmp    DWORD PTR [rbp-0xc],0x0
     7a3:	74 25                	je     7ca <stbrp_setup_heuristic+0x46>
     7a5:	83 7d f4 01          	cmp    DWORD PTR [rbp-0xc],0x1
     7a9:	74 1f                	je     7ca <stbrp_setup_heuristic+0x46>
     7ab:	48 8d 0d 00 00 00 00 	lea    rcx,[rip+0x0]        # 7b2 <stbrp_setup_heuristic+0x2e>
     7b2:	ba ea 00 00 00       	mov    edx,0xea
     7b7:	48 8d 35 00 00 00 00 	lea    rsi,[rip+0x0]        # 7be <stbrp_setup_heuristic+0x3a>
     7be:	48 8d 3d 00 00 00 00 	lea    rdi,[rip+0x0]        # 7c5 <stbrp_setup_heuristic+0x41>
     7c5:	e8 00 00 00 00       	call   7ca <stbrp_setup_heuristic+0x46>
     7ca:	48 8b 45 f8          	mov    rax,QWORD PTR [rbp-0x8]
     7ce:	8b 55 f4             	mov    edx,DWORD PTR [rbp-0xc]
     7d1:	89 50 10             	mov    DWORD PTR [rax+0x10],edx
     7d4:	eb 1f                	jmp    7f5 <stbrp_setup_heuristic+0x71>
     7d6:	48 8d 0d 00 00 00 00 	lea    rcx,[rip+0x0]        # 7dd <stbrp_setup_heuristic+0x59>
     7dd:	ba ee 00 00 00       	mov    edx,0xee
     7e2:	48 8d 35 00 00 00 00 	lea    rsi,[rip+0x0]        # 7e9 <stbrp_setup_heuristic+0x65>
     7e9:	48 8d 3d 00 00 00 00 	lea    rdi,[rip+0x0]        # 7f0 <stbrp_setup_heuristic+0x6c>
     7f0:	e8 00 00 00 00       	call   7f5 <stbrp_setup_heuristic+0x71>
     7f5:	90                   	nop
     7f6:	c9                   	leave  
     7f7:	c3                   	ret    

00000000000007f8 <stbrp_setup_allow_out_of_mem>:
     7f8:	55                   	push   rbp
     7f9:	48 89 e5             	mov    rbp,rsp
     7fc:	48 89 7d f8          	mov    QWORD PTR [rbp-0x8],rdi
     800:	89 75 f4             	mov    DWORD PTR [rbp-0xc],esi
     803:	83 7d f4 00          	cmp    DWORD PTR [rbp-0xc],0x0
     807:	74 0d                	je     816 <stbrp_setup_allow_out_of_mem+0x1e>
     809:	48 8b 45 f8          	mov    rax,QWORD PTR [rbp-0x8]
     80d:	c7 40 08 01 00 00 00 	mov    DWORD PTR [rax+0x8],0x1
     814:	eb 27                	jmp    83d <stbrp_setup_allow_out_of_mem+0x45>
     816:	48 8b 45 f8          	mov    rax,QWORD PTR [rbp-0x8]
     81a:	8b 10                	mov    edx,DWORD PTR [rax]
     81c:	48 8b 45 f8          	mov    rax,QWORD PTR [rbp-0x8]
     820:	8b 40 14             	mov    eax,DWORD PTR [rax+0x14]
     823:	01 d0                	add    eax,edx
     825:	8d 48 ff             	lea    ecx,[rax-0x1]
     828:	48 8b 45 f8          	mov    rax,QWORD PTR [rbp-0x8]
     82c:	8b 70 14             	mov    esi,DWORD PTR [rax+0x14]
     82f:	89 c8                	mov    eax,ecx
     831:	99                   	cdq    
     832:	f7 fe                	idiv   esi
     834:	89 c2                	mov    edx,eax
     836:	48 8b 45 f8          	mov    rax,QWORD PTR [rbp-0x8]
     83a:	89 50 08             	mov    DWORD PTR [rax+0x8],edx
     83d:	90                   	nop
     83e:	5d                   	pop    rbp
     83f:	c3                   	ret    

0000000000000840 <stbrp_init_target>:
     840:	55                   	push   rbp
     841:	48 89 e5             	mov    rbp,rsp
     844:	48 83 ec 30          	sub    rsp,0x30
     848:	48 89 7d e8          	mov    QWORD PTR [rbp-0x18],rdi
     84c:	89 75 e4             	mov    DWORD PTR [rbp-0x1c],esi
     84f:	89 55 e0             	mov    DWORD PTR [rbp-0x20],edx
     852:	48 89 4d d8          	mov    QWORD PTR [rbp-0x28],rcx
     856:	44 89 45 d4          	mov    DWORD PTR [rbp-0x2c],r8d
     85a:	81 7d e4 ff ff 00 00 	cmp    DWORD PTR [rbp-0x1c],0xffff
     861:	7f 09                	jg     86c <stbrp_init_target+0x2c>
     863:	81 7d e0 ff ff 00 00 	cmp    DWORD PTR [rbp-0x20],0xffff
     86a:	7e 1f                	jle    88b <stbrp_init_target+0x4b>
     86c:	48 8d 0d 00 00 00 00 	lea    rcx,[rip+0x0]        # 873 <stbrp_init_target+0x33>
     873:	ba 0a 01 00 00       	mov    edx,0x10a
     878:	48 8d 35 00 00 00 00 	lea    rsi,[rip+0x0]        # 87f <stbrp_init_target+0x3f>
     87f:	48 8d 3d 00 00 00 00 	lea    rdi,[rip+0x0]        # 886 <stbrp_init_target+0x46>
     886:	e8 00 00 00 00       	call   88b <stbrp_init_target+0x4b>
     88b:	c7 45 fc 00 00 00 00 	mov    DWORD PTR [rbp-0x4],0x0
     892:	8b 45 d4             	mov    eax,DWORD PTR [rbp-0x2c]
     895:	83 e8 01             	sub    eax,0x1
     898:	39 45 fc             	cmp    DWORD PTR [rbp-0x4],eax
     89b:	7d 34                	jge    8d1 <stbrp_init_target+0x91>
     89d:	8b 45 fc             	mov    eax,DWORD PTR [rbp-0x4]
     8a0:	48 98                	cdqe   
     8a2:	48 83 c0 01          	add    rax,0x1
     8a6:	48 c1 e0 04          	shl    rax,0x4
     8aa:	48 89 c1             	mov    rcx,rax
     8ad:	8b 45 fc             	mov    eax,DWORD PTR [rbp-0x4]
     8b0:	48 98                	cdqe   
     8b2:	48 c1 e0 04          	shl    rax,0x4
     8b6:	48 89 c2             	mov    rdx,rax
     8b9:	48 8b 45 d8          	mov    rax,QWORD PTR [rbp-0x28]
     8bd:	48 01 d0             	add    rax,rdx
     8c0:	48 8b 55 d8          	mov    rdx,QWORD PTR [rbp-0x28]
     8c4:	48 01 ca             	add    rdx,rcx
     8c7:	48 89 50 08          	mov    QWORD PTR [rax+0x8],rdx
     8cb:	83 45 fc 01          	add    DWORD PTR [rbp-0x4],0x1
     8cf:	eb c1                	jmp    892 <stbrp_init_target+0x52>
     8d1:	8b 45 fc             	mov    eax,DWORD PTR [rbp-0x4]
     8d4:	48 98                	cdqe   
     8d6:	48 c1 e0 04          	shl    rax,0x4
     8da:	48 89 c2             	mov    rdx,rax
     8dd:	48 8b 45 d8          	mov    rax,QWORD PTR [rbp-0x28]
     8e1:	48 01 d0             	add    rax,rdx
     8e4:	48 c7 40 08 00 00 00 	mov    QWORD PTR [rax+0x8],0x0
     8eb:	00 
     8ec:	48 8b 45 e8          	mov    rax,QWORD PTR [rbp-0x18]
     8f0:	c7 40 0c 01 00 00 00 	mov    DWORD PTR [rax+0xc],0x1
     8f7:	48 8b 45 e8          	mov    rax,QWORD PTR [rbp-0x18]
     8fb:	c7 40 10 00 00 00 00 	mov    DWORD PTR [rax+0x10],0x0
     902:	48 8b 45 e8          	mov    rax,QWORD PTR [rbp-0x18]
     906:	48 8b 55 d8          	mov    rdx,QWORD PTR [rbp-0x28]
     90a:	48 89 50 20          	mov    QWORD PTR [rax+0x20],rdx
     90e:	48 8b 45 e8          	mov    rax,QWORD PTR [rbp-0x18]
     912:	48 8d 50 28          	lea    rdx,[rax+0x28]
     916:	48 8b 45 e8          	mov    rax,QWORD PTR [rbp-0x18]
     91a:	48 89 50 18          	mov    QWORD PTR [rax+0x18],rdx
     91e:	48 8b 45 e8          	mov    rax,QWORD PTR [rbp-0x18]
     922:	8b 55 e4             	mov    edx,DWORD PTR [rbp-0x1c]
     925:	89 10                	mov    DWORD PTR [rax],edx
     927:	48 8b 45 e8          	mov    rax,QWORD PTR [rbp-0x18]
     92b:	8b 55 e0             	mov    edx,DWORD PTR [rbp-0x20]
     92e:	89 50 04             	mov    DWORD PTR [rax+0x4],edx
     931:	48 8b 45 e8          	mov    rax,QWORD PTR [rbp-0x18]
     935:	8b 55 d4             	mov    edx,DWORD PTR [rbp-0x2c]
     938:	89 50 14             	mov    DWORD PTR [rax+0x14],edx
     93b:	48 8b 45 e8          	mov    rax,QWORD PTR [rbp-0x18]
     93f:	be 00 00 00 00       	mov    esi,0x0
     944:	48 89 c7             	mov    rdi,rax
     947:	e8 ac fe ff ff       	call   7f8 <stbrp_setup_allow_out_of_mem>
     94c:	48 8b 45 e8          	mov    rax,QWORD PTR [rbp-0x18]
     950:	66 c7 40 28 00 00    	mov    WORD PTR [rax+0x28],0x0
     956:	48 8b 45 e8          	mov    rax,QWORD PTR [rbp-0x18]
     95a:	66 c7 40 2a 00 00    	mov    WORD PTR [rax+0x2a],0x0
     960:	48 8b 45 e8          	mov    rax,QWORD PTR [rbp-0x18]
     964:	48 8d 50 38          	lea    rdx,[rax+0x38]
     968:	48 8b 45 e8          	mov    rax,QWORD PTR [rbp-0x18]
     96c:	48 89 50 30          	mov    QWORD PTR [rax+0x30],rdx
     970:	8b 45 e4             	mov    eax,DWORD PTR [rbp-0x1c]
     973:	89 c2                	mov    edx,eax
     975:	48 8b 45 e8          	mov    rax,QWORD PTR [rbp-0x18]
     979:	66 89 50 38          	mov    WORD PTR [rax+0x38],dx
     97d:	48 8b 45 e8          	mov    rax,QWORD PTR [rbp-0x18]
     981:	66 c7 40 3a ff ff    	mov    WORD PTR [rax+0x3a],0xffff
     987:	48 8b 45 e8          	mov    rax,QWORD PTR [rbp-0x18]
     98b:	48 c7 40 40 00 00 00 	mov    QWORD PTR [rax+0x40],0x0
     992:	00 
     993:	90                   	nop
     994:	c9                   	leave  
     995:	c3                   	ret    

0000000000000996 <_ZL25stbrp__skyline_find_min_yP13stbrp_contextP10stbrp_nodeiiPi>:
     996:	55                   	push   rbp
     997:	48 89 e5             	mov    rbp,rsp
     99a:	48 83 ec 40          	sub    rsp,0x40
     99e:	48 89 7d d8          	mov    QWORD PTR [rbp-0x28],rdi
     9a2:	48 89 75 d0          	mov    QWORD PTR [rbp-0x30],rsi
     9a6:	89 55 cc             	mov    DWORD PTR [rbp-0x34],edx
     9a9:	89 4d c8             	mov    DWORD PTR [rbp-0x38],ecx
     9ac:	4c 89 45 c0          	mov    QWORD PTR [rbp-0x40],r8
     9b0:	48 8b 45 d0          	mov    rax,QWORD PTR [rbp-0x30]
     9b4:	48 89 45 f8          	mov    QWORD PTR [rbp-0x8],rax
     9b8:	8b 55 cc             	mov    edx,DWORD PTR [rbp-0x34]
     9bb:	8b 45 c8             	mov    eax,DWORD PTR [rbp-0x38]
     9be:	01 d0                	add    eax,edx
     9c0:	89 45 f4             	mov    DWORD PTR [rbp-0xc],eax
     9c3:	48 8b 45 d0          	mov    rax,QWORD PTR [rbp-0x30]
     9c7:	0f b7 00             	movzx  eax,WORD PTR [rax]
     9ca:	0f b7 c0             	movzx  eax,ax
     9cd:	39 45 cc             	cmp    DWORD PTR [rbp-0x34],eax
     9d0:	7d 1f                	jge    9f1 <_ZL25stbrp__skyline_find_min_yP13stbrp_contextP10stbrp_nodeiiPi+0x5b>
     9d2:	48 8d 0d 00 00 00 00 	lea    rcx,[rip+0x0]        # 9d9 <_ZL25stbrp__skyline_find_min_yP13stbrp_contextP10stbrp_nodeiiPi+0x43>
     9d9:	ba 2f 01 00 00       	mov    edx,0x12f
     9de:	48 8d 35 00 00 00 00 	lea    rsi,[rip+0x0]        # 9e5 <_ZL25stbrp__skyline_find_min_yP13stbrp_contextP10stbrp_nodeiiPi+0x4f>
     9e5:	48 8d 3d 00 00 00 00 	lea    rdi,[rip+0x0]        # 9ec <_ZL25stbrp__skyline_find_min_yP13stbrp_contextP10stbrp_nodeiiPi+0x56>
     9ec:	e8 00 00 00 00       	call   9f1 <_ZL25stbrp__skyline_find_min_yP13stbrp_contextP10stbrp_nodeiiPi+0x5b>
     9f1:	48 8b 45 f8          	mov    rax,QWORD PTR [rbp-0x8]
     9f5:	48 8b 40 08          	mov    rax,QWORD PTR [rax+0x8]
     9f9:	0f b7 00             	movzx  eax,WORD PTR [rax]
     9fc:	0f b7 c0             	movzx  eax,ax
     9ff:	39 45 cc             	cmp    DWORD PTR [rbp-0x34],eax
     a02:	7c 1f                	jl     a23 <_ZL25stbrp__skyline_find_min_yP13stbrp_contextP10stbrp_nodeiiPi+0x8d>
     a04:	48 8d 0d 00 00 00 00 	lea    rcx,[rip+0x0]        # a0b <_ZL25stbrp__skyline_find_min_yP13stbrp_contextP10stbrp_nodeiiPi+0x75>
     a0b:	ba 36 01 00 00       	mov    edx,0x136
     a10:	48 8d 35 00 00 00 00 	lea    rsi,[rip+0x0]        # a17 <_ZL25stbrp__skyline_find_min_yP13stbrp_contextP10stbrp_nodeiiPi+0x81>
     a17:	48 8d 3d 00 00 00 00 	lea    rdi,[rip+0x0]        # a1e <_ZL25stbrp__skyline_find_min_yP13stbrp_contextP10stbrp_nodeiiPi+0x88>
     a1e:	e8 00 00 00 00       	call   a23 <_ZL25stbrp__skyline_find_min_yP13stbrp_contextP10stbrp_nodeiiPi+0x8d>
     a23:	48 8b 45 f8          	mov    rax,QWORD PTR [rbp-0x8]
     a27:	0f b7 00             	movzx  eax,WORD PTR [rax]
     a2a:	0f b7 c0             	movzx  eax,ax
     a2d:	39 45 cc             	cmp    DWORD PTR [rbp-0x34],eax
     a30:	7d 1f                	jge    a51 <_ZL25stbrp__skyline_find_min_yP13stbrp_contextP10stbrp_nodeiiPi+0xbb>
     a32:	48 8d 0d 00 00 00 00 	lea    rcx,[rip+0x0]        # a39 <_ZL25stbrp__skyline_find_min_yP13stbrp_contextP10stbrp_nodeiiPi+0xa3>
     a39:	ba 39 01 00 00       	mov    edx,0x139
     a3e:	48 8d 35 00 00 00 00 	lea    rsi,[rip+0x0]        # a45 <_ZL25stbrp__skyline_find_min_yP13stbrp_contextP10stbrp_nodeiiPi+0xaf>
     a45:	48 8d 3d 00 00 00 00 	lea    rdi,[rip+0x0]        # a4c <_ZL25stbrp__skyline_find_min_yP13stbrp_contextP10stbrp_nodeiiPi+0xb6>
     a4c:	e8 00 00 00 00       	call   a51 <_ZL25stbrp__skyline_find_min_yP13stbrp_contextP10stbrp_nodeiiPi+0xbb>
     a51:	c7 45 e4 00 00 00 00 	mov    DWORD PTR [rbp-0x1c],0x0
     a58:	c7 45 ec 00 00 00 00 	mov    DWORD PTR [rbp-0x14],0x0
     a5f:	c7 45 e8 00 00 00 00 	mov    DWORD PTR [rbp-0x18],0x0
     a66:	48 8b 45 f8          	mov    rax,QWORD PTR [rbp-0x8]
     a6a:	0f b7 00             	movzx  eax,WORD PTR [rax]
     a6d:	0f b7 c0             	movzx  eax,ax
     a70:	39 45 f4             	cmp    DWORD PTR [rbp-0xc],eax
     a73:	0f 8e de 00 00 00    	jle    b57 <_ZL25stbrp__skyline_find_min_yP13stbrp_contextP10stbrp_nodeiiPi+0x1c1>
     a79:	48 8b 45 f8          	mov    rax,QWORD PTR [rbp-0x8]
     a7d:	0f b7 40 02          	movzx  eax,WORD PTR [rax+0x2]
     a81:	0f b7 c0             	movzx  eax,ax
     a84:	39 45 e4             	cmp    DWORD PTR [rbp-0x1c],eax
     a87:	7d 69                	jge    af2 <_ZL25stbrp__skyline_find_min_yP13stbrp_contextP10stbrp_nodeiiPi+0x15c>
     a89:	48 8b 45 f8          	mov    rax,QWORD PTR [rbp-0x8]
     a8d:	0f b7 40 02          	movzx  eax,WORD PTR [rax+0x2]
     a91:	0f b7 c0             	movzx  eax,ax
     a94:	2b 45 e4             	sub    eax,DWORD PTR [rbp-0x1c]
     a97:	0f af 45 e8          	imul   eax,DWORD PTR [rbp-0x18]
     a9b:	01 45 ec             	add    DWORD PTR [rbp-0x14],eax
     a9e:	48 8b 45 f8          	mov    rax,QWORD PTR [rbp-0x8]
     aa2:	0f b7 40 02          	movzx  eax,WORD PTR [rax+0x2]
     aa6:	0f b7 c0             	movzx  eax,ax
     aa9:	89 45 e4             	mov    DWORD PTR [rbp-0x1c],eax
     aac:	48 8b 45 f8          	mov    rax,QWORD PTR [rbp-0x8]
     ab0:	0f b7 00             	movzx  eax,WORD PTR [rax]
     ab3:	0f b7 c0             	movzx  eax,ax
     ab6:	39 45 cc             	cmp    DWORD PTR [rbp-0x34],eax
     ab9:	7e 16                	jle    ad1 <_ZL25stbrp__skyline_find_min_yP13stbrp_contextP10stbrp_nodeiiPi+0x13b>
     abb:	48 8b 45 f8          	mov    rax,QWORD PTR [rbp-0x8]
     abf:	48 8b 40 08          	mov    rax,QWORD PTR [rax+0x8]
     ac3:	0f b7 00             	movzx  eax,WORD PTR [rax]
     ac6:	0f b7 c0             	movzx  eax,ax
     ac9:	2b 45 cc             	sub    eax,DWORD PTR [rbp-0x34]
     acc:	01 45 e8             	add    DWORD PTR [rbp-0x18],eax
     acf:	eb 75                	jmp    b46 <_ZL25stbrp__skyline_find_min_yP13stbrp_contextP10stbrp_nodeiiPi+0x1b0>
     ad1:	48 8b 45 f8          	mov    rax,QWORD PTR [rbp-0x8]
     ad5:	48 8b 40 08          	mov    rax,QWORD PTR [rax+0x8]
     ad9:	0f b7 00             	movzx  eax,WORD PTR [rax]
     adc:	0f b7 d0             	movzx  edx,ax
     adf:	48 8b 45 f8          	mov    rax,QWORD PTR [rbp-0x8]
     ae3:	0f b7 00             	movzx  eax,WORD PTR [rax]
     ae6:	0f b7 c0             	movzx  eax,ax
     ae9:	29 c2                	sub    edx,eax
     aeb:	89 d0                	mov    eax,edx
     aed:	01 45 e8             	add    DWORD PTR [rbp-0x18],eax
     af0:	eb 54                	jmp    b46 <_ZL25stbrp__skyline_find_min_yP13stbrp_contextP10stbrp_nodeiiPi+0x1b0>
     af2:	48 8b 45 f8          	mov    rax,QWORD PTR [rbp-0x8]
     af6:	48 8b 40 08          	mov    rax,QWORD PTR [rax+0x8]
     afa:	0f b7 00             	movzx  eax,WORD PTR [rax]
     afd:	0f b7 d0             	movzx  edx,ax
     b00:	48 8b 45 f8          	mov    rax,QWORD PTR [rbp-0x8]
     b04:	0f b7 00             	movzx  eax,WORD PTR [rax]
     b07:	0f b7 c0             	movzx  eax,ax
     b0a:	29 c2                	sub    edx,eax
     b0c:	89 d0                	mov    eax,edx
     b0e:	89 45 f0             	mov    DWORD PTR [rbp-0x10],eax
     b11:	8b 55 f0             	mov    edx,DWORD PTR [rbp-0x10]
     b14:	8b 45 e8             	mov    eax,DWORD PTR [rbp-0x18]
     b17:	01 d0                	add    eax,edx
     b19:	39 45 c8             	cmp    DWORD PTR [rbp-0x38],eax
     b1c:	7d 09                	jge    b27 <_ZL25stbrp__skyline_find_min_yP13stbrp_contextP10stbrp_nodeiiPi+0x191>
     b1e:	8b 45 c8             	mov    eax,DWORD PTR [rbp-0x38]
     b21:	2b 45 e8             	sub    eax,DWORD PTR [rbp-0x18]
     b24:	89 45 f0             	mov    DWORD PTR [rbp-0x10],eax
     b27:	48 8b 45 f8          	mov    rax,QWORD PTR [rbp-0x8]
     b2b:	0f b7 40 02          	movzx  eax,WORD PTR [rax+0x2]
     b2f:	0f b7 c0             	movzx  eax,ax
     b32:	8b 55 e4             	mov    edx,DWORD PTR [rbp-0x1c]
     b35:	29 c2                	sub    edx,eax
     b37:	89 d0                	mov    eax,edx
     b39:	0f af 45 f0          	imul   eax,DWORD PTR [rbp-0x10]
     b3d:	01 45 ec             	add    DWORD PTR [rbp-0x14],eax
     b40:	8b 45 f0             	mov    eax,DWORD PTR [rbp-0x10]
     b43:	01 45 e8             	add    DWORD PTR [rbp-0x18],eax
     b46:	48 8b 45 f8          	mov    rax,QWORD PTR [rbp-0x8]
     b4a:	48 8b 40 08          	mov    rax,QWORD PTR [rax+0x8]
     b4e:	48 89 45 f8          	mov    QWORD PTR [rbp-0x8],rax
     b52:	e9 0f ff ff ff       	jmp    a66 <_ZL25stbrp__skyline_find_min_yP13stbrp_contextP10stbrp_nodeiiPi+0xd0>
     b57:	48 8b 45 c0          	mov    rax,QWORD PTR [rbp-0x40]
     b5b:	8b 55 ec             	mov    edx,DWORD PTR [rbp-0x14]
     b5e:	89 10                	mov    DWORD PTR [rax],edx
     b60:	8b 45 e4             	mov    eax,DWORD PTR [rbp-0x1c]
     b63:	c9                   	leave  
     b64:	c3                   	ret    

0000000000000b65 <_ZL28stbrp__skyline_find_best_posP13stbrp_contextii>:
     b65:	55                   	push   rbp
     b66:	48 89 e5             	mov    rbp,rsp
     b69:	48 83 ec 70          	sub    rsp,0x70
     b6d:	48 89 7d 98          	mov    QWORD PTR [rbp-0x68],rdi
     b71:	89 75 94             	mov    DWORD PTR [rbp-0x6c],esi
     b74:	89 55 90             	mov    DWORD PTR [rbp-0x70],edx
     b77:	64 48 8b 04 25 28 00 	mov    rax,QWORD PTR fs:0x28
     b7e:	00 00 
     b80:	48 89 45 f8          	mov    QWORD PTR [rbp-0x8],rax
     b84:	31 c0                	xor    eax,eax
     b86:	c7 45 a8 00 00 00 40 	mov    DWORD PTR [rbp-0x58],0x40000000
     b8d:	c7 45 b0 00 00 00 40 	mov    DWORD PTR [rbp-0x50],0x40000000
     b94:	48 c7 45 d8 00 00 00 	mov    QWORD PTR [rbp-0x28],0x0
     b9b:	00 
     b9c:	48 8b 45 98          	mov    rax,QWORD PTR [rbp-0x68]
     ba0:	8b 50 08             	mov    edx,DWORD PTR [rax+0x8]
     ba3:	8b 45 94             	mov    eax,DWORD PTR [rbp-0x6c]
     ba6:	01 d0                	add    eax,edx
     ba8:	83 e8 01             	sub    eax,0x1
     bab:	89 45 94             	mov    DWORD PTR [rbp-0x6c],eax
     bae:	48 8b 45 98          	mov    rax,QWORD PTR [rbp-0x68]
     bb2:	8b 48 08             	mov    ecx,DWORD PTR [rax+0x8]
     bb5:	8b 45 94             	mov    eax,DWORD PTR [rbp-0x6c]
     bb8:	99                   	cdq    
     bb9:	f7 f9                	idiv   ecx
     bbb:	89 d0                	mov    eax,edx
     bbd:	29 45 94             	sub    DWORD PTR [rbp-0x6c],eax
     bc0:	48 8b 45 98          	mov    rax,QWORD PTR [rbp-0x68]
     bc4:	8b 48 08             	mov    ecx,DWORD PTR [rax+0x8]
     bc7:	8b 45 94             	mov    eax,DWORD PTR [rbp-0x6c]
     bca:	99                   	cdq    
     bcb:	f7 f9                	idiv   ecx
     bcd:	89 d0                	mov    eax,edx
     bcf:	85 c0                	test   eax,eax
     bd1:	74 1f                	je     bf2 <_ZL28stbrp__skyline_find_best_posP13stbrp_contextii+0x8d>
     bd3:	48 8d 0d 00 00 00 00 	lea    rcx,[rip+0x0]        # bda <_ZL28stbrp__skyline_find_best_posP13stbrp_contextii+0x75>
     bda:	ba 68 01 00 00       	mov    edx,0x168
     bdf:	48 8d 35 00 00 00 00 	lea    rsi,[rip+0x0]        # be6 <_ZL28stbrp__skyline_find_best_posP13stbrp_contextii+0x81>
     be6:	48 8d 3d 00 00 00 00 	lea    rdi,[rip+0x0]        # bed <_ZL28stbrp__skyline_find_best_posP13stbrp_contextii+0x88>
     bed:	e8 00 00 00 00       	call   bf2 <_ZL28stbrp__skyline_find_best_posP13stbrp_contextii+0x8d>
     bf2:	48 8b 45 98          	mov    rax,QWORD PTR [rbp-0x68]
     bf6:	8b 00                	mov    eax,DWORD PTR [rax]
     bf8:	39 45 94             	cmp    DWORD PTR [rbp-0x6c],eax
     bfb:	7f 0c                	jg     c09 <_ZL28stbrp__skyline_find_best_posP13stbrp_contextii+0xa4>
     bfd:	48 8b 45 98          	mov    rax,QWORD PTR [rbp-0x68]
     c01:	8b 40 04             	mov    eax,DWORD PTR [rax+0x4]
     c04:	39 45 90             	cmp    DWORD PTR [rbp-0x70],eax
     c07:	7e 22                	jle    c2b <_ZL28stbrp__skyline_find_best_posP13stbrp_contextii+0xc6>
     c09:	48 c7 45 e8 00 00 00 	mov    QWORD PTR [rbp-0x18],0x0
     c10:	00 
     c11:	c7 45 e4 00 00 00 00 	mov    DWORD PTR [rbp-0x1c],0x0
     c18:	8b 45 e4             	mov    eax,DWORD PTR [rbp-0x1c]
     c1b:	89 45 e0             	mov    DWORD PTR [rbp-0x20],eax
     c1e:	48 8b 45 e0          	mov    rax,QWORD PTR [rbp-0x20]
     c22:	48 8b 55 e8          	mov    rdx,QWORD PTR [rbp-0x18]
     c26:	e9 c1 02 00 00       	jmp    eec <_ZL28stbrp__skyline_find_best_posP13stbrp_contextii+0x387>
     c2b:	48 8b 45 98          	mov    rax,QWORD PTR [rbp-0x68]
     c2f:	48 8b 40 18          	mov    rax,QWORD PTR [rax+0x18]
     c33:	48 89 45 c8          	mov    QWORD PTR [rbp-0x38],rax
     c37:	48 8b 45 98          	mov    rax,QWORD PTR [rbp-0x68]
     c3b:	48 83 c0 18          	add    rax,0x18
     c3f:	48 89 45 c0          	mov    QWORD PTR [rbp-0x40],rax
     c43:	48 8b 45 c8          	mov    rax,QWORD PTR [rbp-0x38]
     c47:	0f b7 00             	movzx  eax,WORD PTR [rax]
     c4a:	0f b7 d0             	movzx  edx,ax
     c4d:	8b 45 94             	mov    eax,DWORD PTR [rbp-0x6c]
     c50:	01 c2                	add    edx,eax
     c52:	48 8b 45 98          	mov    rax,QWORD PTR [rbp-0x68]
     c56:	8b 00                	mov    eax,DWORD PTR [rax]
     c58:	39 c2                	cmp    edx,eax
     c5a:	0f 8f a6 00 00 00    	jg     d06 <_ZL28stbrp__skyline_find_best_posP13stbrp_contextii+0x1a1>
     c60:	48 8b 45 c8          	mov    rax,QWORD PTR [rbp-0x38]
     c64:	0f b7 00             	movzx  eax,WORD PTR [rax]
     c67:	0f b7 d0             	movzx  edx,ax
     c6a:	48 8d 7d e0          	lea    rdi,[rbp-0x20]
     c6e:	8b 4d 94             	mov    ecx,DWORD PTR [rbp-0x6c]
     c71:	48 8b 75 c8          	mov    rsi,QWORD PTR [rbp-0x38]
     c75:	48 8b 45 98          	mov    rax,QWORD PTR [rbp-0x68]
     c79:	49 89 f8             	mov    r8,rdi
     c7c:	48 89 c7             	mov    rdi,rax
     c7f:	e8 12 fd ff ff       	call   996 <_ZL25stbrp__skyline_find_min_yP13stbrp_contextP10stbrp_nodeiiPi>
     c84:	89 45 b4             	mov    DWORD PTR [rbp-0x4c],eax
     c87:	48 8b 45 98          	mov    rax,QWORD PTR [rbp-0x68]
     c8b:	8b 40 10             	mov    eax,DWORD PTR [rax+0x10]
     c8e:	85 c0                	test   eax,eax
     c90:	75 18                	jne    caa <_ZL28stbrp__skyline_find_best_posP13stbrp_contextii+0x145>
     c92:	8b 45 b4             	mov    eax,DWORD PTR [rbp-0x4c]
     c95:	3b 45 b0             	cmp    eax,DWORD PTR [rbp-0x50]
     c98:	7d 4f                	jge    ce9 <_ZL28stbrp__skyline_find_best_posP13stbrp_contextii+0x184>
     c9a:	8b 45 b4             	mov    eax,DWORD PTR [rbp-0x4c]
     c9d:	89 45 b0             	mov    DWORD PTR [rbp-0x50],eax
     ca0:	48 8b 45 c0          	mov    rax,QWORD PTR [rbp-0x40]
     ca4:	48 89 45 d8          	mov    QWORD PTR [rbp-0x28],rax
     ca8:	eb 3f                	jmp    ce9 <_ZL28stbrp__skyline_find_best_posP13stbrp_contextii+0x184>
     caa:	8b 55 b4             	mov    edx,DWORD PTR [rbp-0x4c]
     cad:	8b 45 90             	mov    eax,DWORD PTR [rbp-0x70]
     cb0:	01 c2                	add    edx,eax
     cb2:	48 8b 45 98          	mov    rax,QWORD PTR [rbp-0x68]
     cb6:	8b 40 04             	mov    eax,DWORD PTR [rax+0x4]
     cb9:	39 c2                	cmp    edx,eax
     cbb:	7f 2c                	jg     ce9 <_ZL28stbrp__skyline_find_best_posP13stbrp_contextii+0x184>
     cbd:	8b 45 b4             	mov    eax,DWORD PTR [rbp-0x4c]
     cc0:	3b 45 b0             	cmp    eax,DWORD PTR [rbp-0x50]
     cc3:	7c 10                	jl     cd5 <_ZL28stbrp__skyline_find_best_posP13stbrp_contextii+0x170>
     cc5:	8b 45 b4             	mov    eax,DWORD PTR [rbp-0x4c]
     cc8:	3b 45 b0             	cmp    eax,DWORD PTR [rbp-0x50]
     ccb:	75 1c                	jne    ce9 <_ZL28stbrp__skyline_find_best_posP13stbrp_contextii+0x184>
     ccd:	8b 45 e0             	mov    eax,DWORD PTR [rbp-0x20]
     cd0:	39 45 a8             	cmp    DWORD PTR [rbp-0x58],eax
     cd3:	7e 14                	jle    ce9 <_ZL28stbrp__skyline_find_best_posP13stbrp_contextii+0x184>
     cd5:	8b 45 b4             	mov    eax,DWORD PTR [rbp-0x4c]
     cd8:	89 45 b0             	mov    DWORD PTR [rbp-0x50],eax
     cdb:	8b 45 e0             	mov    eax,DWORD PTR [rbp-0x20]
     cde:	89 45 a8             	mov    DWORD PTR [rbp-0x58],eax
     ce1:	48 8b 45 c0          	mov    rax,QWORD PTR [rbp-0x40]
     ce5:	48 89 45 d8          	mov    QWORD PTR [rbp-0x28],rax
     ce9:	48 8b 45 c8          	mov    rax,QWORD PTR [rbp-0x38]
     ced:	48 83 c0 08          	add    rax,0x8
     cf1:	48 89 45 c0          	mov    QWORD PTR [rbp-0x40],rax
     cf5:	48 8b 45 c8          	mov    rax,QWORD PTR [rbp-0x38]
     cf9:	48 8b 40 08          	mov    rax,QWORD PTR [rax+0x8]
     cfd:	48 89 45 c8          	mov    QWORD PTR [rbp-0x38],rax
     d01:	e9 3d ff ff ff       	jmp    c43 <_ZL28stbrp__skyline_find_best_posP13stbrp_contextii+0xde>
     d06:	48 83 7d d8 00       	cmp    QWORD PTR [rbp-0x28],0x0
     d0b:	74 0f                	je     d1c <_ZL28stbrp__skyline_find_best_posP13stbrp_contextii+0x1b7>
     d0d:	48 8b 45 d8          	mov    rax,QWORD PTR [rbp-0x28]
     d11:	48 8b 00             	mov    rax,QWORD PTR [rax]
     d14:	0f b7 00             	movzx  eax,WORD PTR [rax]
     d17:	0f b7 c0             	movzx  eax,ax
     d1a:	eb 05                	jmp    d21 <_ZL28stbrp__skyline_find_best_posP13stbrp_contextii+0x1bc>
     d1c:	b8 00 00 00 00       	mov    eax,0x0
     d21:	89 45 ac             	mov    DWORD PTR [rbp-0x54],eax
     d24:	48 8b 45 98          	mov    rax,QWORD PTR [rbp-0x68]
     d28:	8b 40 10             	mov    eax,DWORD PTR [rax+0x10]
     d2b:	83 f8 01             	cmp    eax,0x1
     d2e:	0f 85 9c 01 00 00    	jne    ed0 <_ZL28stbrp__skyline_find_best_posP13stbrp_contextii+0x36b>
     d34:	48 8b 45 98          	mov    rax,QWORD PTR [rbp-0x68]
     d38:	48 8b 40 18          	mov    rax,QWORD PTR [rax+0x18]
     d3c:	48 89 45 d0          	mov    QWORD PTR [rbp-0x30],rax
     d40:	48 8b 45 98          	mov    rax,QWORD PTR [rbp-0x68]
     d44:	48 8b 40 18          	mov    rax,QWORD PTR [rax+0x18]
     d48:	48 89 45 c8          	mov    QWORD PTR [rbp-0x38],rax
     d4c:	48 8b 45 98          	mov    rax,QWORD PTR [rbp-0x68]
     d50:	48 83 c0 18          	add    rax,0x18
     d54:	48 89 45 c0          	mov    QWORD PTR [rbp-0x40],rax
     d58:	48 8b 45 d0          	mov    rax,QWORD PTR [rbp-0x30]
     d5c:	0f b7 00             	movzx  eax,WORD PTR [rax]
     d5f:	0f b7 c0             	movzx  eax,ax
     d62:	39 45 94             	cmp    DWORD PTR [rbp-0x6c],eax
     d65:	7e 0e                	jle    d75 <_ZL28stbrp__skyline_find_best_posP13stbrp_contextii+0x210>
     d67:	48 8b 45 d0          	mov    rax,QWORD PTR [rbp-0x30]
     d6b:	48 8b 40 08          	mov    rax,QWORD PTR [rax+0x8]
     d6f:	48 89 45 d0          	mov    QWORD PTR [rbp-0x30],rax
     d73:	eb e3                	jmp    d58 <_ZL28stbrp__skyline_find_best_posP13stbrp_contextii+0x1f3>
     d75:	48 83 7d d0 00       	cmp    QWORD PTR [rbp-0x30],0x0
     d7a:	0f 84 50 01 00 00    	je     ed0 <_ZL28stbrp__skyline_find_best_posP13stbrp_contextii+0x36b>
     d80:	48 8b 45 d0          	mov    rax,QWORD PTR [rbp-0x30]
     d84:	0f b7 00             	movzx  eax,WORD PTR [rax]
     d87:	0f b7 c0             	movzx  eax,ax
     d8a:	2b 45 94             	sub    eax,DWORD PTR [rbp-0x6c]
     d8d:	89 45 b8             	mov    DWORD PTR [rbp-0x48],eax
     d90:	83 7d b8 00          	cmp    DWORD PTR [rbp-0x48],0x0
     d94:	79 1f                	jns    db5 <_ZL28stbrp__skyline_find_best_posP13stbrp_contextii+0x250>
     d96:	48 8d 0d 00 00 00 00 	lea    rcx,[rip+0x0]        # d9d <_ZL28stbrp__skyline_find_best_posP13stbrp_contextii+0x238>
     d9d:	ba a8 01 00 00       	mov    edx,0x1a8
     da2:	48 8d 35 00 00 00 00 	lea    rsi,[rip+0x0]        # da9 <_ZL28stbrp__skyline_find_best_posP13stbrp_contextii+0x244>
     da9:	48 8d 3d 00 00 00 00 	lea    rdi,[rip+0x0]        # db0 <_ZL28stbrp__skyline_find_best_posP13stbrp_contextii+0x24b>
     db0:	e8 00 00 00 00       	call   db5 <_ZL28stbrp__skyline_find_best_posP13stbrp_contextii+0x250>
     db5:	48 8b 45 c8          	mov    rax,QWORD PTR [rbp-0x38]
     db9:	48 8b 40 08          	mov    rax,QWORD PTR [rax+0x8]
     dbd:	0f b7 00             	movzx  eax,WORD PTR [rax]
     dc0:	0f b7 c0             	movzx  eax,ax
     dc3:	39 45 b8             	cmp    DWORD PTR [rbp-0x48],eax
     dc6:	7c 1a                	jl     de2 <_ZL28stbrp__skyline_find_best_posP13stbrp_contextii+0x27d>
     dc8:	48 8b 45 c8          	mov    rax,QWORD PTR [rbp-0x38]
     dcc:	48 83 c0 08          	add    rax,0x8
     dd0:	48 89 45 c0          	mov    QWORD PTR [rbp-0x40],rax
     dd4:	48 8b 45 c8          	mov    rax,QWORD PTR [rbp-0x38]
     dd8:	48 8b 40 08          	mov    rax,QWORD PTR [rax+0x8]
     ddc:	48 89 45 c8          	mov    QWORD PTR [rbp-0x38],rax
     de0:	eb d3                	jmp    db5 <_ZL28stbrp__skyline_find_best_posP13stbrp_contextii+0x250>
     de2:	48 8b 45 c8          	mov    rax,QWORD PTR [rbp-0x38]
     de6:	48 8b 40 08          	mov    rax,QWORD PTR [rax+0x8]
     dea:	0f b7 00             	movzx  eax,WORD PTR [rax]
     ded:	0f b7 c0             	movzx  eax,ax
     df0:	39 45 b8             	cmp    DWORD PTR [rbp-0x48],eax
     df3:	7d 0f                	jge    e04 <_ZL28stbrp__skyline_find_best_posP13stbrp_contextii+0x29f>
     df5:	48 8b 45 c8          	mov    rax,QWORD PTR [rbp-0x38]
     df9:	0f b7 00             	movzx  eax,WORD PTR [rax]
     dfc:	0f b7 c0             	movzx  eax,ax
     dff:	39 45 b8             	cmp    DWORD PTR [rbp-0x48],eax
     e02:	7d 1f                	jge    e23 <_ZL28stbrp__skyline_find_best_posP13stbrp_contextii+0x2be>
     e04:	48 8d 0d 00 00 00 00 	lea    rcx,[rip+0x0]        # e0b <_ZL28stbrp__skyline_find_best_posP13stbrp_contextii+0x2a6>
     e0b:	ba ae 01 00 00       	mov    edx,0x1ae
     e10:	48 8d 35 00 00 00 00 	lea    rsi,[rip+0x0]        # e17 <_ZL28stbrp__skyline_find_best_posP13stbrp_contextii+0x2b2>
     e17:	48 8d 3d 00 00 00 00 	lea    rdi,[rip+0x0]        # e1e <_ZL28stbrp__skyline_find_best_posP13stbrp_contextii+0x2b9>
     e1e:	e8 00 00 00 00       	call   e23 <_ZL28stbrp__skyline_find_best_posP13stbrp_contextii+0x2be>
     e23:	48 8d 7d e0          	lea    rdi,[rbp-0x20]
     e27:	8b 4d 94             	mov    ecx,DWORD PTR [rbp-0x6c]
     e2a:	8b 55 b8             	mov    edx,DWORD PTR [rbp-0x48]
     e2d:	48 8b 75 c8          	mov    rsi,QWORD PTR [rbp-0x38]
     e31:	48 8b 45 98          	mov    rax,QWORD PTR [rbp-0x68]
     e35:	49 89 f8             	mov    r8,rdi
     e38:	48 89 c7             	mov    rdi,rax
     e3b:	e8 56 fb ff ff       	call   996 <_ZL25stbrp__skyline_find_min_yP13stbrp_contextP10stbrp_nodeiiPi>
     e40:	89 45 bc             	mov    DWORD PTR [rbp-0x44],eax
     e43:	8b 55 bc             	mov    edx,DWORD PTR [rbp-0x44]
     e46:	8b 45 90             	mov    eax,DWORD PTR [rbp-0x70]
     e49:	01 c2                	add    edx,eax
     e4b:	48 8b 45 98          	mov    rax,QWORD PTR [rbp-0x68]
     e4f:	8b 40 04             	mov    eax,DWORD PTR [rax+0x4]
     e52:	39 c2                	cmp    edx,eax
     e54:	7f 69                	jg     ebf <_ZL28stbrp__skyline_find_best_posP13stbrp_contextii+0x35a>
     e56:	8b 45 bc             	mov    eax,DWORD PTR [rbp-0x44]
     e59:	3b 45 b0             	cmp    eax,DWORD PTR [rbp-0x50]
     e5c:	7f 61                	jg     ebf <_ZL28stbrp__skyline_find_best_posP13stbrp_contextii+0x35a>
     e5e:	8b 45 bc             	mov    eax,DWORD PTR [rbp-0x44]
     e61:	3b 45 b0             	cmp    eax,DWORD PTR [rbp-0x50]
     e64:	7c 18                	jl     e7e <_ZL28stbrp__skyline_find_best_posP13stbrp_contextii+0x319>
     e66:	8b 45 e0             	mov    eax,DWORD PTR [rbp-0x20]
     e69:	39 45 a8             	cmp    DWORD PTR [rbp-0x58],eax
     e6c:	7f 10                	jg     e7e <_ZL28stbrp__skyline_find_best_posP13stbrp_contextii+0x319>
     e6e:	8b 45 e0             	mov    eax,DWORD PTR [rbp-0x20]
     e71:	39 45 a8             	cmp    DWORD PTR [rbp-0x58],eax
     e74:	75 49                	jne    ebf <_ZL28stbrp__skyline_find_best_posP13stbrp_contextii+0x35a>
     e76:	8b 45 b8             	mov    eax,DWORD PTR [rbp-0x48]
     e79:	3b 45 ac             	cmp    eax,DWORD PTR [rbp-0x54]
     e7c:	7d 41                	jge    ebf <_ZL28stbrp__skyline_find_best_posP13stbrp_contextii+0x35a>
     e7e:	8b 45 b8             	mov    eax,DWORD PTR [rbp-0x48]
     e81:	89 45 ac             	mov    DWORD PTR [rbp-0x54],eax
     e84:	8b 45 bc             	mov    eax,DWORD PTR [rbp-0x44]
     e87:	3b 45 b0             	cmp    eax,DWORD PTR [rbp-0x50]
     e8a:	7e 1f                	jle    eab <_ZL28stbrp__skyline_find_best_posP13stbrp_contextii+0x346>
     e8c:	48 8d 0d 00 00 00 00 	lea    rcx,[rip+0x0]        # e93 <_ZL28stbrp__skyline_find_best_posP13stbrp_contextii+0x32e>
     e93:	ba b4 01 00 00       	mov    edx,0x1b4
     e98:	48 8d 35 00 00 00 00 	lea    rsi,[rip+0x0]        # e9f <_ZL28stbrp__skyline_find_best_posP13stbrp_contextii+0x33a>
     e9f:	48 8d 3d 00 00 00 00 	lea    rdi,[rip+0x0]        # ea6 <_ZL28stbrp__skyline_find_best_posP13stbrp_contextii+0x341>
     ea6:	e8 00 00 00 00       	call   eab <_ZL28stbrp__skyline_find_best_posP13stbrp_contextii+0x346>
     eab:	8b 45 bc             	mov    eax,DWORD PTR [rbp-0x44]
     eae:	89 45 b0             	mov    DWORD PTR [rbp-0x50],eax
     eb1:	8b 45 e0             	mov    eax,DWORD PTR [rbp-0x20]
     eb4:	89 45 a8             	mov    DWORD PTR [rbp-0x58],eax
     eb7:	48 8b 45 c0          	mov    rax,QWORD PTR [rbp-0x40]
     ebb:	48 89 45 d8          	mov    QWORD PTR [rbp-0x28],rax
     ebf:	48 8b 45 d0          	mov    rax,QWORD PTR [rbp-0x30]
     ec3:	48 8b 40 08          	mov    rax,QWORD PTR [rax+0x8]
     ec7:	48 89 45 d0          	mov    QWORD PTR [rbp-0x30],rax
     ecb:	e9 a5 fe ff ff       	jmp    d75 <_ZL28stbrp__skyline_find_best_posP13stbrp_contextii+0x210>
     ed0:	48 8b 45 d8          	mov    rax,QWORD PTR [rbp-0x28]
     ed4:	48 89 45 e8          	mov    QWORD PTR [rbp-0x18],rax
     ed8:	8b 45 ac             	mov    eax,DWORD PTR [rbp-0x54]
     edb:	89 45 e0             	mov    DWORD PTR [rbp-0x20],eax
     ede:	8b 45 b0             	mov    eax,DWORD PTR [rbp-0x50]
     ee1:	89 45 e4             	mov    DWORD PTR [rbp-0x1c],eax
     ee4:	48 8b 45 e0          	mov    rax,QWORD PTR [rbp-0x20]
     ee8:	48 8b 55 e8          	mov    rdx,QWORD PTR [rbp-0x18]
     eec:	48 8b 75 f8          	mov    rsi,QWORD PTR [rbp-0x8]
     ef0:	64 48 33 34 25 28 00 	xor    rsi,QWORD PTR fs:0x28
     ef7:	00 00 
     ef9:	74 05                	je     f00 <_ZL28stbrp__skyline_find_best_posP13stbrp_contextii+0x39b>
     efb:	e8 00 00 00 00       	call   f00 <_ZL28stbrp__skyline_find_best_posP13stbrp_contextii+0x39b>
     f00:	c9                   	leave  
     f01:	c3                   	ret    

0000000000000f02 <_ZL29stbrp__skyline_pack_rectangleP13stbrp_contextii>:
     f02:	55                   	push   rbp
     f03:	48 89 e5             	mov    rbp,rsp
     f06:	48 83 ec 50          	sub    rsp,0x50
     f0a:	48 89 7d b8          	mov    QWORD PTR [rbp-0x48],rdi
     f0e:	89 75 b4             	mov    DWORD PTR [rbp-0x4c],esi
     f11:	89 55 b0             	mov    DWORD PTR [rbp-0x50],edx
     f14:	64 48 8b 04 25 28 00 	mov    rax,QWORD PTR fs:0x28
     f1b:	00 00 
     f1d:	48 89 45 f8          	mov    QWORD PTR [rbp-0x8],rax
     f21:	31 c0                	xor    eax,eax
     f23:	8b 55 b0             	mov    edx,DWORD PTR [rbp-0x50]
     f26:	8b 4d b4             	mov    ecx,DWORD PTR [rbp-0x4c]
     f29:	48 8b 45 b8          	mov    rax,QWORD PTR [rbp-0x48]
     f2d:	89 ce                	mov    esi,ecx
     f2f:	48 89 c7             	mov    rdi,rax
     f32:	e8 2e fc ff ff       	call   b65 <_ZL28stbrp__skyline_find_best_posP13stbrp_contextii>
     f37:	48 89 45 e0          	mov    QWORD PTR [rbp-0x20],rax
     f3b:	48 89 55 e8          	mov    QWORD PTR [rbp-0x18],rdx
     f3f:	48 8b 45 e8          	mov    rax,QWORD PTR [rbp-0x18]
     f43:	48 85 c0             	test   rax,rax
     f46:	74 20                	je     f68 <_ZL29stbrp__skyline_pack_rectangleP13stbrp_contextii+0x66>
     f48:	8b 55 e4             	mov    edx,DWORD PTR [rbp-0x1c]
     f4b:	8b 45 b0             	mov    eax,DWORD PTR [rbp-0x50]
     f4e:	01 c2                	add    edx,eax
     f50:	48 8b 45 b8          	mov    rax,QWORD PTR [rbp-0x48]
     f54:	8b 40 04             	mov    eax,DWORD PTR [rax+0x4]
     f57:	39 c2                	cmp    edx,eax
     f59:	7f 0d                	jg     f68 <_ZL29stbrp__skyline_pack_rectangleP13stbrp_contextii+0x66>
     f5b:	48 8b 45 b8          	mov    rax,QWORD PTR [rbp-0x48]
     f5f:	48 8b 40 20          	mov    rax,QWORD PTR [rax+0x20]
     f63:	48 85 c0             	test   rax,rax
     f66:	75 15                	jne    f7d <_ZL29stbrp__skyline_pack_rectangleP13stbrp_contextii+0x7b>
     f68:	48 c7 45 e8 00 00 00 	mov    QWORD PTR [rbp-0x18],0x0
     f6f:	00 
     f70:	48 8b 45 e0          	mov    rax,QWORD PTR [rbp-0x20]
     f74:	48 8b 55 e8          	mov    rdx,QWORD PTR [rbp-0x18]
     f78:	e9 17 01 00 00       	jmp    1094 <_ZL29stbrp__skyline_pack_rectangleP13stbrp_contextii+0x192>
     f7d:	48 8b 45 b8          	mov    rax,QWORD PTR [rbp-0x48]
     f81:	48 8b 40 20          	mov    rax,QWORD PTR [rax+0x20]
     f85:	48 89 45 c8          	mov    QWORD PTR [rbp-0x38],rax
     f89:	8b 45 e0             	mov    eax,DWORD PTR [rbp-0x20]
     f8c:	89 c2                	mov    edx,eax
     f8e:	48 8b 45 c8          	mov    rax,QWORD PTR [rbp-0x38]
     f92:	66 89 10             	mov    WORD PTR [rax],dx
     f95:	8b 45 e4             	mov    eax,DWORD PTR [rbp-0x1c]
     f98:	89 c2                	mov    edx,eax
     f9a:	8b 45 b0             	mov    eax,DWORD PTR [rbp-0x50]
     f9d:	01 c2                	add    edx,eax
     f9f:	48 8b 45 c8          	mov    rax,QWORD PTR [rbp-0x38]
     fa3:	66 89 50 02          	mov    WORD PTR [rax+0x2],dx
     fa7:	48 8b 45 c8          	mov    rax,QWORD PTR [rbp-0x38]
     fab:	48 8b 50 08          	mov    rdx,QWORD PTR [rax+0x8]
     faf:	48 8b 45 b8          	mov    rax,QWORD PTR [rbp-0x48]
     fb3:	48 89 50 20          	mov    QWORD PTR [rax+0x20],rdx
     fb7:	48 8b 45 e8          	mov    rax,QWORD PTR [rbp-0x18]
     fbb:	48 8b 00             	mov    rax,QWORD PTR [rax]
     fbe:	48 89 45 c0          	mov    QWORD PTR [rbp-0x40],rax
     fc2:	48 8b 45 c0          	mov    rax,QWORD PTR [rbp-0x40]
     fc6:	0f b7 00             	movzx  eax,WORD PTR [rax]
     fc9:	0f b7 d0             	movzx  edx,ax
     fcc:	8b 45 e0             	mov    eax,DWORD PTR [rbp-0x20]
     fcf:	39 c2                	cmp    edx,eax
     fd1:	7d 22                	jge    ff5 <_ZL29stbrp__skyline_pack_rectangleP13stbrp_contextii+0xf3>
     fd3:	48 8b 45 c0          	mov    rax,QWORD PTR [rbp-0x40]
     fd7:	48 8b 40 08          	mov    rax,QWORD PTR [rax+0x8]
     fdb:	48 89 45 d0          	mov    QWORD PTR [rbp-0x30],rax
     fdf:	48 8b 45 c0          	mov    rax,QWORD PTR [rbp-0x40]
     fe3:	48 8b 55 c8          	mov    rdx,QWORD PTR [rbp-0x38]
     fe7:	48 89 50 08          	mov    QWORD PTR [rax+0x8],rdx
     feb:	48 8b 45 d0          	mov    rax,QWORD PTR [rbp-0x30]
     fef:	48 89 45 c0          	mov    QWORD PTR [rbp-0x40],rax
     ff3:	eb 0b                	jmp    1000 <_ZL29stbrp__skyline_pack_rectangleP13stbrp_contextii+0xfe>
     ff5:	48 8b 45 e8          	mov    rax,QWORD PTR [rbp-0x18]
     ff9:	48 8b 55 c8          	mov    rdx,QWORD PTR [rbp-0x38]
     ffd:	48 89 10             	mov    QWORD PTR [rax],rdx
    1000:	48 8b 45 c0          	mov    rax,QWORD PTR [rbp-0x40]
    1004:	48 8b 40 08          	mov    rax,QWORD PTR [rax+0x8]
    1008:	48 85 c0             	test   rax,rax
    100b:	74 4c                	je     1059 <_ZL29stbrp__skyline_pack_rectangleP13stbrp_contextii+0x157>
    100d:	48 8b 45 c0          	mov    rax,QWORD PTR [rbp-0x40]
    1011:	48 8b 40 08          	mov    rax,QWORD PTR [rax+0x8]
    1015:	0f b7 00             	movzx  eax,WORD PTR [rax]
    1018:	0f b7 c0             	movzx  eax,ax
    101b:	8b 4d e0             	mov    ecx,DWORD PTR [rbp-0x20]
    101e:	8b 55 b4             	mov    edx,DWORD PTR [rbp-0x4c]
    1021:	01 ca                	add    edx,ecx
    1023:	39 d0                	cmp    eax,edx
    1025:	7f 32                	jg     1059 <_ZL29stbrp__skyline_pack_rectangleP13stbrp_contextii+0x157>
    1027:	48 8b 45 c0          	mov    rax,QWORD PTR [rbp-0x40]
    102b:	48 8b 40 08          	mov    rax,QWORD PTR [rax+0x8]
    102f:	48 89 45 d8          	mov    QWORD PTR [rbp-0x28],rax
    1033:	48 8b 45 b8          	mov    rax,QWORD PTR [rbp-0x48]
    1037:	48 8b 50 20          	mov    rdx,QWORD PTR [rax+0x20]
    103b:	48 8b 45 c0          	mov    rax,QWORD PTR [rbp-0x40]
    103f:	48 89 50 08          	mov    QWORD PTR [rax+0x8],rdx
    1043:	48 8b 45 b8          	mov    rax,QWORD PTR [rbp-0x48]
    1047:	48 8b 55 c0          	mov    rdx,QWORD PTR [rbp-0x40]
    104b:	48 89 50 20          	mov    QWORD PTR [rax+0x20],rdx
    104f:	48 8b 45 d8          	mov    rax,QWORD PTR [rbp-0x28]
    1053:	48 89 45 c0          	mov    QWORD PTR [rbp-0x40],rax
    1057:	eb a7                	jmp    1000 <_ZL29stbrp__skyline_pack_rectangleP13stbrp_contextii+0xfe>
    1059:	48 8b 45 c8          	mov    rax,QWORD PTR [rbp-0x38]
    105d:	48 8b 55 c0          	mov    rdx,QWORD PTR [rbp-0x40]
    1061:	48 89 50 08          	mov    QWORD PTR [rax+0x8],rdx
    1065:	48 8b 45 c0          	mov    rax,QWORD PTR [rbp-0x40]
    1069:	0f b7 00             	movzx  eax,WORD PTR [rax]
    106c:	0f b7 c0             	movzx  eax,ax
    106f:	8b 4d e0             	mov    ecx,DWORD PTR [rbp-0x20]
    1072:	8b 55 b4             	mov    edx,DWORD PTR [rbp-0x4c]
    1075:	01 ca                	add    edx,ecx
    1077:	39 d0                	cmp    eax,edx
    1079:	7d 11                	jge    108c <_ZL29stbrp__skyline_pack_rectangleP13stbrp_contextii+0x18a>
    107b:	8b 45 e0             	mov    eax,DWORD PTR [rbp-0x20]
    107e:	89 c2                	mov    edx,eax
    1080:	8b 45 b4             	mov    eax,DWORD PTR [rbp-0x4c]
    1083:	01 c2                	add    edx,eax
    1085:	48 8b 45 c0          	mov    rax,QWORD PTR [rbp-0x40]
    1089:	66 89 10             	mov    WORD PTR [rax],dx
    108c:	48 8b 45 e0          	mov    rax,QWORD PTR [rbp-0x20]
    1090:	48 8b 55 e8          	mov    rdx,QWORD PTR [rbp-0x18]
    1094:	48 8b 75 f8          	mov    rsi,QWORD PTR [rbp-0x8]
    1098:	64 48 33 34 25 28 00 	xor    rsi,QWORD PTR fs:0x28
    109f:	00 00 
    10a1:	74 05                	je     10a8 <_ZL29stbrp__skyline_pack_rectangleP13stbrp_contextii+0x1a6>
    10a3:	e8 00 00 00 00       	call   10a8 <_ZL29stbrp__skyline_pack_rectangleP13stbrp_contextii+0x1a6>
    10a8:	c9                   	leave  
    10a9:	c3                   	ret    

00000000000010aa <_ZL19rect_height_comparePKvS0_>:
    10aa:	55                   	push   rbp
    10ab:	48 89 e5             	mov    rbp,rsp
    10ae:	48 89 7d e8          	mov    QWORD PTR [rbp-0x18],rdi
    10b2:	48 89 75 e0          	mov    QWORD PTR [rbp-0x20],rsi
    10b6:	48 8b 45 e8          	mov    rax,QWORD PTR [rbp-0x18]
    10ba:	48 89 45 f0          	mov    QWORD PTR [rbp-0x10],rax
    10be:	48 8b 45 e0          	mov    rax,QWORD PTR [rbp-0x20]
    10c2:	48 89 45 f8          	mov    QWORD PTR [rbp-0x8],rax
    10c6:	48 8b 45 f0          	mov    rax,QWORD PTR [rbp-0x10]
    10ca:	0f b7 50 06          	movzx  edx,WORD PTR [rax+0x6]
    10ce:	48 8b 45 f8          	mov    rax,QWORD PTR [rbp-0x8]
    10d2:	0f b7 40 06          	movzx  eax,WORD PTR [rax+0x6]
    10d6:	66 39 c2             	cmp    dx,ax
    10d9:	76 07                	jbe    10e2 <_ZL19rect_height_comparePKvS0_+0x38>
    10db:	b8 ff ff ff ff       	mov    eax,0xffffffff
    10e0:	eb 52                	jmp    1134 <_ZL19rect_height_comparePKvS0_+0x8a>
    10e2:	48 8b 45 f0          	mov    rax,QWORD PTR [rbp-0x10]
    10e6:	0f b7 50 06          	movzx  edx,WORD PTR [rax+0x6]
    10ea:	48 8b 45 f8          	mov    rax,QWORD PTR [rbp-0x8]
    10ee:	0f b7 40 06          	movzx  eax,WORD PTR [rax+0x6]
    10f2:	66 39 c2             	cmp    dx,ax
    10f5:	73 07                	jae    10fe <_ZL19rect_height_comparePKvS0_+0x54>
    10f7:	b8 01 00 00 00       	mov    eax,0x1
    10fc:	eb 36                	jmp    1134 <_ZL19rect_height_comparePKvS0_+0x8a>
    10fe:	48 8b 45 f0          	mov    rax,QWORD PTR [rbp-0x10]
    1102:	0f b7 50 04          	movzx  edx,WORD PTR [rax+0x4]
    1106:	48 8b 45 f8          	mov    rax,QWORD PTR [rbp-0x8]
    110a:	0f b7 40 04          	movzx  eax,WORD PTR [rax+0x4]
    110e:	66 39 c2             	cmp    dx,ax
    1111:	77 1b                	ja     112e <_ZL19rect_height_comparePKvS0_+0x84>
    1113:	48 8b 45 f0          	mov    rax,QWORD PTR [rbp-0x10]
    1117:	0f b7 50 04          	movzx  edx,WORD PTR [rax+0x4]
    111b:	48 8b 45 f8          	mov    rax,QWORD PTR [rbp-0x8]
    111f:	0f b7 40 04          	movzx  eax,WORD PTR [rax+0x4]
    1123:	66 39 c2             	cmp    dx,ax
    1126:	0f 92 c0             	setb   al
    1129:	0f b6 c0             	movzx  eax,al
    112c:	eb 05                	jmp    1133 <_ZL19rect_height_comparePKvS0_+0x89>
    112e:	b8 ff ff ff ff       	mov    eax,0xffffffff
    1133:	90                   	nop
    1134:	5d                   	pop    rbp
    1135:	c3                   	ret    

0000000000001136 <_ZL19rect_original_orderPKvS0_>:
    1136:	55                   	push   rbp
    1137:	48 89 e5             	mov    rbp,rsp
    113a:	48 89 7d e8          	mov    QWORD PTR [rbp-0x18],rdi
    113e:	48 89 75 e0          	mov    QWORD PTR [rbp-0x20],rsi
    1142:	48 8b 45 e8          	mov    rax,QWORD PTR [rbp-0x18]
    1146:	48 89 45 f0          	mov    QWORD PTR [rbp-0x10],rax
    114a:	48 8b 45 e0          	mov    rax,QWORD PTR [rbp-0x20]
    114e:	48 89 45 f8          	mov    QWORD PTR [rbp-0x8],rax
    1152:	48 8b 45 f0          	mov    rax,QWORD PTR [rbp-0x10]
    1156:	8b 50 0c             	mov    edx,DWORD PTR [rax+0xc]
    1159:	48 8b 45 f8          	mov    rax,QWORD PTR [rbp-0x8]
    115d:	8b 40 0c             	mov    eax,DWORD PTR [rax+0xc]
    1160:	39 c2                	cmp    edx,eax
    1162:	7c 18                	jl     117c <_ZL19rect_original_orderPKvS0_+0x46>
    1164:	48 8b 45 f0          	mov    rax,QWORD PTR [rbp-0x10]
    1168:	8b 50 0c             	mov    edx,DWORD PTR [rax+0xc]
    116b:	48 8b 45 f8          	mov    rax,QWORD PTR [rbp-0x8]
    116f:	8b 40 0c             	mov    eax,DWORD PTR [rax+0xc]
    1172:	39 c2                	cmp    edx,eax
    1174:	0f 9f c0             	setg   al
    1177:	0f b6 c0             	movzx  eax,al
    117a:	eb 05                	jmp    1181 <_ZL19rect_original_orderPKvS0_+0x4b>
    117c:	b8 ff ff ff ff       	mov    eax,0xffffffff
    1181:	5d                   	pop    rbp
    1182:	c3                   	ret    

0000000000001183 <stbrp_pack_rects>:
    1183:	55                   	push   rbp
    1184:	48 89 e5             	mov    rbp,rsp
    1187:	48 83 ec 40          	sub    rsp,0x40
    118b:	48 89 7d d8          	mov    QWORD PTR [rbp-0x28],rdi
    118f:	48 89 75 d0          	mov    QWORD PTR [rbp-0x30],rsi
    1193:	89 55 cc             	mov    DWORD PTR [rbp-0x34],edx
    1196:	c7 45 ec 01 00 00 00 	mov    DWORD PTR [rbp-0x14],0x1
    119d:	c7 45 e8 00 00 00 00 	mov    DWORD PTR [rbp-0x18],0x0
    11a4:	8b 45 e8             	mov    eax,DWORD PTR [rbp-0x18]
    11a7:	3b 45 cc             	cmp    eax,DWORD PTR [rbp-0x34]
    11aa:	7d 1f                	jge    11cb <stbrp_pack_rects+0x48>
    11ac:	8b 45 e8             	mov    eax,DWORD PTR [rbp-0x18]
    11af:	48 98                	cdqe   
    11b1:	48 c1 e0 04          	shl    rax,0x4
    11b5:	48 89 c2             	mov    rdx,rax
    11b8:	48 8b 45 d0          	mov    rax,QWORD PTR [rbp-0x30]
    11bc:	48 01 c2             	add    rdx,rax
    11bf:	8b 45 e8             	mov    eax,DWORD PTR [rbp-0x18]
    11c2:	89 42 0c             	mov    DWORD PTR [rdx+0xc],eax
    11c5:	83 45 e8 01          	add    DWORD PTR [rbp-0x18],0x1
    11c9:	eb d9                	jmp    11a4 <stbrp_pack_rects+0x21>
    11cb:	8b 45 cc             	mov    eax,DWORD PTR [rbp-0x34]
    11ce:	48 63 f0             	movsxd rsi,eax
    11d1:	48 8b 45 d0          	mov    rax,QWORD PTR [rbp-0x30]
    11d5:	48 8d 0d ce fe ff ff 	lea    rcx,[rip+0xfffffffffffffece]        # 10aa <_ZL19rect_height_comparePKvS0_>
    11dc:	ba 10 00 00 00       	mov    edx,0x10
    11e1:	48 89 c7             	mov    rdi,rax
    11e4:	e8 00 00 00 00       	call   11e9 <stbrp_pack_rects+0x66>
    11e9:	c7 45 e8 00 00 00 00 	mov    DWORD PTR [rbp-0x18],0x0
    11f0:	8b 45 e8             	mov    eax,DWORD PTR [rbp-0x18]
    11f3:	3b 45 cc             	cmp    eax,DWORD PTR [rbp-0x34]
    11f6:	0f 8d 39 01 00 00    	jge    1335 <stbrp_pack_rects+0x1b2>
    11fc:	8b 45 e8             	mov    eax,DWORD PTR [rbp-0x18]
    11ff:	48 98                	cdqe   
    1201:	48 c1 e0 04          	shl    rax,0x4
    1205:	48 89 c2             	mov    rdx,rax
    1208:	48 8b 45 d0          	mov    rax,QWORD PTR [rbp-0x30]
    120c:	48 01 d0             	add    rax,rdx
    120f:	0f b7 40 04          	movzx  eax,WORD PTR [rax+0x4]
    1213:	66 85 c0             	test   ax,ax
    1216:	74 1c                	je     1234 <stbrp_pack_rects+0xb1>
    1218:	8b 45 e8             	mov    eax,DWORD PTR [rbp-0x18]
    121b:	48 98                	cdqe   
    121d:	48 c1 e0 04          	shl    rax,0x4
    1221:	48 89 c2             	mov    rdx,rax
    1224:	48 8b 45 d0          	mov    rax,QWORD PTR [rbp-0x30]
    1228:	48 01 d0             	add    rax,rdx
    122b:	0f b7 40 06          	movzx  eax,WORD PTR [rax+0x6]
    122f:	66 85 c0             	test   ax,ax
    1232:	75 3a                	jne    126e <stbrp_pack_rects+0xeb>
    1234:	8b 45 e8             	mov    eax,DWORD PTR [rbp-0x18]
    1237:	48 98                	cdqe   
    1239:	48 c1 e0 04          	shl    rax,0x4
    123d:	48 89 c2             	mov    rdx,rax
    1240:	48 8b 45 d0          	mov    rax,QWORD PTR [rbp-0x30]
    1244:	48 01 d0             	add    rax,rdx
    1247:	66 c7 40 0a 00 00    	mov    WORD PTR [rax+0xa],0x0
    124d:	8b 55 e8             	mov    edx,DWORD PTR [rbp-0x18]
    1250:	48 63 d2             	movsxd rdx,edx
    1253:	48 89 d1             	mov    rcx,rdx
    1256:	48 c1 e1 04          	shl    rcx,0x4
    125a:	48 8b 55 d0          	mov    rdx,QWORD PTR [rbp-0x30]
    125e:	48 01 ca             	add    rdx,rcx
    1261:	0f b7 40 0a          	movzx  eax,WORD PTR [rax+0xa]
    1265:	66 89 42 08          	mov    WORD PTR [rdx+0x8],ax
    1269:	e9 be 00 00 00       	jmp    132c <stbrp_pack_rects+0x1a9>
    126e:	8b 45 e8             	mov    eax,DWORD PTR [rbp-0x18]
    1271:	48 98                	cdqe   
    1273:	48 c1 e0 04          	shl    rax,0x4
    1277:	48 89 c2             	mov    rdx,rax
    127a:	48 8b 45 d0          	mov    rax,QWORD PTR [rbp-0x30]
    127e:	48 01 d0             	add    rax,rdx
    1281:	0f b7 40 06          	movzx  eax,WORD PTR [rax+0x6]
    1285:	0f b7 d0             	movzx  edx,ax
    1288:	8b 45 e8             	mov    eax,DWORD PTR [rbp-0x18]
    128b:	48 98                	cdqe   
    128d:	48 c1 e0 04          	shl    rax,0x4
    1291:	48 89 c1             	mov    rcx,rax
    1294:	48 8b 45 d0          	mov    rax,QWORD PTR [rbp-0x30]
    1298:	48 01 c8             	add    rax,rcx
    129b:	0f b7 40 04          	movzx  eax,WORD PTR [rax+0x4]
    129f:	0f b7 c8             	movzx  ecx,ax
    12a2:	48 8b 45 d8          	mov    rax,QWORD PTR [rbp-0x28]
    12a6:	89 ce                	mov    esi,ecx
    12a8:	48 89 c7             	mov    rdi,rax
    12ab:	e8 52 fc ff ff       	call   f02 <_ZL29stbrp__skyline_pack_rectangleP13stbrp_contextii>
    12b0:	48 89 45 f0          	mov    QWORD PTR [rbp-0x10],rax
    12b4:	48 89 55 f8          	mov    QWORD PTR [rbp-0x8],rdx
    12b8:	48 8b 45 f8          	mov    rax,QWORD PTR [rbp-0x8]
    12bc:	48 85 c0             	test   rax,rax
    12bf:	74 36                	je     12f7 <stbrp_pack_rects+0x174>
    12c1:	8b 55 f0             	mov    edx,DWORD PTR [rbp-0x10]
    12c4:	8b 45 e8             	mov    eax,DWORD PTR [rbp-0x18]
    12c7:	48 98                	cdqe   
    12c9:	48 c1 e0 04          	shl    rax,0x4
    12cd:	48 89 c1             	mov    rcx,rax
    12d0:	48 8b 45 d0          	mov    rax,QWORD PTR [rbp-0x30]
    12d4:	48 01 c8             	add    rax,rcx
    12d7:	66 89 50 08          	mov    WORD PTR [rax+0x8],dx
    12db:	8b 55 f4             	mov    edx,DWORD PTR [rbp-0xc]
    12de:	8b 45 e8             	mov    eax,DWORD PTR [rbp-0x18]
    12e1:	48 98                	cdqe   
    12e3:	48 c1 e0 04          	shl    rax,0x4
    12e7:	48 89 c1             	mov    rcx,rax
    12ea:	48 8b 45 d0          	mov    rax,QWORD PTR [rbp-0x30]
    12ee:	48 01 c8             	add    rax,rcx
    12f1:	66 89 50 0a          	mov    WORD PTR [rax+0xa],dx
    12f5:	eb 35                	jmp    132c <stbrp_pack_rects+0x1a9>
    12f7:	8b 45 e8             	mov    eax,DWORD PTR [rbp-0x18]
    12fa:	48 98                	cdqe   
    12fc:	48 c1 e0 04          	shl    rax,0x4
    1300:	48 89 c2             	mov    rdx,rax
    1303:	48 8b 45 d0          	mov    rax,QWORD PTR [rbp-0x30]
    1307:	48 01 d0             	add    rax,rdx
    130a:	66 c7 40 0a ff ff    	mov    WORD PTR [rax+0xa],0xffff
    1310:	8b 55 e8             	mov    edx,DWORD PTR [rbp-0x18]
    1313:	48 63 d2             	movsxd rdx,edx
    1316:	48 89 d1             	mov    rcx,rdx
    1319:	48 c1 e1 04          	shl    rcx,0x4
    131d:	48 8b 55 d0          	mov    rdx,QWORD PTR [rbp-0x30]
    1321:	48 01 ca             	add    rdx,rcx
    1324:	0f b7 40 0a          	movzx  eax,WORD PTR [rax+0xa]
    1328:	66 89 42 08          	mov    WORD PTR [rdx+0x8],ax
    132c:	83 45 e8 01          	add    DWORD PTR [rbp-0x18],0x1
    1330:	e9 bb fe ff ff       	jmp    11f0 <stbrp_pack_rects+0x6d>
    1335:	8b 45 cc             	mov    eax,DWORD PTR [rbp-0x34]
    1338:	48 63 f0             	movsxd rsi,eax
    133b:	48 8b 45 d0          	mov    rax,QWORD PTR [rbp-0x30]
    133f:	48 8d 0d f0 fd ff ff 	lea    rcx,[rip+0xfffffffffffffdf0]        # 1136 <_ZL19rect_original_orderPKvS0_>
    1346:	ba 10 00 00 00       	mov    edx,0x10
    134b:	48 89 c7             	mov    rdi,rax
    134e:	e8 00 00 00 00       	call   1353 <stbrp_pack_rects+0x1d0>
    1353:	c7 45 e8 00 00 00 00 	mov    DWORD PTR [rbp-0x18],0x0
    135a:	8b 45 e8             	mov    eax,DWORD PTR [rbp-0x18]
    135d:	3b 45 cc             	cmp    eax,DWORD PTR [rbp-0x34]
    1360:	0f 8d 89 00 00 00    	jge    13ef <stbrp_pack_rects+0x26c>
    1366:	8b 45 e8             	mov    eax,DWORD PTR [rbp-0x18]
    1369:	48 98                	cdqe   
    136b:	48 c1 e0 04          	shl    rax,0x4
    136f:	48 89 c2             	mov    rdx,rax
    1372:	48 8b 45 d0          	mov    rax,QWORD PTR [rbp-0x30]
    1376:	48 01 d0             	add    rax,rdx
    1379:	0f b7 40 08          	movzx  eax,WORD PTR [rax+0x8]
    137d:	66 83 f8 ff          	cmp    ax,0xffff
    1381:	75 1d                	jne    13a0 <stbrp_pack_rects+0x21d>
    1383:	8b 45 e8             	mov    eax,DWORD PTR [rbp-0x18]
    1386:	48 98                	cdqe   
    1388:	48 c1 e0 04          	shl    rax,0x4
    138c:	48 89 c2             	mov    rdx,rax
    138f:	48 8b 45 d0          	mov    rax,QWORD PTR [rbp-0x30]
    1393:	48 01 d0             	add    rax,rdx
    1396:	0f b7 40 0a          	movzx  eax,WORD PTR [rax+0xa]
    139a:	66 83 f8 ff          	cmp    ax,0xffff
    139e:	74 07                	je     13a7 <stbrp_pack_rects+0x224>
    13a0:	b9 01 00 00 00       	mov    ecx,0x1
    13a5:	eb 05                	jmp    13ac <stbrp_pack_rects+0x229>
    13a7:	b9 00 00 00 00       	mov    ecx,0x0
    13ac:	8b 45 e8             	mov    eax,DWORD PTR [rbp-0x18]
    13af:	48 98                	cdqe   
    13b1:	48 c1 e0 04          	shl    rax,0x4
    13b5:	48 89 c2             	mov    rdx,rax
    13b8:	48 8b 45 d0          	mov    rax,QWORD PTR [rbp-0x30]
    13bc:	48 01 c2             	add    rdx,rax
    13bf:	0f b6 c1             	movzx  eax,cl
    13c2:	89 42 0c             	mov    DWORD PTR [rdx+0xc],eax
    13c5:	8b 45 e8             	mov    eax,DWORD PTR [rbp-0x18]
    13c8:	48 98                	cdqe   
    13ca:	48 c1 e0 04          	shl    rax,0x4
    13ce:	48 89 c2             	mov    rdx,rax
    13d1:	48 8b 45 d0          	mov    rax,QWORD PTR [rbp-0x30]
    13d5:	48 01 d0             	add    rax,rdx
    13d8:	8b 40 0c             	mov    eax,DWORD PTR [rax+0xc]
    13db:	85 c0                	test   eax,eax
    13dd:	75 07                	jne    13e6 <stbrp_pack_rects+0x263>
    13df:	c7 45 ec 00 00 00 00 	mov    DWORD PTR [rbp-0x14],0x0
    13e6:	83 45 e8 01          	add    DWORD PTR [rbp-0x18],0x1
    13ea:	e9 6b ff ff ff       	jmp    135a <stbrp_pack_rects+0x1d7>
    13ef:	8b 45 ec             	mov    eax,DWORD PTR [rbp-0x14]
    13f2:	c9                   	leave  
    13f3:	c3                   	ret    

00000000000013f4 <_ZL15stbtt__buf_get8P10stbtt__buf>:
    13f4:	55                   	push   rbp
    13f5:	48 89 e5             	mov    rbp,rsp
    13f8:	48 89 7d f8          	mov    QWORD PTR [rbp-0x8],rdi
    13fc:	48 8b 45 f8          	mov    rax,QWORD PTR [rbp-0x8]
    1400:	8b 50 08             	mov    edx,DWORD PTR [rax+0x8]
    1403:	48 8b 45 f8          	mov    rax,QWORD PTR [rbp-0x8]
    1407:	8b 40 0c             	mov    eax,DWORD PTR [rax+0xc]
    140a:	39 c2                	cmp    edx,eax
    140c:	7c 07                	jl     1415 <_ZL15stbtt__buf_get8P10stbtt__buf+0x21>
    140e:	b8 00 00 00 00       	mov    eax,0x0
    1413:	eb 20                	jmp    1435 <_ZL15stbtt__buf_get8P10stbtt__buf+0x41>
    1415:	48 8b 45 f8          	mov    rax,QWORD PTR [rbp-0x8]
    1419:	48 8b 30             	mov    rsi,QWORD PTR [rax]
    141c:	48 8b 45 f8          	mov    rax,QWORD PTR [rbp-0x8]
    1420:	8b 40 08             	mov    eax,DWORD PTR [rax+0x8]
    1423:	8d 48 01             	lea    ecx,[rax+0x1]
    1426:	48 8b 55 f8          	mov    rdx,QWORD PTR [rbp-0x8]
    142a:	89 4a 08             	mov    DWORD PTR [rdx+0x8],ecx
    142d:	48 98                	cdqe   
    142f:	48 01 f0             	add    rax,rsi
    1432:	0f b6 00             	movzx  eax,BYTE PTR [rax]
    1435:	5d                   	pop    rbp
    1436:	c3                   	ret    

0000000000001437 <_ZL16stbtt__buf_peek8P10stbtt__buf>:
    1437:	55                   	push   rbp
    1438:	48 89 e5             	mov    rbp,rsp
    143b:	48 89 7d f8          	mov    QWORD PTR [rbp-0x8],rdi
    143f:	48 8b 45 f8          	mov    rax,QWORD PTR [rbp-0x8]
    1443:	8b 50 08             	mov    edx,DWORD PTR [rax+0x8]
    1446:	48 8b 45 f8          	mov    rax,QWORD PTR [rbp-0x8]
    144a:	8b 40 0c             	mov    eax,DWORD PTR [rax+0xc]
    144d:	39 c2                	cmp    edx,eax
    144f:	7c 07                	jl     1458 <_ZL16stbtt__buf_peek8P10stbtt__buf+0x21>
    1451:	b8 00 00 00 00       	mov    eax,0x0
    1456:	eb 16                	jmp    146e <_ZL16stbtt__buf_peek8P10stbtt__buf+0x37>
    1458:	48 8b 45 f8          	mov    rax,QWORD PTR [rbp-0x8]
    145c:	48 8b 10             	mov    rdx,QWORD PTR [rax]
    145f:	48 8b 45 f8          	mov    rax,QWORD PTR [rbp-0x8]
    1463:	8b 40 08             	mov    eax,DWORD PTR [rax+0x8]
    1466:	48 98                	cdqe   
    1468:	48 01 d0             	add    rax,rdx
    146b:	0f b6 00             	movzx  eax,BYTE PTR [rax]
    146e:	5d                   	pop    rbp
    146f:	c3                   	ret    

0000000000001470 <_ZL15stbtt__buf_seekP10stbtt__bufi>:
    1470:	55                   	push   rbp
    1471:	48 89 e5             	mov    rbp,rsp
    1474:	48 83 ec 10          	sub    rsp,0x10
    1478:	48 89 7d f8          	mov    QWORD PTR [rbp-0x8],rdi
    147c:	89 75 f4             	mov    DWORD PTR [rbp-0xc],esi
    147f:	48 8b 45 f8          	mov    rax,QWORD PTR [rbp-0x8]
    1483:	8b 40 0c             	mov    eax,DWORD PTR [rax+0xc]
    1486:	39 45 f4             	cmp    DWORD PTR [rbp-0xc],eax
    1489:	7f 06                	jg     1491 <_ZL15stbtt__buf_seekP10stbtt__bufi+0x21>
    148b:	83 7d f4 00          	cmp    DWORD PTR [rbp-0xc],0x0
    148f:	79 1f                	jns    14b0 <_ZL15stbtt__buf_seekP10stbtt__bufi+0x40>
    1491:	48 8d 0d 00 00 00 00 	lea    rcx,[rip+0x0]        # 1498 <_ZL15stbtt__buf_seekP10stbtt__bufi+0x28>
    1498:	ba 6c 04 00 00       	mov    edx,0x46c
    149d:	48 8d 35 00 00 00 00 	lea    rsi,[rip+0x0]        # 14a4 <_ZL15stbtt__buf_seekP10stbtt__bufi+0x34>
    14a4:	48 8d 3d 00 00 00 00 	lea    rdi,[rip+0x0]        # 14ab <_ZL15stbtt__buf_seekP10stbtt__bufi+0x3b>
    14ab:	e8 00 00 00 00       	call   14b0 <_ZL15stbtt__buf_seekP10stbtt__bufi+0x40>
    14b0:	48 8b 45 f8          	mov    rax,QWORD PTR [rbp-0x8]
    14b4:	8b 40 0c             	mov    eax,DWORD PTR [rax+0xc]
    14b7:	39 45 f4             	cmp    DWORD PTR [rbp-0xc],eax
    14ba:	7f 06                	jg     14c2 <_ZL15stbtt__buf_seekP10stbtt__bufi+0x52>
    14bc:	83 7d f4 00          	cmp    DWORD PTR [rbp-0xc],0x0
    14c0:	79 09                	jns    14cb <_ZL15stbtt__buf_seekP10stbtt__bufi+0x5b>
    14c2:	48 8b 45 f8          	mov    rax,QWORD PTR [rbp-0x8]
    14c6:	8b 40 0c             	mov    eax,DWORD PTR [rax+0xc]
    14c9:	eb 03                	jmp    14ce <_ZL15stbtt__buf_seekP10stbtt__bufi+0x5e>
    14cb:	8b 45 f4             	mov    eax,DWORD PTR [rbp-0xc]
    14ce:	48 8b 55 f8          	mov    rdx,QWORD PTR [rbp-0x8]
    14d2:	89 42 08             	mov    DWORD PTR [rdx+0x8],eax
    14d5:	90                   	nop
    14d6:	c9                   	leave  
    14d7:	c3                   	ret    

00000000000014d8 <_ZL15stbtt__buf_skipP10stbtt__bufi>:
    14d8:	55                   	push   rbp
    14d9:	48 89 e5             	mov    rbp,rsp
    14dc:	48 83 ec 10          	sub    rsp,0x10
    14e0:	48 89 7d f8          	mov    QWORD PTR [rbp-0x8],rdi
    14e4:	89 75 f4             	mov    DWORD PTR [rbp-0xc],esi
    14e7:	48 8b 45 f8          	mov    rax,QWORD PTR [rbp-0x8]
    14eb:	8b 50 08             	mov    edx,DWORD PTR [rax+0x8]
    14ee:	8b 45 f4             	mov    eax,DWORD PTR [rbp-0xc]
    14f1:	01 c2                	add    edx,eax
    14f3:	48 8b 45 f8          	mov    rax,QWORD PTR [rbp-0x8]
    14f7:	89 d6                	mov    esi,edx
    14f9:	48 89 c7             	mov    rdi,rax
    14fc:	e8 6f ff ff ff       	call   1470 <_ZL15stbtt__buf_seekP10stbtt__bufi>
    1501:	90                   	nop
    1502:	c9                   	leave  
    1503:	c3                   	ret    

0000000000001504 <_ZL14stbtt__buf_getP10stbtt__bufi>:
    1504:	55                   	push   rbp
    1505:	48 89 e5             	mov    rbp,rsp
    1508:	53                   	push   rbx
    1509:	48 83 ec 28          	sub    rsp,0x28
    150d:	48 89 7d d8          	mov    QWORD PTR [rbp-0x28],rdi
    1511:	89 75 d4             	mov    DWORD PTR [rbp-0x2c],esi
    1514:	c7 45 e8 00 00 00 00 	mov    DWORD PTR [rbp-0x18],0x0
    151b:	83 7d d4 00          	cmp    DWORD PTR [rbp-0x2c],0x0
    151f:	7e 06                	jle    1527 <_ZL14stbtt__buf_getP10stbtt__bufi+0x23>
    1521:	83 7d d4 04          	cmp    DWORD PTR [rbp-0x2c],0x4
    1525:	7e 1f                	jle    1546 <_ZL14stbtt__buf_getP10stbtt__bufi+0x42>
    1527:	48 8d 0d 00 00 00 00 	lea    rcx,[rip+0x0]        # 152e <_ZL14stbtt__buf_getP10stbtt__bufi+0x2a>
    152e:	ba 79 04 00 00       	mov    edx,0x479
    1533:	48 8d 35 00 00 00 00 	lea    rsi,[rip+0x0]        # 153a <_ZL14stbtt__buf_getP10stbtt__bufi+0x36>
    153a:	48 8d 3d 00 00 00 00 	lea    rdi,[rip+0x0]        # 1541 <_ZL14stbtt__buf_getP10stbtt__bufi+0x3d>
    1541:	e8 00 00 00 00       	call   1546 <_ZL14stbtt__buf_getP10stbtt__bufi+0x42>
    1546:	c7 45 ec 00 00 00 00 	mov    DWORD PTR [rbp-0x14],0x0
    154d:	8b 45 ec             	mov    eax,DWORD PTR [rbp-0x14]
    1550:	3b 45 d4             	cmp    eax,DWORD PTR [rbp-0x2c]
    1553:	7d 22                	jge    1577 <_ZL14stbtt__buf_getP10stbtt__bufi+0x73>
    1555:	8b 45 e8             	mov    eax,DWORD PTR [rbp-0x18]
    1558:	c1 e0 08             	shl    eax,0x8
    155b:	89 c3                	mov    ebx,eax
    155d:	48 8b 45 d8          	mov    rax,QWORD PTR [rbp-0x28]
    1561:	48 89 c7             	mov    rdi,rax
    1564:	e8 8b fe ff ff       	call   13f4 <_ZL15stbtt__buf_get8P10stbtt__buf>
    1569:	0f b6 c0             	movzx  eax,al
    156c:	09 d8                	or     eax,ebx
    156e:	89 45 e8             	mov    DWORD PTR [rbp-0x18],eax
    1571:	83 45 ec 01          	add    DWORD PTR [rbp-0x14],0x1
    1575:	eb d6                	jmp    154d <_ZL14stbtt__buf_getP10stbtt__bufi+0x49>
    1577:	8b 45 e8             	mov    eax,DWORD PTR [rbp-0x18]
    157a:	48 83 c4 28          	add    rsp,0x28
    157e:	5b                   	pop    rbx
    157f:	5d                   	pop    rbp
    1580:	c3                   	ret    

0000000000001581 <_ZL14stbtt__new_bufPKvm>:
    1581:	55                   	push   rbp
    1582:	48 89 e5             	mov    rbp,rsp
    1585:	48 83 ec 30          	sub    rsp,0x30
    1589:	48 89 7d d8          	mov    QWORD PTR [rbp-0x28],rdi
    158d:	48 89 75 d0          	mov    QWORD PTR [rbp-0x30],rsi
    1591:	64 48 8b 04 25 28 00 	mov    rax,QWORD PTR fs:0x28
    1598:	00 00 
    159a:	48 89 45 f8          	mov    QWORD PTR [rbp-0x8],rax
    159e:	31 c0                	xor    eax,eax
    15a0:	48 81 7d d0 ff ff ff 	cmp    QWORD PTR [rbp-0x30],0x3fffffff
    15a7:	3f 
    15a8:	76 1f                	jbe    15c9 <_ZL14stbtt__new_bufPKvm+0x48>
    15aa:	48 8d 0d 00 00 00 00 	lea    rcx,[rip+0x0]        # 15b1 <_ZL14stbtt__new_bufPKvm+0x30>
    15b1:	ba 82 04 00 00       	mov    edx,0x482
    15b6:	48 8d 35 00 00 00 00 	lea    rsi,[rip+0x0]        # 15bd <_ZL14stbtt__new_bufPKvm+0x3c>
    15bd:	48 8d 3d 00 00 00 00 	lea    rdi,[rip+0x0]        # 15c4 <_ZL14stbtt__new_bufPKvm+0x43>
    15c4:	e8 00 00 00 00       	call   15c9 <_ZL14stbtt__new_bufPKvm+0x48>
    15c9:	48 8b 45 d8          	mov    rax,QWORD PTR [rbp-0x28]
    15cd:	48 89 45 e0          	mov    QWORD PTR [rbp-0x20],rax
    15d1:	48 8b 45 d0          	mov    rax,QWORD PTR [rbp-0x30]
    15d5:	89 45 ec             	mov    DWORD PTR [rbp-0x14],eax
    15d8:	c7 45 e8 00 00 00 00 	mov    DWORD PTR [rbp-0x18],0x0
    15df:	48 8b 45 e0          	mov    rax,QWORD PTR [rbp-0x20]
    15e3:	48 8b 55 e8          	mov    rdx,QWORD PTR [rbp-0x18]
    15e7:	48 8b 4d f8          	mov    rcx,QWORD PTR [rbp-0x8]
    15eb:	64 48 33 0c 25 28 00 	xor    rcx,QWORD PTR fs:0x28
    15f2:	00 00 
    15f4:	74 05                	je     15fb <_ZL14stbtt__new_bufPKvm+0x7a>
    15f6:	e8 00 00 00 00       	call   15fb <_ZL14stbtt__new_bufPKvm+0x7a>
    15fb:	c9                   	leave  
    15fc:	c3                   	ret    

00000000000015fd <_ZL16stbtt__buf_rangePK10stbtt__bufii>:
    15fd:	55                   	push   rbp
    15fe:	48 89 e5             	mov    rbp,rsp
    1601:	48 83 ec 30          	sub    rsp,0x30
    1605:	48 89 7d d8          	mov    QWORD PTR [rbp-0x28],rdi
    1609:	89 75 d4             	mov    DWORD PTR [rbp-0x2c],esi
    160c:	89 55 d0             	mov    DWORD PTR [rbp-0x30],edx
    160f:	64 48 8b 04 25 28 00 	mov    rax,QWORD PTR fs:0x28
    1616:	00 00 
    1618:	48 89 45 f8          	mov    QWORD PTR [rbp-0x8],rax
    161c:	31 c0                	xor    eax,eax
    161e:	be 00 00 00 00       	mov    esi,0x0
    1623:	bf 00 00 00 00       	mov    edi,0x0
    1628:	e8 54 ff ff ff       	call   1581 <_ZL14stbtt__new_bufPKvm>
    162d:	48 89 45 e0          	mov    QWORD PTR [rbp-0x20],rax
    1631:	48 89 55 e8          	mov    QWORD PTR [rbp-0x18],rdx
    1635:	83 7d d4 00          	cmp    DWORD PTR [rbp-0x2c],0x0
    1639:	78 21                	js     165c <_ZL16stbtt__buf_rangePK10stbtt__bufii+0x5f>
    163b:	83 7d d0 00          	cmp    DWORD PTR [rbp-0x30],0x0
    163f:	78 1b                	js     165c <_ZL16stbtt__buf_rangePK10stbtt__bufii+0x5f>
    1641:	48 8b 45 d8          	mov    rax,QWORD PTR [rbp-0x28]
    1645:	8b 40 0c             	mov    eax,DWORD PTR [rax+0xc]
    1648:	39 45 d4             	cmp    DWORD PTR [rbp-0x2c],eax
    164b:	7f 0f                	jg     165c <_ZL16stbtt__buf_rangePK10stbtt__bufii+0x5f>
    164d:	48 8b 45 d8          	mov    rax,QWORD PTR [rbp-0x28]
    1651:	8b 40 0c             	mov    eax,DWORD PTR [rax+0xc]
    1654:	2b 45 d4             	sub    eax,DWORD PTR [rbp-0x2c]
    1657:	39 45 d0             	cmp    DWORD PTR [rbp-0x30],eax
    165a:	7e 0a                	jle    1666 <_ZL16stbtt__buf_rangePK10stbtt__bufii+0x69>
    165c:	48 8b 45 e0          	mov    rax,QWORD PTR [rbp-0x20]
    1660:	48 8b 55 e8          	mov    rdx,QWORD PTR [rbp-0x18]
    1664:	eb 21                	jmp    1687 <_ZL16stbtt__buf_rangePK10stbtt__bufii+0x8a>
    1666:	48 8b 45 d8          	mov    rax,QWORD PTR [rbp-0x28]
    166a:	48 8b 10             	mov    rdx,QWORD PTR [rax]
    166d:	8b 45 d4             	mov    eax,DWORD PTR [rbp-0x2c]
    1670:	48 98                	cdqe   
    1672:	48 01 d0             	add    rax,rdx
    1675:	48 89 45 e0          	mov    QWORD PTR [rbp-0x20],rax
    1679:	8b 45 d0             	mov    eax,DWORD PTR [rbp-0x30]
    167c:	89 45 ec             	mov    DWORD PTR [rbp-0x14],eax
    167f:	48 8b 45 e0          	mov    rax,QWORD PTR [rbp-0x20]
    1683:	48 8b 55 e8          	mov    rdx,QWORD PTR [rbp-0x18]
    1687:	48 8b 4d f8          	mov    rcx,QWORD PTR [rbp-0x8]
    168b:	64 48 33 0c 25 28 00 	xor    rcx,QWORD PTR fs:0x28
    1692:	00 00 
    1694:	74 05                	je     169b <_ZL16stbtt__buf_rangePK10stbtt__bufii+0x9e>
    1696:	e8 00 00 00 00       	call   169b <_ZL16stbtt__buf_rangePK10stbtt__bufii+0x9e>
    169b:	c9                   	leave  
    169c:	c3                   	ret    

000000000000169d <_ZL20stbtt__cff_get_indexP10stbtt__buf>:
    169d:	55                   	push   rbp
    169e:	48 89 e5             	mov    rbp,rsp
    16a1:	48 83 ec 20          	sub    rsp,0x20
    16a5:	48 89 7d e8          	mov    QWORD PTR [rbp-0x18],rdi
    16a9:	48 8b 45 e8          	mov    rax,QWORD PTR [rbp-0x18]
    16ad:	8b 40 08             	mov    eax,DWORD PTR [rax+0x8]
    16b0:	89 45 f4             	mov    DWORD PTR [rbp-0xc],eax
    16b3:	48 8b 45 e8          	mov    rax,QWORD PTR [rbp-0x18]
    16b7:	be 02 00 00 00       	mov    esi,0x2
    16bc:	48 89 c7             	mov    rdi,rax
    16bf:	e8 40 fe ff ff       	call   1504 <_ZL14stbtt__buf_getP10stbtt__bufi>
    16c4:	89 45 f8             	mov    DWORD PTR [rbp-0x8],eax
    16c7:	83 7d f8 00          	cmp    DWORD PTR [rbp-0x8],0x0
    16cb:	74 78                	je     1745 <_ZL20stbtt__cff_get_indexP10stbtt__buf+0xa8>
    16cd:	48 8b 45 e8          	mov    rax,QWORD PTR [rbp-0x18]
    16d1:	48 89 c7             	mov    rdi,rax
    16d4:	e8 1b fd ff ff       	call   13f4 <_ZL15stbtt__buf_get8P10stbtt__buf>
    16d9:	0f b6 c0             	movzx  eax,al
    16dc:	89 45 fc             	mov    DWORD PTR [rbp-0x4],eax
    16df:	83 7d fc 00          	cmp    DWORD PTR [rbp-0x4],0x0
    16e3:	7e 06                	jle    16eb <_ZL20stbtt__cff_get_indexP10stbtt__buf+0x4e>
    16e5:	83 7d fc 04          	cmp    DWORD PTR [rbp-0x4],0x4
    16e9:	7e 1f                	jle    170a <_ZL20stbtt__cff_get_indexP10stbtt__buf+0x6d>
    16eb:	48 8d 0d 00 00 00 00 	lea    rcx,[rip+0x0]        # 16f2 <_ZL20stbtt__cff_get_indexP10stbtt__buf+0x55>
    16f2:	ba 9c 04 00 00       	mov    edx,0x49c
    16f7:	48 8d 35 00 00 00 00 	lea    rsi,[rip+0x0]        # 16fe <_ZL20stbtt__cff_get_indexP10stbtt__buf+0x61>
    16fe:	48 8d 3d 00 00 00 00 	lea    rdi,[rip+0x0]        # 1705 <_ZL20stbtt__cff_get_indexP10stbtt__buf+0x68>
    1705:	e8 00 00 00 00       	call   170a <_ZL20stbtt__cff_get_indexP10stbtt__buf+0x6d>
    170a:	8b 45 fc             	mov    eax,DWORD PTR [rbp-0x4]
    170d:	0f af 45 f8          	imul   eax,DWORD PTR [rbp-0x8]
    1711:	89 c2                	mov    edx,eax
    1713:	48 8b 45 e8          	mov    rax,QWORD PTR [rbp-0x18]
    1717:	89 d6                	mov    esi,edx
    1719:	48 89 c7             	mov    rdi,rax
    171c:	e8 b7 fd ff ff       	call   14d8 <_ZL15stbtt__buf_skipP10stbtt__bufi>
    1721:	48 8b 45 e8          	mov    rax,QWORD PTR [rbp-0x18]
    1725:	8b 55 fc             	mov    edx,DWORD PTR [rbp-0x4]
    1728:	89 d6                	mov    esi,edx
    172a:	48 89 c7             	mov    rdi,rax
    172d:	e8 d2 fd ff ff       	call   1504 <_ZL14stbtt__buf_getP10stbtt__bufi>
    1732:	83 e8 01             	sub    eax,0x1
    1735:	89 c2                	mov    edx,eax
    1737:	48 8b 45 e8          	mov    rax,QWORD PTR [rbp-0x18]
    173b:	89 d6                	mov    esi,edx
    173d:	48 89 c7             	mov    rdi,rax
    1740:	e8 93 fd ff ff       	call   14d8 <_ZL15stbtt__buf_skipP10stbtt__bufi>
    1745:	48 8b 45 e8          	mov    rax,QWORD PTR [rbp-0x18]
    1749:	8b 40 08             	mov    eax,DWORD PTR [rax+0x8]
    174c:	2b 45 f4             	sub    eax,DWORD PTR [rbp-0xc]
    174f:	89 c2                	mov    edx,eax
    1751:	48 8b 45 e8          	mov    rax,QWORD PTR [rbp-0x18]
    1755:	8b 4d f4             	mov    ecx,DWORD PTR [rbp-0xc]
    1758:	89 ce                	mov    esi,ecx
    175a:	48 89 c7             	mov    rdi,rax
    175d:	e8 9b fe ff ff       	call   15fd <_ZL16stbtt__buf_rangePK10stbtt__bufii>
    1762:	c9                   	leave  
    1763:	c3                   	ret    

0000000000001764 <_ZL14stbtt__cff_intP10stbtt__buf>:
    1764:	55                   	push   rbp
    1765:	48 89 e5             	mov    rbp,rsp
    1768:	53                   	push   rbx
    1769:	48 83 ec 28          	sub    rsp,0x28
    176d:	48 89 7d d8          	mov    QWORD PTR [rbp-0x28],rdi
    1771:	48 8b 45 d8          	mov    rax,QWORD PTR [rbp-0x28]
    1775:	48 89 c7             	mov    rdi,rax
    1778:	e8 77 fc ff ff       	call   13f4 <_ZL15stbtt__buf_get8P10stbtt__buf>
    177d:	0f b6 c0             	movzx  eax,al
    1780:	89 45 ec             	mov    DWORD PTR [rbp-0x14],eax
    1783:	83 7d ec 1f          	cmp    DWORD PTR [rbp-0x14],0x1f
    1787:	7e 16                	jle    179f <_ZL14stbtt__cff_intP10stbtt__buf+0x3b>
    1789:	81 7d ec f6 00 00 00 	cmp    DWORD PTR [rbp-0x14],0xf6
    1790:	7f 0d                	jg     179f <_ZL14stbtt__cff_intP10stbtt__buf+0x3b>
    1792:	8b 45 ec             	mov    eax,DWORD PTR [rbp-0x14]
    1795:	2d 8b 00 00 00       	sub    eax,0x8b
    179a:	e9 c0 00 00 00       	jmp    185f <_ZL14stbtt__cff_intP10stbtt__buf+0xfb>
    179f:	81 7d ec f6 00 00 00 	cmp    DWORD PTR [rbp-0x14],0xf6
    17a6:	7e 2f                	jle    17d7 <_ZL14stbtt__cff_intP10stbtt__buf+0x73>
    17a8:	81 7d ec fa 00 00 00 	cmp    DWORD PTR [rbp-0x14],0xfa
    17af:	7f 26                	jg     17d7 <_ZL14stbtt__cff_intP10stbtt__buf+0x73>
    17b1:	8b 45 ec             	mov    eax,DWORD PTR [rbp-0x14]
    17b4:	2d f7 00 00 00       	sub    eax,0xf7
    17b9:	c1 e0 08             	shl    eax,0x8
    17bc:	89 c3                	mov    ebx,eax
    17be:	48 8b 45 d8          	mov    rax,QWORD PTR [rbp-0x28]
    17c2:	48 89 c7             	mov    rdi,rax
    17c5:	e8 2a fc ff ff       	call   13f4 <_ZL15stbtt__buf_get8P10stbtt__buf>
    17ca:	0f b6 c0             	movzx  eax,al
    17cd:	01 d8                	add    eax,ebx
    17cf:	83 c0 6c             	add    eax,0x6c
    17d2:	e9 88 00 00 00       	jmp    185f <_ZL14stbtt__cff_intP10stbtt__buf+0xfb>
    17d7:	81 7d ec fa 00 00 00 	cmp    DWORD PTR [rbp-0x14],0xfa
    17de:	7e 2e                	jle    180e <_ZL14stbtt__cff_intP10stbtt__buf+0xaa>
    17e0:	81 7d ec fe 00 00 00 	cmp    DWORD PTR [rbp-0x14],0xfe
    17e7:	7f 25                	jg     180e <_ZL14stbtt__cff_intP10stbtt__buf+0xaa>
    17e9:	b8 fb 00 00 00       	mov    eax,0xfb
    17ee:	2b 45 ec             	sub    eax,DWORD PTR [rbp-0x14]
    17f1:	c1 e0 08             	shl    eax,0x8
    17f4:	89 c3                	mov    ebx,eax
    17f6:	48 8b 45 d8          	mov    rax,QWORD PTR [rbp-0x28]
    17fa:	48 89 c7             	mov    rdi,rax
    17fd:	e8 f2 fb ff ff       	call   13f4 <_ZL15stbtt__buf_get8P10stbtt__buf>
    1802:	0f b6 c0             	movzx  eax,al
    1805:	29 c3                	sub    ebx,eax
    1807:	89 d8                	mov    eax,ebx
    1809:	83 e8 6c             	sub    eax,0x6c
    180c:	eb 51                	jmp    185f <_ZL14stbtt__cff_intP10stbtt__buf+0xfb>
    180e:	83 7d ec 1c          	cmp    DWORD PTR [rbp-0x14],0x1c
    1812:	75 13                	jne    1827 <_ZL14stbtt__cff_intP10stbtt__buf+0xc3>
    1814:	48 8b 45 d8          	mov    rax,QWORD PTR [rbp-0x28]
    1818:	be 02 00 00 00       	mov    esi,0x2
    181d:	48 89 c7             	mov    rdi,rax
    1820:	e8 df fc ff ff       	call   1504 <_ZL14stbtt__buf_getP10stbtt__bufi>
    1825:	eb 38                	jmp    185f <_ZL14stbtt__cff_intP10stbtt__buf+0xfb>
    1827:	83 7d ec 1d          	cmp    DWORD PTR [rbp-0x14],0x1d
    182b:	75 13                	jne    1840 <_ZL14stbtt__cff_intP10stbtt__buf+0xdc>
    182d:	48 8b 45 d8          	mov    rax,QWORD PTR [rbp-0x28]
    1831:	be 04 00 00 00       	mov    esi,0x4
    1836:	48 89 c7             	mov    rdi,rax
    1839:	e8 c6 fc ff ff       	call   1504 <_ZL14stbtt__buf_getP10stbtt__bufi>
    183e:	eb 1f                	jmp    185f <_ZL14stbtt__cff_intP10stbtt__buf+0xfb>
    1840:	48 8d 0d 00 00 00 00 	lea    rcx,[rip+0x0]        # 1847 <_ZL14stbtt__cff_intP10stbtt__buf+0xe3>
    1847:	ba ab 04 00 00       	mov    edx,0x4ab
    184c:	48 8d 35 00 00 00 00 	lea    rsi,[rip+0x0]        # 1853 <_ZL14stbtt__cff_intP10stbtt__buf+0xef>
    1853:	48 8d 3d 00 00 00 00 	lea    rdi,[rip+0x0]        # 185a <_ZL14stbtt__cff_intP10stbtt__buf+0xf6>
    185a:	e8 00 00 00 00       	call   185f <_ZL14stbtt__cff_intP10stbtt__buf+0xfb>
    185f:	48 83 c4 28          	add    rsp,0x28
    1863:	5b                   	pop    rbx
    1864:	5d                   	pop    rbp
    1865:	c3                   	ret    

0000000000001866 <_ZL23stbtt__cff_skip_operandP10stbtt__buf>:
    1866:	55                   	push   rbp
    1867:	48 89 e5             	mov    rbp,rsp
    186a:	48 83 ec 20          	sub    rsp,0x20
    186e:	48 89 7d e8          	mov    QWORD PTR [rbp-0x18],rdi
    1872:	48 8b 45 e8          	mov    rax,QWORD PTR [rbp-0x18]
    1876:	48 89 c7             	mov    rdi,rax
    1879:	e8 b9 fb ff ff       	call   1437 <_ZL16stbtt__buf_peek8P10stbtt__buf>
    187e:	0f b6 c0             	movzx  eax,al
    1881:	89 45 f8             	mov    DWORD PTR [rbp-0x8],eax
    1884:	83 7d f8 1b          	cmp    DWORD PTR [rbp-0x8],0x1b
    1888:	7f 1f                	jg     18a9 <_ZL23stbtt__cff_skip_operandP10stbtt__buf+0x43>
    188a:	48 8d 0d 00 00 00 00 	lea    rcx,[rip+0x0]        # 1891 <_ZL23stbtt__cff_skip_operandP10stbtt__buf+0x2b>
    1891:	ba b1 04 00 00       	mov    edx,0x4b1
    1896:	48 8d 35 00 00 00 00 	lea    rsi,[rip+0x0]        # 189d <_ZL23stbtt__cff_skip_operandP10stbtt__buf+0x37>
    189d:	48 8d 3d 00 00 00 00 	lea    rdi,[rip+0x0]        # 18a4 <_ZL23stbtt__cff_skip_operandP10stbtt__buf+0x3e>
    18a4:	e8 00 00 00 00       	call   18a9 <_ZL23stbtt__cff_skip_operandP10stbtt__buf+0x43>
    18a9:	83 7d f8 1e          	cmp    DWORD PTR [rbp-0x8],0x1e
    18ad:	75 4d                	jne    18fc <_ZL23stbtt__cff_skip_operandP10stbtt__buf+0x96>
    18af:	48 8b 45 e8          	mov    rax,QWORD PTR [rbp-0x18]
    18b3:	be 01 00 00 00       	mov    esi,0x1
    18b8:	48 89 c7             	mov    rdi,rax
    18bb:	e8 18 fc ff ff       	call   14d8 <_ZL15stbtt__buf_skipP10stbtt__bufi>
    18c0:	48 8b 45 e8          	mov    rax,QWORD PTR [rbp-0x18]
    18c4:	8b 50 08             	mov    edx,DWORD PTR [rax+0x8]
    18c7:	48 8b 45 e8          	mov    rax,QWORD PTR [rbp-0x18]
    18cb:	8b 40 0c             	mov    eax,DWORD PTR [rax+0xc]
    18ce:	39 c2                	cmp    edx,eax
    18d0:	7d 36                	jge    1908 <_ZL23stbtt__cff_skip_operandP10stbtt__buf+0xa2>
    18d2:	48 8b 45 e8          	mov    rax,QWORD PTR [rbp-0x18]
    18d6:	48 89 c7             	mov    rdi,rax
    18d9:	e8 16 fb ff ff       	call   13f4 <_ZL15stbtt__buf_get8P10stbtt__buf>
    18de:	0f b6 c0             	movzx  eax,al
    18e1:	89 45 fc             	mov    DWORD PTR [rbp-0x4],eax
    18e4:	8b 45 fc             	mov    eax,DWORD PTR [rbp-0x4]
    18e7:	83 e0 0f             	and    eax,0xf
    18ea:	83 f8 0f             	cmp    eax,0xf
    18ed:	74 19                	je     1908 <_ZL23stbtt__cff_skip_operandP10stbtt__buf+0xa2>
    18ef:	8b 45 fc             	mov    eax,DWORD PTR [rbp-0x4]
    18f2:	c1 f8 04             	sar    eax,0x4
    18f5:	83 f8 0f             	cmp    eax,0xf
    18f8:	74 0e                	je     1908 <_ZL23stbtt__cff_skip_operandP10stbtt__buf+0xa2>
    18fa:	eb c4                	jmp    18c0 <_ZL23stbtt__cff_skip_operandP10stbtt__buf+0x5a>
    18fc:	48 8b 45 e8          	mov    rax,QWORD PTR [rbp-0x18]
    1900:	48 89 c7             	mov    rdi,rax
    1903:	e8 5c fe ff ff       	call   1764 <_ZL14stbtt__cff_intP10stbtt__buf>
    1908:	90                   	nop
    1909:	c9                   	leave  
    190a:	c3                   	ret    

000000000000190b <_ZL15stbtt__dict_getP10stbtt__bufi>:
    190b:	55                   	push   rbp
    190c:	48 89 e5             	mov    rbp,rsp
    190f:	48 83 ec 20          	sub    rsp,0x20
    1913:	48 89 7d e8          	mov    QWORD PTR [rbp-0x18],rdi
    1917:	89 75 e4             	mov    DWORD PTR [rbp-0x1c],esi
    191a:	48 8b 45 e8          	mov    rax,QWORD PTR [rbp-0x18]
    191e:	be 00 00 00 00       	mov    esi,0x0
    1923:	48 89 c7             	mov    rdi,rax
    1926:	e8 45 fb ff ff       	call   1470 <_ZL15stbtt__buf_seekP10stbtt__bufi>
    192b:	48 8b 45 e8          	mov    rax,QWORD PTR [rbp-0x18]
    192f:	8b 50 08             	mov    edx,DWORD PTR [rax+0x8]
    1932:	48 8b 45 e8          	mov    rax,QWORD PTR [rbp-0x18]
    1936:	8b 40 0c             	mov    eax,DWORD PTR [rax+0xc]
    1939:	39 c2                	cmp    edx,eax
    193b:	0f 8d 8b 00 00 00    	jge    19cc <_ZL15stbtt__dict_getP10stbtt__bufi+0xc1>
    1941:	48 8b 45 e8          	mov    rax,QWORD PTR [rbp-0x18]
    1945:	8b 40 08             	mov    eax,DWORD PTR [rax+0x8]
    1948:	89 45 f8             	mov    DWORD PTR [rbp-0x8],eax
    194b:	48 8b 45 e8          	mov    rax,QWORD PTR [rbp-0x18]
    194f:	48 89 c7             	mov    rdi,rax
    1952:	e8 e0 fa ff ff       	call   1437 <_ZL16stbtt__buf_peek8P10stbtt__buf>
    1957:	3c 1b                	cmp    al,0x1b
    1959:	0f 97 c0             	seta   al
    195c:	84 c0                	test   al,al
    195e:	74 0e                	je     196e <_ZL15stbtt__dict_getP10stbtt__bufi+0x63>
    1960:	48 8b 45 e8          	mov    rax,QWORD PTR [rbp-0x18]
    1964:	48 89 c7             	mov    rdi,rax
    1967:	e8 fa fe ff ff       	call   1866 <_ZL23stbtt__cff_skip_operandP10stbtt__buf>
    196c:	eb dd                	jmp    194b <_ZL15stbtt__dict_getP10stbtt__bufi+0x40>
    196e:	48 8b 45 e8          	mov    rax,QWORD PTR [rbp-0x18]
    1972:	8b 40 08             	mov    eax,DWORD PTR [rax+0x8]
    1975:	89 45 fc             	mov    DWORD PTR [rbp-0x4],eax
    1978:	48 8b 45 e8          	mov    rax,QWORD PTR [rbp-0x18]
    197c:	48 89 c7             	mov    rdi,rax
    197f:	e8 70 fa ff ff       	call   13f4 <_ZL15stbtt__buf_get8P10stbtt__buf>
    1984:	0f b6 c0             	movzx  eax,al
    1987:	89 45 f4             	mov    DWORD PTR [rbp-0xc],eax
    198a:	83 7d f4 0c          	cmp    DWORD PTR [rbp-0xc],0xc
    198e:	75 15                	jne    19a5 <_ZL15stbtt__dict_getP10stbtt__bufi+0x9a>
    1990:	48 8b 45 e8          	mov    rax,QWORD PTR [rbp-0x18]
    1994:	48 89 c7             	mov    rdi,rax
    1997:	e8 58 fa ff ff       	call   13f4 <_ZL15stbtt__buf_get8P10stbtt__buf>
    199c:	0f b6 c0             	movzx  eax,al
    199f:	80 cc 01             	or     ah,0x1
    19a2:	89 45 f4             	mov    DWORD PTR [rbp-0xc],eax
    19a5:	8b 45 f4             	mov    eax,DWORD PTR [rbp-0xc]
    19a8:	3b 45 e4             	cmp    eax,DWORD PTR [rbp-0x1c]
    19ab:	0f 85 7a ff ff ff    	jne    192b <_ZL15stbtt__dict_getP10stbtt__bufi+0x20>
    19b1:	8b 45 fc             	mov    eax,DWORD PTR [rbp-0x4]
    19b4:	2b 45 f8             	sub    eax,DWORD PTR [rbp-0x8]
    19b7:	89 c2                	mov    edx,eax
    19b9:	8b 4d f8             	mov    ecx,DWORD PTR [rbp-0x8]
    19bc:	48 8b 45 e8          	mov    rax,QWORD PTR [rbp-0x18]
    19c0:	89 ce                	mov    esi,ecx
    19c2:	48 89 c7             	mov    rdi,rax
    19c5:	e8 33 fc ff ff       	call   15fd <_ZL16stbtt__buf_rangePK10stbtt__bufii>
    19ca:	eb 16                	jmp    19e2 <_ZL15stbtt__dict_getP10stbtt__bufi+0xd7>
    19cc:	48 8b 45 e8          	mov    rax,QWORD PTR [rbp-0x18]
    19d0:	ba 00 00 00 00       	mov    edx,0x0
    19d5:	be 00 00 00 00       	mov    esi,0x0
    19da:	48 89 c7             	mov    rdi,rax
    19dd:	e8 1b fc ff ff       	call   15fd <_ZL16stbtt__buf_rangePK10stbtt__bufii>
    19e2:	c9                   	leave  
    19e3:	c3                   	ret    

00000000000019e4 <_ZL20stbtt__dict_get_intsP10stbtt__bufiiPj>:
    19e4:	55                   	push   rbp
    19e5:	48 89 e5             	mov    rbp,rsp
    19e8:	53                   	push   rbx
    19e9:	48 83 ec 58          	sub    rsp,0x58
    19ed:	48 89 7d b8          	mov    QWORD PTR [rbp-0x48],rdi
    19f1:	89 75 b4             	mov    DWORD PTR [rbp-0x4c],esi
    19f4:	89 55 b0             	mov    DWORD PTR [rbp-0x50],edx
    19f7:	48 89 4d a8          	mov    QWORD PTR [rbp-0x58],rcx
    19fb:	64 48 8b 04 25 28 00 	mov    rax,QWORD PTR fs:0x28
    1a02:	00 00 
    1a04:	48 89 45 e8          	mov    QWORD PTR [rbp-0x18],rax
    1a08:	31 c0                	xor    eax,eax
    1a0a:	8b 55 b4             	mov    edx,DWORD PTR [rbp-0x4c]
    1a0d:	48 8b 45 b8          	mov    rax,QWORD PTR [rbp-0x48]
    1a11:	89 d6                	mov    esi,edx
    1a13:	48 89 c7             	mov    rdi,rax
    1a16:	e8 f0 fe ff ff       	call   190b <_ZL15stbtt__dict_getP10stbtt__bufi>
    1a1b:	48 89 45 d0          	mov    QWORD PTR [rbp-0x30],rax
    1a1f:	48 89 55 d8          	mov    QWORD PTR [rbp-0x28],rdx
    1a23:	c7 45 cc 00 00 00 00 	mov    DWORD PTR [rbp-0x34],0x0
    1a2a:	8b 45 cc             	mov    eax,DWORD PTR [rbp-0x34]
    1a2d:	3b 45 b0             	cmp    eax,DWORD PTR [rbp-0x50]
    1a30:	7d 33                	jge    1a65 <_ZL20stbtt__dict_get_intsP10stbtt__bufiiPj+0x81>
    1a32:	8b 55 d8             	mov    edx,DWORD PTR [rbp-0x28]
    1a35:	8b 45 dc             	mov    eax,DWORD PTR [rbp-0x24]
    1a38:	39 c2                	cmp    edx,eax
    1a3a:	7d 29                	jge    1a65 <_ZL20stbtt__dict_get_intsP10stbtt__bufiiPj+0x81>
    1a3c:	8b 45 cc             	mov    eax,DWORD PTR [rbp-0x34]
    1a3f:	48 98                	cdqe   
    1a41:	48 8d 14 85 00 00 00 	lea    rdx,[rax*4+0x0]
    1a48:	00 
    1a49:	48 8b 45 a8          	mov    rax,QWORD PTR [rbp-0x58]
    1a4d:	48 8d 1c 02          	lea    rbx,[rdx+rax*1]
    1a51:	48 8d 45 d0          	lea    rax,[rbp-0x30]
    1a55:	48 89 c7             	mov    rdi,rax
    1a58:	e8 07 fd ff ff       	call   1764 <_ZL14stbtt__cff_intP10stbtt__buf>
    1a5d:	89 03                	mov    DWORD PTR [rbx],eax
    1a5f:	83 45 cc 01          	add    DWORD PTR [rbp-0x34],0x1
    1a63:	eb c5                	jmp    1a2a <_ZL20stbtt__dict_get_intsP10stbtt__bufiiPj+0x46>
    1a65:	90                   	nop
    1a66:	48 8b 45 e8          	mov    rax,QWORD PTR [rbp-0x18]
    1a6a:	64 48 33 04 25 28 00 	xor    rax,QWORD PTR fs:0x28
    1a71:	00 00 
    1a73:	74 05                	je     1a7a <_ZL20stbtt__dict_get_intsP10stbtt__bufiiPj+0x96>
    1a75:	e8 00 00 00 00       	call   1a7a <_ZL20stbtt__dict_get_intsP10stbtt__bufiiPj+0x96>
    1a7a:	48 83 c4 58          	add    rsp,0x58
    1a7e:	5b                   	pop    rbx
    1a7f:	5d                   	pop    rbp
    1a80:	c3                   	ret    

0000000000001a81 <_ZL22stbtt__cff_index_countP10stbtt__buf>:
    1a81:	55                   	push   rbp
    1a82:	48 89 e5             	mov    rbp,rsp
    1a85:	48 83 ec 10          	sub    rsp,0x10
    1a89:	48 89 7d f8          	mov    QWORD PTR [rbp-0x8],rdi
    1a8d:	48 8b 45 f8          	mov    rax,QWORD PTR [rbp-0x8]
    1a91:	be 00 00 00 00       	mov    esi,0x0
    1a96:	48 89 c7             	mov    rdi,rax
    1a99:	e8 d2 f9 ff ff       	call   1470 <_ZL15stbtt__buf_seekP10stbtt__bufi>
    1a9e:	48 8b 45 f8          	mov    rax,QWORD PTR [rbp-0x8]
    1aa2:	be 02 00 00 00       	mov    esi,0x2
    1aa7:	48 89 c7             	mov    rdi,rax
    1aaa:	e8 55 fa ff ff       	call   1504 <_ZL14stbtt__buf_getP10stbtt__bufi>
    1aaf:	c9                   	leave  
    1ab0:	c3                   	ret    

0000000000001ab1 <_ZL20stbtt__cff_index_get10stbtt__bufi>:
    1ab1:	55                   	push   rbp
    1ab2:	48 89 e5             	mov    rbp,rsp
    1ab5:	53                   	push   rbx
    1ab6:	48 83 ec 38          	sub    rsp,0x38
    1aba:	48 89 f8             	mov    rax,rdi
    1abd:	48 89 c1             	mov    rcx,rax
    1ac0:	48 89 d3             	mov    rbx,rdx
    1ac3:	48 89 f3             	mov    rbx,rsi
    1ac6:	48 89 4d d0          	mov    QWORD PTR [rbp-0x30],rcx
    1aca:	48 89 5d d8          	mov    QWORD PTR [rbp-0x28],rbx
    1ace:	89 55 cc             	mov    DWORD PTR [rbp-0x34],edx
    1ad1:	48 8d 45 d0          	lea    rax,[rbp-0x30]
    1ad5:	be 00 00 00 00       	mov    esi,0x0
    1ada:	48 89 c7             	mov    rdi,rax
    1add:	e8 8e f9 ff ff       	call   1470 <_ZL15stbtt__buf_seekP10stbtt__bufi>
    1ae2:	48 8d 45 d0          	lea    rax,[rbp-0x30]
    1ae6:	be 02 00 00 00       	mov    esi,0x2
    1aeb:	48 89 c7             	mov    rdi,rax
    1aee:	e8 11 fa ff ff       	call   1504 <_ZL14stbtt__buf_getP10stbtt__bufi>
    1af3:	89 45 e0             	mov    DWORD PTR [rbp-0x20],eax
    1af6:	48 8d 45 d0          	lea    rax,[rbp-0x30]
    1afa:	48 89 c7             	mov    rdi,rax
    1afd:	e8 f2 f8 ff ff       	call   13f4 <_ZL15stbtt__buf_get8P10stbtt__buf>
    1b02:	0f b6 c0             	movzx  eax,al
    1b05:	89 45 e4             	mov    DWORD PTR [rbp-0x1c],eax
    1b08:	83 7d cc 00          	cmp    DWORD PTR [rbp-0x34],0x0
    1b0c:	78 08                	js     1b16 <_ZL20stbtt__cff_index_get10stbtt__bufi+0x65>
    1b0e:	8b 45 cc             	mov    eax,DWORD PTR [rbp-0x34]
    1b11:	3b 45 e0             	cmp    eax,DWORD PTR [rbp-0x20]
    1b14:	7c 1f                	jl     1b35 <_ZL20stbtt__cff_index_get10stbtt__bufi+0x84>
    1b16:	48 8d 0d 00 00 00 00 	lea    rcx,[rip+0x0]        # 1b1d <_ZL20stbtt__cff_index_get10stbtt__bufi+0x6c>
    1b1d:	ba e1 04 00 00       	mov    edx,0x4e1
    1b22:	48 8d 35 00 00 00 00 	lea    rsi,[rip+0x0]        # 1b29 <_ZL20stbtt__cff_index_get10stbtt__bufi+0x78>
    1b29:	48 8d 3d 00 00 00 00 	lea    rdi,[rip+0x0]        # 1b30 <_ZL20stbtt__cff_index_get10stbtt__bufi+0x7f>
    1b30:	e8 00 00 00 00       	call   1b35 <_ZL20stbtt__cff_index_get10stbtt__bufi+0x84>
    1b35:	83 7d e4 00          	cmp    DWORD PTR [rbp-0x1c],0x0
    1b39:	7e 06                	jle    1b41 <_ZL20stbtt__cff_index_get10stbtt__bufi+0x90>
    1b3b:	83 7d e4 04          	cmp    DWORD PTR [rbp-0x1c],0x4
    1b3f:	7e 1f                	jle    1b60 <_ZL20stbtt__cff_index_get10stbtt__bufi+0xaf>
    1b41:	48 8d 0d 00 00 00 00 	lea    rcx,[rip+0x0]        # 1b48 <_ZL20stbtt__cff_index_get10stbtt__bufi+0x97>
    1b48:	ba e2 04 00 00       	mov    edx,0x4e2
    1b4d:	48 8d 35 00 00 00 00 	lea    rsi,[rip+0x0]        # 1b54 <_ZL20stbtt__cff_index_get10stbtt__bufi+0xa3>
    1b54:	48 8d 3d 00 00 00 00 	lea    rdi,[rip+0x0]        # 1b5b <_ZL20stbtt__cff_index_get10stbtt__bufi+0xaa>
    1b5b:	e8 00 00 00 00       	call   1b60 <_ZL20stbtt__cff_index_get10stbtt__bufi+0xaf>
    1b60:	8b 45 cc             	mov    eax,DWORD PTR [rbp-0x34]
    1b63:	0f af 45 e4          	imul   eax,DWORD PTR [rbp-0x1c]
    1b67:	89 c2                	mov    edx,eax
    1b69:	48 8d 45 d0          	lea    rax,[rbp-0x30]
    1b6d:	89 d6                	mov    esi,edx
    1b6f:	48 89 c7             	mov    rdi,rax
    1b72:	e8 61 f9 ff ff       	call   14d8 <_ZL15stbtt__buf_skipP10stbtt__bufi>
    1b77:	8b 55 e4             	mov    edx,DWORD PTR [rbp-0x1c]
    1b7a:	48 8d 45 d0          	lea    rax,[rbp-0x30]
    1b7e:	89 d6                	mov    esi,edx
    1b80:	48 89 c7             	mov    rdi,rax
    1b83:	e8 7c f9 ff ff       	call   1504 <_ZL14stbtt__buf_getP10stbtt__bufi>
    1b88:	89 45 e8             	mov    DWORD PTR [rbp-0x18],eax
    1b8b:	8b 55 e4             	mov    edx,DWORD PTR [rbp-0x1c]
    1b8e:	48 8d 45 d0          	lea    rax,[rbp-0x30]
    1b92:	89 d6                	mov    esi,edx
    1b94:	48 89 c7             	mov    rdi,rax
    1b97:	e8 68 f9 ff ff       	call   1504 <_ZL14stbtt__buf_getP10stbtt__bufi>
    1b9c:	89 45 ec             	mov    DWORD PTR [rbp-0x14],eax
    1b9f:	8b 45 ec             	mov    eax,DWORD PTR [rbp-0x14]
    1ba2:	2b 45 e8             	sub    eax,DWORD PTR [rbp-0x18]
    1ba5:	89 c2                	mov    edx,eax
    1ba7:	8b 45 e0             	mov    eax,DWORD PTR [rbp-0x20]
    1baa:	83 c0 01             	add    eax,0x1
    1bad:	0f af 45 e4          	imul   eax,DWORD PTR [rbp-0x1c]
    1bb1:	8d 48 02             	lea    ecx,[rax+0x2]
    1bb4:	8b 45 e8             	mov    eax,DWORD PTR [rbp-0x18]
    1bb7:	01 c1                	add    ecx,eax
    1bb9:	48 8d 45 d0          	lea    rax,[rbp-0x30]
    1bbd:	89 ce                	mov    esi,ecx
    1bbf:	48 89 c7             	mov    rdi,rax
    1bc2:	e8 36 fa ff ff       	call   15fd <_ZL16stbtt__buf_rangePK10stbtt__bufii>
    1bc7:	48 83 c4 38          	add    rsp,0x38
    1bcb:	5b                   	pop    rbx
    1bcc:	5d                   	pop    rbp
    1bcd:	c3                   	ret    

0000000000001bce <_ZL8ttUSHORTPh>:
    1bce:	55                   	push   rbp
    1bcf:	48 89 e5             	mov    rbp,rsp
    1bd2:	48 89 7d f8          	mov    QWORD PTR [rbp-0x8],rdi
    1bd6:	48 8b 45 f8          	mov    rax,QWORD PTR [rbp-0x8]
    1bda:	0f b6 00             	movzx  eax,BYTE PTR [rax]
    1bdd:	0f b6 c0             	movzx  eax,al
    1be0:	c1 e0 08             	shl    eax,0x8
    1be3:	89 c2                	mov    edx,eax
    1be5:	48 8b 45 f8          	mov    rax,QWORD PTR [rbp-0x8]
    1be9:	48 83 c0 01          	add    rax,0x1
    1bed:	0f b6 00             	movzx  eax,BYTE PTR [rax]
    1bf0:	0f b6 c0             	movzx  eax,al
    1bf3:	01 d0                	add    eax,edx
    1bf5:	5d                   	pop    rbp
    1bf6:	c3                   	ret    

0000000000001bf7 <_ZL7ttSHORTPh>:
    1bf7:	55                   	push   rbp
    1bf8:	48 89 e5             	mov    rbp,rsp
    1bfb:	48 89 7d f8          	mov    QWORD PTR [rbp-0x8],rdi
    1bff:	48 8b 45 f8          	mov    rax,QWORD PTR [rbp-0x8]
    1c03:	0f b6 00             	movzx  eax,BYTE PTR [rax]
    1c06:	0f b6 c0             	movzx  eax,al
    1c09:	c1 e0 08             	shl    eax,0x8
    1c0c:	89 c2                	mov    edx,eax
    1c0e:	48 8b 45 f8          	mov    rax,QWORD PTR [rbp-0x8]
    1c12:	48 83 c0 01          	add    rax,0x1
    1c16:	0f b6 00             	movzx  eax,BYTE PTR [rax]
    1c19:	0f b6 c0             	movzx  eax,al
    1c1c:	01 d0                	add    eax,edx
    1c1e:	5d                   	pop    rbp
    1c1f:	c3                   	ret    

0000000000001c20 <_ZL7ttULONGPh>:
    1c20:	55                   	push   rbp
    1c21:	48 89 e5             	mov    rbp,rsp
    1c24:	48 89 7d f8          	mov    QWORD PTR [rbp-0x8],rdi
    1c28:	48 8b 45 f8          	mov    rax,QWORD PTR [rbp-0x8]
    1c2c:	0f b6 00             	movzx  eax,BYTE PTR [rax]
    1c2f:	0f b6 c0             	movzx  eax,al
    1c32:	c1 e0 18             	shl    eax,0x18
    1c35:	89 c2                	mov    edx,eax
    1c37:	48 8b 45 f8          	mov    rax,QWORD PTR [rbp-0x8]
    1c3b:	48 83 c0 01          	add    rax,0x1
    1c3f:	0f b6 00             	movzx  eax,BYTE PTR [rax]
    1c42:	0f b6 c0             	movzx  eax,al
    1c45:	c1 e0 10             	shl    eax,0x10
    1c48:	01 c2                	add    edx,eax
    1c4a:	48 8b 45 f8          	mov    rax,QWORD PTR [rbp-0x8]
    1c4e:	48 83 c0 02          	add    rax,0x2
    1c52:	0f b6 00             	movzx  eax,BYTE PTR [rax]
    1c55:	0f b6 c0             	movzx  eax,al
    1c58:	c1 e0 08             	shl    eax,0x8
    1c5b:	01 c2                	add    edx,eax
    1c5d:	48 8b 45 f8          	mov    rax,QWORD PTR [rbp-0x8]
    1c61:	48 83 c0 03          	add    rax,0x3
    1c65:	0f b6 00             	movzx  eax,BYTE PTR [rax]
    1c68:	0f b6 c0             	movzx  eax,al
    1c6b:	01 d0                	add    eax,edx
    1c6d:	5d                   	pop    rbp
    1c6e:	c3                   	ret    

0000000000001c6f <_ZL6ttLONGPh>:
    1c6f:	55                   	push   rbp
    1c70:	48 89 e5             	mov    rbp,rsp
    1c73:	48 89 7d f8          	mov    QWORD PTR [rbp-0x8],rdi
    1c77:	48 8b 45 f8          	mov    rax,QWORD PTR [rbp-0x8]
    1c7b:	0f b6 00             	movzx  eax,BYTE PTR [rax]
    1c7e:	0f b6 c0             	movzx  eax,al
    1c81:	c1 e0 18             	shl    eax,0x18
    1c84:	89 c2                	mov    edx,eax
    1c86:	48 8b 45 f8          	mov    rax,QWORD PTR [rbp-0x8]
    1c8a:	48 83 c0 01          	add    rax,0x1
    1c8e:	0f b6 00             	movzx  eax,BYTE PTR [rax]
    1c91:	0f b6 c0             	movzx  eax,al
    1c94:	c1 e0 10             	shl    eax,0x10
    1c97:	01 c2                	add    edx,eax
    1c99:	48 8b 45 f8          	mov    rax,QWORD PTR [rbp-0x8]
    1c9d:	48 83 c0 02          	add    rax,0x2
    1ca1:	0f b6 00             	movzx  eax,BYTE PTR [rax]
    1ca4:	0f b6 c0             	movzx  eax,al
    1ca7:	c1 e0 08             	shl    eax,0x8
    1caa:	01 c2                	add    edx,eax
    1cac:	48 8b 45 f8          	mov    rax,QWORD PTR [rbp-0x8]
    1cb0:	48 83 c0 03          	add    rax,0x3
    1cb4:	0f b6 00             	movzx  eax,BYTE PTR [rax]
    1cb7:	0f b6 c0             	movzx  eax,al
    1cba:	01 d0                	add    eax,edx
    1cbc:	5d                   	pop    rbp
    1cbd:	c3                   	ret    

0000000000001cbe <_ZL13stbtt__isfontPh>:
    1cbe:	55                   	push   rbp
    1cbf:	48 89 e5             	mov    rbp,rsp
    1cc2:	48 89 7d f8          	mov    QWORD PTR [rbp-0x8],rdi
    1cc6:	48 8b 45 f8          	mov    rax,QWORD PTR [rbp-0x8]
    1cca:	0f b6 00             	movzx  eax,BYTE PTR [rax]
    1ccd:	3c 31                	cmp    al,0x31
    1ccf:	75 37                	jne    1d08 <_ZL13stbtt__isfontPh+0x4a>
    1cd1:	48 8b 45 f8          	mov    rax,QWORD PTR [rbp-0x8]
    1cd5:	48 83 c0 01          	add    rax,0x1
    1cd9:	0f b6 00             	movzx  eax,BYTE PTR [rax]
    1cdc:	84 c0                	test   al,al
    1cde:	75 28                	jne    1d08 <_ZL13stbtt__isfontPh+0x4a>
    1ce0:	48 8b 45 f8          	mov    rax,QWORD PTR [rbp-0x8]
    1ce4:	48 83 c0 02          	add    rax,0x2
    1ce8:	0f b6 00             	movzx  eax,BYTE PTR [rax]
    1ceb:	84 c0                	test   al,al
    1ced:	75 19                	jne    1d08 <_ZL13stbtt__isfontPh+0x4a>
    1cef:	48 8b 45 f8          	mov    rax,QWORD PTR [rbp-0x8]
    1cf3:	48 83 c0 03          	add    rax,0x3
    1cf7:	0f b6 00             	movzx  eax,BYTE PTR [rax]
    1cfa:	84 c0                	test   al,al
    1cfc:	75 0a                	jne    1d08 <_ZL13stbtt__isfontPh+0x4a>
    1cfe:	b8 01 00 00 00       	mov    eax,0x1
    1d03:	e9 8b 01 00 00       	jmp    1e93 <_ZL13stbtt__isfontPh+0x1d5>
    1d08:	48 8b 45 f8          	mov    rax,QWORD PTR [rbp-0x8]
    1d0c:	0f b6 00             	movzx  eax,BYTE PTR [rax]
    1d0f:	0f b6 d0             	movzx  edx,al
    1d12:	b8 74 00 00 00       	mov    eax,0x74
    1d17:	0f be c0             	movsx  eax,al
    1d1a:	39 c2                	cmp    edx,eax
    1d1c:	75 58                	jne    1d76 <_ZL13stbtt__isfontPh+0xb8>
    1d1e:	48 8b 45 f8          	mov    rax,QWORD PTR [rbp-0x8]
    1d22:	48 83 c0 01          	add    rax,0x1
    1d26:	0f b6 00             	movzx  eax,BYTE PTR [rax]
    1d29:	0f b6 d0             	movzx  edx,al
    1d2c:	b8 79 00 00 00       	mov    eax,0x79
    1d31:	0f be c0             	movsx  eax,al
    1d34:	39 c2                	cmp    edx,eax
    1d36:	75 3e                	jne    1d76 <_ZL13stbtt__isfontPh+0xb8>
    1d38:	48 8b 45 f8          	mov    rax,QWORD PTR [rbp-0x8]
    1d3c:	48 83 c0 02          	add    rax,0x2
    1d40:	0f b6 00             	movzx  eax,BYTE PTR [rax]
    1d43:	0f b6 d0             	movzx  edx,al
    1d46:	b8 70 00 00 00       	mov    eax,0x70
    1d4b:	0f be c0             	movsx  eax,al
    1d4e:	39 c2                	cmp    edx,eax
    1d50:	75 24                	jne    1d76 <_ZL13stbtt__isfontPh+0xb8>
    1d52:	48 8b 45 f8          	mov    rax,QWORD PTR [rbp-0x8]
    1d56:	48 83 c0 03          	add    rax,0x3
    1d5a:	0f b6 00             	movzx  eax,BYTE PTR [rax]
    1d5d:	0f b6 d0             	movzx  edx,al
    1d60:	b8 31 00 00 00       	mov    eax,0x31
    1d65:	0f be c0             	movsx  eax,al
    1d68:	39 c2                	cmp    edx,eax
    1d6a:	75 0a                	jne    1d76 <_ZL13stbtt__isfontPh+0xb8>
    1d6c:	b8 01 00 00 00       	mov    eax,0x1
    1d71:	e9 1d 01 00 00       	jmp    1e93 <_ZL13stbtt__isfontPh+0x1d5>
    1d76:	48 8b 45 f8          	mov    rax,QWORD PTR [rbp-0x8]
    1d7a:	0f b6 00             	movzx  eax,BYTE PTR [rax]
    1d7d:	0f b6 d0             	movzx  edx,al
    1d80:	b8 4f 00 00 00       	mov    eax,0x4f
    1d85:	0f be c0             	movsx  eax,al
    1d88:	39 c2                	cmp    edx,eax
    1d8a:	75 58                	jne    1de4 <_ZL13stbtt__isfontPh+0x126>
    1d8c:	48 8b 45 f8          	mov    rax,QWORD PTR [rbp-0x8]
    1d90:	48 83 c0 01          	add    rax,0x1
    1d94:	0f b6 00             	movzx  eax,BYTE PTR [rax]
    1d97:	0f b6 d0             	movzx  edx,al
    1d9a:	b8 54 00 00 00       	mov    eax,0x54
    1d9f:	0f be c0             	movsx  eax,al
    1da2:	39 c2                	cmp    edx,eax
    1da4:	75 3e                	jne    1de4 <_ZL13stbtt__isfontPh+0x126>
    1da6:	48 8b 45 f8          	mov    rax,QWORD PTR [rbp-0x8]
    1daa:	48 83 c0 02          	add    rax,0x2
    1dae:	0f b6 00             	movzx  eax,BYTE PTR [rax]
    1db1:	0f b6 d0             	movzx  edx,al
    1db4:	b8 54 00 00 00       	mov    eax,0x54
    1db9:	0f be c0             	movsx  eax,al
    1dbc:	39 c2                	cmp    edx,eax
    1dbe:	75 24                	jne    1de4 <_ZL13stbtt__isfontPh+0x126>
    1dc0:	48 8b 45 f8          	mov    rax,QWORD PTR [rbp-0x8]
    1dc4:	48 83 c0 03          	add    rax,0x3
    1dc8:	0f b6 00             	movzx  eax,BYTE PTR [rax]
    1dcb:	0f b6 d0             	movzx  edx,al
    1dce:	b8 4f 00 00 00       	mov    eax,0x4f
    1dd3:	0f be c0             	movsx  eax,al
    1dd6:	39 c2                	cmp    edx,eax
    1dd8:	75 0a                	jne    1de4 <_ZL13stbtt__isfontPh+0x126>
    1dda:	b8 01 00 00 00       	mov    eax,0x1
    1ddf:	e9 af 00 00 00       	jmp    1e93 <_ZL13stbtt__isfontPh+0x1d5>
    1de4:	48 8b 45 f8          	mov    rax,QWORD PTR [rbp-0x8]
    1de8:	0f b6 00             	movzx  eax,BYTE PTR [rax]
    1deb:	84 c0                	test   al,al
    1ded:	75 34                	jne    1e23 <_ZL13stbtt__isfontPh+0x165>
    1def:	48 8b 45 f8          	mov    rax,QWORD PTR [rbp-0x8]
    1df3:	48 83 c0 01          	add    rax,0x1
    1df7:	0f b6 00             	movzx  eax,BYTE PTR [rax]
    1dfa:	3c 01                	cmp    al,0x1
    1dfc:	75 25                	jne    1e23 <_ZL13stbtt__isfontPh+0x165>
    1dfe:	48 8b 45 f8          	mov    rax,QWORD PTR [rbp-0x8]
    1e02:	48 83 c0 02          	add    rax,0x2
    1e06:	0f b6 00             	movzx  eax,BYTE PTR [rax]
    1e09:	84 c0                	test   al,al
    1e0b:	75 16                	jne    1e23 <_ZL13stbtt__isfontPh+0x165>
    1e0d:	48 8b 45 f8          	mov    rax,QWORD PTR [rbp-0x8]
    1e11:	48 83 c0 03          	add    rax,0x3
    1e15:	0f b6 00             	movzx  eax,BYTE PTR [rax]
    1e18:	84 c0                	test   al,al
    1e1a:	75 07                	jne    1e23 <_ZL13stbtt__isfontPh+0x165>
    1e1c:	b8 01 00 00 00       	mov    eax,0x1
    1e21:	eb 70                	jmp    1e93 <_ZL13stbtt__isfontPh+0x1d5>
    1e23:	48 8b 45 f8          	mov    rax,QWORD PTR [rbp-0x8]
    1e27:	0f b6 00             	movzx  eax,BYTE PTR [rax]
    1e2a:	0f b6 d0             	movzx  edx,al
    1e2d:	b8 74 00 00 00       	mov    eax,0x74
    1e32:	0f be c0             	movsx  eax,al
    1e35:	39 c2                	cmp    edx,eax
    1e37:	75 55                	jne    1e8e <_ZL13stbtt__isfontPh+0x1d0>
    1e39:	48 8b 45 f8          	mov    rax,QWORD PTR [rbp-0x8]
    1e3d:	48 83 c0 01          	add    rax,0x1
    1e41:	0f b6 00             	movzx  eax,BYTE PTR [rax]
    1e44:	0f b6 d0             	movzx  edx,al
    1e47:	b8 72 00 00 00       	mov    eax,0x72
    1e4c:	0f be c0             	movsx  eax,al
    1e4f:	39 c2                	cmp    edx,eax
    1e51:	75 3b                	jne    1e8e <_ZL13stbtt__isfontPh+0x1d0>
    1e53:	48 8b 45 f8          	mov    rax,QWORD PTR [rbp-0x8]
    1e57:	48 83 c0 02          	add    rax,0x2
    1e5b:	0f b6 00             	movzx  eax,BYTE PTR [rax]
    1e5e:	0f b6 d0             	movzx  edx,al
    1e61:	b8 75 00 00 00       	mov    eax,0x75
    1e66:	0f be c0             	movsx  eax,al
    1e69:	39 c2                	cmp    edx,eax
    1e6b:	75 21                	jne    1e8e <_ZL13stbtt__isfontPh+0x1d0>
    1e6d:	48 8b 45 f8          	mov    rax,QWORD PTR [rbp-0x8]
    1e71:	48 83 c0 03          	add    rax,0x3
    1e75:	0f b6 00             	movzx  eax,BYTE PTR [rax]
    1e78:	0f b6 d0             	movzx  edx,al
    1e7b:	b8 65 00 00 00       	mov    eax,0x65
    1e80:	0f be c0             	movsx  eax,al
    1e83:	39 c2                	cmp    edx,eax
    1e85:	75 07                	jne    1e8e <_ZL13stbtt__isfontPh+0x1d0>
    1e87:	b8 01 00 00 00       	mov    eax,0x1
    1e8c:	eb 05                	jmp    1e93 <_ZL13stbtt__isfontPh+0x1d5>
    1e8e:	b8 00 00 00 00       	mov    eax,0x0
    1e93:	5d                   	pop    rbp
    1e94:	c3                   	ret    

0000000000001e95 <_ZL17stbtt__find_tablePhjPKc>:
    1e95:	55                   	push   rbp
    1e96:	48 89 e5             	mov    rbp,rsp
    1e99:	48 83 ec 28          	sub    rsp,0x28
    1e9d:	48 89 7d e8          	mov    QWORD PTR [rbp-0x18],rdi
    1ea1:	89 75 e4             	mov    DWORD PTR [rbp-0x1c],esi
    1ea4:	48 89 55 d8          	mov    QWORD PTR [rbp-0x28],rdx
    1ea8:	8b 45 e4             	mov    eax,DWORD PTR [rbp-0x1c]
    1eab:	48 8d 50 04          	lea    rdx,[rax+0x4]
    1eaf:	48 8b 45 e8          	mov    rax,QWORD PTR [rbp-0x18]
    1eb3:	48 01 d0             	add    rax,rdx
    1eb6:	48 89 c7             	mov    rdi,rax
    1eb9:	e8 10 fd ff ff       	call   1bce <_ZL8ttUSHORTPh>
    1ebe:	0f b7 c0             	movzx  eax,ax
    1ec1:	89 45 f4             	mov    DWORD PTR [rbp-0xc],eax
    1ec4:	8b 45 e4             	mov    eax,DWORD PTR [rbp-0x1c]
    1ec7:	83 c0 0c             	add    eax,0xc
    1eca:	89 45 f8             	mov    DWORD PTR [rbp-0x8],eax
    1ecd:	c7 45 f0 00 00 00 00 	mov    DWORD PTR [rbp-0x10],0x0
    1ed4:	8b 45 f0             	mov    eax,DWORD PTR [rbp-0x10]
    1ed7:	3b 45 f4             	cmp    eax,DWORD PTR [rbp-0xc]
    1eda:	0f 8d c5 00 00 00    	jge    1fa5 <_ZL17stbtt__find_tablePhjPKc+0x110>
    1ee0:	8b 45 f0             	mov    eax,DWORD PTR [rbp-0x10]
    1ee3:	c1 e0 04             	shl    eax,0x4
    1ee6:	89 c2                	mov    edx,eax
    1ee8:	8b 45 f8             	mov    eax,DWORD PTR [rbp-0x8]
    1eeb:	01 d0                	add    eax,edx
    1eed:	89 45 fc             	mov    DWORD PTR [rbp-0x4],eax
    1ef0:	8b 55 fc             	mov    edx,DWORD PTR [rbp-0x4]
    1ef3:	48 8b 45 e8          	mov    rax,QWORD PTR [rbp-0x18]
    1ef7:	48 01 d0             	add    rax,rdx
    1efa:	0f b6 00             	movzx  eax,BYTE PTR [rax]
    1efd:	0f b6 d0             	movzx  edx,al
    1f00:	48 8b 45 d8          	mov    rax,QWORD PTR [rbp-0x28]
    1f04:	0f b6 00             	movzx  eax,BYTE PTR [rax]
    1f07:	0f be c0             	movsx  eax,al
    1f0a:	39 c2                	cmp    edx,eax
    1f0c:	0f 85 8a 00 00 00    	jne    1f9c <_ZL17stbtt__find_tablePhjPKc+0x107>
    1f12:	8b 45 fc             	mov    eax,DWORD PTR [rbp-0x4]
    1f15:	48 8d 50 01          	lea    rdx,[rax+0x1]
    1f19:	48 8b 45 e8          	mov    rax,QWORD PTR [rbp-0x18]
    1f1d:	48 01 d0             	add    rax,rdx
    1f20:	0f b6 00             	movzx  eax,BYTE PTR [rax]
    1f23:	0f b6 d0             	movzx  edx,al
    1f26:	48 8b 45 d8          	mov    rax,QWORD PTR [rbp-0x28]
    1f2a:	48 83 c0 01          	add    rax,0x1
    1f2e:	0f b6 00             	movzx  eax,BYTE PTR [rax]
    1f31:	0f be c0             	movsx  eax,al
    1f34:	39 c2                	cmp    edx,eax
    1f36:	75 64                	jne    1f9c <_ZL17stbtt__find_tablePhjPKc+0x107>
    1f38:	8b 45 fc             	mov    eax,DWORD PTR [rbp-0x4]
    1f3b:	48 8d 50 02          	lea    rdx,[rax+0x2]
    1f3f:	48 8b 45 e8          	mov    rax,QWORD PTR [rbp-0x18]
    1f43:	48 01 d0             	add    rax,rdx
    1f46:	0f b6 00             	movzx  eax,BYTE PTR [rax]
    1f49:	0f b6 d0             	movzx  edx,al
    1f4c:	48 8b 45 d8          	mov    rax,QWORD PTR [rbp-0x28]
    1f50:	48 83 c0 02          	add    rax,0x2
    1f54:	0f b6 00             	movzx  eax,BYTE PTR [rax]
    1f57:	0f be c0             	movsx  eax,al
    1f5a:	39 c2                	cmp    edx,eax
    1f5c:	75 3e                	jne    1f9c <_ZL17stbtt__find_tablePhjPKc+0x107>
    1f5e:	8b 45 fc             	mov    eax,DWORD PTR [rbp-0x4]
    1f61:	48 8d 50 03          	lea    rdx,[rax+0x3]
    1f65:	48 8b 45 e8          	mov    rax,QWORD PTR [rbp-0x18]
    1f69:	48 01 d0             	add    rax,rdx
    1f6c:	0f b6 00             	movzx  eax,BYTE PTR [rax]
    1f6f:	0f b6 d0             	movzx  edx,al
    1f72:	48 8b 45 d8          	mov    rax,QWORD PTR [rbp-0x28]
    1f76:	48 83 c0 03          	add    rax,0x3
    1f7a:	0f b6 00             	movzx  eax,BYTE PTR [rax]
    1f7d:	0f be c0             	movsx  eax,al
    1f80:	39 c2                	cmp    edx,eax
    1f82:	75 18                	jne    1f9c <_ZL17stbtt__find_tablePhjPKc+0x107>
    1f84:	8b 45 fc             	mov    eax,DWORD PTR [rbp-0x4]
    1f87:	48 8d 50 08          	lea    rdx,[rax+0x8]
    1f8b:	48 8b 45 e8          	mov    rax,QWORD PTR [rbp-0x18]
    1f8f:	48 01 d0             	add    rax,rdx
    1f92:	48 89 c7             	mov    rdi,rax
    1f95:	e8 86 fc ff ff       	call   1c20 <_ZL7ttULONGPh>
    1f9a:	eb 0e                	jmp    1faa <_ZL17stbtt__find_tablePhjPKc+0x115>
    1f9c:	83 45 f0 01          	add    DWORD PTR [rbp-0x10],0x1
    1fa0:	e9 2f ff ff ff       	jmp    1ed4 <_ZL17stbtt__find_tablePhjPKc+0x3f>
    1fa5:	b8 00 00 00 00       	mov    eax,0x0
    1faa:	c9                   	leave  
    1fab:	c3                   	ret    

0000000000001fac <_ZL36stbtt_GetFontOffsetForIndex_internalPhi>:
    1fac:	55                   	push   rbp
    1fad:	48 89 e5             	mov    rbp,rsp
    1fb0:	48 83 ec 20          	sub    rsp,0x20
    1fb4:	48 89 7d e8          	mov    QWORD PTR [rbp-0x18],rdi
    1fb8:	89 75 e4             	mov    DWORD PTR [rbp-0x1c],esi
    1fbb:	48 8b 45 e8          	mov    rax,QWORD PTR [rbp-0x18]
    1fbf:	48 89 c7             	mov    rdi,rax
    1fc2:	e8 f7 fc ff ff       	call   1cbe <_ZL13stbtt__isfontPh>
    1fc7:	85 c0                	test   eax,eax
    1fc9:	0f 95 c0             	setne  al
    1fcc:	84 c0                	test   al,al
    1fce:	74 1a                	je     1fea <_ZL36stbtt_GetFontOffsetForIndex_internalPhi+0x3e>
    1fd0:	83 7d e4 00          	cmp    DWORD PTR [rbp-0x1c],0x0
    1fd4:	75 0a                	jne    1fe0 <_ZL36stbtt_GetFontOffsetForIndex_internalPhi+0x34>
    1fd6:	b8 00 00 00 00       	mov    eax,0x0
    1fdb:	e9 fd 00 00 00       	jmp    20dd <_ZL36stbtt_GetFontOffsetForIndex_internalPhi+0x131>
    1fe0:	b8 ff ff ff ff       	mov    eax,0xffffffff
    1fe5:	e9 f3 00 00 00       	jmp    20dd <_ZL36stbtt_GetFontOffsetForIndex_internalPhi+0x131>
    1fea:	48 8b 45 e8          	mov    rax,QWORD PTR [rbp-0x18]
    1fee:	0f b6 00             	movzx  eax,BYTE PTR [rax]
    1ff1:	0f b6 d0             	movzx  edx,al
    1ff4:	b8 74 00 00 00       	mov    eax,0x74
    1ff9:	0f be c0             	movsx  eax,al
    1ffc:	39 c2                	cmp    edx,eax
    1ffe:	0f 85 d4 00 00 00    	jne    20d8 <_ZL36stbtt_GetFontOffsetForIndex_internalPhi+0x12c>
    2004:	48 8b 45 e8          	mov    rax,QWORD PTR [rbp-0x18]
    2008:	48 83 c0 01          	add    rax,0x1
    200c:	0f b6 00             	movzx  eax,BYTE PTR [rax]
    200f:	0f b6 d0             	movzx  edx,al
    2012:	b8 74 00 00 00       	mov    eax,0x74
    2017:	0f be c0             	movsx  eax,al
    201a:	39 c2                	cmp    edx,eax
    201c:	0f 85 b6 00 00 00    	jne    20d8 <_ZL36stbtt_GetFontOffsetForIndex_internalPhi+0x12c>
    2022:	48 8b 45 e8          	mov    rax,QWORD PTR [rbp-0x18]
    2026:	48 83 c0 02          	add    rax,0x2
    202a:	0f b6 00             	movzx  eax,BYTE PTR [rax]
    202d:	0f b6 d0             	movzx  edx,al
    2030:	b8 63 00 00 00       	mov    eax,0x63
    2035:	0f be c0             	movsx  eax,al
    2038:	39 c2                	cmp    edx,eax
    203a:	0f 85 98 00 00 00    	jne    20d8 <_ZL36stbtt_GetFontOffsetForIndex_internalPhi+0x12c>
    2040:	48 8b 45 e8          	mov    rax,QWORD PTR [rbp-0x18]
    2044:	48 83 c0 03          	add    rax,0x3
    2048:	0f b6 00             	movzx  eax,BYTE PTR [rax]
    204b:	0f b6 d0             	movzx  edx,al
    204e:	b8 66 00 00 00       	mov    eax,0x66
    2053:	0f be c0             	movsx  eax,al
    2056:	39 c2                	cmp    edx,eax
    2058:	75 7e                	jne    20d8 <_ZL36stbtt_GetFontOffsetForIndex_internalPhi+0x12c>
    205a:	48 8b 45 e8          	mov    rax,QWORD PTR [rbp-0x18]
    205e:	48 83 c0 04          	add    rax,0x4
    2062:	48 89 c7             	mov    rdi,rax
    2065:	e8 b6 fb ff ff       	call   1c20 <_ZL7ttULONGPh>
    206a:	3d 00 00 01 00       	cmp    eax,0x10000
    206f:	74 17                	je     2088 <_ZL36stbtt_GetFontOffsetForIndex_internalPhi+0xdc>
    2071:	48 8b 45 e8          	mov    rax,QWORD PTR [rbp-0x18]
    2075:	48 83 c0 04          	add    rax,0x4
    2079:	48 89 c7             	mov    rdi,rax
    207c:	e8 9f fb ff ff       	call   1c20 <_ZL7ttULONGPh>
    2081:	3d 00 00 02 00       	cmp    eax,0x20000
    2086:	75 07                	jne    208f <_ZL36stbtt_GetFontOffsetForIndex_internalPhi+0xe3>
    2088:	b8 01 00 00 00       	mov    eax,0x1
    208d:	eb 05                	jmp    2094 <_ZL36stbtt_GetFontOffsetForIndex_internalPhi+0xe8>
    208f:	b8 00 00 00 00       	mov    eax,0x0
    2094:	84 c0                	test   al,al
    2096:	74 40                	je     20d8 <_ZL36stbtt_GetFontOffsetForIndex_internalPhi+0x12c>
    2098:	48 8b 45 e8          	mov    rax,QWORD PTR [rbp-0x18]
    209c:	48 83 c0 08          	add    rax,0x8
    20a0:	48 89 c7             	mov    rdi,rax
    20a3:	e8 c7 fb ff ff       	call   1c6f <_ZL6ttLONGPh>
    20a8:	89 45 fc             	mov    DWORD PTR [rbp-0x4],eax
    20ab:	8b 45 e4             	mov    eax,DWORD PTR [rbp-0x1c]
    20ae:	3b 45 fc             	cmp    eax,DWORD PTR [rbp-0x4]
    20b1:	7c 07                	jl     20ba <_ZL36stbtt_GetFontOffsetForIndex_internalPhi+0x10e>
    20b3:	b8 ff ff ff ff       	mov    eax,0xffffffff
    20b8:	eb 23                	jmp    20dd <_ZL36stbtt_GetFontOffsetForIndex_internalPhi+0x131>
    20ba:	48 8b 45 e8          	mov    rax,QWORD PTR [rbp-0x18]
    20be:	8b 55 e4             	mov    edx,DWORD PTR [rbp-0x1c]
    20c1:	c1 e2 02             	shl    edx,0x2
    20c4:	48 63 d2             	movsxd rdx,edx
    20c7:	48 83 c2 0c          	add    rdx,0xc
    20cb:	48 01 d0             	add    rax,rdx
    20ce:	48 89 c7             	mov    rdi,rax
    20d1:	e8 4a fb ff ff       	call   1c20 <_ZL7ttULONGPh>
    20d6:	eb 05                	jmp    20dd <_ZL36stbtt_GetFontOffsetForIndex_internalPhi+0x131>
    20d8:	b8 ff ff ff ff       	mov    eax,0xffffffff
    20dd:	c9                   	leave  
    20de:	c3                   	ret    

00000000000020df <_ZL31stbtt_GetNumberOfFonts_internalPh>:
    20df:	55                   	push   rbp
    20e0:	48 89 e5             	mov    rbp,rsp
    20e3:	48 83 ec 08          	sub    rsp,0x8
    20e7:	48 89 7d f8          	mov    QWORD PTR [rbp-0x8],rdi
    20eb:	48 8b 45 f8          	mov    rax,QWORD PTR [rbp-0x8]
    20ef:	48 89 c7             	mov    rdi,rax
    20f2:	e8 c7 fb ff ff       	call   1cbe <_ZL13stbtt__isfontPh>
    20f7:	85 c0                	test   eax,eax
    20f9:	0f 95 c0             	setne  al
    20fc:	84 c0                	test   al,al
    20fe:	74 0a                	je     210a <_ZL31stbtt_GetNumberOfFonts_internalPh+0x2b>
    2100:	b8 01 00 00 00       	mov    eax,0x1
    2105:	e9 c1 00 00 00       	jmp    21cb <_ZL31stbtt_GetNumberOfFonts_internalPh+0xec>
    210a:	48 8b 45 f8          	mov    rax,QWORD PTR [rbp-0x8]
    210e:	0f b6 00             	movzx  eax,BYTE PTR [rax]
    2111:	0f b6 d0             	movzx  edx,al
    2114:	b8 74 00 00 00       	mov    eax,0x74
    2119:	0f be c0             	movsx  eax,al
    211c:	39 c2                	cmp    edx,eax
    211e:	0f 85 a2 00 00 00    	jne    21c6 <_ZL31stbtt_GetNumberOfFonts_internalPh+0xe7>
    2124:	48 8b 45 f8          	mov    rax,QWORD PTR [rbp-0x8]
    2128:	48 83 c0 01          	add    rax,0x1
    212c:	0f b6 00             	movzx  eax,BYTE PTR [rax]
    212f:	0f b6 d0             	movzx  edx,al
    2132:	b8 74 00 00 00       	mov    eax,0x74
    2137:	0f be c0             	movsx  eax,al
    213a:	39 c2                	cmp    edx,eax
    213c:	0f 85 84 00 00 00    	jne    21c6 <_ZL31stbtt_GetNumberOfFonts_internalPh+0xe7>
    2142:	48 8b 45 f8          	mov    rax,QWORD PTR [rbp-0x8]
    2146:	48 83 c0 02          	add    rax,0x2
    214a:	0f b6 00             	movzx  eax,BYTE PTR [rax]
    214d:	0f b6 d0             	movzx  edx,al
    2150:	b8 63 00 00 00       	mov    eax,0x63
    2155:	0f be c0             	movsx  eax,al
    2158:	39 c2                	cmp    edx,eax
    215a:	75 6a                	jne    21c6 <_ZL31stbtt_GetNumberOfFonts_internalPh+0xe7>
    215c:	48 8b 45 f8          	mov    rax,QWORD PTR [rbp-0x8]
    2160:	48 83 c0 03          	add    rax,0x3
    2164:	0f b6 00             	movzx  eax,BYTE PTR [rax]
    2167:	0f b6 d0             	movzx  edx,al
    216a:	b8 66 00 00 00       	mov    eax,0x66
    216f:	0f be c0             	movsx  eax,al
    2172:	39 c2                	cmp    edx,eax
    2174:	75 50                	jne    21c6 <_ZL31stbtt_GetNumberOfFonts_internalPh+0xe7>
    2176:	48 8b 45 f8          	mov    rax,QWORD PTR [rbp-0x8]
    217a:	48 83 c0 04          	add    rax,0x4
    217e:	48 89 c7             	mov    rdi,rax
    2181:	e8 9a fa ff ff       	call   1c20 <_ZL7ttULONGPh>
    2186:	3d 00 00 01 00       	cmp    eax,0x10000
    218b:	74 17                	je     21a4 <_ZL31stbtt_GetNumberOfFonts_internalPh+0xc5>
    218d:	48 8b 45 f8          	mov    rax,QWORD PTR [rbp-0x8]
    2191:	48 83 c0 04          	add    rax,0x4
    2195:	48 89 c7             	mov    rdi,rax
    2198:	e8 83 fa ff ff       	call   1c20 <_ZL7ttULONGPh>
    219d:	3d 00 00 02 00       	cmp    eax,0x20000
    21a2:	75 07                	jne    21ab <_ZL31stbtt_GetNumberOfFonts_internalPh+0xcc>
    21a4:	b8 01 00 00 00       	mov    eax,0x1
    21a9:	eb 05                	jmp    21b0 <_ZL31stbtt_GetNumberOfFonts_internalPh+0xd1>
    21ab:	b8 00 00 00 00       	mov    eax,0x0
    21b0:	84 c0                	test   al,al
    21b2:	74 12                	je     21c6 <_ZL31stbtt_GetNumberOfFonts_internalPh+0xe7>
    21b4:	48 8b 45 f8          	mov    rax,QWORD PTR [rbp-0x8]
    21b8:	48 83 c0 08          	add    rax,0x8
    21bc:	48 89 c7             	mov    rdi,rax
    21bf:	e8 ab fa ff ff       	call   1c6f <_ZL6ttLONGPh>
    21c4:	eb 05                	jmp    21cb <_ZL31stbtt_GetNumberOfFonts_internalPh+0xec>
    21c6:	b8 00 00 00 00       	mov    eax,0x0
    21cb:	c9                   	leave  
    21cc:	c3                   	ret    

00000000000021cd <_ZL16stbtt__get_subrs10stbtt__bufS_>:
    21cd:	55                   	push   rbp
    21ce:	48 89 e5             	mov    rbp,rsp
    21d1:	48 83 ec 50          	sub    rsp,0x50
    21d5:	48 89 f8             	mov    rax,rdi
    21d8:	49 89 f0             	mov    r8,rsi
    21db:	48 89 c6             	mov    rsi,rax
    21de:	48 89 d7             	mov    rdi,rdx
    21e1:	4c 89 c7             	mov    rdi,r8
    21e4:	48 89 75 c0          	mov    QWORD PTR [rbp-0x40],rsi
    21e8:	48 89 7d c8          	mov    QWORD PTR [rbp-0x38],rdi
    21ec:	48 89 55 b0          	mov    QWORD PTR [rbp-0x50],rdx
    21f0:	48 89 4d b8          	mov    QWORD PTR [rbp-0x48],rcx
    21f4:	64 48 8b 04 25 28 00 	mov    rax,QWORD PTR fs:0x28
    21fb:	00 00 
    21fd:	48 89 45 f8          	mov    QWORD PTR [rbp-0x8],rax
    2201:	31 c0                	xor    eax,eax
    2203:	c7 45 dc 00 00 00 00 	mov    DWORD PTR [rbp-0x24],0x0
    220a:	c7 45 f0 00 00 00 00 	mov    DWORD PTR [rbp-0x10],0x0
    2211:	c7 45 f4 00 00 00 00 	mov    DWORD PTR [rbp-0xc],0x0
    2218:	48 8d 55 f0          	lea    rdx,[rbp-0x10]
    221c:	48 8d 45 b0          	lea    rax,[rbp-0x50]
    2220:	48 89 d1             	mov    rcx,rdx
    2223:	ba 02 00 00 00       	mov    edx,0x2
    2228:	be 12 00 00 00       	mov    esi,0x12
    222d:	48 89 c7             	mov    rdi,rax
    2230:	e8 af f7 ff ff       	call   19e4 <_ZL20stbtt__dict_get_intsP10stbtt__bufiiPj>
    2235:	8b 45 f4             	mov    eax,DWORD PTR [rbp-0xc]
    2238:	85 c0                	test   eax,eax
    223a:	74 07                	je     2243 <_ZL16stbtt__get_subrs10stbtt__bufS_+0x76>
    223c:	8b 45 f0             	mov    eax,DWORD PTR [rbp-0x10]
    223f:	85 c0                	test   eax,eax
    2241:	75 11                	jne    2254 <_ZL16stbtt__get_subrs10stbtt__bufS_+0x87>
    2243:	be 00 00 00 00       	mov    esi,0x0
    2248:	bf 00 00 00 00       	mov    edi,0x0
    224d:	e8 2f f3 ff ff       	call   1581 <_ZL14stbtt__new_bufPKvm>
    2252:	eb 79                	jmp    22cd <_ZL16stbtt__get_subrs10stbtt__bufS_+0x100>
    2254:	8b 45 f0             	mov    eax,DWORD PTR [rbp-0x10]
    2257:	89 c2                	mov    edx,eax
    2259:	8b 45 f4             	mov    eax,DWORD PTR [rbp-0xc]
    225c:	89 c1                	mov    ecx,eax
    225e:	48 8d 45 c0          	lea    rax,[rbp-0x40]
    2262:	89 ce                	mov    esi,ecx
    2264:	48 89 c7             	mov    rdi,rax
    2267:	e8 91 f3 ff ff       	call   15fd <_ZL16stbtt__buf_rangePK10stbtt__bufii>
    226c:	48 89 45 e0          	mov    QWORD PTR [rbp-0x20],rax
    2270:	48 89 55 e8          	mov    QWORD PTR [rbp-0x18],rdx
    2274:	48 8d 55 dc          	lea    rdx,[rbp-0x24]
    2278:	48 8d 45 e0          	lea    rax,[rbp-0x20]
    227c:	48 89 d1             	mov    rcx,rdx
    227f:	ba 01 00 00 00       	mov    edx,0x1
    2284:	be 13 00 00 00       	mov    esi,0x13
    2289:	48 89 c7             	mov    rdi,rax
    228c:	e8 53 f7 ff ff       	call   19e4 <_ZL20stbtt__dict_get_intsP10stbtt__bufiiPj>
    2291:	8b 45 dc             	mov    eax,DWORD PTR [rbp-0x24]
    2294:	85 c0                	test   eax,eax
    2296:	75 11                	jne    22a9 <_ZL16stbtt__get_subrs10stbtt__bufS_+0xdc>
    2298:	be 00 00 00 00       	mov    esi,0x0
    229d:	bf 00 00 00 00       	mov    edi,0x0
    22a2:	e8 da f2 ff ff       	call   1581 <_ZL14stbtt__new_bufPKvm>
    22a7:	eb 24                	jmp    22cd <_ZL16stbtt__get_subrs10stbtt__bufS_+0x100>
    22a9:	8b 55 f4             	mov    edx,DWORD PTR [rbp-0xc]
    22ac:	8b 45 dc             	mov    eax,DWORD PTR [rbp-0x24]
    22af:	01 d0                	add    eax,edx
    22b1:	89 c2                	mov    edx,eax
    22b3:	48 8d 45 c0          	lea    rax,[rbp-0x40]
    22b7:	89 d6                	mov    esi,edx
    22b9:	48 89 c7             	mov    rdi,rax
    22bc:	e8 af f1 ff ff       	call   1470 <_ZL15stbtt__buf_seekP10stbtt__bufi>
    22c1:	48 8d 45 c0          	lea    rax,[rbp-0x40]
    22c5:	48 89 c7             	mov    rdi,rax
    22c8:	e8 d0 f3 ff ff       	call   169d <_ZL20stbtt__cff_get_indexP10stbtt__buf>
    22cd:	48 8b 4d f8          	mov    rcx,QWORD PTR [rbp-0x8]
    22d1:	64 48 33 0c 25 28 00 	xor    rcx,QWORD PTR fs:0x28
    22d8:	00 00 
    22da:	74 05                	je     22e1 <_ZL16stbtt__get_subrs10stbtt__bufS_+0x114>
    22dc:	e8 00 00 00 00       	call   22e1 <_ZL16stbtt__get_subrs10stbtt__bufS_+0x114>
    22e1:	c9                   	leave  
    22e2:	c3                   	ret    

00000000000022e3 <_ZL23stbtt_InitFont_internalP14stbtt_fontinfoPhi>:
    22e3:	55                   	push   rbp
    22e4:	48 89 e5             	mov    rbp,rsp
    22e7:	53                   	push   rbx
    22e8:	48 81 ec 98 00 00 00 	sub    rsp,0x98
    22ef:	48 89 bd 78 ff ff ff 	mov    QWORD PTR [rbp-0x88],rdi
    22f6:	48 89 b5 70 ff ff ff 	mov    QWORD PTR [rbp-0x90],rsi
    22fd:	89 95 6c ff ff ff    	mov    DWORD PTR [rbp-0x94],edx
    2303:	64 48 8b 04 25 28 00 	mov    rax,QWORD PTR fs:0x28
    230a:	00 00 
    230c:	48 89 45 e8          	mov    QWORD PTR [rbp-0x18],rax
    2310:	31 c0                	xor    eax,eax
    2312:	48 8b 85 78 ff ff ff 	mov    rax,QWORD PTR [rbp-0x88]
    2319:	48 8b 95 70 ff ff ff 	mov    rdx,QWORD PTR [rbp-0x90]
    2320:	48 89 50 08          	mov    QWORD PTR [rax+0x8],rdx
    2324:	48 8b 85 78 ff ff ff 	mov    rax,QWORD PTR [rbp-0x88]
    232b:	8b 95 6c ff ff ff    	mov    edx,DWORD PTR [rbp-0x94]
    2331:	89 50 10             	mov    DWORD PTR [rax+0x10],edx
    2334:	48 8b 9d 78 ff ff ff 	mov    rbx,QWORD PTR [rbp-0x88]
    233b:	be 00 00 00 00       	mov    esi,0x0
    2340:	bf 00 00 00 00       	mov    edi,0x0
    2345:	e8 37 f2 ff ff       	call   1581 <_ZL14stbtt__new_bufPKvm>
    234a:	48 89 43 40          	mov    QWORD PTR [rbx+0x40],rax
    234e:	48 89 53 48          	mov    QWORD PTR [rbx+0x48],rdx
    2352:	8b 8d 6c ff ff ff    	mov    ecx,DWORD PTR [rbp-0x94]
    2358:	48 8b 85 70 ff ff ff 	mov    rax,QWORD PTR [rbp-0x90]
    235f:	48 8d 15 00 00 00 00 	lea    rdx,[rip+0x0]        # 2366 <_ZL23stbtt_InitFont_internalP14stbtt_fontinfoPhi+0x83>
    2366:	89 ce                	mov    esi,ecx
    2368:	48 89 c7             	mov    rdi,rax
    236b:	e8 25 fb ff ff       	call   1e95 <_ZL17stbtt__find_tablePhjPKc>
    2370:	89 45 9c             	mov    DWORD PTR [rbp-0x64],eax
    2373:	8b 8d 6c ff ff ff    	mov    ecx,DWORD PTR [rbp-0x94]
    2379:	48 8b 85 70 ff ff ff 	mov    rax,QWORD PTR [rbp-0x90]
    2380:	48 8d 15 00 00 00 00 	lea    rdx,[rip+0x0]        # 2387 <_ZL23stbtt_InitFont_internalP14stbtt_fontinfoPhi+0xa4>
    2387:	89 ce                	mov    esi,ecx
    2389:	48 89 c7             	mov    rdi,rax
    238c:	e8 04 fb ff ff       	call   1e95 <_ZL17stbtt__find_tablePhjPKc>
    2391:	89 c2                	mov    edx,eax
    2393:	48 8b 85 78 ff ff ff 	mov    rax,QWORD PTR [rbp-0x88]
    239a:	89 50 18             	mov    DWORD PTR [rax+0x18],edx
    239d:	8b 8d 6c ff ff ff    	mov    ecx,DWORD PTR [rbp-0x94]
    23a3:	48 8b 85 70 ff ff ff 	mov    rax,QWORD PTR [rbp-0x90]
    23aa:	48 8d 15 00 00 00 00 	lea    rdx,[rip+0x0]        # 23b1 <_ZL23stbtt_InitFont_internalP14stbtt_fontinfoPhi+0xce>
    23b1:	89 ce                	mov    esi,ecx
    23b3:	48 89 c7             	mov    rdi,rax
    23b6:	e8 da fa ff ff       	call   1e95 <_ZL17stbtt__find_tablePhjPKc>
    23bb:	89 c2                	mov    edx,eax
    23bd:	48 8b 85 78 ff ff ff 	mov    rax,QWORD PTR [rbp-0x88]
    23c4:	89 50 1c             	mov    DWORD PTR [rax+0x1c],edx
    23c7:	8b 8d 6c ff ff ff    	mov    ecx,DWORD PTR [rbp-0x94]
    23cd:	48 8b 85 70 ff ff ff 	mov    rax,QWORD PTR [rbp-0x90]
    23d4:	48 8d 15 00 00 00 00 	lea    rdx,[rip+0x0]        # 23db <_ZL23stbtt_InitFont_internalP14stbtt_fontinfoPhi+0xf8>
    23db:	89 ce                	mov    esi,ecx
    23dd:	48 89 c7             	mov    rdi,rax
    23e0:	e8 b0 fa ff ff       	call   1e95 <_ZL17stbtt__find_tablePhjPKc>
    23e5:	89 c2                	mov    edx,eax
    23e7:	48 8b 85 78 ff ff ff 	mov    rax,QWORD PTR [rbp-0x88]
    23ee:	89 50 20             	mov    DWORD PTR [rax+0x20],edx
    23f1:	8b 8d 6c ff ff ff    	mov    ecx,DWORD PTR [rbp-0x94]
    23f7:	48 8b 85 70 ff ff ff 	mov    rax,QWORD PTR [rbp-0x90]
    23fe:	48 8d 15 00 00 00 00 	lea    rdx,[rip+0x0]        # 2405 <_ZL23stbtt_InitFont_internalP14stbtt_fontinfoPhi+0x122>
    2405:	89 ce                	mov    esi,ecx
    2407:	48 89 c7             	mov    rdi,rax
    240a:	e8 86 fa ff ff       	call   1e95 <_ZL17stbtt__find_tablePhjPKc>
    240f:	89 c2                	mov    edx,eax
    2411:	48 8b 85 78 ff ff ff 	mov    rax,QWORD PTR [rbp-0x88]
    2418:	89 50 24             	mov    DWORD PTR [rax+0x24],edx
    241b:	8b 8d 6c ff ff ff    	mov    ecx,DWORD PTR [rbp-0x94]
    2421:	48 8b 85 70 ff ff ff 	mov    rax,QWORD PTR [rbp-0x90]
    2428:	48 8d 15 00 00 00 00 	lea    rdx,[rip+0x0]        # 242f <_ZL23stbtt_InitFont_internalP14stbtt_fontinfoPhi+0x14c>
    242f:	89 ce                	mov    esi,ecx
    2431:	48 89 c7             	mov    rdi,rax
    2434:	e8 5c fa ff ff       	call   1e95 <_ZL17stbtt__find_tablePhjPKc>
    2439:	89 c2                	mov    edx,eax
    243b:	48 8b 85 78 ff ff ff 	mov    rax,QWORD PTR [rbp-0x88]
    2442:	89 50 28             	mov    DWORD PTR [rax+0x28],edx
    2445:	8b 8d 6c ff ff ff    	mov    ecx,DWORD PTR [rbp-0x94]
    244b:	48 8b 85 70 ff ff ff 	mov    rax,QWORD PTR [rbp-0x90]
    2452:	48 8d 15 00 00 00 00 	lea    rdx,[rip+0x0]        # 2459 <_ZL23stbtt_InitFont_internalP14stbtt_fontinfoPhi+0x176>
    2459:	89 ce                	mov    esi,ecx
    245b:	48 89 c7             	mov    rdi,rax
    245e:	e8 32 fa ff ff       	call   1e95 <_ZL17stbtt__find_tablePhjPKc>
    2463:	89 c2                	mov    edx,eax
    2465:	48 8b 85 78 ff ff ff 	mov    rax,QWORD PTR [rbp-0x88]
    246c:	89 50 2c             	mov    DWORD PTR [rax+0x2c],edx
    246f:	8b 8d 6c ff ff ff    	mov    ecx,DWORD PTR [rbp-0x94]
    2475:	48 8b 85 70 ff ff ff 	mov    rax,QWORD PTR [rbp-0x90]
    247c:	48 8d 15 00 00 00 00 	lea    rdx,[rip+0x0]        # 2483 <_ZL23stbtt_InitFont_internalP14stbtt_fontinfoPhi+0x1a0>
    2483:	89 ce                	mov    esi,ecx
    2485:	48 89 c7             	mov    rdi,rax
    2488:	e8 08 fa ff ff       	call   1e95 <_ZL17stbtt__find_tablePhjPKc>
    248d:	89 c2                	mov    edx,eax
    248f:	48 8b 85 78 ff ff ff 	mov    rax,QWORD PTR [rbp-0x88]
    2496:	89 50 30             	mov    DWORD PTR [rax+0x30],edx
    2499:	83 7d 9c 00          	cmp    DWORD PTR [rbp-0x64],0x0
    249d:	74 2a                	je     24c9 <_ZL23stbtt_InitFont_internalP14stbtt_fontinfoPhi+0x1e6>
    249f:	48 8b 85 78 ff ff ff 	mov    rax,QWORD PTR [rbp-0x88]
    24a6:	8b 40 1c             	mov    eax,DWORD PTR [rax+0x1c]
    24a9:	85 c0                	test   eax,eax
    24ab:	74 1c                	je     24c9 <_ZL23stbtt_InitFont_internalP14stbtt_fontinfoPhi+0x1e6>
    24ad:	48 8b 85 78 ff ff ff 	mov    rax,QWORD PTR [rbp-0x88]
    24b4:	8b 40 24             	mov    eax,DWORD PTR [rax+0x24]
    24b7:	85 c0                	test   eax,eax
    24b9:	74 0e                	je     24c9 <_ZL23stbtt_InitFont_internalP14stbtt_fontinfoPhi+0x1e6>
    24bb:	48 8b 85 78 ff ff ff 	mov    rax,QWORD PTR [rbp-0x88]
    24c2:	8b 40 28             	mov    eax,DWORD PTR [rax+0x28]
    24c5:	85 c0                	test   eax,eax
    24c7:	75 0a                	jne    24d3 <_ZL23stbtt_InitFont_internalP14stbtt_fontinfoPhi+0x1f0>
    24c9:	b8 00 00 00 00       	mov    eax,0x0
    24ce:	e9 b0 04 00 00       	jmp    2983 <_ZL23stbtt_InitFont_internalP14stbtt_fontinfoPhi+0x6a0>
    24d3:	48 8b 85 78 ff ff ff 	mov    rax,QWORD PTR [rbp-0x88]
    24da:	8b 40 20             	mov    eax,DWORD PTR [rax+0x20]
    24dd:	85 c0                	test   eax,eax
    24df:	74 1c                	je     24fd <_ZL23stbtt_InitFont_internalP14stbtt_fontinfoPhi+0x21a>
    24e1:	48 8b 85 78 ff ff ff 	mov    rax,QWORD PTR [rbp-0x88]
    24e8:	8b 40 18             	mov    eax,DWORD PTR [rax+0x18]
    24eb:	85 c0                	test   eax,eax
    24ed:	0f 85 e5 02 00 00    	jne    27d8 <_ZL23stbtt_InitFont_internalP14stbtt_fontinfoPhi+0x4f5>
    24f3:	b8 00 00 00 00       	mov    eax,0x0
    24f8:	e9 86 04 00 00       	jmp    2983 <_ZL23stbtt_InitFont_internalP14stbtt_fontinfoPhi+0x6a0>
    24fd:	c7 45 88 02 00 00 00 	mov    DWORD PTR [rbp-0x78],0x2
    2504:	c7 45 8c 00 00 00 00 	mov    DWORD PTR [rbp-0x74],0x0
    250b:	c7 45 90 00 00 00 00 	mov    DWORD PTR [rbp-0x70],0x0
    2512:	c7 45 94 00 00 00 00 	mov    DWORD PTR [rbp-0x6c],0x0
    2519:	8b 8d 6c ff ff ff    	mov    ecx,DWORD PTR [rbp-0x94]
    251f:	48 8b 85 70 ff ff ff 	mov    rax,QWORD PTR [rbp-0x90]
    2526:	48 8d 15 00 00 00 00 	lea    rdx,[rip+0x0]        # 252d <_ZL23stbtt_InitFont_internalP14stbtt_fontinfoPhi+0x24a>
    252d:	89 ce                	mov    esi,ecx
    252f:	48 89 c7             	mov    rdi,rax
    2532:	e8 5e f9 ff ff       	call   1e95 <_ZL17stbtt__find_tablePhjPKc>
    2537:	89 45 a0             	mov    DWORD PTR [rbp-0x60],eax
    253a:	83 7d a0 00          	cmp    DWORD PTR [rbp-0x60],0x0
    253e:	75 0a                	jne    254a <_ZL23stbtt_InitFont_internalP14stbtt_fontinfoPhi+0x267>
    2540:	b8 00 00 00 00       	mov    eax,0x0
    2545:	e9 39 04 00 00       	jmp    2983 <_ZL23stbtt_InitFont_internalP14stbtt_fontinfoPhi+0x6a0>
    254a:	48 8b 9d 78 ff ff ff 	mov    rbx,QWORD PTR [rbp-0x88]
    2551:	be 00 00 00 00       	mov    esi,0x0
    2556:	bf 00 00 00 00       	mov    edi,0x0
    255b:	e8 21 f0 ff ff       	call   1581 <_ZL14stbtt__new_bufPKvm>
    2560:	48 89 83 80 00 00 00 	mov    QWORD PTR [rbx+0x80],rax
    2567:	48 89 93 88 00 00 00 	mov    QWORD PTR [rbx+0x88],rdx
    256e:	48 8b 9d 78 ff ff ff 	mov    rbx,QWORD PTR [rbp-0x88]
    2575:	be 00 00 00 00       	mov    esi,0x0
    257a:	bf 00 00 00 00       	mov    edi,0x0
    257f:	e8 fd ef ff ff       	call   1581 <_ZL14stbtt__new_bufPKvm>
    2584:	48 89 83 90 00 00 00 	mov    QWORD PTR [rbx+0x90],rax
    258b:	48 89 93 98 00 00 00 	mov    QWORD PTR [rbx+0x98],rdx
    2592:	8b 55 a0             	mov    edx,DWORD PTR [rbp-0x60]
    2595:	48 8b 85 70 ff ff ff 	mov    rax,QWORD PTR [rbp-0x90]
    259c:	48 01 d0             	add    rax,rdx
    259f:	48 8b 9d 78 ff ff ff 	mov    rbx,QWORD PTR [rbp-0x88]
    25a6:	be 00 00 00 20       	mov    esi,0x20000000
    25ab:	48 89 c7             	mov    rdi,rax
    25ae:	e8 ce ef ff ff       	call   1581 <_ZL14stbtt__new_bufPKvm>
    25b3:	48 89 43 40          	mov    QWORD PTR [rbx+0x40],rax
    25b7:	48 89 53 48          	mov    QWORD PTR [rbx+0x48],rdx
    25bb:	48 8b 85 78 ff ff ff 	mov    rax,QWORD PTR [rbp-0x88]
    25c2:	48 8b 50 48          	mov    rdx,QWORD PTR [rax+0x48]
    25c6:	48 8b 40 40          	mov    rax,QWORD PTR [rax+0x40]
    25ca:	48 89 45 b0          	mov    QWORD PTR [rbp-0x50],rax
    25ce:	48 89 55 b8          	mov    QWORD PTR [rbp-0x48],rdx
    25d2:	48 8d 45 b0          	lea    rax,[rbp-0x50]
    25d6:	be 02 00 00 00       	mov    esi,0x2
    25db:	48 89 c7             	mov    rdi,rax
    25de:	e8 f5 ee ff ff       	call   14d8 <_ZL15stbtt__buf_skipP10stbtt__bufi>
    25e3:	48 8d 45 b0          	lea    rax,[rbp-0x50]
    25e7:	48 89 c7             	mov    rdi,rax
    25ea:	e8 05 ee ff ff       	call   13f4 <_ZL15stbtt__buf_get8P10stbtt__buf>
    25ef:	0f b6 d0             	movzx  edx,al
    25f2:	48 8d 45 b0          	lea    rax,[rbp-0x50]
    25f6:	89 d6                	mov    esi,edx
    25f8:	48 89 c7             	mov    rdi,rax
    25fb:	e8 70 ee ff ff       	call   1470 <_ZL15stbtt__buf_seekP10stbtt__bufi>
    2600:	48 8d 45 b0          	lea    rax,[rbp-0x50]
    2604:	48 89 c7             	mov    rdi,rax
    2607:	e8 91 f0 ff ff       	call   169d <_ZL20stbtt__cff_get_indexP10stbtt__buf>
    260c:	48 8d 45 b0          	lea    rax,[rbp-0x50]
    2610:	48 89 c7             	mov    rdi,rax
    2613:	e8 85 f0 ff ff       	call   169d <_ZL20stbtt__cff_get_indexP10stbtt__buf>
    2618:	48 89 45 d0          	mov    QWORD PTR [rbp-0x30],rax
    261c:	48 89 55 d8          	mov    QWORD PTR [rbp-0x28],rdx
    2620:	48 8b 4d d0          	mov    rcx,QWORD PTR [rbp-0x30]
    2624:	48 8b 45 d8          	mov    rax,QWORD PTR [rbp-0x28]
    2628:	ba 00 00 00 00       	mov    edx,0x0
    262d:	48 89 cf             	mov    rdi,rcx
    2630:	48 89 c6             	mov    rsi,rax
    2633:	e8 79 f4 ff ff       	call   1ab1 <_ZL20stbtt__cff_index_get10stbtt__bufi>
    2638:	48 89 45 c0          	mov    QWORD PTR [rbp-0x40],rax
    263c:	48 89 55 c8          	mov    QWORD PTR [rbp-0x38],rdx
    2640:	48 8d 45 b0          	lea    rax,[rbp-0x50]
    2644:	48 89 c7             	mov    rdi,rax
    2647:	e8 51 f0 ff ff       	call   169d <_ZL20stbtt__cff_get_indexP10stbtt__buf>
    264c:	48 8b 9d 78 ff ff ff 	mov    rbx,QWORD PTR [rbp-0x88]
    2653:	48 8d 45 b0          	lea    rax,[rbp-0x50]
    2657:	48 89 c7             	mov    rdi,rax
    265a:	e8 3e f0 ff ff       	call   169d <_ZL20stbtt__cff_get_indexP10stbtt__buf>
    265f:	48 89 43 60          	mov    QWORD PTR [rbx+0x60],rax
    2663:	48 89 53 68          	mov    QWORD PTR [rbx+0x68],rdx
    2667:	48 8d 55 8c          	lea    rdx,[rbp-0x74]
    266b:	48 8d 45 c0          	lea    rax,[rbp-0x40]
    266f:	48 89 d1             	mov    rcx,rdx
    2672:	ba 01 00 00 00       	mov    edx,0x1
    2677:	be 11 00 00 00       	mov    esi,0x11
    267c:	48 89 c7             	mov    rdi,rax
    267f:	e8 60 f3 ff ff       	call   19e4 <_ZL20stbtt__dict_get_intsP10stbtt__bufiiPj>
    2684:	48 8d 55 88          	lea    rdx,[rbp-0x78]
    2688:	48 8d 45 c0          	lea    rax,[rbp-0x40]
    268c:	48 89 d1             	mov    rcx,rdx
    268f:	ba 01 00 00 00       	mov    edx,0x1
    2694:	be 06 01 00 00       	mov    esi,0x106
    2699:	48 89 c7             	mov    rdi,rax
    269c:	e8 43 f3 ff ff       	call   19e4 <_ZL20stbtt__dict_get_intsP10stbtt__bufiiPj>
    26a1:	48 8d 55 90          	lea    rdx,[rbp-0x70]
    26a5:	48 8d 45 c0          	lea    rax,[rbp-0x40]
    26a9:	48 89 d1             	mov    rcx,rdx
    26ac:	ba 01 00 00 00       	mov    edx,0x1
    26b1:	be 24 01 00 00       	mov    esi,0x124
    26b6:	48 89 c7             	mov    rdi,rax
    26b9:	e8 26 f3 ff ff       	call   19e4 <_ZL20stbtt__dict_get_intsP10stbtt__bufiiPj>
    26be:	48 8d 55 94          	lea    rdx,[rbp-0x6c]
    26c2:	48 8d 45 c0          	lea    rax,[rbp-0x40]
    26c6:	48 89 d1             	mov    rcx,rdx
    26c9:	ba 01 00 00 00       	mov    edx,0x1
    26ce:	be 25 01 00 00       	mov    esi,0x125
    26d3:	48 89 c7             	mov    rdi,rax
    26d6:	e8 09 f3 ff ff       	call   19e4 <_ZL20stbtt__dict_get_intsP10stbtt__bufiiPj>
    26db:	48 8b 9d 78 ff ff ff 	mov    rbx,QWORD PTR [rbp-0x88]
    26e2:	48 8b 45 c0          	mov    rax,QWORD PTR [rbp-0x40]
    26e6:	48 8b 55 c8          	mov    rdx,QWORD PTR [rbp-0x38]
    26ea:	48 8b 7d b0          	mov    rdi,QWORD PTR [rbp-0x50]
    26ee:	48 8b 75 b8          	mov    rsi,QWORD PTR [rbp-0x48]
    26f2:	48 89 d1             	mov    rcx,rdx
    26f5:	48 89 c2             	mov    rdx,rax
    26f8:	e8 d0 fa ff ff       	call   21cd <_ZL16stbtt__get_subrs10stbtt__bufS_>
    26fd:	48 89 43 70          	mov    QWORD PTR [rbx+0x70],rax
    2701:	48 89 53 78          	mov    QWORD PTR [rbx+0x78],rdx
    2705:	8b 45 88             	mov    eax,DWORD PTR [rbp-0x78]
    2708:	83 f8 02             	cmp    eax,0x2
    270b:	74 0a                	je     2717 <_ZL23stbtt_InitFont_internalP14stbtt_fontinfoPhi+0x434>
    270d:	b8 00 00 00 00       	mov    eax,0x0
    2712:	e9 6c 02 00 00       	jmp    2983 <_ZL23stbtt_InitFont_internalP14stbtt_fontinfoPhi+0x6a0>
    2717:	8b 45 8c             	mov    eax,DWORD PTR [rbp-0x74]
    271a:	85 c0                	test   eax,eax
    271c:	75 0a                	jne    2728 <_ZL23stbtt_InitFont_internalP14stbtt_fontinfoPhi+0x445>
    271e:	b8 00 00 00 00       	mov    eax,0x0
    2723:	e9 5b 02 00 00       	jmp    2983 <_ZL23stbtt_InitFont_internalP14stbtt_fontinfoPhi+0x6a0>
    2728:	8b 45 90             	mov    eax,DWORD PTR [rbp-0x70]
    272b:	85 c0                	test   eax,eax
    272d:	74 7b                	je     27aa <_ZL23stbtt_InitFont_internalP14stbtt_fontinfoPhi+0x4c7>
    272f:	8b 45 94             	mov    eax,DWORD PTR [rbp-0x6c]
    2732:	85 c0                	test   eax,eax
    2734:	75 0a                	jne    2740 <_ZL23stbtt_InitFont_internalP14stbtt_fontinfoPhi+0x45d>
    2736:	b8 00 00 00 00       	mov    eax,0x0
    273b:	e9 43 02 00 00       	jmp    2983 <_ZL23stbtt_InitFont_internalP14stbtt_fontinfoPhi+0x6a0>
    2740:	8b 45 90             	mov    eax,DWORD PTR [rbp-0x70]
    2743:	89 c2                	mov    edx,eax
    2745:	48 8d 45 b0          	lea    rax,[rbp-0x50]
    2749:	89 d6                	mov    esi,edx
    274b:	48 89 c7             	mov    rdi,rax
    274e:	e8 1d ed ff ff       	call   1470 <_ZL15stbtt__buf_seekP10stbtt__bufi>
    2753:	48 8b 9d 78 ff ff ff 	mov    rbx,QWORD PTR [rbp-0x88]
    275a:	48 8d 45 b0          	lea    rax,[rbp-0x50]
    275e:	48 89 c7             	mov    rdi,rax
    2761:	e8 37 ef ff ff       	call   169d <_ZL20stbtt__cff_get_indexP10stbtt__buf>
    2766:	48 89 83 80 00 00 00 	mov    QWORD PTR [rbx+0x80],rax
    276d:	48 89 93 88 00 00 00 	mov    QWORD PTR [rbx+0x88],rdx
    2774:	8b 45 bc             	mov    eax,DWORD PTR [rbp-0x44]
    2777:	89 c2                	mov    edx,eax
    2779:	8b 45 94             	mov    eax,DWORD PTR [rbp-0x6c]
    277c:	29 c2                	sub    edx,eax
    277e:	89 d0                	mov    eax,edx
    2780:	89 c2                	mov    edx,eax
    2782:	8b 45 94             	mov    eax,DWORD PTR [rbp-0x6c]
    2785:	89 c1                	mov    ecx,eax
    2787:	48 8b 9d 78 ff ff ff 	mov    rbx,QWORD PTR [rbp-0x88]
    278e:	48 8d 45 b0          	lea    rax,[rbp-0x50]
    2792:	89 ce                	mov    esi,ecx
    2794:	48 89 c7             	mov    rdi,rax
    2797:	e8 61 ee ff ff       	call   15fd <_ZL16stbtt__buf_rangePK10stbtt__bufii>
    279c:	48 89 83 90 00 00 00 	mov    QWORD PTR [rbx+0x90],rax
    27a3:	48 89 93 98 00 00 00 	mov    QWORD PTR [rbx+0x98],rdx
    27aa:	8b 45 8c             	mov    eax,DWORD PTR [rbp-0x74]
    27ad:	89 c2                	mov    edx,eax
    27af:	48 8d 45 b0          	lea    rax,[rbp-0x50]
    27b3:	89 d6                	mov    esi,edx
    27b5:	48 89 c7             	mov    rdi,rax
    27b8:	e8 b3 ec ff ff       	call   1470 <_ZL15stbtt__buf_seekP10stbtt__bufi>
    27bd:	48 8b 9d 78 ff ff ff 	mov    rbx,QWORD PTR [rbp-0x88]
    27c4:	48 8d 45 b0          	lea    rax,[rbp-0x50]
    27c8:	48 89 c7             	mov    rdi,rax
    27cb:	e8 cd ee ff ff       	call   169d <_ZL20stbtt__cff_get_indexP10stbtt__buf>
    27d0:	48 89 43 50          	mov    QWORD PTR [rbx+0x50],rax
    27d4:	48 89 53 58          	mov    QWORD PTR [rbx+0x58],rdx
    27d8:	8b 8d 6c ff ff ff    	mov    ecx,DWORD PTR [rbp-0x94]
    27de:	48 8b 85 70 ff ff ff 	mov    rax,QWORD PTR [rbp-0x90]
    27e5:	48 8d 15 00 00 00 00 	lea    rdx,[rip+0x0]        # 27ec <_ZL23stbtt_InitFont_internalP14stbtt_fontinfoPhi+0x509>
    27ec:	89 ce                	mov    esi,ecx
    27ee:	48 89 c7             	mov    rdi,rax
    27f1:	e8 9f f6 ff ff       	call   1e95 <_ZL17stbtt__find_tablePhjPKc>
    27f6:	89 45 a4             	mov    DWORD PTR [rbp-0x5c],eax
    27f9:	83 7d a4 00          	cmp    DWORD PTR [rbp-0x5c],0x0
    27fd:	74 28                	je     2827 <_ZL23stbtt_InitFont_internalP14stbtt_fontinfoPhi+0x544>
    27ff:	8b 45 a4             	mov    eax,DWORD PTR [rbp-0x5c]
    2802:	48 8d 50 04          	lea    rdx,[rax+0x4]
    2806:	48 8b 85 70 ff ff ff 	mov    rax,QWORD PTR [rbp-0x90]
    280d:	48 01 d0             	add    rax,rdx
    2810:	48 89 c7             	mov    rdi,rax
    2813:	e8 b6 f3 ff ff       	call   1bce <_ZL8ttUSHORTPh>
    2818:	0f b7 d0             	movzx  edx,ax
    281b:	48 8b 85 78 ff ff ff 	mov    rax,QWORD PTR [rbp-0x88]
    2822:	89 50 14             	mov    DWORD PTR [rax+0x14],edx
    2825:	eb 0e                	jmp    2835 <_ZL23stbtt_InitFont_internalP14stbtt_fontinfoPhi+0x552>
    2827:	48 8b 85 78 ff ff ff 	mov    rax,QWORD PTR [rbp-0x88]
    282e:	c7 40 14 ff ff 00 00 	mov    DWORD PTR [rax+0x14],0xffff
    2835:	8b 45 9c             	mov    eax,DWORD PTR [rbp-0x64]
    2838:	48 8d 50 02          	lea    rdx,[rax+0x2]
    283c:	48 8b 85 70 ff ff ff 	mov    rax,QWORD PTR [rbp-0x90]
    2843:	48 01 d0             	add    rax,rdx
    2846:	48 89 c7             	mov    rdi,rax
    2849:	e8 80 f3 ff ff       	call   1bce <_ZL8ttUSHORTPh>
    284e:	0f b7 c0             	movzx  eax,ax
    2851:	89 45 a8             	mov    DWORD PTR [rbp-0x58],eax
    2854:	48 8b 85 78 ff ff ff 	mov    rax,QWORD PTR [rbp-0x88]
    285b:	c7 40 34 00 00 00 00 	mov    DWORD PTR [rax+0x34],0x0
    2862:	c7 45 98 00 00 00 00 	mov    DWORD PTR [rbp-0x68],0x0
    2869:	8b 45 98             	mov    eax,DWORD PTR [rbp-0x68]
    286c:	3b 45 a8             	cmp    eax,DWORD PTR [rbp-0x58]
    286f:	0f 8d c5 00 00 00    	jge    293a <_ZL23stbtt_InitFont_internalP14stbtt_fontinfoPhi+0x657>
    2875:	8b 45 98             	mov    eax,DWORD PTR [rbp-0x68]
    2878:	c1 e0 03             	shl    eax,0x3
    287b:	89 c2                	mov    edx,eax
    287d:	8b 45 9c             	mov    eax,DWORD PTR [rbp-0x64]
    2880:	01 d0                	add    eax,edx
    2882:	83 c0 04             	add    eax,0x4
    2885:	89 45 ac             	mov    DWORD PTR [rbp-0x54],eax
    2888:	8b 55 ac             	mov    edx,DWORD PTR [rbp-0x54]
    288b:	48 8b 85 70 ff ff ff 	mov    rax,QWORD PTR [rbp-0x90]
    2892:	48 01 d0             	add    rax,rdx
    2895:	48 89 c7             	mov    rdi,rax
    2898:	e8 31 f3 ff ff       	call   1bce <_ZL8ttUSHORTPh>
    289d:	0f b7 c0             	movzx  eax,ax
    28a0:	85 c0                	test   eax,eax
    28a2:	74 60                	je     2904 <_ZL23stbtt_InitFont_internalP14stbtt_fontinfoPhi+0x621>
    28a4:	83 f8 03             	cmp    eax,0x3
    28a7:	0f 85 84 00 00 00    	jne    2931 <_ZL23stbtt_InitFont_internalP14stbtt_fontinfoPhi+0x64e>
    28ad:	8b 45 ac             	mov    eax,DWORD PTR [rbp-0x54]
    28b0:	48 8d 50 02          	lea    rdx,[rax+0x2]
    28b4:	48 8b 85 70 ff ff ff 	mov    rax,QWORD PTR [rbp-0x90]
    28bb:	48 01 d0             	add    rax,rdx
    28be:	48 89 c7             	mov    rdi,rax
    28c1:	e8 08 f3 ff ff       	call   1bce <_ZL8ttUSHORTPh>
    28c6:	0f b7 c0             	movzx  eax,ax
    28c9:	83 f8 01             	cmp    eax,0x1
    28cc:	74 07                	je     28d5 <_ZL23stbtt_InitFont_internalP14stbtt_fontinfoPhi+0x5f2>
    28ce:	83 f8 0a             	cmp    eax,0xa
    28d1:	74 02                	je     28d5 <_ZL23stbtt_InitFont_internalP14stbtt_fontinfoPhi+0x5f2>
    28d3:	eb 5c                	jmp    2931 <_ZL23stbtt_InitFont_internalP14stbtt_fontinfoPhi+0x64e>
    28d5:	8b 45 ac             	mov    eax,DWORD PTR [rbp-0x54]
    28d8:	48 8d 50 04          	lea    rdx,[rax+0x4]
    28dc:	48 8b 85 70 ff ff ff 	mov    rax,QWORD PTR [rbp-0x90]
    28e3:	48 01 d0             	add    rax,rdx
    28e6:	48 89 c7             	mov    rdi,rax
    28e9:	e8 32 f3 ff ff       	call   1c20 <_ZL7ttULONGPh>
    28ee:	89 c2                	mov    edx,eax
    28f0:	8b 45 9c             	mov    eax,DWORD PTR [rbp-0x64]
    28f3:	01 d0                	add    eax,edx
    28f5:	89 c2                	mov    edx,eax
    28f7:	48 8b 85 78 ff ff ff 	mov    rax,QWORD PTR [rbp-0x88]
    28fe:	89 50 34             	mov    DWORD PTR [rax+0x34],edx
    2901:	90                   	nop
    2902:	eb 2d                	jmp    2931 <_ZL23stbtt_InitFont_internalP14stbtt_fontinfoPhi+0x64e>
    2904:	8b 45 ac             	mov    eax,DWORD PTR [rbp-0x54]
    2907:	48 8d 50 04          	lea    rdx,[rax+0x4]
    290b:	48 8b 85 70 ff ff ff 	mov    rax,QWORD PTR [rbp-0x90]
    2912:	48 01 d0             	add    rax,rdx
    2915:	48 89 c7             	mov    rdi,rax
    2918:	e8 03 f3 ff ff       	call   1c20 <_ZL7ttULONGPh>
    291d:	89 c2                	mov    edx,eax
    291f:	8b 45 9c             	mov    eax,DWORD PTR [rbp-0x64]
    2922:	01 d0                	add    eax,edx
    2924:	89 c2                	mov    edx,eax
    2926:	48 8b 85 78 ff ff ff 	mov    rax,QWORD PTR [rbp-0x88]
    292d:	89 50 34             	mov    DWORD PTR [rax+0x34],edx
    2930:	90                   	nop
    2931:	83 45 98 01          	add    DWORD PTR [rbp-0x68],0x1
    2935:	e9 2f ff ff ff       	jmp    2869 <_ZL23stbtt_InitFont_internalP14stbtt_fontinfoPhi+0x586>
    293a:	48 8b 85 78 ff ff ff 	mov    rax,QWORD PTR [rbp-0x88]
    2941:	8b 40 34             	mov    eax,DWORD PTR [rax+0x34]
    2944:	85 c0                	test   eax,eax
    2946:	75 07                	jne    294f <_ZL23stbtt_InitFont_internalP14stbtt_fontinfoPhi+0x66c>
    2948:	b8 00 00 00 00       	mov    eax,0x0
    294d:	eb 34                	jmp    2983 <_ZL23stbtt_InitFont_internalP14stbtt_fontinfoPhi+0x6a0>
    294f:	48 8b 85 78 ff ff ff 	mov    rax,QWORD PTR [rbp-0x88]
    2956:	8b 40 1c             	mov    eax,DWORD PTR [rax+0x1c]
    2959:	48 98                	cdqe   
    295b:	48 8d 50 32          	lea    rdx,[rax+0x32]
    295f:	48 8b 85 70 ff ff ff 	mov    rax,QWORD PTR [rbp-0x90]
    2966:	48 01 d0             	add    rax,rdx
    2969:	48 89 c7             	mov    rdi,rax
    296c:	e8 5d f2 ff ff       	call   1bce <_ZL8ttUSHORTPh>
    2971:	0f b7 d0             	movzx  edx,ax
    2974:	48 8b 85 78 ff ff ff 	mov    rax,QWORD PTR [rbp-0x88]
    297b:	89 50 38             	mov    DWORD PTR [rax+0x38],edx
    297e:	b8 01 00 00 00       	mov    eax,0x1
    2983:	48 8b 5d e8          	mov    rbx,QWORD PTR [rbp-0x18]
    2987:	64 48 33 1c 25 28 00 	xor    rbx,QWORD PTR fs:0x28
    298e:	00 00 
    2990:	74 05                	je     2997 <_ZL23stbtt_InitFont_internalP14stbtt_fontinfoPhi+0x6b4>
    2992:	e8 00 00 00 00       	call   2997 <_ZL23stbtt_InitFont_internalP14stbtt_fontinfoPhi+0x6b4>
    2997:	48 81 c4 98 00 00 00 	add    rsp,0x98
    299e:	5b                   	pop    rbx
    299f:	5d                   	pop    rbp
    29a0:	c3                   	ret    

00000000000029a1 <stbtt_FindGlyphIndex>:
    29a1:	55                   	push   rbp
    29a2:	48 89 e5             	mov    rbp,rsp
    29a5:	48 83 ec 60          	sub    rsp,0x60
    29a9:	48 89 7d a8          	mov    QWORD PTR [rbp-0x58],rdi
    29ad:	89 75 a4             	mov    DWORD PTR [rbp-0x5c],esi
    29b0:	48 8b 45 a8          	mov    rax,QWORD PTR [rbp-0x58]
    29b4:	48 8b 40 08          	mov    rax,QWORD PTR [rax+0x8]
    29b8:	48 89 45 f8          	mov    QWORD PTR [rbp-0x8],rax
    29bc:	48 8b 45 a8          	mov    rax,QWORD PTR [rbp-0x58]
    29c0:	8b 40 34             	mov    eax,DWORD PTR [rax+0x34]
    29c3:	89 45 d0             	mov    DWORD PTR [rbp-0x30],eax
    29c6:	8b 55 d0             	mov    edx,DWORD PTR [rbp-0x30]
    29c9:	48 8b 45 f8          	mov    rax,QWORD PTR [rbp-0x8]
    29cd:	48 01 d0             	add    rax,rdx
    29d0:	48 89 c7             	mov    rdi,rax
    29d3:	e8 f6 f1 ff ff       	call   1bce <_ZL8ttUSHORTPh>
    29d8:	66 89 45 b6          	mov    WORD PTR [rbp-0x4a],ax
    29dc:	66 83 7d b6 00       	cmp    WORD PTR [rbp-0x4a],0x0
    29e1:	75 52                	jne    2a35 <stbtt_FindGlyphIndex+0x94>
    29e3:	8b 45 d0             	mov    eax,DWORD PTR [rbp-0x30]
    29e6:	48 8d 50 02          	lea    rdx,[rax+0x2]
    29ea:	48 8b 45 f8          	mov    rax,QWORD PTR [rbp-0x8]
    29ee:	48 01 d0             	add    rax,rdx
    29f1:	48 89 c7             	mov    rdi,rax
    29f4:	e8 d5 f1 ff ff       	call   1bce <_ZL8ttUSHORTPh>
    29f9:	0f b7 c0             	movzx  eax,ax
    29fc:	89 45 f4             	mov    DWORD PTR [rbp-0xc],eax
    29ff:	8b 45 f4             	mov    eax,DWORD PTR [rbp-0xc]
    2a02:	83 e8 06             	sub    eax,0x6
    2a05:	39 45 a4             	cmp    DWORD PTR [rbp-0x5c],eax
    2a08:	7d 21                	jge    2a2b <stbtt_FindGlyphIndex+0x8a>
    2a0a:	8b 55 d0             	mov    edx,DWORD PTR [rbp-0x30]
    2a0d:	8b 45 a4             	mov    eax,DWORD PTR [rbp-0x5c]
    2a10:	48 98                	cdqe   
    2a12:	48 01 d0             	add    rax,rdx
    2a15:	48 8d 50 06          	lea    rdx,[rax+0x6]
    2a19:	48 8b 45 f8          	mov    rax,QWORD PTR [rbp-0x8]
    2a1d:	48 01 d0             	add    rax,rdx
    2a20:	0f b6 00             	movzx  eax,BYTE PTR [rax]
    2a23:	0f b6 c0             	movzx  eax,al
    2a26:	e9 87 04 00 00       	jmp    2eb2 <stbtt_FindGlyphIndex+0x511>
    2a2b:	b8 00 00 00 00       	mov    eax,0x0
    2a30:	e9 7d 04 00 00       	jmp    2eb2 <stbtt_FindGlyphIndex+0x511>
    2a35:	66 83 7d b6 06       	cmp    WORD PTR [rbp-0x4a],0x6
    2a3a:	0f 85 84 00 00 00    	jne    2ac4 <stbtt_FindGlyphIndex+0x123>
    2a40:	8b 45 d0             	mov    eax,DWORD PTR [rbp-0x30]
    2a43:	48 8d 50 06          	lea    rdx,[rax+0x6]
    2a47:	48 8b 45 f8          	mov    rax,QWORD PTR [rbp-0x8]
    2a4b:	48 01 d0             	add    rax,rdx
    2a4e:	48 89 c7             	mov    rdi,rax
    2a51:	e8 78 f1 ff ff       	call   1bce <_ZL8ttUSHORTPh>
    2a56:	0f b7 c0             	movzx  eax,ax
    2a59:	89 45 ec             	mov    DWORD PTR [rbp-0x14],eax
    2a5c:	8b 45 d0             	mov    eax,DWORD PTR [rbp-0x30]
    2a5f:	48 8d 50 08          	lea    rdx,[rax+0x8]
    2a63:	48 8b 45 f8          	mov    rax,QWORD PTR [rbp-0x8]
    2a67:	48 01 d0             	add    rax,rdx
    2a6a:	48 89 c7             	mov    rdi,rax
    2a6d:	e8 5c f1 ff ff       	call   1bce <_ZL8ttUSHORTPh>
    2a72:	0f b7 c0             	movzx  eax,ax
    2a75:	89 45 f0             	mov    DWORD PTR [rbp-0x10],eax
    2a78:	8b 45 a4             	mov    eax,DWORD PTR [rbp-0x5c]
    2a7b:	39 45 ec             	cmp    DWORD PTR [rbp-0x14],eax
    2a7e:	77 3a                	ja     2aba <stbtt_FindGlyphIndex+0x119>
    2a80:	8b 55 ec             	mov    edx,DWORD PTR [rbp-0x14]
    2a83:	8b 45 f0             	mov    eax,DWORD PTR [rbp-0x10]
    2a86:	01 c2                	add    edx,eax
    2a88:	8b 45 a4             	mov    eax,DWORD PTR [rbp-0x5c]
    2a8b:	39 c2                	cmp    edx,eax
    2a8d:	76 2b                	jbe    2aba <stbtt_FindGlyphIndex+0x119>
    2a8f:	8b 55 d0             	mov    edx,DWORD PTR [rbp-0x30]
    2a92:	8b 45 a4             	mov    eax,DWORD PTR [rbp-0x5c]
    2a95:	2b 45 ec             	sub    eax,DWORD PTR [rbp-0x14]
    2a98:	01 c0                	add    eax,eax
    2a9a:	89 c0                	mov    eax,eax
    2a9c:	48 01 d0             	add    rax,rdx
    2a9f:	48 8d 50 0a          	lea    rdx,[rax+0xa]
    2aa3:	48 8b 45 f8          	mov    rax,QWORD PTR [rbp-0x8]
    2aa7:	48 01 d0             	add    rax,rdx
    2aaa:	48 89 c7             	mov    rdi,rax
    2aad:	e8 1c f1 ff ff       	call   1bce <_ZL8ttUSHORTPh>
    2ab2:	0f b7 c0             	movzx  eax,ax
    2ab5:	e9 f8 03 00 00       	jmp    2eb2 <stbtt_FindGlyphIndex+0x511>
    2aba:	b8 00 00 00 00       	mov    eax,0x0
    2abf:	e9 ee 03 00 00       	jmp    2eb2 <stbtt_FindGlyphIndex+0x511>
    2ac4:	66 83 7d b6 02       	cmp    WORD PTR [rbp-0x4a],0x2
    2ac9:	75 1f                	jne    2aea <stbtt_FindGlyphIndex+0x149>
    2acb:	48 8d 0d 00 00 00 00 	lea    rcx,[rip+0x0]        # 2ad2 <stbtt_FindGlyphIndex+0x131>
    2ad2:	ba c7 05 00 00       	mov    edx,0x5c7
    2ad7:	48 8d 35 00 00 00 00 	lea    rsi,[rip+0x0]        # 2ade <stbtt_FindGlyphIndex+0x13d>
    2ade:	48 8d 3d 00 00 00 00 	lea    rdi,[rip+0x0]        # 2ae5 <stbtt_FindGlyphIndex+0x144>
    2ae5:	e8 00 00 00 00       	call   2aea <stbtt_FindGlyphIndex+0x149>
    2aea:	66 83 7d b6 04       	cmp    WORD PTR [rbp-0x4a],0x4
    2aef:	0f 85 81 02 00 00    	jne    2d76 <stbtt_FindGlyphIndex+0x3d5>
    2af5:	8b 45 d0             	mov    eax,DWORD PTR [rbp-0x30]
    2af8:	48 8d 50 06          	lea    rdx,[rax+0x6]
    2afc:	48 8b 45 f8          	mov    rax,QWORD PTR [rbp-0x8]
    2b00:	48 01 d0             	add    rax,rdx
    2b03:	48 89 c7             	mov    rdi,rax
    2b06:	e8 c3 f0 ff ff       	call   1bce <_ZL8ttUSHORTPh>
    2b0b:	0f b7 c0             	movzx  eax,ax
    2b0e:	d1 f8                	sar    eax,1
    2b10:	66 89 45 b8          	mov    WORD PTR [rbp-0x48],ax
    2b14:	8b 45 d0             	mov    eax,DWORD PTR [rbp-0x30]
    2b17:	48 8d 50 08          	lea    rdx,[rax+0x8]
    2b1b:	48 8b 45 f8          	mov    rax,QWORD PTR [rbp-0x8]
    2b1f:	48 01 d0             	add    rax,rdx
    2b22:	48 89 c7             	mov    rdi,rax
    2b25:	e8 a4 f0 ff ff       	call   1bce <_ZL8ttUSHORTPh>
    2b2a:	0f b7 c0             	movzx  eax,ax
    2b2d:	d1 f8                	sar    eax,1
    2b2f:	66 89 45 b2          	mov    WORD PTR [rbp-0x4e],ax
    2b33:	8b 45 d0             	mov    eax,DWORD PTR [rbp-0x30]
    2b36:	48 8d 50 0a          	lea    rdx,[rax+0xa]
    2b3a:	48 8b 45 f8          	mov    rax,QWORD PTR [rbp-0x8]
    2b3e:	48 01 d0             	add    rax,rdx
    2b41:	48 89 c7             	mov    rdi,rax
    2b44:	e8 85 f0 ff ff       	call   1bce <_ZL8ttUSHORTPh>
    2b49:	66 89 45 b4          	mov    WORD PTR [rbp-0x4c],ax
    2b4d:	8b 45 d0             	mov    eax,DWORD PTR [rbp-0x30]
    2b50:	48 8d 50 0c          	lea    rdx,[rax+0xc]
    2b54:	48 8b 45 f8          	mov    rax,QWORD PTR [rbp-0x8]
    2b58:	48 01 d0             	add    rax,rdx
    2b5b:	48 89 c7             	mov    rdi,rax
    2b5e:	e8 6b f0 ff ff       	call   1bce <_ZL8ttUSHORTPh>
    2b63:	0f b7 c0             	movzx  eax,ax
    2b66:	d1 f8                	sar    eax,1
    2b68:	66 89 45 ba          	mov    WORD PTR [rbp-0x46],ax
    2b6c:	8b 45 d0             	mov    eax,DWORD PTR [rbp-0x30]
    2b6f:	83 c0 0e             	add    eax,0xe
    2b72:	89 45 e8             	mov    DWORD PTR [rbp-0x18],eax
    2b75:	8b 45 e8             	mov    eax,DWORD PTR [rbp-0x18]
    2b78:	89 45 c4             	mov    DWORD PTR [rbp-0x3c],eax
    2b7b:	81 7d a4 ff ff 00 00 	cmp    DWORD PTR [rbp-0x5c],0xffff
    2b82:	7e 0a                	jle    2b8e <stbtt_FindGlyphIndex+0x1ed>
    2b84:	b8 00 00 00 00       	mov    eax,0x0
    2b89:	e9 24 03 00 00       	jmp    2eb2 <stbtt_FindGlyphIndex+0x511>
    2b8e:	8b 55 c4             	mov    edx,DWORD PTR [rbp-0x3c]
    2b91:	0f b7 45 ba          	movzx  eax,WORD PTR [rbp-0x46]
    2b95:	01 c0                	add    eax,eax
    2b97:	48 98                	cdqe   
    2b99:	48 01 c2             	add    rdx,rax
    2b9c:	48 8b 45 f8          	mov    rax,QWORD PTR [rbp-0x8]
    2ba0:	48 01 d0             	add    rax,rdx
    2ba3:	48 89 c7             	mov    rdi,rax
    2ba6:	e8 23 f0 ff ff       	call   1bce <_ZL8ttUSHORTPh>
    2bab:	0f b7 c0             	movzx  eax,ax
    2bae:	39 45 a4             	cmp    DWORD PTR [rbp-0x5c],eax
    2bb1:	0f 9d c0             	setge  al
    2bb4:	84 c0                	test   al,al
    2bb6:	74 09                	je     2bc1 <stbtt_FindGlyphIndex+0x220>
    2bb8:	0f b7 45 ba          	movzx  eax,WORD PTR [rbp-0x46]
    2bbc:	01 c0                	add    eax,eax
    2bbe:	01 45 c4             	add    DWORD PTR [rbp-0x3c],eax
    2bc1:	83 6d c4 02          	sub    DWORD PTR [rbp-0x3c],0x2
    2bc5:	66 83 7d b4 00       	cmp    WORD PTR [rbp-0x4c],0x0
    2bca:	74 44                	je     2c10 <stbtt_FindGlyphIndex+0x26f>
    2bcc:	0f b7 45 b2          	movzx  eax,WORD PTR [rbp-0x4e]
    2bd0:	d1 f8                	sar    eax,1
    2bd2:	66 89 45 b2          	mov    WORD PTR [rbp-0x4e],ax
    2bd6:	8b 55 c4             	mov    edx,DWORD PTR [rbp-0x3c]
    2bd9:	0f b7 45 b2          	movzx  eax,WORD PTR [rbp-0x4e]
    2bdd:	01 c0                	add    eax,eax
    2bdf:	48 98                	cdqe   
    2be1:	48 01 c2             	add    rdx,rax
    2be4:	48 8b 45 f8          	mov    rax,QWORD PTR [rbp-0x8]
    2be8:	48 01 d0             	add    rax,rdx
    2beb:	48 89 c7             	mov    rdi,rax
    2bee:	e8 db ef ff ff       	call   1bce <_ZL8ttUSHORTPh>
    2bf3:	66 89 45 bc          	mov    WORD PTR [rbp-0x44],ax
    2bf7:	0f b7 45 bc          	movzx  eax,WORD PTR [rbp-0x44]
    2bfb:	39 45 a4             	cmp    DWORD PTR [rbp-0x5c],eax
    2bfe:	7e 09                	jle    2c09 <stbtt_FindGlyphIndex+0x268>
    2c00:	0f b7 45 b2          	movzx  eax,WORD PTR [rbp-0x4e]
    2c04:	01 c0                	add    eax,eax
    2c06:	01 45 c4             	add    DWORD PTR [rbp-0x3c],eax
    2c09:	66 83 6d b4 01       	sub    WORD PTR [rbp-0x4c],0x1
    2c0e:	eb b5                	jmp    2bc5 <stbtt_FindGlyphIndex+0x224>
    2c10:	83 45 c4 02          	add    DWORD PTR [rbp-0x3c],0x2
    2c14:	8b 45 c4             	mov    eax,DWORD PTR [rbp-0x3c]
    2c17:	2b 45 e8             	sub    eax,DWORD PTR [rbp-0x18]
    2c1a:	d1 e8                	shr    eax,1
    2c1c:	66 89 45 be          	mov    WORD PTR [rbp-0x42],ax
    2c20:	8b 55 e8             	mov    edx,DWORD PTR [rbp-0x18]
    2c23:	0f b7 45 be          	movzx  eax,WORD PTR [rbp-0x42]
    2c27:	01 c0                	add    eax,eax
    2c29:	48 98                	cdqe   
    2c2b:	48 01 c2             	add    rdx,rax
    2c2e:	48 8b 45 f8          	mov    rax,QWORD PTR [rbp-0x8]
    2c32:	48 01 d0             	add    rax,rdx
    2c35:	48 89 c7             	mov    rdi,rax
    2c38:	e8 91 ef ff ff       	call   1bce <_ZL8ttUSHORTPh>
    2c3d:	0f b7 c0             	movzx  eax,ax
    2c40:	39 45 a4             	cmp    DWORD PTR [rbp-0x5c],eax
    2c43:	7e 1f                	jle    2c64 <stbtt_FindGlyphIndex+0x2c3>
    2c45:	48 8d 0d 00 00 00 00 	lea    rcx,[rip+0x0]        # 2c4c <stbtt_FindGlyphIndex+0x2ab>
    2c4c:	ba eb 05 00 00       	mov    edx,0x5eb
    2c51:	48 8d 35 00 00 00 00 	lea    rsi,[rip+0x0]        # 2c58 <stbtt_FindGlyphIndex+0x2b7>
    2c58:	48 8d 3d 00 00 00 00 	lea    rdi,[rip+0x0]        # 2c5f <stbtt_FindGlyphIndex+0x2be>
    2c5f:	e8 00 00 00 00       	call   2c64 <stbtt_FindGlyphIndex+0x2c3>
    2c64:	8b 55 d0             	mov    edx,DWORD PTR [rbp-0x30]
    2c67:	0f b7 45 b8          	movzx  eax,WORD PTR [rbp-0x48]
    2c6b:	01 c0                	add    eax,eax
    2c6d:	48 98                	cdqe   
    2c6f:	48 01 c2             	add    rdx,rax
    2c72:	0f b7 45 be          	movzx  eax,WORD PTR [rbp-0x42]
    2c76:	01 c0                	add    eax,eax
    2c78:	48 98                	cdqe   
    2c7a:	48 01 d0             	add    rax,rdx
    2c7d:	48 8d 50 10          	lea    rdx,[rax+0x10]
    2c81:	48 8b 45 f8          	mov    rax,QWORD PTR [rbp-0x8]
    2c85:	48 01 d0             	add    rax,rdx
    2c88:	48 89 c7             	mov    rdi,rax
    2c8b:	e8 3e ef ff ff       	call   1bce <_ZL8ttUSHORTPh>
    2c90:	66 89 45 c0          	mov    WORD PTR [rbp-0x40],ax
    2c94:	0f b7 45 c0          	movzx  eax,WORD PTR [rbp-0x40]
    2c98:	39 45 a4             	cmp    DWORD PTR [rbp-0x5c],eax
    2c9b:	7d 0a                	jge    2ca7 <stbtt_FindGlyphIndex+0x306>
    2c9d:	b8 00 00 00 00       	mov    eax,0x0
    2ca2:	e9 0b 02 00 00       	jmp    2eb2 <stbtt_FindGlyphIndex+0x511>
    2ca7:	8b 4d d0             	mov    ecx,DWORD PTR [rbp-0x30]
    2caa:	0f b7 55 b8          	movzx  edx,WORD PTR [rbp-0x48]
    2cae:	89 d0                	mov    eax,edx
    2cb0:	01 c0                	add    eax,eax
    2cb2:	01 d0                	add    eax,edx
    2cb4:	01 c0                	add    eax,eax
    2cb6:	48 98                	cdqe   
    2cb8:	48 8d 14 01          	lea    rdx,[rcx+rax*1]
    2cbc:	0f b7 45 be          	movzx  eax,WORD PTR [rbp-0x42]
    2cc0:	01 c0                	add    eax,eax
    2cc2:	48 98                	cdqe   
    2cc4:	48 01 d0             	add    rax,rdx
    2cc7:	48 8d 50 10          	lea    rdx,[rax+0x10]
    2ccb:	48 8b 45 f8          	mov    rax,QWORD PTR [rbp-0x8]
    2ccf:	48 01 d0             	add    rax,rdx
    2cd2:	48 89 c7             	mov    rdi,rax
    2cd5:	e8 f4 ee ff ff       	call   1bce <_ZL8ttUSHORTPh>
    2cda:	66 89 45 c2          	mov    WORD PTR [rbp-0x3e],ax
    2cde:	66 83 7d c2 00       	cmp    WORD PTR [rbp-0x3e],0x0
    2ce3:	75 3c                	jne    2d21 <stbtt_FindGlyphIndex+0x380>
    2ce5:	8b 55 d0             	mov    edx,DWORD PTR [rbp-0x30]
    2ce8:	0f b7 45 b8          	movzx  eax,WORD PTR [rbp-0x48]
    2cec:	c1 e0 02             	shl    eax,0x2
    2cef:	48 98                	cdqe   
    2cf1:	48 01 c2             	add    rdx,rax
    2cf4:	0f b7 45 be          	movzx  eax,WORD PTR [rbp-0x42]
    2cf8:	01 c0                	add    eax,eax
    2cfa:	48 98                	cdqe   
    2cfc:	48 01 d0             	add    rax,rdx
    2cff:	48 8d 50 10          	lea    rdx,[rax+0x10]
    2d03:	48 8b 45 f8          	mov    rax,QWORD PTR [rbp-0x8]
    2d07:	48 01 d0             	add    rax,rdx
    2d0a:	48 89 c7             	mov    rdi,rax
    2d0d:	e8 e5 ee ff ff       	call   1bf7 <_ZL7ttSHORTPh>
    2d12:	89 c2                	mov    edx,eax
    2d14:	8b 45 a4             	mov    eax,DWORD PTR [rbp-0x5c]
    2d17:	01 d0                	add    eax,edx
    2d19:	0f b7 c0             	movzx  eax,ax
    2d1c:	e9 91 01 00 00       	jmp    2eb2 <stbtt_FindGlyphIndex+0x511>
    2d21:	0f b7 55 c2          	movzx  edx,WORD PTR [rbp-0x3e]
    2d25:	0f b7 45 c0          	movzx  eax,WORD PTR [rbp-0x40]
    2d29:	8b 4d a4             	mov    ecx,DWORD PTR [rbp-0x5c]
    2d2c:	29 c1                	sub    ecx,eax
    2d2e:	89 c8                	mov    eax,ecx
    2d30:	01 c0                	add    eax,eax
    2d32:	48 98                	cdqe   
    2d34:	48 01 c2             	add    rdx,rax
    2d37:	8b 45 d0             	mov    eax,DWORD PTR [rbp-0x30]
    2d3a:	48 8d 0c 02          	lea    rcx,[rdx+rax*1]
    2d3e:	0f b7 55 b8          	movzx  edx,WORD PTR [rbp-0x48]
    2d42:	89 d0                	mov    eax,edx
    2d44:	01 c0                	add    eax,eax
    2d46:	01 d0                	add    eax,edx
    2d48:	01 c0                	add    eax,eax
    2d4a:	48 98                	cdqe   
    2d4c:	48 8d 14 01          	lea    rdx,[rcx+rax*1]
    2d50:	0f b7 45 be          	movzx  eax,WORD PTR [rbp-0x42]
    2d54:	01 c0                	add    eax,eax
    2d56:	48 98                	cdqe   
    2d58:	48 01 d0             	add    rax,rdx
    2d5b:	48 8d 50 10          	lea    rdx,[rax+0x10]
    2d5f:	48 8b 45 f8          	mov    rax,QWORD PTR [rbp-0x8]
    2d63:	48 01 d0             	add    rax,rdx
    2d66:	48 89 c7             	mov    rdi,rax
    2d69:	e8 60 ee ff ff       	call   1bce <_ZL8ttUSHORTPh>
    2d6e:	0f b7 c0             	movzx  eax,ax
    2d71:	e9 3c 01 00 00       	jmp    2eb2 <stbtt_FindGlyphIndex+0x511>
    2d76:	66 83 7d b6 0c       	cmp    WORD PTR [rbp-0x4a],0xc
    2d7b:	74 0b                	je     2d88 <stbtt_FindGlyphIndex+0x3e7>
    2d7d:	66 83 7d b6 0d       	cmp    WORD PTR [rbp-0x4a],0xd
    2d82:	0f 85 0b 01 00 00    	jne    2e93 <stbtt_FindGlyphIndex+0x4f2>
    2d88:	8b 45 d0             	mov    eax,DWORD PTR [rbp-0x30]
    2d8b:	48 8d 50 0c          	lea    rdx,[rax+0xc]
    2d8f:	48 8b 45 f8          	mov    rax,QWORD PTR [rbp-0x8]
    2d93:	48 01 d0             	add    rax,rdx
    2d96:	48 89 c7             	mov    rdi,rax
    2d99:	e8 82 ee ff ff       	call   1c20 <_ZL7ttULONGPh>
    2d9e:	89 45 d4             	mov    DWORD PTR [rbp-0x2c],eax
    2da1:	c7 45 c8 00 00 00 00 	mov    DWORD PTR [rbp-0x38],0x0
    2da8:	8b 45 d4             	mov    eax,DWORD PTR [rbp-0x2c]
    2dab:	89 45 cc             	mov    DWORD PTR [rbp-0x34],eax
    2dae:	8b 45 c8             	mov    eax,DWORD PTR [rbp-0x38]
    2db1:	3b 45 cc             	cmp    eax,DWORD PTR [rbp-0x34]
    2db4:	0f 8d d2 00 00 00    	jge    2e8c <stbtt_FindGlyphIndex+0x4eb>
    2dba:	8b 45 cc             	mov    eax,DWORD PTR [rbp-0x34]
    2dbd:	2b 45 c8             	sub    eax,DWORD PTR [rbp-0x38]
    2dc0:	d1 f8                	sar    eax,1
    2dc2:	89 c2                	mov    edx,eax
    2dc4:	8b 45 c8             	mov    eax,DWORD PTR [rbp-0x38]
    2dc7:	01 d0                	add    eax,edx
    2dc9:	89 45 d8             	mov    DWORD PTR [rbp-0x28],eax
    2dcc:	8b 4d d0             	mov    ecx,DWORD PTR [rbp-0x30]
    2dcf:	8b 55 d8             	mov    edx,DWORD PTR [rbp-0x28]
    2dd2:	89 d0                	mov    eax,edx
    2dd4:	01 c0                	add    eax,eax
    2dd6:	01 d0                	add    eax,edx
    2dd8:	c1 e0 02             	shl    eax,0x2
    2ddb:	48 98                	cdqe   
    2ddd:	48 01 c8             	add    rax,rcx
    2de0:	48 8d 50 10          	lea    rdx,[rax+0x10]
    2de4:	48 8b 45 f8          	mov    rax,QWORD PTR [rbp-0x8]
    2de8:	48 01 d0             	add    rax,rdx
    2deb:	48 89 c7             	mov    rdi,rax
    2dee:	e8 2d ee ff ff       	call   1c20 <_ZL7ttULONGPh>
    2df3:	89 45 dc             	mov    DWORD PTR [rbp-0x24],eax
    2df6:	8b 4d d0             	mov    ecx,DWORD PTR [rbp-0x30]
    2df9:	8b 55 d8             	mov    edx,DWORD PTR [rbp-0x28]
    2dfc:	89 d0                	mov    eax,edx
    2dfe:	01 c0                	add    eax,eax
    2e00:	01 d0                	add    eax,edx
    2e02:	c1 e0 02             	shl    eax,0x2
    2e05:	48 98                	cdqe   
    2e07:	48 01 c8             	add    rax,rcx
    2e0a:	48 8d 50 14          	lea    rdx,[rax+0x14]
    2e0e:	48 8b 45 f8          	mov    rax,QWORD PTR [rbp-0x8]
    2e12:	48 01 d0             	add    rax,rdx
    2e15:	48 89 c7             	mov    rdi,rax
    2e18:	e8 03 ee ff ff       	call   1c20 <_ZL7ttULONGPh>
    2e1d:	89 45 e0             	mov    DWORD PTR [rbp-0x20],eax
    2e20:	8b 45 a4             	mov    eax,DWORD PTR [rbp-0x5c]
    2e23:	39 45 dc             	cmp    DWORD PTR [rbp-0x24],eax
    2e26:	76 0b                	jbe    2e33 <stbtt_FindGlyphIndex+0x492>
    2e28:	8b 45 d8             	mov    eax,DWORD PTR [rbp-0x28]
    2e2b:	89 45 cc             	mov    DWORD PTR [rbp-0x34],eax
    2e2e:	e9 7b ff ff ff       	jmp    2dae <stbtt_FindGlyphIndex+0x40d>
    2e33:	8b 45 a4             	mov    eax,DWORD PTR [rbp-0x5c]
    2e36:	39 45 e0             	cmp    DWORD PTR [rbp-0x20],eax
    2e39:	73 0e                	jae    2e49 <stbtt_FindGlyphIndex+0x4a8>
    2e3b:	8b 45 d8             	mov    eax,DWORD PTR [rbp-0x28]
    2e3e:	83 c0 01             	add    eax,0x1
    2e41:	89 45 c8             	mov    DWORD PTR [rbp-0x38],eax
    2e44:	e9 65 ff ff ff       	jmp    2dae <stbtt_FindGlyphIndex+0x40d>
    2e49:	8b 4d d0             	mov    ecx,DWORD PTR [rbp-0x30]
    2e4c:	8b 55 d8             	mov    edx,DWORD PTR [rbp-0x28]
    2e4f:	89 d0                	mov    eax,edx
    2e51:	01 c0                	add    eax,eax
    2e53:	01 d0                	add    eax,edx
    2e55:	c1 e0 02             	shl    eax,0x2
    2e58:	48 98                	cdqe   
    2e5a:	48 01 c8             	add    rax,rcx
    2e5d:	48 8d 50 18          	lea    rdx,[rax+0x18]
    2e61:	48 8b 45 f8          	mov    rax,QWORD PTR [rbp-0x8]
    2e65:	48 01 d0             	add    rax,rdx
    2e68:	48 89 c7             	mov    rdi,rax
    2e6b:	e8 b0 ed ff ff       	call   1c20 <_ZL7ttULONGPh>
    2e70:	89 45 e4             	mov    DWORD PTR [rbp-0x1c],eax
    2e73:	66 83 7d b6 0c       	cmp    WORD PTR [rbp-0x4a],0xc
    2e78:	75 0d                	jne    2e87 <stbtt_FindGlyphIndex+0x4e6>
    2e7a:	8b 55 a4             	mov    edx,DWORD PTR [rbp-0x5c]
    2e7d:	8b 45 e4             	mov    eax,DWORD PTR [rbp-0x1c]
    2e80:	01 d0                	add    eax,edx
    2e82:	2b 45 dc             	sub    eax,DWORD PTR [rbp-0x24]
    2e85:	eb 2b                	jmp    2eb2 <stbtt_FindGlyphIndex+0x511>
    2e87:	8b 45 e4             	mov    eax,DWORD PTR [rbp-0x1c]
    2e8a:	eb 26                	jmp    2eb2 <stbtt_FindGlyphIndex+0x511>
    2e8c:	b8 00 00 00 00       	mov    eax,0x0
    2e91:	eb 1f                	jmp    2eb2 <stbtt_FindGlyphIndex+0x511>
    2e93:	48 8d 0d 00 00 00 00 	lea    rcx,[rip+0x0]        # 2e9a <stbtt_FindGlyphIndex+0x4f9>
    2e9a:	ba 0e 06 00 00       	mov    edx,0x60e
    2e9f:	48 8d 35 00 00 00 00 	lea    rsi,[rip+0x0]        # 2ea6 <stbtt_FindGlyphIndex+0x505>
    2ea6:	48 8d 3d 00 00 00 00 	lea    rdi,[rip+0x0]        # 2ead <stbtt_FindGlyphIndex+0x50c>
    2ead:	e8 00 00 00 00       	call   2eb2 <stbtt_FindGlyphIndex+0x511>
    2eb2:	c9                   	leave  
    2eb3:	c3                   	ret    

0000000000002eb4 <stbtt_GetCodepointShape>:
    2eb4:	55                   	push   rbp
    2eb5:	48 89 e5             	mov    rbp,rsp
    2eb8:	48 83 ec 20          	sub    rsp,0x20
    2ebc:	48 89 7d f8          	mov    QWORD PTR [rbp-0x8],rdi
    2ec0:	89 75 f4             	mov    DWORD PTR [rbp-0xc],esi
    2ec3:	48 89 55 e8          	mov    QWORD PTR [rbp-0x18],rdx
    2ec7:	8b 55 f4             	mov    edx,DWORD PTR [rbp-0xc]
    2eca:	48 8b 45 f8          	mov    rax,QWORD PTR [rbp-0x8]
    2ece:	89 d6                	mov    esi,edx
    2ed0:	48 89 c7             	mov    rdi,rax
    2ed3:	e8 c9 fa ff ff       	call   29a1 <stbtt_FindGlyphIndex>
    2ed8:	89 c1                	mov    ecx,eax
    2eda:	48 8b 55 e8          	mov    rdx,QWORD PTR [rbp-0x18]
    2ede:	48 8b 45 f8          	mov    rax,QWORD PTR [rbp-0x8]
    2ee2:	89 ce                	mov    esi,ecx
    2ee4:	48 89 c7             	mov    rdi,rax
    2ee7:	e8 f3 32 00 00       	call   61df <stbtt_GetGlyphShape>
    2eec:	c9                   	leave  
    2eed:	c3                   	ret    

0000000000002eee <_ZL15stbtt_setvertexP12stbtt_vertexhiiii>:
    2eee:	55                   	push   rbp
    2eef:	48 89 e5             	mov    rbp,rsp
    2ef2:	48 89 7d f8          	mov    QWORD PTR [rbp-0x8],rdi
    2ef6:	89 f0                	mov    eax,esi
    2ef8:	89 55 f0             	mov    DWORD PTR [rbp-0x10],edx
    2efb:	89 4d ec             	mov    DWORD PTR [rbp-0x14],ecx
    2efe:	44 89 45 e8          	mov    DWORD PTR [rbp-0x18],r8d
    2f02:	44 89 4d e4          	mov    DWORD PTR [rbp-0x1c],r9d
    2f06:	88 45 f4             	mov    BYTE PTR [rbp-0xc],al
    2f09:	48 8b 45 f8          	mov    rax,QWORD PTR [rbp-0x8]
    2f0d:	0f b6 55 f4          	movzx  edx,BYTE PTR [rbp-0xc]
    2f11:	88 50 0c             	mov    BYTE PTR [rax+0xc],dl
    2f14:	8b 45 f0             	mov    eax,DWORD PTR [rbp-0x10]
    2f17:	89 c2                	mov    edx,eax
    2f19:	48 8b 45 f8          	mov    rax,QWORD PTR [rbp-0x8]
    2f1d:	66 89 10             	mov    WORD PTR [rax],dx
    2f20:	8b 45 ec             	mov    eax,DWORD PTR [rbp-0x14]
    2f23:	89 c2                	mov    edx,eax
    2f25:	48 8b 45 f8          	mov    rax,QWORD PTR [rbp-0x8]
    2f29:	66 89 50 02          	mov    WORD PTR [rax+0x2],dx
    2f2d:	8b 45 e8             	mov    eax,DWORD PTR [rbp-0x18]
    2f30:	89 c2                	mov    edx,eax
    2f32:	48 8b 45 f8          	mov    rax,QWORD PTR [rbp-0x8]
    2f36:	66 89 50 04          	mov    WORD PTR [rax+0x4],dx
    2f3a:	8b 45 e4             	mov    eax,DWORD PTR [rbp-0x1c]
    2f3d:	89 c2                	mov    edx,eax
    2f3f:	48 8b 45 f8          	mov    rax,QWORD PTR [rbp-0x8]
    2f43:	66 89 50 06          	mov    WORD PTR [rax+0x6],dx
    2f47:	90                   	nop
    2f48:	5d                   	pop    rbp
    2f49:	c3                   	ret    

0000000000002f4a <_ZL20stbtt__GetGlyfOffsetPK14stbtt_fontinfoi>:
    2f4a:	55                   	push   rbp
    2f4b:	48 89 e5             	mov    rbp,rsp
    2f4e:	53                   	push   rbx
    2f4f:	48 83 ec 28          	sub    rsp,0x28
    2f53:	48 89 7d d8          	mov    QWORD PTR [rbp-0x28],rdi
    2f57:	89 75 d4             	mov    DWORD PTR [rbp-0x2c],esi
    2f5a:	48 8b 45 d8          	mov    rax,QWORD PTR [rbp-0x28]
    2f5e:	8b 40 4c             	mov    eax,DWORD PTR [rax+0x4c]
    2f61:	85 c0                	test   eax,eax
    2f63:	74 1f                	je     2f84 <_ZL20stbtt__GetGlyfOffsetPK14stbtt_fontinfoi+0x3a>
    2f65:	48 8d 0d 00 00 00 00 	lea    rcx,[rip+0x0]        # 2f6c <_ZL20stbtt__GetGlyfOffsetPK14stbtt_fontinfoi+0x22>
    2f6c:	ba 24 06 00 00       	mov    edx,0x624
    2f71:	48 8d 35 00 00 00 00 	lea    rsi,[rip+0x0]        # 2f78 <_ZL20stbtt__GetGlyfOffsetPK14stbtt_fontinfoi+0x2e>
    2f78:	48 8d 3d 00 00 00 00 	lea    rdi,[rip+0x0]        # 2f7f <_ZL20stbtt__GetGlyfOffsetPK14stbtt_fontinfoi+0x35>
    2f7f:	e8 00 00 00 00       	call   2f84 <_ZL20stbtt__GetGlyfOffsetPK14stbtt_fontinfoi+0x3a>
    2f84:	48 8b 45 d8          	mov    rax,QWORD PTR [rbp-0x28]
    2f88:	8b 40 14             	mov    eax,DWORD PTR [rax+0x14]
    2f8b:	39 45 d4             	cmp    DWORD PTR [rbp-0x2c],eax
    2f8e:	7c 0a                	jl     2f9a <_ZL20stbtt__GetGlyfOffsetPK14stbtt_fontinfoi+0x50>
    2f90:	b8 ff ff ff ff       	mov    eax,0xffffffff
    2f95:	e9 1a 01 00 00       	jmp    30b4 <_ZL20stbtt__GetGlyfOffsetPK14stbtt_fontinfoi+0x16a>
    2f9a:	48 8b 45 d8          	mov    rax,QWORD PTR [rbp-0x28]
    2f9e:	8b 40 38             	mov    eax,DWORD PTR [rax+0x38]
    2fa1:	83 f8 01             	cmp    eax,0x1
    2fa4:	7e 0a                	jle    2fb0 <_ZL20stbtt__GetGlyfOffsetPK14stbtt_fontinfoi+0x66>
    2fa6:	b8 ff ff ff ff       	mov    eax,0xffffffff
    2fab:	e9 04 01 00 00       	jmp    30b4 <_ZL20stbtt__GetGlyfOffsetPK14stbtt_fontinfoi+0x16a>
    2fb0:	48 8b 45 d8          	mov    rax,QWORD PTR [rbp-0x28]
    2fb4:	8b 40 38             	mov    eax,DWORD PTR [rax+0x38]
    2fb7:	85 c0                	test   eax,eax
    2fb9:	75 76                	jne    3031 <_ZL20stbtt__GetGlyfOffsetPK14stbtt_fontinfoi+0xe7>
    2fbb:	48 8b 45 d8          	mov    rax,QWORD PTR [rbp-0x28]
    2fbf:	8b 58 20             	mov    ebx,DWORD PTR [rax+0x20]
    2fc2:	48 8b 45 d8          	mov    rax,QWORD PTR [rbp-0x28]
    2fc6:	48 8b 50 08          	mov    rdx,QWORD PTR [rax+0x8]
    2fca:	48 8b 45 d8          	mov    rax,QWORD PTR [rbp-0x28]
    2fce:	8b 40 18             	mov    eax,DWORD PTR [rax+0x18]
    2fd1:	48 63 c8             	movsxd rcx,eax
    2fd4:	8b 45 d4             	mov    eax,DWORD PTR [rbp-0x2c]
    2fd7:	01 c0                	add    eax,eax
    2fd9:	48 98                	cdqe   
    2fdb:	48 01 c8             	add    rax,rcx
    2fde:	48 01 d0             	add    rax,rdx
    2fe1:	48 89 c7             	mov    rdi,rax
    2fe4:	e8 e5 eb ff ff       	call   1bce <_ZL8ttUSHORTPh>
    2fe9:	0f b7 c0             	movzx  eax,ax
    2fec:	01 c0                	add    eax,eax
    2fee:	01 d8                	add    eax,ebx
    2ff0:	89 45 e8             	mov    DWORD PTR [rbp-0x18],eax
    2ff3:	48 8b 45 d8          	mov    rax,QWORD PTR [rbp-0x28]
    2ff7:	8b 58 20             	mov    ebx,DWORD PTR [rax+0x20]
    2ffa:	48 8b 45 d8          	mov    rax,QWORD PTR [rbp-0x28]
    2ffe:	48 8b 50 08          	mov    rdx,QWORD PTR [rax+0x8]
    3002:	48 8b 45 d8          	mov    rax,QWORD PTR [rbp-0x28]
    3006:	8b 40 18             	mov    eax,DWORD PTR [rax+0x18]
    3009:	48 63 c8             	movsxd rcx,eax
    300c:	8b 45 d4             	mov    eax,DWORD PTR [rbp-0x2c]
    300f:	01 c0                	add    eax,eax
    3011:	48 98                	cdqe   
    3013:	48 01 c8             	add    rax,rcx
    3016:	48 83 c0 02          	add    rax,0x2
    301a:	48 01 d0             	add    rax,rdx
    301d:	48 89 c7             	mov    rdi,rax
    3020:	e8 a9 eb ff ff       	call   1bce <_ZL8ttUSHORTPh>
    3025:	0f b7 c0             	movzx  eax,ax
    3028:	01 c0                	add    eax,eax
    302a:	01 d8                	add    eax,ebx
    302c:	89 45 ec             	mov    DWORD PTR [rbp-0x14],eax
    302f:	eb 70                	jmp    30a1 <_ZL20stbtt__GetGlyfOffsetPK14stbtt_fontinfoi+0x157>
    3031:	48 8b 45 d8          	mov    rax,QWORD PTR [rbp-0x28]
    3035:	8b 40 20             	mov    eax,DWORD PTR [rax+0x20]
    3038:	89 c3                	mov    ebx,eax
    303a:	48 8b 45 d8          	mov    rax,QWORD PTR [rbp-0x28]
    303e:	48 8b 50 08          	mov    rdx,QWORD PTR [rax+0x8]
    3042:	48 8b 45 d8          	mov    rax,QWORD PTR [rbp-0x28]
    3046:	8b 40 18             	mov    eax,DWORD PTR [rax+0x18]
    3049:	48 63 c8             	movsxd rcx,eax
    304c:	8b 45 d4             	mov    eax,DWORD PTR [rbp-0x2c]
    304f:	c1 e0 02             	shl    eax,0x2
    3052:	48 98                	cdqe   
    3054:	48 01 c8             	add    rax,rcx
    3057:	48 01 d0             	add    rax,rdx
    305a:	48 89 c7             	mov    rdi,rax
    305d:	e8 be eb ff ff       	call   1c20 <_ZL7ttULONGPh>
    3062:	01 d8                	add    eax,ebx
    3064:	89 45 e8             	mov    DWORD PTR [rbp-0x18],eax
    3067:	48 8b 45 d8          	mov    rax,QWORD PTR [rbp-0x28]
    306b:	8b 40 20             	mov    eax,DWORD PTR [rax+0x20]
    306e:	89 c3                	mov    ebx,eax
    3070:	48 8b 45 d8          	mov    rax,QWORD PTR [rbp-0x28]
    3074:	48 8b 50 08          	mov    rdx,QWORD PTR [rax+0x8]
    3078:	48 8b 45 d8          	mov    rax,QWORD PTR [rbp-0x28]
    307c:	8b 40 18             	mov    eax,DWORD PTR [rax+0x18]
    307f:	48 63 c8             	movsxd rcx,eax
    3082:	8b 45 d4             	mov    eax,DWORD PTR [rbp-0x2c]
    3085:	c1 e0 02             	shl    eax,0x2
    3088:	48 98                	cdqe   
    308a:	48 01 c8             	add    rax,rcx
    308d:	48 83 c0 04          	add    rax,0x4
    3091:	48 01 d0             	add    rax,rdx
    3094:	48 89 c7             	mov    rdi,rax
    3097:	e8 84 eb ff ff       	call   1c20 <_ZL7ttULONGPh>
    309c:	01 d8                	add    eax,ebx
    309e:	89 45 ec             	mov    DWORD PTR [rbp-0x14],eax
    30a1:	8b 45 e8             	mov    eax,DWORD PTR [rbp-0x18]
    30a4:	3b 45 ec             	cmp    eax,DWORD PTR [rbp-0x14]
    30a7:	74 05                	je     30ae <_ZL20stbtt__GetGlyfOffsetPK14stbtt_fontinfoi+0x164>
    30a9:	8b 45 e8             	mov    eax,DWORD PTR [rbp-0x18]
    30ac:	eb 05                	jmp    30b3 <_ZL20stbtt__GetGlyfOffsetPK14stbtt_fontinfoi+0x169>
    30ae:	b8 ff ff ff ff       	mov    eax,0xffffffff
    30b3:	90                   	nop
    30b4:	48 83 c4 28          	add    rsp,0x28
    30b8:	5b                   	pop    rbx
    30b9:	5d                   	pop    rbp
    30ba:	c3                   	ret    

00000000000030bb <stbtt_GetGlyphBox>:
    30bb:	55                   	push   rbp
    30bc:	48 89 e5             	mov    rbp,rsp
    30bf:	48 83 ec 40          	sub    rsp,0x40
    30c3:	48 89 7d e8          	mov    QWORD PTR [rbp-0x18],rdi
    30c7:	89 75 e4             	mov    DWORD PTR [rbp-0x1c],esi
    30ca:	48 89 55 d8          	mov    QWORD PTR [rbp-0x28],rdx
    30ce:	48 89 4d d0          	mov    QWORD PTR [rbp-0x30],rcx
    30d2:	4c 89 45 c8          	mov    QWORD PTR [rbp-0x38],r8
    30d6:	4c 89 4d c0          	mov    QWORD PTR [rbp-0x40],r9
    30da:	48 8b 45 e8          	mov    rax,QWORD PTR [rbp-0x18]
    30de:	8b 40 4c             	mov    eax,DWORD PTR [rax+0x4c]
    30e1:	85 c0                	test   eax,eax
    30e3:	74 2a                	je     310f <stbtt_GetGlyphBox+0x54>
    30e5:	4c 8b 45 c0          	mov    r8,QWORD PTR [rbp-0x40]
    30e9:	48 8b 7d c8          	mov    rdi,QWORD PTR [rbp-0x38]
    30ed:	48 8b 4d d0          	mov    rcx,QWORD PTR [rbp-0x30]
    30f1:	48 8b 55 d8          	mov    rdx,QWORD PTR [rbp-0x28]
    30f5:	8b 75 e4             	mov    esi,DWORD PTR [rbp-0x1c]
    30f8:	48 8b 45 e8          	mov    rax,QWORD PTR [rbp-0x18]
    30fc:	4d 89 c1             	mov    r9,r8
    30ff:	49 89 f8             	mov    r8,rdi
    3102:	48 89 c7             	mov    rdi,rax
    3105:	e8 b6 2f 00 00       	call   60c0 <_ZL21stbtt__GetGlyphInfoT2PK14stbtt_fontinfoiPiS2_S2_S2_>
    310a:	e9 d8 00 00 00       	jmp    31e7 <stbtt_GetGlyphBox+0x12c>
    310f:	8b 55 e4             	mov    edx,DWORD PTR [rbp-0x1c]
    3112:	48 8b 45 e8          	mov    rax,QWORD PTR [rbp-0x18]
    3116:	89 d6                	mov    esi,edx
    3118:	48 89 c7             	mov    rdi,rax
    311b:	e8 2a fe ff ff       	call   2f4a <_ZL20stbtt__GetGlyfOffsetPK14stbtt_fontinfoi>
    3120:	89 45 fc             	mov    DWORD PTR [rbp-0x4],eax
    3123:	83 7d fc 00          	cmp    DWORD PTR [rbp-0x4],0x0
    3127:	79 0a                	jns    3133 <stbtt_GetGlyphBox+0x78>
    3129:	b8 00 00 00 00       	mov    eax,0x0
    312e:	e9 b9 00 00 00       	jmp    31ec <stbtt_GetGlyphBox+0x131>
    3133:	48 83 7d d8 00       	cmp    QWORD PTR [rbp-0x28],0x0
    3138:	74 26                	je     3160 <stbtt_GetGlyphBox+0xa5>
    313a:	48 8b 45 e8          	mov    rax,QWORD PTR [rbp-0x18]
    313e:	48 8b 40 08          	mov    rax,QWORD PTR [rax+0x8]
    3142:	8b 55 fc             	mov    edx,DWORD PTR [rbp-0x4]
    3145:	48 63 d2             	movsxd rdx,edx
    3148:	48 83 c2 02          	add    rdx,0x2
    314c:	48 01 d0             	add    rax,rdx
    314f:	48 89 c7             	mov    rdi,rax
    3152:	e8 a0 ea ff ff       	call   1bf7 <_ZL7ttSHORTPh>
    3157:	0f bf d0             	movsx  edx,ax
    315a:	48 8b 45 d8          	mov    rax,QWORD PTR [rbp-0x28]
    315e:	89 10                	mov    DWORD PTR [rax],edx
    3160:	48 83 7d d0 00       	cmp    QWORD PTR [rbp-0x30],0x0
    3165:	74 26                	je     318d <stbtt_GetGlyphBox+0xd2>
    3167:	48 8b 45 e8          	mov    rax,QWORD PTR [rbp-0x18]
    316b:	48 8b 40 08          	mov    rax,QWORD PTR [rax+0x8]
    316f:	8b 55 fc             	mov    edx,DWORD PTR [rbp-0x4]
    3172:	48 63 d2             	movsxd rdx,edx
    3175:	48 83 c2 04          	add    rdx,0x4
    3179:	48 01 d0             	add    rax,rdx
    317c:	48 89 c7             	mov    rdi,rax
    317f:	e8 73 ea ff ff       	call   1bf7 <_ZL7ttSHORTPh>
    3184:	0f bf d0             	movsx  edx,ax
    3187:	48 8b 45 d0          	mov    rax,QWORD PTR [rbp-0x30]
    318b:	89 10                	mov    DWORD PTR [rax],edx
    318d:	48 83 7d c8 00       	cmp    QWORD PTR [rbp-0x38],0x0
    3192:	74 26                	je     31ba <stbtt_GetGlyphBox+0xff>
    3194:	48 8b 45 e8          	mov    rax,QWORD PTR [rbp-0x18]
    3198:	48 8b 40 08          	mov    rax,QWORD PTR [rax+0x8]
    319c:	8b 55 fc             	mov    edx,DWORD PTR [rbp-0x4]
    319f:	48 63 d2             	movsxd rdx,edx
    31a2:	48 83 c2 06          	add    rdx,0x6
    31a6:	48 01 d0             	add    rax,rdx
    31a9:	48 89 c7             	mov    rdi,rax
    31ac:	e8 46 ea ff ff       	call   1bf7 <_ZL7ttSHORTPh>
    31b1:	0f bf d0             	movsx  edx,ax
    31b4:	48 8b 45 c8          	mov    rax,QWORD PTR [rbp-0x38]
    31b8:	89 10                	mov    DWORD PTR [rax],edx
    31ba:	48 83 7d c0 00       	cmp    QWORD PTR [rbp-0x40],0x0
    31bf:	74 26                	je     31e7 <stbtt_GetGlyphBox+0x12c>
    31c1:	48 8b 45 e8          	mov    rax,QWORD PTR [rbp-0x18]
    31c5:	48 8b 40 08          	mov    rax,QWORD PTR [rax+0x8]
    31c9:	8b 55 fc             	mov    edx,DWORD PTR [rbp-0x4]
    31cc:	48 63 d2             	movsxd rdx,edx
    31cf:	48 83 c2 08          	add    rdx,0x8
    31d3:	48 01 d0             	add    rax,rdx
    31d6:	48 89 c7             	mov    rdi,rax
    31d9:	e8 19 ea ff ff       	call   1bf7 <_ZL7ttSHORTPh>
    31de:	0f bf d0             	movsx  edx,ax
    31e1:	48 8b 45 c0          	mov    rax,QWORD PTR [rbp-0x40]
    31e5:	89 10                	mov    DWORD PTR [rax],edx
    31e7:	b8 01 00 00 00       	mov    eax,0x1
    31ec:	c9                   	leave  
    31ed:	c3                   	ret    

00000000000031ee <stbtt_GetCodepointBox>:
    31ee:	55                   	push   rbp
    31ef:	48 89 e5             	mov    rbp,rsp
    31f2:	48 83 ec 30          	sub    rsp,0x30
    31f6:	48 89 7d f8          	mov    QWORD PTR [rbp-0x8],rdi
    31fa:	89 75 f4             	mov    DWORD PTR [rbp-0xc],esi
    31fd:	48 89 55 e8          	mov    QWORD PTR [rbp-0x18],rdx
    3201:	48 89 4d e0          	mov    QWORD PTR [rbp-0x20],rcx
    3205:	4c 89 45 d8          	mov    QWORD PTR [rbp-0x28],r8
    3209:	4c 89 4d d0          	mov    QWORD PTR [rbp-0x30],r9
    320d:	8b 55 f4             	mov    edx,DWORD PTR [rbp-0xc]
    3210:	48 8b 45 f8          	mov    rax,QWORD PTR [rbp-0x8]
    3214:	89 d6                	mov    esi,edx
    3216:	48 89 c7             	mov    rdi,rax
    3219:	e8 83 f7 ff ff       	call   29a1 <stbtt_FindGlyphIndex>
    321e:	41 89 c2             	mov    r10d,eax
    3221:	48 8b 7d d0          	mov    rdi,QWORD PTR [rbp-0x30]
    3225:	48 8b 75 d8          	mov    rsi,QWORD PTR [rbp-0x28]
    3229:	48 8b 4d e0          	mov    rcx,QWORD PTR [rbp-0x20]
    322d:	48 8b 55 e8          	mov    rdx,QWORD PTR [rbp-0x18]
    3231:	48 8b 45 f8          	mov    rax,QWORD PTR [rbp-0x8]
    3235:	49 89 f9             	mov    r9,rdi
    3238:	49 89 f0             	mov    r8,rsi
    323b:	44 89 d6             	mov    esi,r10d
    323e:	48 89 c7             	mov    rdi,rax
    3241:	e8 75 fe ff ff       	call   30bb <stbtt_GetGlyphBox>
    3246:	c9                   	leave  
    3247:	c3                   	ret    

0000000000003248 <stbtt_IsGlyphEmpty>:
    3248:	55                   	push   rbp
    3249:	48 89 e5             	mov    rbp,rsp
    324c:	48 83 ec 20          	sub    rsp,0x20
    3250:	48 89 7d e8          	mov    QWORD PTR [rbp-0x18],rdi
    3254:	89 75 e4             	mov    DWORD PTR [rbp-0x1c],esi
    3257:	48 8b 45 e8          	mov    rax,QWORD PTR [rbp-0x18]
    325b:	8b 40 4c             	mov    eax,DWORD PTR [rax+0x4c]
    325e:	85 c0                	test   eax,eax
    3260:	74 2f                	je     3291 <stbtt_IsGlyphEmpty+0x49>
    3262:	8b 75 e4             	mov    esi,DWORD PTR [rbp-0x1c]
    3265:	48 8b 45 e8          	mov    rax,QWORD PTR [rbp-0x18]
    3269:	41 b9 00 00 00 00    	mov    r9d,0x0
    326f:	41 b8 00 00 00 00    	mov    r8d,0x0
    3275:	b9 00 00 00 00       	mov    ecx,0x0
    327a:	ba 00 00 00 00       	mov    edx,0x0
    327f:	48 89 c7             	mov    rdi,rax
    3282:	e8 39 2e 00 00       	call   60c0 <_ZL21stbtt__GetGlyphInfoT2PK14stbtt_fontinfoiPiS2_S2_S2_>
    3287:	85 c0                	test   eax,eax
    3289:	0f 94 c0             	sete   al
    328c:	0f b6 c0             	movzx  eax,al
    328f:	eb 48                	jmp    32d9 <stbtt_IsGlyphEmpty+0x91>
    3291:	8b 55 e4             	mov    edx,DWORD PTR [rbp-0x1c]
    3294:	48 8b 45 e8          	mov    rax,QWORD PTR [rbp-0x18]
    3298:	89 d6                	mov    esi,edx
    329a:	48 89 c7             	mov    rdi,rax
    329d:	e8 a8 fc ff ff       	call   2f4a <_ZL20stbtt__GetGlyfOffsetPK14stbtt_fontinfoi>
    32a2:	89 45 fc             	mov    DWORD PTR [rbp-0x4],eax
    32a5:	83 7d fc 00          	cmp    DWORD PTR [rbp-0x4],0x0
    32a9:	79 07                	jns    32b2 <stbtt_IsGlyphEmpty+0x6a>
    32ab:	b8 01 00 00 00       	mov    eax,0x1
    32b0:	eb 27                	jmp    32d9 <stbtt_IsGlyphEmpty+0x91>
    32b2:	48 8b 45 e8          	mov    rax,QWORD PTR [rbp-0x18]
    32b6:	48 8b 50 08          	mov    rdx,QWORD PTR [rax+0x8]
    32ba:	8b 45 fc             	mov    eax,DWORD PTR [rbp-0x4]
    32bd:	48 98                	cdqe   
    32bf:	48 01 d0             	add    rax,rdx
    32c2:	48 89 c7             	mov    rdi,rax
    32c5:	e8 2d e9 ff ff       	call   1bf7 <_ZL7ttSHORTPh>
    32ca:	66 89 45 fa          	mov    WORD PTR [rbp-0x6],ax
    32ce:	66 83 7d fa 00       	cmp    WORD PTR [rbp-0x6],0x0
    32d3:	0f 94 c0             	sete   al
    32d6:	0f b6 c0             	movzx  eax,al
    32d9:	c9                   	leave  
    32da:	c3                   	ret    

00000000000032db <_ZL18stbtt__close_shapeP12stbtt_vertexiiiiiiiii>:
    32db:	55                   	push   rbp
    32dc:	48 89 e5             	mov    rbp,rsp
    32df:	48 83 ec 20          	sub    rsp,0x20
    32e3:	48 89 7d f8          	mov    QWORD PTR [rbp-0x8],rdi
    32e7:	89 75 f4             	mov    DWORD PTR [rbp-0xc],esi
    32ea:	89 55 f0             	mov    DWORD PTR [rbp-0x10],edx
    32ed:	89 4d ec             	mov    DWORD PTR [rbp-0x14],ecx
    32f0:	44 89 45 e8          	mov    DWORD PTR [rbp-0x18],r8d
    32f4:	44 89 4d e4          	mov    DWORD PTR [rbp-0x1c],r9d
    32f8:	83 7d ec 00          	cmp    DWORD PTR [rbp-0x14],0x0
    32fc:	0f 84 a3 00 00 00    	je     33a5 <_ZL18stbtt__close_shapeP12stbtt_vertexiiiiiiiii+0xca>
    3302:	83 7d f0 00          	cmp    DWORD PTR [rbp-0x10],0x0
    3306:	74 56                	je     335e <_ZL18stbtt__close_shapeP12stbtt_vertexiiiiiiiii+0x83>
    3308:	8b 55 28             	mov    edx,DWORD PTR [rbp+0x28]
    330b:	8b 45 18             	mov    eax,DWORD PTR [rbp+0x18]
    330e:	01 d0                	add    eax,edx
    3310:	d1 f8                	sar    eax,1
    3312:	89 c1                	mov    ecx,eax
    3314:	8b 55 20             	mov    edx,DWORD PTR [rbp+0x20]
    3317:	8b 45 10             	mov    eax,DWORD PTR [rbp+0x10]
    331a:	01 d0                	add    eax,edx
    331c:	d1 f8                	sar    eax,1
    331e:	89 c6                	mov    esi,eax
    3320:	8b 45 f4             	mov    eax,DWORD PTR [rbp-0xc]
    3323:	8d 50 01             	lea    edx,[rax+0x1]
    3326:	89 55 f4             	mov    DWORD PTR [rbp-0xc],edx
    3329:	48 63 d0             	movsxd rdx,eax
    332c:	48 89 d0             	mov    rax,rdx
    332f:	48 c1 e0 03          	shl    rax,0x3
    3333:	48 29 d0             	sub    rax,rdx
    3336:	48 01 c0             	add    rax,rax
    3339:	48 89 c2             	mov    rdx,rax
    333c:	48 8b 45 f8          	mov    rax,QWORD PTR [rbp-0x8]
    3340:	48 01 d0             	add    rax,rdx
    3343:	8b 7d 28             	mov    edi,DWORD PTR [rbp+0x28]
    3346:	8b 55 20             	mov    edx,DWORD PTR [rbp+0x20]
    3349:	41 89 f9             	mov    r9d,edi
    334c:	41 89 d0             	mov    r8d,edx
    334f:	89 f2                	mov    edx,esi
    3351:	be 03 00 00 00       	mov    esi,0x3
    3356:	48 89 c7             	mov    rdi,rax
    3359:	e8 90 fb ff ff       	call   2eee <_ZL15stbtt_setvertexP12stbtt_vertexhiiii>
    335e:	8b 45 f4             	mov    eax,DWORD PTR [rbp-0xc]
    3361:	8d 50 01             	lea    edx,[rax+0x1]
    3364:	89 55 f4             	mov    DWORD PTR [rbp-0xc],edx
    3367:	48 63 d0             	movsxd rdx,eax
    336a:	48 89 d0             	mov    rax,rdx
    336d:	48 c1 e0 03          	shl    rax,0x3
    3371:	48 29 d0             	sub    rax,rdx
    3374:	48 01 c0             	add    rax,rax
    3377:	48 89 c2             	mov    rdx,rax
    337a:	48 8b 45 f8          	mov    rax,QWORD PTR [rbp-0x8]
    337e:	48 8d 3c 02          	lea    rdi,[rdx+rax*1]
    3382:	8b 4d 18             	mov    ecx,DWORD PTR [rbp+0x18]
    3385:	8b 55 e4             	mov    edx,DWORD PTR [rbp-0x1c]
    3388:	8b 45 e8             	mov    eax,DWORD PTR [rbp-0x18]
    338b:	41 89 c9             	mov    r9d,ecx
    338e:	44 8b 45 10          	mov    r8d,DWORD PTR [rbp+0x10]
    3392:	89 d1                	mov    ecx,edx
    3394:	89 c2                	mov    edx,eax
    3396:	be 03 00 00 00       	mov    esi,0x3
    339b:	e8 4e fb ff ff       	call   2eee <_ZL15stbtt_setvertexP12stbtt_vertexhiiii>
    33a0:	e9 90 00 00 00       	jmp    3435 <_ZL18stbtt__close_shapeP12stbtt_vertexiiiiiiiii+0x15a>
    33a5:	83 7d f0 00          	cmp    DWORD PTR [rbp-0x10],0x0
    33a9:	74 46                	je     33f1 <_ZL18stbtt__close_shapeP12stbtt_vertexiiiiiiiii+0x116>
    33ab:	8b 45 f4             	mov    eax,DWORD PTR [rbp-0xc]
    33ae:	8d 50 01             	lea    edx,[rax+0x1]
    33b1:	89 55 f4             	mov    DWORD PTR [rbp-0xc],edx
    33b4:	48 63 d0             	movsxd rdx,eax
    33b7:	48 89 d0             	mov    rax,rdx
    33ba:	48 c1 e0 03          	shl    rax,0x3
    33be:	48 29 d0             	sub    rax,rdx
    33c1:	48 01 c0             	add    rax,rax
    33c4:	48 89 c2             	mov    rdx,rax
    33c7:	48 8b 45 f8          	mov    rax,QWORD PTR [rbp-0x8]
    33cb:	48 8d 3c 02          	lea    rdi,[rdx+rax*1]
    33cf:	8b 75 28             	mov    esi,DWORD PTR [rbp+0x28]
    33d2:	8b 4d 20             	mov    ecx,DWORD PTR [rbp+0x20]
    33d5:	8b 55 e4             	mov    edx,DWORD PTR [rbp-0x1c]
    33d8:	8b 45 e8             	mov    eax,DWORD PTR [rbp-0x18]
    33db:	41 89 f1             	mov    r9d,esi
    33de:	41 89 c8             	mov    r8d,ecx
    33e1:	89 d1                	mov    ecx,edx
    33e3:	89 c2                	mov    edx,eax
    33e5:	be 03 00 00 00       	mov    esi,0x3
    33ea:	e8 ff fa ff ff       	call   2eee <_ZL15stbtt_setvertexP12stbtt_vertexhiiii>
    33ef:	eb 44                	jmp    3435 <_ZL18stbtt__close_shapeP12stbtt_vertexiiiiiiiii+0x15a>
    33f1:	8b 45 f4             	mov    eax,DWORD PTR [rbp-0xc]
    33f4:	8d 50 01             	lea    edx,[rax+0x1]
    33f7:	89 55 f4             	mov    DWORD PTR [rbp-0xc],edx
    33fa:	48 63 d0             	movsxd rdx,eax
    33fd:	48 89 d0             	mov    rax,rdx
    3400:	48 c1 e0 03          	shl    rax,0x3
    3404:	48 29 d0             	sub    rax,rdx
    3407:	48 01 c0             	add    rax,rax
    340a:	48 89 c2             	mov    rdx,rax
    340d:	48 8b 45 f8          	mov    rax,QWORD PTR [rbp-0x8]
    3411:	48 8d 3c 02          	lea    rdi,[rdx+rax*1]
    3415:	8b 55 e4             	mov    edx,DWORD PTR [rbp-0x1c]
    3418:	8b 45 e8             	mov    eax,DWORD PTR [rbp-0x18]
    341b:	41 b9 00 00 00 00    	mov    r9d,0x0
    3421:	41 b8 00 00 00 00    	mov    r8d,0x0
    3427:	89 d1                	mov    ecx,edx
    3429:	89 c2                	mov    edx,eax
    342b:	be 02 00 00 00       	mov    esi,0x2
    3430:	e8 b9 fa ff ff       	call   2eee <_ZL15stbtt_setvertexP12stbtt_vertexhiiii>
    3435:	8b 45 f4             	mov    eax,DWORD PTR [rbp-0xc]
    3438:	c9                   	leave  
    3439:	c3                   	ret    

000000000000343a <_ZL22stbtt__GetGlyphShapeTTPK14stbtt_fontinfoiPP12stbtt_vertex>:
    343a:	55                   	push   rbp
    343b:	48 89 e5             	mov    rbp,rsp
    343e:	48 81 ec f0 00 00 00 	sub    rsp,0xf0
    3445:	48 89 bd 28 ff ff ff 	mov    QWORD PTR [rbp-0xd8],rdi
    344c:	89 b5 24 ff ff ff    	mov    DWORD PTR [rbp-0xdc],esi
    3452:	48 89 95 18 ff ff ff 	mov    QWORD PTR [rbp-0xe8],rdx
    3459:	64 48 8b 04 25 28 00 	mov    rax,QWORD PTR fs:0x28
    3460:	00 00 
    3462:	48 89 45 f8          	mov    QWORD PTR [rbp-0x8],rax
    3466:	31 c0                	xor    eax,eax
    3468:	48 8b 85 28 ff ff ff 	mov    rax,QWORD PTR [rbp-0xd8]
    346f:	48 8b 40 08          	mov    rax,QWORD PTR [rax+0x8]
    3473:	48 89 45 c0          	mov    QWORD PTR [rbp-0x40],rax
    3477:	48 c7 45 b0 00 00 00 	mov    QWORD PTR [rbp-0x50],0x0
    347e:	00 
    347f:	c7 85 40 ff ff ff 00 	mov    DWORD PTR [rbp-0xc0],0x0
    3486:	00 00 00 
    3489:	8b 95 24 ff ff ff    	mov    edx,DWORD PTR [rbp-0xdc]
    348f:	48 8b 85 28 ff ff ff 	mov    rax,QWORD PTR [rbp-0xd8]
    3496:	89 d6                	mov    esi,edx
    3498:	48 89 c7             	mov    rdi,rax
    349b:	e8 aa fa ff ff       	call   2f4a <_ZL20stbtt__GetGlyfOffsetPK14stbtt_fontinfoi>
    34a0:	89 45 80             	mov    DWORD PTR [rbp-0x80],eax
    34a3:	48 8b 85 18 ff ff ff 	mov    rax,QWORD PTR [rbp-0xe8]
    34aa:	48 c7 00 00 00 00 00 	mov    QWORD PTR [rax],0x0
    34b1:	83 7d 80 00          	cmp    DWORD PTR [rbp-0x80],0x0
    34b5:	79 0a                	jns    34c1 <_ZL22stbtt__GetGlyphShapeTTPK14stbtt_fontinfoiPP12stbtt_vertex+0x87>
    34b7:	b8 00 00 00 00       	mov    eax,0x0
    34bc:	e9 11 10 00 00       	jmp    44d2 <_ZL22stbtt__GetGlyphShapeTTPK14stbtt_fontinfoiPP12stbtt_vertex+0x1098>
    34c1:	8b 45 80             	mov    eax,DWORD PTR [rbp-0x80]
    34c4:	48 63 d0             	movsxd rdx,eax
    34c7:	48 8b 45 c0          	mov    rax,QWORD PTR [rbp-0x40]
    34cb:	48 01 d0             	add    rax,rdx
    34ce:	48 89 c7             	mov    rdi,rax
    34d1:	e8 21 e7 ff ff       	call   1bf7 <_ZL7ttSHORTPh>
    34d6:	66 89 85 32 ff ff ff 	mov    WORD PTR [rbp-0xce],ax
    34dd:	66 83 bd 32 ff ff ff 	cmp    WORD PTR [rbp-0xce],0x0
    34e4:	00 
    34e5:	0f 8e 18 09 00 00    	jle    3e03 <_ZL22stbtt__GetGlyphShapeTTPK14stbtt_fontinfoiPP12stbtt_vertex+0x9c9>
    34eb:	c6 85 30 ff ff ff 00 	mov    BYTE PTR [rbp-0xd0],0x0
    34f2:	c7 85 48 ff ff ff 00 	mov    DWORD PTR [rbp-0xb8],0x0
    34f9:	00 00 00 
    34fc:	c7 85 50 ff ff ff 00 	mov    DWORD PTR [rbp-0xb0],0x0
    3503:	00 00 00 
    3506:	c7 85 54 ff ff ff 00 	mov    DWORD PTR [rbp-0xac],0x0
    350d:	00 00 00 
    3510:	8b 45 80             	mov    eax,DWORD PTR [rbp-0x80]
    3513:	48 98                	cdqe   
    3515:	48 8d 50 0a          	lea    rdx,[rax+0xa]
    3519:	48 8b 45 c0          	mov    rax,QWORD PTR [rbp-0x40]
    351d:	48 01 d0             	add    rax,rdx
    3520:	48 89 45 d8          	mov    QWORD PTR [rbp-0x28],rax
    3524:	8b 45 80             	mov    eax,DWORD PTR [rbp-0x80]
    3527:	48 63 d0             	movsxd rdx,eax
    352a:	0f bf 85 32 ff ff ff 	movsx  eax,WORD PTR [rbp-0xce]
    3531:	01 c0                	add    eax,eax
    3533:	48 98                	cdqe   
    3535:	48 01 d0             	add    rax,rdx
    3538:	48 8d 50 0a          	lea    rdx,[rax+0xa]
    353c:	48 8b 45 c0          	mov    rax,QWORD PTR [rbp-0x40]
    3540:	48 01 d0             	add    rax,rdx
    3543:	48 89 c7             	mov    rdi,rax
    3546:	e8 83 e6 ff ff       	call   1bce <_ZL8ttUSHORTPh>
    354b:	0f b7 c0             	movzx  eax,ax
    354e:	89 45 90             	mov    DWORD PTR [rbp-0x70],eax
    3551:	8b 45 80             	mov    eax,DWORD PTR [rbp-0x80]
    3554:	48 63 d0             	movsxd rdx,eax
    3557:	0f bf 85 32 ff ff ff 	movsx  eax,WORD PTR [rbp-0xce]
    355e:	01 c0                	add    eax,eax
    3560:	48 98                	cdqe   
    3562:	48 01 c2             	add    rdx,rax
    3565:	8b 45 90             	mov    eax,DWORD PTR [rbp-0x70]
    3568:	48 98                	cdqe   
    356a:	48 01 d0             	add    rax,rdx
    356d:	48 8d 50 0c          	lea    rdx,[rax+0xc]
    3571:	48 8b 45 c0          	mov    rax,QWORD PTR [rbp-0x40]
    3575:	48 01 d0             	add    rax,rdx
    3578:	48 89 45 b8          	mov    QWORD PTR [rbp-0x48],rax
    357c:	0f bf 85 32 ff ff ff 	movsx  eax,WORD PTR [rbp-0xce]
    3583:	01 c0                	add    eax,eax
    3585:	48 98                	cdqe   
    3587:	48 8d 50 fe          	lea    rdx,[rax-0x2]
    358b:	48 8b 45 d8          	mov    rax,QWORD PTR [rbp-0x28]
    358f:	48 01 d0             	add    rax,rdx
    3592:	48 89 c7             	mov    rdi,rax
    3595:	e8 34 e6 ff ff       	call   1bce <_ZL8ttUSHORTPh>
    359a:	0f b7 c0             	movzx  eax,ax
    359d:	83 c0 01             	add    eax,0x1
    35a0:	89 45 94             	mov    DWORD PTR [rbp-0x6c],eax
    35a3:	0f bf 85 32 ff ff ff 	movsx  eax,WORD PTR [rbp-0xce]
    35aa:	8d 14 00             	lea    edx,[rax+rax*1]
    35ad:	8b 45 94             	mov    eax,DWORD PTR [rbp-0x6c]
    35b0:	01 d0                	add    eax,edx
    35b2:	89 45 98             	mov    DWORD PTR [rbp-0x68],eax
    35b5:	8b 45 98             	mov    eax,DWORD PTR [rbp-0x68]
    35b8:	48 63 d0             	movsxd rdx,eax
    35bb:	48 89 d0             	mov    rax,rdx
    35be:	48 c1 e0 03          	shl    rax,0x3
    35c2:	48 29 d0             	sub    rax,rdx
    35c5:	48 01 c0             	add    rax,rax
    35c8:	48 89 c7             	mov    rdi,rax
    35cb:	e8 00 00 00 00       	call   35d0 <_ZL22stbtt__GetGlyphShapeTTPK14stbtt_fontinfoiPP12stbtt_vertex+0x196>
    35d0:	48 89 45 b0          	mov    QWORD PTR [rbp-0x50],rax
    35d4:	48 83 7d b0 00       	cmp    QWORD PTR [rbp-0x50],0x0
    35d9:	75 0a                	jne    35e5 <_ZL22stbtt__GetGlyphShapeTTPK14stbtt_fontinfoiPP12stbtt_vertex+0x1ab>
    35db:	b8 00 00 00 00       	mov    eax,0x0
    35e0:	e9 ed 0e 00 00       	jmp    44d2 <_ZL22stbtt__GetGlyphShapeTTPK14stbtt_fontinfoiPP12stbtt_vertex+0x1098>
    35e5:	c7 85 4c ff ff ff 00 	mov    DWORD PTR [rbp-0xb4],0x0
    35ec:	00 00 00 
    35ef:	c6 85 31 ff ff ff 00 	mov    BYTE PTR [rbp-0xcf],0x0
    35f6:	8b 45 98             	mov    eax,DWORD PTR [rbp-0x68]
    35f9:	2b 45 94             	sub    eax,DWORD PTR [rbp-0x6c]
    35fc:	89 45 9c             	mov    DWORD PTR [rbp-0x64],eax
    35ff:	c7 85 44 ff ff ff 00 	mov    DWORD PTR [rbp-0xbc],0x0
    3606:	00 00 00 
    3609:	8b 85 44 ff ff ff    	mov    eax,DWORD PTR [rbp-0xbc]
    360f:	3b 45 94             	cmp    eax,DWORD PTR [rbp-0x6c]
    3612:	0f 8d 85 00 00 00    	jge    369d <_ZL22stbtt__GetGlyphShapeTTPK14stbtt_fontinfoiPP12stbtt_vertex+0x263>
    3618:	80 bd 31 ff ff ff 00 	cmp    BYTE PTR [rbp-0xcf],0x0
    361f:	75 3a                	jne    365b <_ZL22stbtt__GetGlyphShapeTTPK14stbtt_fontinfoiPP12stbtt_vertex+0x221>
    3621:	48 8b 45 b8          	mov    rax,QWORD PTR [rbp-0x48]
    3625:	48 8d 50 01          	lea    rdx,[rax+0x1]
    3629:	48 89 55 b8          	mov    QWORD PTR [rbp-0x48],rdx
    362d:	0f b6 00             	movzx  eax,BYTE PTR [rax]
    3630:	88 85 30 ff ff ff    	mov    BYTE PTR [rbp-0xd0],al
    3636:	0f b6 85 30 ff ff ff 	movzx  eax,BYTE PTR [rbp-0xd0]
    363d:	83 e0 08             	and    eax,0x8
    3640:	85 c0                	test   eax,eax
    3642:	74 1e                	je     3662 <_ZL22stbtt__GetGlyphShapeTTPK14stbtt_fontinfoiPP12stbtt_vertex+0x228>
    3644:	48 8b 45 b8          	mov    rax,QWORD PTR [rbp-0x48]
    3648:	48 8d 50 01          	lea    rdx,[rax+0x1]
    364c:	48 89 55 b8          	mov    QWORD PTR [rbp-0x48],rdx
    3650:	0f b6 00             	movzx  eax,BYTE PTR [rax]
    3653:	88 85 31 ff ff ff    	mov    BYTE PTR [rbp-0xcf],al
    3659:	eb 07                	jmp    3662 <_ZL22stbtt__GetGlyphShapeTTPK14stbtt_fontinfoiPP12stbtt_vertex+0x228>
    365b:	80 ad 31 ff ff ff 01 	sub    BYTE PTR [rbp-0xcf],0x1
    3662:	8b 55 9c             	mov    edx,DWORD PTR [rbp-0x64]
    3665:	8b 85 44 ff ff ff    	mov    eax,DWORD PTR [rbp-0xbc]
    366b:	01 d0                	add    eax,edx
    366d:	48 63 d0             	movsxd rdx,eax
    3670:	48 89 d0             	mov    rax,rdx
    3673:	48 c1 e0 03          	shl    rax,0x3
    3677:	48 29 d0             	sub    rax,rdx
    367a:	48 01 c0             	add    rax,rax
    367d:	48 89 c2             	mov    rdx,rax
    3680:	48 8b 45 b0          	mov    rax,QWORD PTR [rbp-0x50]
    3684:	48 01 c2             	add    rdx,rax
    3687:	0f b6 85 30 ff ff ff 	movzx  eax,BYTE PTR [rbp-0xd0]
    368e:	88 42 0c             	mov    BYTE PTR [rdx+0xc],al
    3691:	83 85 44 ff ff ff 01 	add    DWORD PTR [rbp-0xbc],0x1
    3698:	e9 6c ff ff ff       	jmp    3609 <_ZL22stbtt__GetGlyphShapeTTPK14stbtt_fontinfoiPP12stbtt_vertex+0x1cf>
    369d:	c7 85 58 ff ff ff 00 	mov    DWORD PTR [rbp-0xa8],0x0
    36a4:	00 00 00 
    36a7:	c7 85 44 ff ff ff 00 	mov    DWORD PTR [rbp-0xbc],0x0
    36ae:	00 00 00 
    36b1:	8b 85 44 ff ff ff    	mov    eax,DWORD PTR [rbp-0xbc]
    36b7:	3b 45 94             	cmp    eax,DWORD PTR [rbp-0x6c]
    36ba:	0f 8d f1 00 00 00    	jge    37b1 <_ZL22stbtt__GetGlyphShapeTTPK14stbtt_fontinfoiPP12stbtt_vertex+0x377>
    36c0:	8b 55 9c             	mov    edx,DWORD PTR [rbp-0x64]
    36c3:	8b 85 44 ff ff ff    	mov    eax,DWORD PTR [rbp-0xbc]
    36c9:	01 d0                	add    eax,edx
    36cb:	48 63 d0             	movsxd rdx,eax
    36ce:	48 89 d0             	mov    rax,rdx
    36d1:	48 c1 e0 03          	shl    rax,0x3
    36d5:	48 29 d0             	sub    rax,rdx
    36d8:	48 01 c0             	add    rax,rax
    36db:	48 89 c2             	mov    rdx,rax
    36de:	48 8b 45 b0          	mov    rax,QWORD PTR [rbp-0x50]
    36e2:	48 01 d0             	add    rax,rdx
    36e5:	0f b6 40 0c          	movzx  eax,BYTE PTR [rax+0xc]
    36e9:	88 85 30 ff ff ff    	mov    BYTE PTR [rbp-0xd0],al
    36ef:	0f b6 85 30 ff ff ff 	movzx  eax,BYTE PTR [rbp-0xd0]
    36f6:	83 e0 02             	and    eax,0x2
    36f9:	85 c0                	test   eax,eax
    36fb:	74 41                	je     373e <_ZL22stbtt__GetGlyphShapeTTPK14stbtt_fontinfoiPP12stbtt_vertex+0x304>
    36fd:	48 8b 45 b8          	mov    rax,QWORD PTR [rbp-0x48]
    3701:	48 8d 50 01          	lea    rdx,[rax+0x1]
    3705:	48 89 55 b8          	mov    QWORD PTR [rbp-0x48],rdx
    3709:	0f b6 00             	movzx  eax,BYTE PTR [rax]
    370c:	0f b6 c0             	movzx  eax,al
    370f:	66 89 85 3c ff ff ff 	mov    WORD PTR [rbp-0xc4],ax
    3716:	0f b6 85 30 ff ff ff 	movzx  eax,BYTE PTR [rbp-0xd0]
    371d:	83 e0 10             	and    eax,0x10
    3720:	85 c0                	test   eax,eax
    3722:	74 09                	je     372d <_ZL22stbtt__GetGlyphShapeTTPK14stbtt_fontinfoiPP12stbtt_vertex+0x2f3>
    3724:	0f bf 85 3c ff ff ff 	movsx  eax,WORD PTR [rbp-0xc4]
    372b:	eb 09                	jmp    3736 <_ZL22stbtt__GetGlyphShapeTTPK14stbtt_fontinfoiPP12stbtt_vertex+0x2fc>
    372d:	0f bf 85 3c ff ff ff 	movsx  eax,WORD PTR [rbp-0xc4]
    3734:	f7 d8                	neg    eax
    3736:	01 85 58 ff ff ff    	add    DWORD PTR [rbp-0xa8],eax
    373c:	eb 39                	jmp    3777 <_ZL22stbtt__GetGlyphShapeTTPK14stbtt_fontinfoiPP12stbtt_vertex+0x33d>
    373e:	0f b6 85 30 ff ff ff 	movzx  eax,BYTE PTR [rbp-0xd0]
    3745:	83 e0 10             	and    eax,0x10
    3748:	85 c0                	test   eax,eax
    374a:	75 2b                	jne    3777 <_ZL22stbtt__GetGlyphShapeTTPK14stbtt_fontinfoiPP12stbtt_vertex+0x33d>
    374c:	48 8b 45 b8          	mov    rax,QWORD PTR [rbp-0x48]
    3750:	0f b6 00             	movzx  eax,BYTE PTR [rax]
    3753:	0f b6 c0             	movzx  eax,al
    3756:	c1 e0 08             	shl    eax,0x8
    3759:	89 c2                	mov    edx,eax
    375b:	48 8b 45 b8          	mov    rax,QWORD PTR [rbp-0x48]
    375f:	48 83 c0 01          	add    rax,0x1
    3763:	0f b6 00             	movzx  eax,BYTE PTR [rax]
    3766:	0f b6 c0             	movzx  eax,al
    3769:	01 d0                	add    eax,edx
    376b:	98                   	cwde   
    376c:	01 85 58 ff ff ff    	add    DWORD PTR [rbp-0xa8],eax
    3772:	48 83 45 b8 02       	add    QWORD PTR [rbp-0x48],0x2
    3777:	8b 55 9c             	mov    edx,DWORD PTR [rbp-0x64]
    377a:	8b 85 44 ff ff ff    	mov    eax,DWORD PTR [rbp-0xbc]
    3780:	01 d0                	add    eax,edx
    3782:	48 63 d0             	movsxd rdx,eax
    3785:	48 89 d0             	mov    rax,rdx
    3788:	48 c1 e0 03          	shl    rax,0x3
    378c:	48 29 d0             	sub    rax,rdx
    378f:	48 01 c0             	add    rax,rax
    3792:	48 89 c2             	mov    rdx,rax
    3795:	48 8b 45 b0          	mov    rax,QWORD PTR [rbp-0x50]
    3799:	48 01 d0             	add    rax,rdx
    379c:	8b 95 58 ff ff ff    	mov    edx,DWORD PTR [rbp-0xa8]
    37a2:	66 89 10             	mov    WORD PTR [rax],dx
    37a5:	83 85 44 ff ff ff 01 	add    DWORD PTR [rbp-0xbc],0x1
    37ac:	e9 00 ff ff ff       	jmp    36b1 <_ZL22stbtt__GetGlyphShapeTTPK14stbtt_fontinfoiPP12stbtt_vertex+0x277>
    37b1:	c7 85 5c ff ff ff 00 	mov    DWORD PTR [rbp-0xa4],0x0
    37b8:	00 00 00 
    37bb:	c7 85 44 ff ff ff 00 	mov    DWORD PTR [rbp-0xbc],0x0
    37c2:	00 00 00 
    37c5:	8b 85 44 ff ff ff    	mov    eax,DWORD PTR [rbp-0xbc]
    37cb:	3b 45 94             	cmp    eax,DWORD PTR [rbp-0x6c]
    37ce:	0f 8d f2 00 00 00    	jge    38c6 <_ZL22stbtt__GetGlyphShapeTTPK14stbtt_fontinfoiPP12stbtt_vertex+0x48c>
    37d4:	8b 55 9c             	mov    edx,DWORD PTR [rbp-0x64]
    37d7:	8b 85 44 ff ff ff    	mov    eax,DWORD PTR [rbp-0xbc]
    37dd:	01 d0                	add    eax,edx
    37df:	48 63 d0             	movsxd rdx,eax
    37e2:	48 89 d0             	mov    rax,rdx
    37e5:	48 c1 e0 03          	shl    rax,0x3
    37e9:	48 29 d0             	sub    rax,rdx
    37ec:	48 01 c0             	add    rax,rax
    37ef:	48 89 c2             	mov    rdx,rax
    37f2:	48 8b 45 b0          	mov    rax,QWORD PTR [rbp-0x50]
    37f6:	48 01 d0             	add    rax,rdx
    37f9:	0f b6 40 0c          	movzx  eax,BYTE PTR [rax+0xc]
    37fd:	88 85 30 ff ff ff    	mov    BYTE PTR [rbp-0xd0],al
    3803:	0f b6 85 30 ff ff ff 	movzx  eax,BYTE PTR [rbp-0xd0]
    380a:	83 e0 04             	and    eax,0x4
    380d:	85 c0                	test   eax,eax
    380f:	74 41                	je     3852 <_ZL22stbtt__GetGlyphShapeTTPK14stbtt_fontinfoiPP12stbtt_vertex+0x418>
    3811:	48 8b 45 b8          	mov    rax,QWORD PTR [rbp-0x48]
    3815:	48 8d 50 01          	lea    rdx,[rax+0x1]
    3819:	48 89 55 b8          	mov    QWORD PTR [rbp-0x48],rdx
    381d:	0f b6 00             	movzx  eax,BYTE PTR [rax]
    3820:	0f b6 c0             	movzx  eax,al
    3823:	66 89 85 3e ff ff ff 	mov    WORD PTR [rbp-0xc2],ax
    382a:	0f b6 85 30 ff ff ff 	movzx  eax,BYTE PTR [rbp-0xd0]
    3831:	83 e0 20             	and    eax,0x20
    3834:	85 c0                	test   eax,eax
    3836:	74 09                	je     3841 <_ZL22stbtt__GetGlyphShapeTTPK14stbtt_fontinfoiPP12stbtt_vertex+0x407>
    3838:	0f bf 85 3e ff ff ff 	movsx  eax,WORD PTR [rbp-0xc2]
    383f:	eb 09                	jmp    384a <_ZL22stbtt__GetGlyphShapeTTPK14stbtt_fontinfoiPP12stbtt_vertex+0x410>
    3841:	0f bf 85 3e ff ff ff 	movsx  eax,WORD PTR [rbp-0xc2]
    3848:	f7 d8                	neg    eax
    384a:	01 85 5c ff ff ff    	add    DWORD PTR [rbp-0xa4],eax
    3850:	eb 39                	jmp    388b <_ZL22stbtt__GetGlyphShapeTTPK14stbtt_fontinfoiPP12stbtt_vertex+0x451>
    3852:	0f b6 85 30 ff ff ff 	movzx  eax,BYTE PTR [rbp-0xd0]
    3859:	83 e0 20             	and    eax,0x20
    385c:	85 c0                	test   eax,eax
    385e:	75 2b                	jne    388b <_ZL22stbtt__GetGlyphShapeTTPK14stbtt_fontinfoiPP12stbtt_vertex+0x451>
    3860:	48 8b 45 b8          	mov    rax,QWORD PTR [rbp-0x48]
    3864:	0f b6 00             	movzx  eax,BYTE PTR [rax]
    3867:	0f b6 c0             	movzx  eax,al
    386a:	c1 e0 08             	shl    eax,0x8
    386d:	89 c2                	mov    edx,eax
    386f:	48 8b 45 b8          	mov    rax,QWORD PTR [rbp-0x48]
    3873:	48 83 c0 01          	add    rax,0x1
    3877:	0f b6 00             	movzx  eax,BYTE PTR [rax]
    387a:	0f b6 c0             	movzx  eax,al
    387d:	01 d0                	add    eax,edx
    387f:	98                   	cwde   
    3880:	01 85 5c ff ff ff    	add    DWORD PTR [rbp-0xa4],eax
    3886:	48 83 45 b8 02       	add    QWORD PTR [rbp-0x48],0x2
    388b:	8b 55 9c             	mov    edx,DWORD PTR [rbp-0x64]
    388e:	8b 85 44 ff ff ff    	mov    eax,DWORD PTR [rbp-0xbc]
    3894:	01 d0                	add    eax,edx
    3896:	48 63 d0             	movsxd rdx,eax
    3899:	48 89 d0             	mov    rax,rdx
    389c:	48 c1 e0 03          	shl    rax,0x3
    38a0:	48 29 d0             	sub    rax,rdx
    38a3:	48 01 c0             	add    rax,rax
    38a6:	48 89 c2             	mov    rdx,rax
    38a9:	48 8b 45 b0          	mov    rax,QWORD PTR [rbp-0x50]
    38ad:	48 01 d0             	add    rax,rdx
    38b0:	8b 95 5c ff ff ff    	mov    edx,DWORD PTR [rbp-0xa4]
    38b6:	66 89 50 02          	mov    WORD PTR [rax+0x2],dx
    38ba:	83 85 44 ff ff ff 01 	add    DWORD PTR [rbp-0xbc],0x1
    38c1:	e9 ff fe ff ff       	jmp    37c5 <_ZL22stbtt__GetGlyphShapeTTPK14stbtt_fontinfoiPP12stbtt_vertex+0x38b>
    38c6:	c7 85 40 ff ff ff 00 	mov    DWORD PTR [rbp-0xc0],0x0
    38cd:	00 00 00 
    38d0:	c7 85 74 ff ff ff 00 	mov    DWORD PTR [rbp-0x8c],0x0
    38d7:	00 00 00 
    38da:	8b 85 74 ff ff ff    	mov    eax,DWORD PTR [rbp-0x8c]
    38e0:	89 85 70 ff ff ff    	mov    DWORD PTR [rbp-0x90],eax
    38e6:	8b 85 70 ff ff ff    	mov    eax,DWORD PTR [rbp-0x90]
    38ec:	89 85 64 ff ff ff    	mov    DWORD PTR [rbp-0x9c],eax
    38f2:	8b 85 64 ff ff ff    	mov    eax,DWORD PTR [rbp-0x9c]
    38f8:	89 85 60 ff ff ff    	mov    DWORD PTR [rbp-0xa0],eax
    38fe:	8b 85 60 ff ff ff    	mov    eax,DWORD PTR [rbp-0xa0]
    3904:	89 85 6c ff ff ff    	mov    DWORD PTR [rbp-0x94],eax
    390a:	8b 85 6c ff ff ff    	mov    eax,DWORD PTR [rbp-0x94]
    3910:	89 85 68 ff ff ff    	mov    DWORD PTR [rbp-0x98],eax
    3916:	c7 85 44 ff ff ff 00 	mov    DWORD PTR [rbp-0xbc],0x0
    391d:	00 00 00 
